
C:/Users/nandg/Desktop/FE310-G003/sifive_hifive1_revb_sifive_welcome/src/debug/sifive-welcome.elf:     file format elf32-littleriscv
C:/Users/nandg/Desktop/FE310-G003/sifive_hifive1_revb_sifive_welcome/src/debug/sifive-welcome.elf
architecture: riscv:rv32, flags 0x00000112:
EXEC_P, HAS_SYMS, D_PAGED
start address 0x20010000

Program Header:
    LOAD off    0x00001000 vaddr 0x20010000 paddr 0x20010000 align 2**12
         filesz 0x0000106c memsz 0x0000106c flags rwx
    LOAD off    0x00009000 vaddr 0x80000000 paddr 0x20017558 align 2**12
         filesz 0x00000ac8 memsz 0x00000ac8 flags rw-
     TLS off    0x00000000 vaddr 0x00000000 paddr 0x00000000 align 2**2
         filesz 0x00000000 memsz 0x00000000 flags ---
    LOAD off    0x00000ac8 vaddr 0x80000ac8 paddr 0x80000ac8 align 2**12
         filesz 0x00000000 memsz 0x00000ca8 flags rw-
    LOAD off    0x00000114 vaddr 0x00000000 paddr 0x00000000 align 2**12
         filesz 0x00000000 memsz 0x00000000 flags ---
    LOAD off    0x00002080 vaddr 0x20011080 paddr 0x20011080 align 2**12
         filesz 0x000064d4 memsz 0x000064d4 flags r-x
    LOAD off    0x00000114 vaddr 0x00000000 paddr 0x00000000 align 2**12
         filesz 0x00000000 memsz 0x00000000 flags ---

Sections:
Idx Name              Size      VMA       LMA       File off  Algn  Flags
  0 .init             000002dc  20010000  20010000  00001000  2**4  CONTENTS, ALLOC, LOAD, READONLY, CODE
  1 .init_array       0000000c  200102e0  200102e0  000012e0  2**3  CONTENTS, ALLOC, LOAD, DATA
  2 .ctors            0000007a  200102ec  200102ec  000012ec  2**1  CONTENTS, ALLOC, LOAD, READONLY, CODE
  3 .rodata           00000d04  20010368  20010368  00001368  2**2  CONTENTS, ALLOC, LOAD, READONLY, DATA
  4 .text             000064d4  20011080  20011080  00002080  2**7  CONTENTS, ALLOC, LOAD, READONLY, CODE
  5 .data             00000ac8  80000000  20017558  00009000  2**3  CONTENTS, ALLOC, LOAD, DATA
  6 .bss              000000a4  80000ac8  80000ac8  00009ac8  2**3  ALLOC
  7 .stack            00000400  80000b70  80000b70  00009ac8  2**4  ALLOC
  8 .heap             00000800  80000f70  80000f70  00009ac8  2**3  ALLOC
  9 .debug_info       00024674  00000000  00000000  00009ac8  2**0  CONTENTS, READONLY, DEBUGGING, OCTETS
 10 .debug_abbrev     00003168  00000000  00000000  0002e13c  2**0  CONTENTS, READONLY, DEBUGGING, OCTETS
 11 .debug_aranges    00000ca8  00000000  00000000  000312a8  2**3  CONTENTS, READONLY, DEBUGGING, OCTETS
 12 .debug_ranges     00000c10  00000000  00000000  00031f50  2**3  CONTENTS, READONLY, DEBUGGING, OCTETS
 13 .debug_line       0000c4b1  00000000  00000000  00032b60  2**0  CONTENTS, READONLY, DEBUGGING, OCTETS
 14 .debug_str        0000548d  00000000  00000000  0003f011  2**0  CONTENTS, READONLY, DEBUGGING, OCTETS
 15 .comment          00000030  00000000  00000000  0004449e  2**0  CONTENTS, READONLY
 16 .riscv.attributes 0000002f  00000000  00000000  000444ce  2**0  CONTENTS, READONLY
 17 .debug_frame      00003150  00000000  00000000  00044500  2**2  CONTENTS, READONLY, DEBUGGING, OCTETS
 18 .debug_loc        00001565  00000000  00000000  00047650  2**0  CONTENTS, READONLY, DEBUGGING, OCTETS
SYMBOL TABLE:
20010000 l    d  .init	00000000 .init
200102e0 l    d  .init_array	00000000 .init_array
200102ec l    d  .ctors	00000000 .ctors
20010368 l    d  .rodata	00000000 .rodata
20011080 l    d  .text	00000000 .text
80000000 l    d  .data	00000000 .data
80000ac8 l    d  .bss	00000000 .bss
80000b70 l    d  .stack	00000000 .stack
80000f70 l    d  .heap	00000000 .heap
00000000 l    d  .debug_info	00000000 .debug_info
00000000 l    d  .debug_abbrev	00000000 .debug_abbrev
00000000 l    d  .debug_aranges	00000000 .debug_aranges
00000000 l    d  .debug_ranges	00000000 .debug_ranges
00000000 l    d  .debug_line	00000000 .debug_line
00000000 l    d  .debug_str	00000000 .debug_str
00000000 l    d  .comment	00000000 .comment
00000000 l    d  .riscv.attributes	00000000 .riscv.attributes
00000000 l    d  .debug_frame	00000000 .debug_frame
00000000 l    d  .debug_loc	00000000 .debug_loc
00000000 l    df *ABS*	00000000 scrub.o
200100c0 l     F .init	00000000 __metal_memory_scrub
2001012e l       .init	00000000 skip_scrub
00000000 l    df *ABS*	00000000 synchronize_harts.c
00000000 l    df *ABS*	00000000 crt0.o
20010240 l       .init	00000000 _skip_init
20010f30 l       .rodata	00000000 argv
20010f34 l       .rodata	00000000 envp
20010f38 l       .rodata	00000000 name
00000000 l    df *ABS*	00000000 sifive_fe310-g000_pll.c
20014a94 l     F .text	0000001a __metal_driver_sifive_fe310_g000_pll_pllsel0
20014aae l     F .text	0000001a __metal_driver_sifive_fe310_g000_pll_pllref
20014ac8 l     F .text	00000016 __metal_driver_sifive_fe310_g000_pll_divider_base
20014ade l     F .text	00000014 __metal_driver_sifive_fe310_g000_pll_divider_offset
20014af2 l     F .text	00000012 __metal_driver_sifive_fe310_g000_pll_config_base
20014b04 l     F .text	00000010 __metal_driver_sifive_fe310_g000_pll_config_offset
20014b14 l     F .text	00000016 __metal_driver_sifive_fe310_g000_pll_init_rate
20014b2a l     F .text	00000012 __metal_driver_sifive_fe310_g000_prci_base
20014b3c l     F .text	00000016 __metal_driver_sifive_fe310_g000_prci_vtable
200105e8 l     O .rodata	00000880 pll_configs
20014b52 l     F .text	0000004e get_pll_config_freq
20014db4 l     F .text	000000ac find_closest_config
20014e60 l     F .text	000001b0 configure_pll
00000000 l    df *ABS*	00000000 tty.c
00000000 l    df *ABS*	00000000 sifive-welcome.c
00000000 l    df *ABS*	00000000 findfp.c
20011606 l     F .text	00000068 std
00000000 l    df *ABS*	00000000 riscv_clint0.c
20011e7a l     F .text	0000002a __metal_driver_sifive_clint0_control_base
20011ea4 l     F .text	00000028 __metal_driver_sifive_clint0_num_interrupts
20011ecc l     F .text	0000003c __metal_driver_sifive_clint0_interrupt_parents
20011f08 l     F .text	00000030 __metal_driver_sifive_clint0_interrupt_lines
20012068 l     F .text	00000036 _get_cpu_intc
00000000 l    df *ABS*	00000000 riscv_cpu.c
200125a6 l     F .text	00000024 __metal_driver_cpu_hartid
200125ca l     F .text	0000002a __metal_driver_cpu_timebase
200125f4 l     F .text	0000002a __metal_driver_cpu_interrupt_controller
2001261e l     F .text	00000024 __metal_driver_cpu_buserror
00000000 l    df *ABS*	00000000 riscv_plic0.c
20013fea l     F .text	0000002a __metal_driver_sifive_plic0_control_base
20014014 l     F .text	0000002a __metal_driver_sifive_plic0_num_interrupts
2001403e l     F .text	00000028 __metal_driver_sifive_plic0_max_priority
20014066 l     F .text	00000028 __metal_driver_sifive_plic0_interrupt_parents
2001408e l     F .text	00000022 __metal_driver_sifive_plic0_interrupt_lines
200140b0 l     F .text	0000001e __metal_driver_sifive_plic0_context_ids
00000000 l    df *ABS*	00000000 sifive_gpio0.c
200151ee l     F .text	00000026 __metal_driver_sifive_gpio0_base
20015214 l     F .text	0000002a __metal_driver_sifive_gpio0_interrupt_parent
2001523e l     F .text	0000035e __metal_driver_sifive_gpio0_interrupt_lines
00000000 l    df *ABS*	00000000 sifive_uart0.c
20015c4c l     F .text	00000040 __metal_driver_sifive_uart0_control_base
20015c8c l     F .text	00000048 __metal_driver_sifive_uart0_interrupt_parent
20015cd4 l     F .text	0000003c __metal_driver_sifive_uart0_interrupt_line
20015d10 l     F .text	00000048 __metal_driver_sifive_uart0_clock
20015d58 l     F .text	00000040 __metal_driver_sifive_uart0_pinmux
20015d98 l     F .text	0000003c __metal_driver_sifive_uart0_pinmux_output_selector
20015dd4 l     F .text	00000040 __metal_driver_sifive_uart0_pinmux_source_selector
200161b0 l     F .text	000000da pre_rate_change_callback_func
2001628a l     F .text	0000002e post_rate_change_callback_func
00000000 l    df *ABS*	00000000 libgcc2.c
00000000 l    df *ABS*	00000000 impure.c
80000000 l     O .data	00000060 impure_data
00000000 l    df *ABS*	00000000 sifive_fe310-g000_hfrosc.c
200148a4 l     F .text	0000001a __metal_driver_sifive_fe310_g000_hfrosc_ref
200148be l     F .text	00000016 __metal_driver_sifive_fe310_g000_hfrosc_config_base
200148d4 l     F .text	00000014 __metal_driver_sifive_fe310_g000_hfrosc_config_offset
200148e8 l     F .text	00000016 __metal_driver_sifive_fe310_g000_prci_vtable
00000000 l    df *ABS*	00000000 sifive_fe310-g000_hfxosc.c
200149a4 l     F .text	0000001a __metal_driver_sifive_fe310_g000_hfxosc_ref
200149be l     F .text	00000016 __metal_driver_sifive_fe310_g000_hfxosc_config_base
200149d4 l     F .text	00000014 __metal_driver_sifive_fe310_g000_hfxosc_config_offset
200149e8 l     F .text	00000016 __metal_driver_sifive_fe310_g000_prci_vtable
00000000 l    df *ABS*	00000000 sifive_fe310-g000_prci.c
20015176 l     F .text	00000012 __metal_driver_sifive_fe310_g000_prci_base
00000000 l    df *ABS*	00000000 fixed-clock.c
20016700 l     F .text	00000070 __metal_driver_fixed_clock_rate
00000000 l    df *ABS*	00000000 clock.c
00000000 l    df *ABS*	00000000 puts.c
00000000 l    df *ABS*	00000000 timesr.c
00000000 l    df *ABS*	00000000 wbuf.c
00000000 l    df *ABS*	00000000 wsetup.c
00000000 l    df *ABS*	00000000 fflush.c
00000000 l    df *ABS*	00000000 fwalk.c
00000000 l    df *ABS*	00000000 makebuf.c
00000000 l    df *ABS*	00000000 nano-mallocr.c
00000000 l    df *ABS*	00000000 nano-mallocr.c
00000000 l    df *ABS*	00000000 sbrkr.c
00000000 l    df *ABS*	00000000 stdio.c
00000000 l    df *ABS*	00000000 writer.c
00000000 l    df *ABS*	00000000 closer.c
00000000 l    df *ABS*	00000000 fstatr.c
00000000 l    df *ABS*	00000000 isattyr.c
00000000 l    df *ABS*	00000000 lseekr.c
00000000 l    df *ABS*	00000000 mlock.c
00000000 l    df *ABS*	00000000 readr.c
00000000 l    df *ABS*	00000000 gpio.c
00000000 l    df *ABS*	00000000 clock.c
00000000 l    df *ABS*	00000000 cpu.c
00000000 l    df *ABS*	00000000 shutdown.c
00000000 l    df *ABS*	00000000 uart.c
00000000 l    df *ABS*	00000000 vector.o
20016680 l       .text	00000000 IRQ_0
20016684 l       .text	00000000 IRQ_1
20016688 l       .text	00000000 IRQ_2
2001668c l       .text	00000000 IRQ_3
20016690 l       .text	00000000 IRQ_4
20016694 l       .text	00000000 IRQ_5
20016698 l       .text	00000000 IRQ_6
2001669c l       .text	00000000 IRQ_7
200166a0 l       .text	00000000 IRQ_8
200166a4 l       .text	00000000 IRQ_9
200166a8 l       .text	00000000 IRQ_10
200166ac l       .text	00000000 IRQ_11
200166b0 l       .text	00000000 IRQ_12
200166b4 l       .text	00000000 IRQ_13
200166b8 l       .text	00000000 IRQ_14
200166bc l       .text	00000000 IRQ_15
200166c0 l       .text	00000000 IRQ_LC0
200166c4 l       .text	00000000 IRQ_LC1
200166c8 l       .text	00000000 IRQ_LC2
200166cc l       .text	00000000 IRQ_LC3
200166d0 l       .text	00000000 IRQ_LC4
200166d4 l       .text	00000000 IRQ_LC5
200166d8 l       .text	00000000 IRQ_LC6
200166dc l       .text	00000000 IRQ_LC7
200166e0 l       .text	00000000 IRQ_LC8
200166e4 l       .text	00000000 IRQ_LC9
200166e8 l       .text	00000000 IRQ_LC10
200166ec l       .text	00000000 IRQ_LC11
200166f0 l       .text	00000000 IRQ_LC12
200166f4 l       .text	00000000 IRQ_LC13
200166f8 l       .text	00000000 IRQ_LC14
200166fc l       .text	00000000 IRQ_LC15
00000000 l    df *ABS*	00000000 timer.c
00000000 l    df *ABS*	00000000 sys_close.c
00000000 l    df *ABS*	00000000 sys_fstat.c
00000000 l    df *ABS*	00000000 sys_isatty.c
00000000 l    df *ABS*	00000000 sys_lseek.c
00000000 l    df *ABS*	00000000 sys_read.c
00000000 l    df *ABS*	00000000 sys_sbrk.c
80000ac4 l     O .data	00000004 __brk
00000000 l    df *ABS*	00000000 sys_times.c
20016966 l     F .text	000000e0 muldiv
00000000 l    df *ABS*	00000000 sys_write.c
00000000 l    df *ABS*	00000000 atexit.c
00000000 l    df *ABS*	00000000 errno.c
00000000 l    df *ABS*	00000000 exit.c
00000000 l    df *ABS*	00000000 fini.c
00000000 l    df *ABS*	00000000 init.c
00000000 l    df *ABS*	00000000 __atexit.c
80000ae0 l     O .bss	0000008c _global_atexit0
00000000 l    df *ABS*	00000000 __call_atexit.c
00000000 l    df *ABS*	00000000 libgcc2.c
00000000 l    df *ABS*	00000000 libgcc2.c
00000000 l    df *ABS*	00000000 init.c
80000ad8 l     O .bss	00000004 init_done.1
80000adc l     O .bss	00000004 fini_done.0
00000000 l    df *ABS*	00000000 sys_exit.c
00000000 l    df *ABS*	00000000 inline.c
00000000 l    df *ABS*	00000000 
200102ec l       .init_array	00000000 metal_constructors_end
200102f0 l       .init_array	00000000 __fini_array_end
200102f0 l       .init_array	00000000 metal_destructors_end
200102f0 l       .init_array	00000000 metal_destructors_start
200102f0 l       .init_array	00000000 __fini_array_start
200102e0 l       .init_array	00000000 __init_array_end
200102e0 l       .init_array	00000000 __preinit_array_end
200102e0 l       .init_array	00000000 __init_array_start
200102e0 l       .init_array	00000000 metal_constructors_start
200102e0 l       .init_array	00000000 __preinit_array_start
20010ef0 g     O .rodata	00000040 __metal_driver_vtable_sifive_uart0
20011cc4 g     F .text	00000030 _isatty_r
20012ed0  w    F .text	00000096 metal_lc4_interrupt_vector_handler
200111a6 g     F .text	000000da _puts_r
20011cf4 g     F .text	00000034 _lseek_r
2001641e g     F .text	00000026 metal_clock_get_rate_hz
20016110 g     F .text	000000a0 __metal_driver_sifive_uart0_set_baud_rate
20012244 g     F .text	00000058 __metal_driver_riscv_clint0_set_vector_mode
20015f66 g     F .text	0000004a __metal_driver_sifive_uart0_set_tx_watermark
20012e3a  w    F .text	00000096 metal_lc3_interrupt_vector_handler
200136e2 g     F .text	00000058 __metal_valid_interrupt_id
200102e4 g     O .init_array	00000004 _use_hfxosc_ptr
20013b5a g     F .text	0000001c __metal_driver_riscv_cpu_controller_get_vector_mode
800012a0 g       .data	00000000 __global_pointer$
20010342 g     F .ctors	00000024 metal_tty_init
200163ca g     F .text	00000054 _metal_clock_append_to_callbacks
2001410a g     F .text	00000046 __metal_plic0_complete_interrupt
20013926 g     F .text	000001e0 __metal_driver_riscv_cpu_controller_interrupt_register
200102e0 g     O .init_array	00000004 _metal_sifive_fe310_g000_pll_init_ptr
20011bf2 g     F .text	00000036 __sseek
200116bc g     F .text	0000006a __sinit
20011292 g     F .text	000000c0 __swbuf_r
80000ac8 g       .data	00000000 __tls_base
20011678 g     F .text	00000044 __sfmoreglue
20011d2a g     F .text	00000002 __malloc_unlock
20016568 g     F .text	0000002e metal_cpu_get
80000a38 g     O .data	00000020 __metal_dt_serial_10013000
20015826 g     F .text	0000004a __metal_driver_sifive_gpio0_disable_io
200103f8 g     O .rodata	00000064 __metal_driver_vtable_riscv_clint0
80000b6c g       .bss	00000000 metal_segment_bss_target_end
20011f38 g     F .text	0000009a __metal_clint0_mtime_get
20013f5e g     F .text	0000002e __metal_driver_cpu_get_instruction_length
00000001 g       *ABS*	00000000 __metal_chicken_bit
2001602a g     F .text	00000030 __metal_driver_sifive_uart0_get_rx_watermark
200155dc g     F .text	00000046 __metal_driver_sifive_gpio0_disable_input
20016b50 g     F .text	0000000a __errno
08000000 g       .rodata	00000000 metal_segment_itim_target_start
20016a46  w    F .text	00000090 times
20016518 g     F .text	0000002a metal_cpu_get_timebase
20015f36 g     F .text	00000030 __metal_driver_sifive_uart0_txready
20015ec4 g     F .text	0000003a __metal_driver_sifive_uart0_rx_interrupt_enable
20011d60 g     F .text	00000040 metal_gpio_enable_output
20010142 g     F .init	0000000e __metal_synchronize_harts
80000ac8 g       .data	00000000 metal_segment_bss_target_start
20011fd2 g     F .text	00000096 __metal_driver_riscv_clint0_mtimecmp_set
20011c92 g     F .text	00000032 _fstat_r
20015a76 g     F .text	00000188 __metal_driver_sifive_gpio0_clear_int
80000ad0 g     O .bss	00000004 errno
20014c44 g     F .text	00000170 __metal_driver_sifive_fe310_g000_pll_get_rate_hz
00000400 g       *ABS*	00000000 __stack_size
2001648c g     F .text	00000030 metal_clock_register_pre_rate_change_callback
200131be  w    F .text	00000096 metal_lc9_interrupt_vector_handler
200100cc  w    F .init	00000000 __metal_before_start
200174ec  w    F .text	00000016 metal_init_run
80000a58 g     O .data	00000020 __metal_dt_serial_10023000
20010584 g     O .rodata	00000064 __metal_driver_vtable_riscv_plic0
20010540 g     O .rodata	00000044 __metal_driver_vtable_cpu
20016618 g     F .text	0000002e metal_uart_set_baud_rate
200162b8 g     F .text	000000d0 __metal_driver_sifive_uart0_init
00000000 g       *ABS*	00000000 __metal_eccscrub_bit
2001128c g     F .text	00000006 _times_r
20013be6 g     F .text	00000070 __metal_driver_cpu_mcycle_get
20010e68 g     O .rodata	0000000c __metal_driver_vtable_sifive_fe310_g000_pll
80000aa8  w    O .data	00000004 __metal_gpio_table
80000f70 g       .heap	00000000 metal_segment_heap_target_start
2001166e g     F .text	0000000a _cleanup_r
80000ab4 g     O .data	00000008 __metal_dt_cpu_0
20013128  w    F .text	00000096 metal_lc8_interrupt_vector_handler
20015010 g     F .text	00000166 __metal_driver_sifive_fe310_g000_pll_set_rate_hz
200167f8 g     F .text	00000048 metal_timer_get_timebase_frequency
20014808 g     F .text	00000074 __metal_driver_riscv_plic0_affinity_set_threshold
20011280 g     F .text	0000000c puts
20013416  w    F .text	00000096 metal_lc13_interrupt_vector_handler
20011da0 g     F .text	00000068 metal_gpio_set_pin
200127b0 g     F .text	00000018 __metal_default_exception_handler
20016862 g     F .text	00000026 _fstat
20012572 g     F .text	00000034 __metal_driver_riscv_clint0_set_interrupt
20013b76 g     F .text	00000054 __metal_driver_riscv_cpu_controller_set_vector_mode
20012642 g     F .text	00000030 __metal_driver_cpu_get
200104dc g     O .rodata	00000064 __metal_driver_vtable_riscv_cpu_intc
200126a4 g     F .text	00000018 __metal_interrupt_global_disable
2001487c g     F .text	00000028 __metal_driver_riscv_plic0_affinity_get_threshold
20013092  w    F .text	00000096 metal_lc7_interrupt_vector_handler
20013254  w    F .text	00000096 metal_lc10_interrupt_vector_handler
20011b44 g     F .text	00000030 _sbrk_r
20014628 g     F .text	00000050 __metal_driver_riscv_plic0_disable
200137f6 g     F .text	0000004e __metal_exception_register
200173fc g     F .text	00000078 metal_init
20011d2c g     F .text	00000034 _read_r
20013d78 g     F .text	0000001a __metal_driver_cpu_timer_controller_interrupt
200156be g     F .text	00000040 __metal_driver_sifive_gpio0_enable_output
80000000 g       .rodata	00000000 metal_segment_lim_target_end
200128a0 g     F .text	00000068 __metal_default_sw_handler
200164bc g     F .text	00000032 metal_clock_register_post_rate_change_callback
8000006c g     O .data	0000000c __metal_dt_clock_2
20015e14 g     F .text	00000020 __metal_driver_sifive_uart0_interrupt_controller
200170bc g     F .text	00000340 .hidden __umoddi3
20016888 g     F .text	00000020 _isatty
20015784 g     F .text	00000040 __metal_driver_sifive_gpio0_output_toggle
20015e52 g     F .text	0000003a __metal_driver_sifive_uart0_tx_interrupt_enable
20011064 g     O .rodata	00000008 __metal_driver_vtable_fixed_clock
20011048 g     O .rodata	00000004 _global_impure_ptr
20012908  w    F .text	00000092 metal_timer_interrupt_vector_handler
20016bba g     F .text	0000005e __libc_init_array
200156fe g     F .text	00000040 __metal_driver_sifive_gpio0_output_set
200132ea  w    F .text	00000096 metal_lc11_interrupt_vector_handler
20016d5c g     F .text	00000360 .hidden __udivdi3
20014a72 g     F .text	00000022 __metal_driver_sifive_fe310_g000_hfxosc_set_rate_hz
20013b06 g     F .text	0000002a __metal_driver_riscv_cpu_controller_interrupt_enable
200168fc g     F .text	0000006a _sbrk
20015678 g     F .text	00000046 __metal_driver_sifive_gpio0_disable_output
20016388 g     F .text	00000042 _metal_clock_call_all_callbacks
200102ba g     F .init	00000002 _init
20012706 g     F .text	0000001a __metal_interrupt_timer_disable
20015870 g     F .text	00000206 __metal_driver_sifive_gpio0_config_int
20013e36 g     F .text	00000062 __metal_driver_cpu_clear_sw_ipi
20010eb4 g     O .rodata	0000003c __metal_driver_vtable_sifive_gpio0
20015e8c g     F .text	00000038 __metal_driver_sifive_uart0_tx_interrupt_disable
200157c4 g     F .text	00000062 __metal_driver_sifive_gpio0_enable_io
20016b84 g     F .text	00000036 __libc_fini_array
20016a46 g     F .text	00000090 _times
80000a90 g     O .data	0000000c __metal_dt_clock_4
20017474 g     F .text	00000078 metal_fini
20015bfe g     F .text	00000020 __metal_driver_gpio_interrupt_controller
20013dc0 g     F .text	00000014 __metal_driver_cpu_get_sw_interrupt_id
20013fca g     F .text	00000020 __metal_driver_cpu_get_buserror
80000000 g       .data	00000000 metal_segment_data_target_start
20012758 g     F .text	0000002c __metal_interrupt_local_enable
2001253e g     F .text	00000034 __metal_driver_riscv_clint0_clear_interrupt
20017518 g     F .text	00000028 metal_tty_putc
20014308 g     F .text	00000018 __metal_plic0_default_handler
20016ad6  w    F .text	00000070 write
00000000 g       *ABS*	00000000 __tbss_size
80000060 g     O .data	0000000c __metal_dt_clock_0
00000800 g       *ABS*	00000000 __heap_size
20014678 g     F .text	00000030 __metal_driver_riscv_plic0_set_threshold
2001299a g     F .text	00000016 __metal_default_beu_handler
20010398 g     O .rodata	00000020 __sf_fake_stderr
2001273c g     F .text	0000001c __metal_interrupt_external_disable
20011e08 g     F .text	00000040 metal_gpio_disable_pinmux
20015e34 g     F .text	0000001e __metal_driver_sifive_uart0_get_interrupt_id
20013bca g     F .text	0000001c __metal_driver_riscv_cpu_controller_command_request
20013844 g     F .text	000000e2 __metal_driver_riscv_cpu_controller_interrupt_init
20013f18 g     F .text	00000046 __metal_driver_cpu_exception_register
200126bc g     F .text	00000018 __metal_interrupt_software_enable
20012d0e  w    F .text	00000096 metal_lc1_interrupt_vector_handler
200119ca g     F .text	000000a2 _free_r
80000ad4 g     O .bss	00000004 _global_atexit
200141d0 g     F .text	00000062 __metal_driver_riscv_plic0_set_priority
200135d8 g     F .text	00000058 __metal_controller_interrupt_vector_mode
20016c94 g     F .text	000000c8 __call_exitprocs
80000f70 g       .stack	00000000 _sp
200102e8 g     O .init_array	00000004 _metal_tty_init_ptr
20010150 g     F .init	00000000 _start
200148fe g     F .text	00000084 __metal_driver_sifive_fe310_g000_hfrosc_get_rate_hz
200167b0 g     F .text	00000048 metal_timer_get_cyclecount
200168a8 g     F .text	0000002a _lseek
20013ef8 g     F .text	00000020 __metal_driver_cpu_controller_interrupt
20013f8c g     F .text	0000001e __metal_driver_cpu_get_exception_pc
20012720 g     F .text	0000001c __metal_interrupt_external_enable
20016c18 g     F .text	0000007c __register_exitproc
2001605a g     F .text	00000040 __metal_driver_sifive_uart0_putc
200143c4 g     F .text	00000152 __metal_driver_riscv_plic0_init
200145d8 g     F .text	00000050 __metal_driver_riscv_plic0_enable
2001564c g     F .text	0000002c __metal_driver_sifive_gpio0_output
20012ffc  w    F .text	00000096 metal_lc6_interrupt_vector_handler
20012672 g     F .text	0000001a __metal_myhart_id
20015c1e g     F .text	0000002e __metal_driver_gpio_get_interrupt_id
2001280e  w    F .text	00000092 metal_software_interrupt_vector_handler
20013b30 g     F .text	0000002a __metal_driver_riscv_cpu_controller_interrupt_disable
20011c62 g     F .text	00000030 _close_r
200164ee g     F .text	0000002a metal_cpu_get_timer
200160f0 g     F .text	00000020 __metal_driver_sifive_uart0_get_baud_rate
20012126 g     F .text	000000da __metal_driver_riscv_clint0_register
80000aac g     O .data	00000008 __metal_dt_clint_2000000
20011352 g     F .text	0000010a __swsetup_r
20011726 g     F .text	0000009c __sfp
20016444 g     F .text	00000048 metal_clock_set_rate_hz
20011e48 g     F .text	00000032 metal_gpio_get_device
20011b74 g     F .text	00000030 __sread
20011080 g     F .text	00000042 delay_us
2001559c g     F .text	00000040 __metal_driver_sifive_gpio0_enable_input
200102bc  w    F .init	00000000 secondary_main
200127e0  w    F .text	0000002e metal_interrupt_vector_handler
20011d28 g     F .text	00000002 __malloc_lock
20015efe g     F .text	00000038 __metal_driver_sifive_uart0_rx_interrupt_disable
200115a2 g     F .text	00000064 _fflush_r
20014196 g     F .text	0000003a __metal_plic0_get_threshold
20015188 g     F .text	0000002e __metal_driver_sifive_fe310_g000_prci_get_reg
200103b8 g     O .rodata	00000020 __sf_fake_stdin
2001373a g     F .text	000000bc __metal_local_interrupt_enable
20012400 g     F .text	0000013e __metal_driver_riscv_clint0_command_request
20011922 g     F .text	000000a8 memset
20012f66  w    F .text	00000096 metal_lc5_interrupt_vector_handler
200110c2 g     F .text	000000ba main
80000ac8 g       .data	00000000 metal_segment_data_target_end
20015fe0 g     F .text	0000004a __metal_driver_sifive_uart0_set_rx_watermark
2001104c g     O .rodata	00000008 __metal_driver_vtable_sifive_fe310_g000_hfrosc
20013dd4 g     F .text	00000062 __metal_driver_cpu_set_sw_ipi
20013e98 g     F .text	00000060 __metal_driver_cpu_get_msip
200165b0 g     F .text	0000000e metal_shutdown
08000000 g       .rodata	00000000 metal_segment_itim_target_end
20013faa g     F .text	00000020 __metal_driver_cpu_set_exception_pc
200140ce g     F .text	0000003c __metal_plic0_claim_interrupt
20015fb0 g     F .text	00000030 __metal_driver_sifive_uart0_get_tx_watermark
20011c28 g     F .text	00000006 __sclose
20013380  w    F .text	00000096 metal_lc12_interrupt_vector_handler
2001008a g     F .init	00000000 metal_mem_scrub
20011a6c g     F .text	000000d8 _malloc_r
20012228 g     F .text	0000001c __metal_driver_riscv_clint0_get_vector_mode
80000ac0 g     O .data	00000004 __metal_dt_prci_10008000
20013c56 g     F .text	00000046 __metal_driver_cpu_timebase_get
2001476c g     F .text	0000009c __metal_driver_riscv_plic0_affinity_disable
20010000 g       .init	00000000 _enter
20016596 g     F .text	0000001a metal_cpu_get_current_hartid
200149fe g     F .text	00000074 __metal_driver_sifive_fe310_g000_hfxosc_get_rate_hz
20016680 g       .text	00000000 __metal_vector_table
20011070 g       *ABS*	00000000 metal_segment_itim_source_start
80000aa4  w    O .data	00000004 __metal_cpu_table
80000090 g     O .data	000003d0 __metal_dt_cpu_0_interrupt_controller
200102ba g     F .init	00000002 _fini
80000000 g       .rodata	00000000 metal_segment_lim_target_start
20010f44 g     O .rodata	00000100 .hidden __clz_tab
20014232 g     F .text	00000034 __metal_driver_riscv_plic0_get_priority
20010318 g     F .ctors	0000002a use_hfxosc
2001268c g     F .text	00000018 __metal_interrupt_global_enable
20016b46 g     F .text	0000000a atexit
20011c2e g     F .text	00000034 _write_r
200126ec g     F .text	0000001a __metal_interrupt_timer_enable
2001609a g     F .text	00000056 __metal_driver_sifive_uart0_getc
2001234e g     F .text	000000b2 __metal_driver_riscv_clint0_disable
80000aa0 g     O .data	00000004 _impure_ptr
20013d02 g     F .text	00000076 __metal_driver_cpu_mtimecmp_set
2001145c g     F .text	00000146 __sflush_r
200146a8 g     F .text	00000028 __metal_driver_riscv_plic0_get_threshold
20014ba0 g     F .text	000000a4 __metal_driver_sifive_fe310_g000_pll_init
80000078 g     O .data	0000000c __metal_dt_clock_5
200151b6 g     F .text	00000038 __metal_driver_sifive_fe310_g000_prci_set_reg
20016770 g     F .text	0000001e __metal_driver_fixed_clock_get_rate_hz
2001229c g     F .text	000000b2 __metal_driver_riscv_clint0_enable
20017558 g       *ABS*	00000000 metal_segment_data_source_start
20010134 g       .init	00000000 early_trap_vector
80001770 g       .heap	00000000 metal_segment_heap_target_end
20013630 g     F .text	000000b2 __metal_controller_interrupt_vector
80000a84 g     O .data	0000000c __metal_dt_clock_1
80000460 g     O .data	000005d8 __metal_dt_interrupt_controller_c000000
2001182c g     F .text	0000005a __swhatbuf_r
2001573e g     F .text	00000046 __metal_driver_sifive_gpio0_output_clear
200129b0 g     F .text	00000066 __metal_default_timer_handler
20016ad6 g     F .text	00000070 _write
20014320 g     F .text	000000a4 __metal_plic0_handler
20012da4  w    F .text	00000096 metal_lc2_interrupt_vector_handler
20013542  w    F .text	00000096 metal_lc15_interrupt_vector_handler
20016542 g     F .text	00000026 metal_cpu_interrupt_controller
20011ba4 g     F .text	0000004e __swrite
20016b5a g     F .text	0000002a exit
200117c2 g     F .text	0000006a _fwalk_reent
2001678e g     F .text	00000022 __metal_driver_fixed_clock_set_rate_hz
20011070 g       *ABS*	00000000 metal_segment_lim_source_start
200103d8 g     O .rodata	00000020 __sf_fake_stdout
80000abc g     O .data	00000004 __metal_dt_gpio_10012000
200127c8 g     F .text	00000018 __metal_default_interrupt_handler
200165ea g     F .text	0000002e metal_uart_putc
200168d2 g     F .text	0000002a _read
20017502  w    F .text	00000016 metal_fini_run
20015622 g     F .text	0000002a __metal_driver_sifive_gpio0_input
20012a80 g     F .text	0000017e __metal_exception_handler
20012c78  w    F .text	00000096 metal_lc0_interrupt_vector_handler
20017540 g     F .text	00000014 _exit
20013c9c g     F .text	00000066 __metal_driver_cpu_mtime_get
20011886 g     F .text	0000009c __smakebuf_r
20012200 g     F .text	00000028 __metal_driver_riscv_clint0_vector_register
80000acc g     O .bss	00000004 __malloc_sbrk_start
2001117c g     F .text	0000002a clock
200134ac  w    F .text	00000096 metal_lc14_interrupt_vector_handler
20011054 g     O .rodata	00000008 __metal_driver_vtable_sifive_fe310_g000_hfxosc
2001209e g     F .text	00000088 __metal_driver_riscv_clint0_init
80000ac8 g     O .bss	00000004 __malloc_free_list
200102ec g     F .ctors	0000002c metal_sifive_fe310_g000_pll_init
20013d92 g     F .text	00000014 __metal_driver_cpu_get_timer_interrupt_id
20014266 g     F .text	000000a2 __metal_plic0_enable
20010088  w      .init	00000000 __register_frame_info
20014982 g     F .text	00000022 __metal_driver_sifive_fe310_g000_hfrosc_set_rate_hz
20013da6 g     F .text	0000001a __metal_driver_cpu_sw_controller_interrupt
20012784 g     F .text	0000002c __metal_interrupt_local_disable
200126d4 g     F .text	00000018 __metal_interrupt_software_disable
200165be g     F .text	0000002c metal_uart_init
80000a78 g     O .data	0000000c __metal_dt_clock_3
80000084 g     O .data	0000000c __metal_dt_clock_6
20014150 g     F .text	00000046 __metal_plic0_set_threshold
200146d0 g     F .text	0000009c __metal_driver_riscv_plic0_affinity_enable
20016840 g     F .text	00000022 _close
2001105c g     O .rodata	00000008 __metal_driver_vtable_sifive_fe310_g000_prci
00000000 g       *ABS*	00000000 __metal_boot_hart
20014516 g     F .text	000000c2 __metal_driver_riscv_plic0_register



Disassembly of section .init:

20010000 <_enter>:
_enter():
C:/Users/nandg/Desktop/FE310-G003/sifive_hifive1_revb_sifive_welcome/freedom-metal/src/entry.S:24
     * it's not valid to obtain the address of any symbol without GP
     * configured.  The C environment might go ahead and do this again, but
     * that's safe as it's a fixed register. */
.option push
.option norelax
    la gp, __global_pointer$
20010000:	5fff1197          	auipc	gp,0x5fff1
20010004:	2a018193          	addi	gp,gp,672 # 800012a0 <__global_pointer$>
C:/Users/nandg/Desktop/FE310-G003/sifive_hifive1_revb_sifive_welcome/freedom-metal/src/entry.S:28
.option pop

    /* trap over the chicken bit register clearing, aloe & fe310 dont have it */
    la t0, 1f
20010008:	00000297          	auipc	t0,0x0
2001000c:	01828293          	addi	t0,t0,24 # 20010020 <_enter+0x20>
C:/Users/nandg/Desktop/FE310-G003/sifive_hifive1_revb_sifive_welcome/freedom-metal/src/entry.S:29
    csrw mtvec, t0
20010010:	30529073          	csrw	mtvec,t0
C:/Users/nandg/Desktop/FE310-G003/sifive_hifive1_revb_sifive_welcome/freedom-metal/src/entry.S:31
    /* chicken bit is enable if core are sifive series. */
    la t0, __metal_chicken_bit
20010014:	00100293          	li	t0,1
C:/Users/nandg/Desktop/FE310-G003/sifive_hifive1_revb_sifive_welcome/freedom-metal/src/entry.S:32
    beqz t0, 1f
20010018:	00028463          	beqz	t0,20010020 <_enter+0x20>
C:/Users/nandg/Desktop/FE310-G003/sifive_hifive1_revb_sifive_welcome/freedom-metal/src/entry.S:34
    /* If set, always clear the feature disable register for all cores series */
    csrwi 0x7C1, 0
2001001c:	7c105073          	csrwi	0x7c1,0
C:/Users/nandg/Desktop/FE310-G003/sifive_hifive1_revb_sifive_welcome/freedom-metal/src/entry.S:39
.align 4
1:
    /* Set up a simple trap vector to catch anything that goes wrong early in
     * the boot process. */
    la t0, early_trap_vector
20010020:	00000297          	auipc	t0,0x0
20010024:	11428293          	addi	t0,t0,276 # 20010134 <early_trap_vector>
C:/Users/nandg/Desktop/FE310-G003/sifive_hifive1_revb_sifive_welcome/freedom-metal/src/entry.S:40
    csrw mtvec, t0
20010028:	30529073          	csrw	mtvec,t0
C:/Users/nandg/Desktop/FE310-G003/sifive_hifive1_revb_sifive_welcome/freedom-metal/src/entry.S:48
     * C, so here we set up a C environment. First we set up a stack pointer,
     * which is left as a weak reference in order to allow initialization
     * routines that do not need a stack to be set up to transparently be
     * called. */
    .weak __metal_stack_pointer
    la sp, __metal_stack_pointer
2001002c:	00000113          	li	sp,0
C:/Users/nandg/Desktop/FE310-G003/sifive_hifive1_revb_sifive_welcome/freedom-metal/src/entry.S:55
   /* The METAL is designed for a bare-metal environment and therefore is expected
    * to define its own stack pointer. We also align the stack pointer here
    * because the only RISC-V ABI that's currently defined, mandates 16-byte
    * stack alignment. */

    bne sp, zero, 1f
20010030:	00011463          	bnez	sp,20010038 <_enter+0x38>
C:/Users/nandg/Desktop/FE310-G003/sifive_hifive1_revb_sifive_welcome/freedom-metal/src/entry.S:56
    la sp, _sp
20010034:	cd018113          	addi	sp,gp,-816 # 80000f70 <_sp>
C:/Users/nandg/Desktop/FE310-G003/sifive_hifive1_revb_sifive_welcome/freedom-metal/src/entry.S:59
1:
    /* Increment by hartid number of stack sizes */
    csrr a0, mhartid
20010038:	f1402573          	csrr	a0,mhartid
C:/Users/nandg/Desktop/FE310-G003/sifive_hifive1_revb_sifive_welcome/freedom-metal/src/entry.S:60
    li t0, 0
2001003c:	4281                	li	t0,0
C:/Users/nandg/Desktop/FE310-G003/sifive_hifive1_revb_sifive_welcome/freedom-metal/src/entry.S:61
    la t1, __stack_size
2001003e:	40000313          	li	t1,1024
C:/Users/nandg/Desktop/FE310-G003/sifive_hifive1_revb_sifive_welcome/freedom-metal/src/entry.S:63
1:
    andi sp, sp, -16
20010042:	ff017113          	andi	sp,sp,-16
C:/Users/nandg/Desktop/FE310-G003/sifive_hifive1_revb_sifive_welcome/freedom-metal/src/entry.S:64
    beq t0, a0, 1f
20010046:	00a28563          	beq	t0,a0,20010050 <_enter+0x50>
C:/Users/nandg/Desktop/FE310-G003/sifive_hifive1_revb_sifive_welcome/freedom-metal/src/entry.S:65
    add sp, sp, t1
2001004a:	911a                	add	sp,sp,t1
C:/Users/nandg/Desktop/FE310-G003/sifive_hifive1_revb_sifive_welcome/freedom-metal/src/entry.S:66
    addi t0, t0, 1
2001004c:	0285                	addi	t0,t0,1
C:/Users/nandg/Desktop/FE310-G003/sifive_hifive1_revb_sifive_welcome/freedom-metal/src/entry.S:67
    j 1b
2001004e:	bfd5                	j	20010042 <_enter+0x42>
C:/Users/nandg/Desktop/FE310-G003/sifive_hifive1_revb_sifive_welcome/freedom-metal/src/entry.S:76
     * just skip over the call entirely.   Note that __metal_initialize isn't
     * actually a full C function, as it doesn't end up with the .bss or .data
     * segments having been initialized.  This is done to avoid putting a
     * burden on systems that can be initialized without having a C environment
     * set up. */
    la ra, __metal_before_start
20010050:	00000097          	auipc	ra,0x0
20010054:	07c08093          	addi	ra,ra,124 # 200100cc <__metal_before_start>
C:/Users/nandg/Desktop/FE310-G003/sifive_hifive1_revb_sifive_welcome/freedom-metal/src/entry.S:77
    beqz ra, 1f
20010058:	00008363          	beqz	ra,2001005e <_enter+0x5e>
C:/Users/nandg/Desktop/FE310-G003/sifive_hifive1_revb_sifive_welcome/freedom-metal/src/entry.S:78
    jalr ra
2001005c:	9082                	jalr	ra
C:/Users/nandg/Desktop/FE310-G003/sifive_hifive1_revb_sifive_welcome/freedom-metal/src/entry.S:84
1:

    /* At this point we can enter the C runtime's startup file.  The arguments
     * to this function are designed to match those provided to the SEE, just
     * so we don't have to write another ABI. */
    csrr a0, mhartid
2001005e:	f1402573          	csrr	a0,mhartid
C:/Users/nandg/Desktop/FE310-G003/sifive_hifive1_revb_sifive_welcome/freedom-metal/src/entry.S:85
    li a1, 0
20010062:	4581                	li	a1,0
C:/Users/nandg/Desktop/FE310-G003/sifive_hifive1_revb_sifive_welcome/freedom-metal/src/entry.S:86
    li a2, 0
20010064:	4601                	li	a2,0
C:/Users/nandg/Desktop/FE310-G003/sifive_hifive1_revb_sifive_welcome/freedom-metal/src/entry.S:87
    call _start
20010066:	20ed                	jal	20010150 <_start>
C:/Users/nandg/Desktop/FE310-G003/sifive_hifive1_revb_sifive_welcome/freedom-metal/src/entry.S:92

    /* If we've made it back here then there's probably something wrong.  We
     * allow the METAL to register a handler here. */
    .weak __metal_after_main
    la ra, __metal_after_main
20010068:	00000093          	li	ra,0
C:/Users/nandg/Desktop/FE310-G003/sifive_hifive1_revb_sifive_welcome/freedom-metal/src/entry.S:93
    beqz ra, 1f
2001006c:	00008363          	beqz	ra,20010072 <_enter+0x72>
C:/Users/nandg/Desktop/FE310-G003/sifive_hifive1_revb_sifive_welcome/freedom-metal/src/entry.S:94
    jalr ra
20010070:	9082                	jalr	ra
C:/Users/nandg/Desktop/FE310-G003/sifive_hifive1_revb_sifive_welcome/freedom-metal/src/entry.S:99
1:

    /* If that handler returns then there's not a whole lot we can do.  Just
     * try to make some noise. */
     la t0, 1f
20010072:	00000297          	auipc	t0,0x0
20010076:	00c28293          	addi	t0,t0,12 # 2001007e <_enter+0x7e>
C:/Users/nandg/Desktop/FE310-G003/sifive_hifive1_revb_sifive_welcome/freedom-metal/src/entry.S:100
     csrw mtvec, t0
2001007a:	30529073          	csrw	mtvec,t0
C:/Users/nandg/Desktop/FE310-G003/sifive_hifive1_revb_sifive_welcome/freedom-metal/src/entry.S:102
1:
     lw t1, 0(x0)
2001007e:	00002303          	lw	t1,0(zero) # 0 <__metal_boot_hart>
C:/Users/nandg/Desktop/FE310-G003/sifive_hifive1_revb_sifive_welcome/freedom-metal/src/entry.S:103
     j 1b
20010082:	bff5                	j	2001007e <_enter+0x7e>
20010084:	0000                	unimp
	...

20010088 <__register_frame_info>:
__register_frame_info():
C:/Users/nandg/Desktop/FE310-G003/sifive_hifive1_revb_sifive_welcome/freedom-metal/src/entry.S:117
.weak __register_frame_info
.global __register_frame_info
.section .text.metal.init.__register_frame_info
__register_frame_info:
    .cfi_startproc
    ret
20010088:	8082                	ret

2001008a <metal_mem_scrub>:
metal_mem_scrub():
C:/Users/nandg/Desktop/FE310-G003/sifive_hifive1_revb_sifive_welcome/freedom-metal/src/scrub.S:24
.type metal_mem_scrub, @function
metal_mem_scrub:

    /* Disable machine interrupts,
    restore previous mstatus value at exit */
    li      a3, 8
2001008a:	46a1                	li	a3,8
C:/Users/nandg/Desktop/FE310-G003/sifive_hifive1_revb_sifive_welcome/freedom-metal/src/scrub.S:25
    csrrc   t1, mstatus, a3
2001008c:	3006b373          	csrrc	t1,mstatus,a3
C:/Users/nandg/Desktop/FE310-G003/sifive_hifive1_revb_sifive_welcome/freedom-metal/src/scrub.S:28

#if __riscv_xlen == 32
    addi    t0, x0, 4
20010090:	4291                	li	t0,4
C:/Users/nandg/Desktop/FE310-G003/sifive_hifive1_revb_sifive_welcome/freedom-metal/src/scrub.S:30
1:
    blt     a1, t0, 2f
20010092:	0055c563          	blt	a1,t0,2001009c <metal_mem_scrub+0x12>
C:/Users/nandg/Desktop/FE310-G003/sifive_hifive1_revb_sifive_welcome/freedom-metal/src/scrub.S:31
    andi    a2, a0, 3
20010096:	00357613          	andi	a2,a0,3
C:/Users/nandg/Desktop/FE310-G003/sifive_hifive1_revb_sifive_welcome/freedom-metal/src/scrub.S:32
    beqz    a2, 3f
2001009a:	ca11                	beqz	a2,200100ae <metal_mem_scrub+0x24>
C:/Users/nandg/Desktop/FE310-G003/sifive_hifive1_revb_sifive_welcome/freedom-metal/src/scrub.S:34
2:
    sb      x0, 0(a0)
2001009c:	00050023          	sb	zero,0(a0)
C:/Users/nandg/Desktop/FE310-G003/sifive_hifive1_revb_sifive_welcome/freedom-metal/src/scrub.S:35
    addi    a0, a0, 1
200100a0:	0505                	addi	a0,a0,1
C:/Users/nandg/Desktop/FE310-G003/sifive_hifive1_revb_sifive_welcome/freedom-metal/src/scrub.S:36
    addi    a1, a1, -1
200100a2:	15fd                	addi	a1,a1,-1
C:/Users/nandg/Desktop/FE310-G003/sifive_hifive1_revb_sifive_welcome/freedom-metal/src/scrub.S:37
    bgtz    a1, 1b
200100a4:	feb047e3          	bgtz	a1,20010092 <metal_mem_scrub+0x8>
C:/Users/nandg/Desktop/FE310-G003/sifive_hifive1_revb_sifive_welcome/freedom-metal/src/scrub.S:38
    csrw    mstatus, t1
200100a8:	30031073          	csrw	mstatus,t1
C:/Users/nandg/Desktop/FE310-G003/sifive_hifive1_revb_sifive_welcome/freedom-metal/src/scrub.S:39
    ret
200100ac:	8082                	ret
C:/Users/nandg/Desktop/FE310-G003/sifive_hifive1_revb_sifive_welcome/freedom-metal/src/scrub.S:41
3:
    sw      x0, 0(a0)
200100ae:	00052023          	sw	zero,0(a0)
C:/Users/nandg/Desktop/FE310-G003/sifive_hifive1_revb_sifive_welcome/freedom-metal/src/scrub.S:42
    addi    a0, a0, 4
200100b2:	0511                	addi	a0,a0,4
C:/Users/nandg/Desktop/FE310-G003/sifive_hifive1_revb_sifive_welcome/freedom-metal/src/scrub.S:43
    addi    a1, a1, -4
200100b4:	15f1                	addi	a1,a1,-4
C:/Users/nandg/Desktop/FE310-G003/sifive_hifive1_revb_sifive_welcome/freedom-metal/src/scrub.S:44
    bgtz    a1, 1b
200100b6:	fcb04ee3          	bgtz	a1,20010092 <metal_mem_scrub+0x8>
C:/Users/nandg/Desktop/FE310-G003/sifive_hifive1_revb_sifive_welcome/freedom-metal/src/scrub.S:45
    csrw    mstatus, t1
200100ba:	30031073          	csrw	mstatus,t1
C:/Users/nandg/Desktop/FE310-G003/sifive_hifive1_revb_sifive_welcome/freedom-metal/src/scrub.S:46
    ret
200100be:	8082                	ret

200100c0 <__metal_memory_scrub>:
__metal_memory_scrub():
C:/Users/nandg/Desktop/FE310-G003/sifive_hifive1_revb_sifive_welcome/freedom-metal/src/scrub.S:74
.type __metal_memory_scrub, @function
__metal_memory_scrub:
/* Zero out specified memory regions */
1:
#if __riscv_xlen == 32
    sw      x0, 0(t1)
200100c0:	00032023          	sw	zero,0(t1)
C:/Users/nandg/Desktop/FE310-G003/sifive_hifive1_revb_sifive_welcome/freedom-metal/src/scrub.S:75
    addi    t1, t1, 4
200100c4:	0311                	addi	t1,t1,4
C:/Users/nandg/Desktop/FE310-G003/sifive_hifive1_revb_sifive_welcome/freedom-metal/src/scrub.S:76
    blt     t1, t2, 1b
200100c6:	fe734de3          	blt	t1,t2,200100c0 <__metal_memory_scrub>
C:/Users/nandg/Desktop/FE310-G003/sifive_hifive1_revb_sifive_welcome/freedom-metal/src/scrub.S:82
#else
    sd      x0, 0(t1)
    addi    t1, t1, 8
    blt     t1, t2, 1b
#endif
    ret
200100ca:	8082                	ret

200100cc <__metal_before_start>:
__metal_before_start():
C:/Users/nandg/Desktop/FE310-G003/sifive_hifive1_revb_sifive_welcome/freedom-metal/src/scrub.S:94
.weak __metal_before_start
.global __metal_before_start
.type __metal_before_start, @function
__metal_before_start:
    /* Save caller ra */
    mv      s0, ra
200100cc:	8406                	mv	s0,ra
C:/Users/nandg/Desktop/FE310-G003/sifive_hifive1_revb_sifive_welcome/freedom-metal/src/scrub.S:96

    la      t0, __metal_eccscrub_bit
200100ce:	dfff0297          	auipc	t0,0xdfff0
200100d2:	f3228293          	addi	t0,t0,-206 # 0 <__metal_boot_hart>
C:/Users/nandg/Desktop/FE310-G003/sifive_hifive1_revb_sifive_welcome/freedom-metal/src/scrub.S:97
    beqz    t0, skip_scrub
200100d6:	04028c63          	beqz	t0,2001012e <skip_scrub>
C:/Users/nandg/Desktop/FE310-G003/sifive_hifive1_revb_sifive_welcome/freedom-metal/src/scrub.S:99

    la      t0, __metal_boot_hart
200100da:	dfff0297          	auipc	t0,0xdfff0
200100de:	f2628293          	addi	t0,t0,-218 # 0 <__metal_boot_hart>
C:/Users/nandg/Desktop/FE310-G003/sifive_hifive1_revb_sifive_welcome/freedom-metal/src/scrub.S:100
    csrr    a5, mhartid
200100e2:	f14027f3          	csrr	a5,mhartid
C:/Users/nandg/Desktop/FE310-G003/sifive_hifive1_revb_sifive_welcome/freedom-metal/src/scrub.S:103

    /* Disable machine interrupts to be safe */
    li      a3, 8
200100e6:	46a1                	li	a3,8
C:/Users/nandg/Desktop/FE310-G003/sifive_hifive1_revb_sifive_welcome/freedom-metal/src/scrub.S:104
    csrc    mstatus, a3
200100e8:	3006b073          	csrc	mstatus,a3
C:/Users/nandg/Desktop/FE310-G003/sifive_hifive1_revb_sifive_welcome/freedom-metal/src/scrub.S:107

    /* Zero out per hart stack */
    mv      t1, sp
200100ec:	830a                	mv	t1,sp
C:/Users/nandg/Desktop/FE310-G003/sifive_hifive1_revb_sifive_welcome/freedom-metal/src/scrub.S:108
    la      t2, __stack_size
200100ee:	dfff0397          	auipc	t2,0xdfff0
200100f2:	31238393          	addi	t2,t2,786 # 400 <__stack_size>
C:/Users/nandg/Desktop/FE310-G003/sifive_hifive1_revb_sifive_welcome/freedom-metal/src/scrub.S:109
    add     t2, t2, sp
200100f6:	938a                	add	t2,t2,sp
C:/Users/nandg/Desktop/FE310-G003/sifive_hifive1_revb_sifive_welcome/freedom-metal/src/scrub.S:110
    beq     t1, t2, 1f
200100f8:	00730363          	beq	t1,t2,200100fe <__metal_before_start+0x32>
C:/Users/nandg/Desktop/FE310-G003/sifive_hifive1_revb_sifive_welcome/freedom-metal/src/scrub.S:111
    jal     __metal_memory_scrub
200100fc:	37d1                	jal	200100c0 <__metal_memory_scrub>
C:/Users/nandg/Desktop/FE310-G003/sifive_hifive1_revb_sifive_welcome/freedom-metal/src/scrub.S:113
1:
    bne     a5, t0, skip_scrub
200100fe:	02579863          	bne	a5,t0,2001012e <skip_scrub>
C:/Users/nandg/Desktop/FE310-G003/sifive_hifive1_revb_sifive_welcome/freedom-metal/src/scrub.S:116

    /* Zero out data segment */
    la      t1, metal_segment_data_target_start
20010102:	5fff0317          	auipc	t1,0x5fff0
20010106:	efe30313          	addi	t1,t1,-258 # 80000000 <impure_data>
C:/Users/nandg/Desktop/FE310-G003/sifive_hifive1_revb_sifive_welcome/freedom-metal/src/scrub.S:117
    la      t2, metal_segment_data_target_end
2001010a:	5fff1397          	auipc	t2,0x5fff1
2001010e:	9be38393          	addi	t2,t2,-1602 # 80000ac8 <__malloc_free_list>
C:/Users/nandg/Desktop/FE310-G003/sifive_hifive1_revb_sifive_welcome/freedom-metal/src/scrub.S:118
    beq     t1, t2, 1f
20010112:	00730363          	beq	t1,t2,20010118 <__metal_before_start+0x4c>
C:/Users/nandg/Desktop/FE310-G003/sifive_hifive1_revb_sifive_welcome/freedom-metal/src/scrub.S:119
    jal     __metal_memory_scrub
20010116:	376d                	jal	200100c0 <__metal_memory_scrub>
C:/Users/nandg/Desktop/FE310-G003/sifive_hifive1_revb_sifive_welcome/freedom-metal/src/scrub.S:122
1:
    /* Zero out itim memory */
    la      t1, metal_segment_itim_target_start
20010118:	e7ff0317          	auipc	t1,0xe7ff0
2001011c:	ee830313          	addi	t1,t1,-280 # 8000000 <metal_segment_itim_target_end>
C:/Users/nandg/Desktop/FE310-G003/sifive_hifive1_revb_sifive_welcome/freedom-metal/src/scrub.S:123
    la      t2, metal_segment_itim_target_end
20010120:	e7ff0397          	auipc	t2,0xe7ff0
20010124:	ee038393          	addi	t2,t2,-288 # 8000000 <metal_segment_itim_target_end>
C:/Users/nandg/Desktop/FE310-G003/sifive_hifive1_revb_sifive_welcome/freedom-metal/src/scrub.S:124
    beq     t1, t2, skip_scrub
20010128:	00730363          	beq	t1,t2,2001012e <skip_scrub>
C:/Users/nandg/Desktop/FE310-G003/sifive_hifive1_revb_sifive_welcome/freedom-metal/src/scrub.S:125
    jal     __metal_memory_scrub
2001012c:	3f51                	jal	200100c0 <__metal_memory_scrub>

2001012e <skip_scrub>:
skip_scrub():
C:/Users/nandg/Desktop/FE310-G003/sifive_hifive1_revb_sifive_welcome/freedom-metal/src/scrub.S:129

skip_scrub:
    /* Restore caller ra */
    mv      ra, s0
2001012e:	80a2                	mv	ra,s0
C:/Users/nandg/Desktop/FE310-G003/sifive_hifive1_revb_sifive_welcome/freedom-metal/src/scrub.S:130
    ret
20010130:	8082                	ret
	...

20010134 <early_trap_vector>:
early_trap_vector():
C:/Users/nandg/Desktop/FE310-G003/sifive_hifive1_revb_sifive_welcome/freedom-metal/src/trap.S:64
.section .text.metal.init.trapvec
.global early_trap_vector
.align 2
early_trap_vector:
    .cfi_startproc
    csrr t0, mcause
20010134:	342022f3          	csrr	t0,mcause
C:/Users/nandg/Desktop/FE310-G003/sifive_hifive1_revb_sifive_welcome/freedom-metal/src/trap.S:65
    csrr t1, mepc
20010138:	34102373          	csrr	t1,mepc
C:/Users/nandg/Desktop/FE310-G003/sifive_hifive1_revb_sifive_welcome/freedom-metal/src/trap.S:66
    csrr t2, mtval
2001013c:	343023f3          	csrr	t2,mtval
C:/Users/nandg/Desktop/FE310-G003/sifive_hifive1_revb_sifive_welcome/freedom-metal/src/trap.S:67
    j early_trap_vector
20010140:	bfd5                	j	20010134 <early_trap_vector>

20010142 <__metal_synchronize_harts>:
__metal_synchronize_harts():
C:/Users/nandg/Desktop/FE310-G003/sifive_hifive1_revb_sifive_welcome/freedom-metal/src/synchronize_harts.c:19
/*
 * _synchronize_harts() is called by crt0.S to cause harts > 0 to wait for
 * hart 0 to finish copying the datat section, zeroing the BSS, and running
 * the libc contstructors.
 */
__attribute__((section(".init"))) void __metal_synchronize_harts() {
20010142:	1141                	addi	sp,sp,-16
20010144:	c622                	sw	s0,12(sp)
20010146:	0800                	addi	s0,sp,16
C:/Users/nandg/Desktop/FE310-G003/sifive_hifive1_revb_sifive_welcome/freedom-metal/src/synchronize_harts.c:66
        while (METAL_MSIP(msip_base, hart) == 1)
            ;
    }

#endif /* __METAL_DT_MAX_HARTS > 1 */
}
20010148:	0001                	nop
2001014a:	4432                	lw	s0,12(sp)
2001014c:	0141                	addi	sp,sp,16
2001014e:	8082                	ret

20010150 <_start>:
_start():
C:/Users/nandg/Desktop/FE310-G003/sifive_hifive1_revb_sifive_welcome/freedom-metal/gloss/crt0.S:36
.cfi_startproc
.cfi_undefined ra

  /* This is a bit funky: it's not usually sane for _start to return, but in
   * this case we actually want to in order to signal an error to the METAL. */
  mv s0, ra
20010150:	8406                	mv	s0,ra
C:/Users/nandg/Desktop/FE310-G003/sifive_hifive1_revb_sifive_welcome/freedom-metal/gloss/crt0.S:44
   * safely perform any access that may be relaxed without GP being set.  This
   * is done with relaxation disabled to avoid relaxing the address calculation
   * to just "addi gp, gp, 0". */
.option push
.option norelax
  la gp, __global_pointer$
20010152:	5fff1197          	auipc	gp,0x5fff1
20010156:	14e18193          	addi	gp,gp,334 # 800012a0 <__global_pointer$>
C:/Users/nandg/Desktop/FE310-G003/sifive_hifive1_revb_sifive_welcome/freedom-metal/gloss/crt0.S:50
.option pop

  /* Stack pointer is expected to be initialized before _start */

  /* If we're not hart 0, skip the initialization work */
  la t0, __metal_boot_hart
2001015a:	00000293          	li	t0,0
C:/Users/nandg/Desktop/FE310-G003/sifive_hifive1_revb_sifive_welcome/freedom-metal/gloss/crt0.S:51
  bne a0, t0, _skip_init
2001015e:	0e551163          	bne	a0,t0,20010240 <_skip_init>
C:/Users/nandg/Desktop/FE310-G003/sifive_hifive1_revb_sifive_welcome/freedom-metal/gloss/crt0.S:60
   * boot and then need to get relocated into a non-persistant writable memory
   * before C code can execute.  If this is the case we do so here.  This step
   * is optional: if the METAL provides an environment in which this relocation
   * is not necessary then it must simply set metal_segment_data_source_start to
   * be equal to metal_segment_data_target_start. */
  la t0, metal_segment_data_source_start
20010162:	00007297          	auipc	t0,0x7
20010166:	3f628293          	addi	t0,t0,1014 # 20017558 <metal_segment_data_source_start>
C:/Users/nandg/Desktop/FE310-G003/sifive_hifive1_revb_sifive_welcome/freedom-metal/gloss/crt0.S:61
  la t1, metal_segment_data_target_start
2001016a:	5fff0317          	auipc	t1,0x5fff0
2001016e:	e9630313          	addi	t1,t1,-362 # 80000000 <impure_data>
C:/Users/nandg/Desktop/FE310-G003/sifive_hifive1_revb_sifive_welcome/freedom-metal/gloss/crt0.S:62
  la t2, metal_segment_data_target_end
20010172:	5fff1397          	auipc	t2,0x5fff1
20010176:	95638393          	addi	t2,t2,-1706 # 80000ac8 <__malloc_free_list>
C:/Users/nandg/Desktop/FE310-G003/sifive_hifive1_revb_sifive_welcome/freedom-metal/gloss/crt0.S:64

  beq t0, t1, 2f
2001017a:	00628c63          	beq	t0,t1,20010192 <_start+0x42>
C:/Users/nandg/Desktop/FE310-G003/sifive_hifive1_revb_sifive_welcome/freedom-metal/gloss/crt0.S:65
  bge t1, t2, 2f
2001017e:	00735a63          	bge	t1,t2,20010192 <_start+0x42>
C:/Users/nandg/Desktop/FE310-G003/sifive_hifive1_revb_sifive_welcome/freedom-metal/gloss/crt0.S:69

1:
#if __riscv_xlen == 32
  lw   a0, 0(t0)
20010182:	0002a503          	lw	a0,0(t0)
C:/Users/nandg/Desktop/FE310-G003/sifive_hifive1_revb_sifive_welcome/freedom-metal/gloss/crt0.S:70
  addi t0, t0, 4
20010186:	0291                	addi	t0,t0,4
C:/Users/nandg/Desktop/FE310-G003/sifive_hifive1_revb_sifive_welcome/freedom-metal/gloss/crt0.S:71
  sw   a0, 0(t1)
20010188:	00a32023          	sw	a0,0(t1)
C:/Users/nandg/Desktop/FE310-G003/sifive_hifive1_revb_sifive_welcome/freedom-metal/gloss/crt0.S:72
  addi t1, t1, 4
2001018c:	0311                	addi	t1,t1,4
C:/Users/nandg/Desktop/FE310-G003/sifive_hifive1_revb_sifive_welcome/freedom-metal/gloss/crt0.S:73
  blt  t1, t2, 1b
2001018e:	fe734ae3          	blt	t1,t2,20010182 <_start+0x32>
C:/Users/nandg/Desktop/FE310-G003/sifive_hifive1_revb_sifive_welcome/freedom-metal/gloss/crt0.S:84
  blt  t1, t2, 1b
#endif
2:

  /* Copy the ITIM section */
  la t0, metal_segment_itim_source_start
20010192:	00001297          	auipc	t0,0x1
20010196:	ede28293          	addi	t0,t0,-290 # 20011070 <metal_segment_itim_source_start>
C:/Users/nandg/Desktop/FE310-G003/sifive_hifive1_revb_sifive_welcome/freedom-metal/gloss/crt0.S:85
  la t1, metal_segment_itim_target_start
2001019a:	e7ff0317          	auipc	t1,0xe7ff0
2001019e:	e6630313          	addi	t1,t1,-410 # 8000000 <metal_segment_itim_target_end>
C:/Users/nandg/Desktop/FE310-G003/sifive_hifive1_revb_sifive_welcome/freedom-metal/gloss/crt0.S:86
  la t2, metal_segment_itim_target_end
200101a2:	e7ff0397          	auipc	t2,0xe7ff0
200101a6:	e5e38393          	addi	t2,t2,-418 # 8000000 <metal_segment_itim_target_end>
C:/Users/nandg/Desktop/FE310-G003/sifive_hifive1_revb_sifive_welcome/freedom-metal/gloss/crt0.S:88

  beq t0, t1, 2f
200101aa:	00628c63          	beq	t0,t1,200101c2 <_start+0x72>
C:/Users/nandg/Desktop/FE310-G003/sifive_hifive1_revb_sifive_welcome/freedom-metal/gloss/crt0.S:89
  bge t1, t2, 2f
200101ae:	00735a63          	bge	t1,t2,200101c2 <_start+0x72>
C:/Users/nandg/Desktop/FE310-G003/sifive_hifive1_revb_sifive_welcome/freedom-metal/gloss/crt0.S:93

1:
#if __riscv_xlen == 32
  lw   a0, 0(t0)
200101b2:	0002a503          	lw	a0,0(t0)
C:/Users/nandg/Desktop/FE310-G003/sifive_hifive1_revb_sifive_welcome/freedom-metal/gloss/crt0.S:94
  addi t0, t0, 4
200101b6:	0291                	addi	t0,t0,4
C:/Users/nandg/Desktop/FE310-G003/sifive_hifive1_revb_sifive_welcome/freedom-metal/gloss/crt0.S:95
  sw   a0, 0(t1)
200101b8:	00a32023          	sw	a0,0(t1)
C:/Users/nandg/Desktop/FE310-G003/sifive_hifive1_revb_sifive_welcome/freedom-metal/gloss/crt0.S:96
  addi t1, t1, 4
200101bc:	0311                	addi	t1,t1,4
C:/Users/nandg/Desktop/FE310-G003/sifive_hifive1_revb_sifive_welcome/freedom-metal/gloss/crt0.S:97
  blt  t1, t2, 1b
200101be:	fe734ae3          	blt	t1,t2,200101b2 <_start+0x62>
C:/Users/nandg/Desktop/FE310-G003/sifive_hifive1_revb_sifive_welcome/freedom-metal/gloss/crt0.S:109
#endif
2:

  /* Fence all subsequent instruction fetches until after the ITIM writes
     complete */
  fence.i
200101c2:	0000100f          	fence.i
C:/Users/nandg/Desktop/FE310-G003/sifive_hifive1_revb_sifive_welcome/freedom-metal/gloss/crt0.S:114

2:

  /* Copy the LIM section */
  la t0, metal_segment_lim_source_start
200101c6:	00001297          	auipc	t0,0x1
200101ca:	eaa28293          	addi	t0,t0,-342 # 20011070 <metal_segment_itim_source_start>
C:/Users/nandg/Desktop/FE310-G003/sifive_hifive1_revb_sifive_welcome/freedom-metal/gloss/crt0.S:115
  la t1, metal_segment_lim_target_start
200101ce:	5fff0317          	auipc	t1,0x5fff0
200101d2:	e3230313          	addi	t1,t1,-462 # 80000000 <impure_data>
C:/Users/nandg/Desktop/FE310-G003/sifive_hifive1_revb_sifive_welcome/freedom-metal/gloss/crt0.S:116
  la t2, metal_segment_lim_target_end
200101d6:	5fff0397          	auipc	t2,0x5fff0
200101da:	e2a38393          	addi	t2,t2,-470 # 80000000 <impure_data>
C:/Users/nandg/Desktop/FE310-G003/sifive_hifive1_revb_sifive_welcome/freedom-metal/gloss/crt0.S:118

  beq t0, t1, 2f
200101de:	00628c63          	beq	t0,t1,200101f6 <_start+0xa6>
C:/Users/nandg/Desktop/FE310-G003/sifive_hifive1_revb_sifive_welcome/freedom-metal/gloss/crt0.S:119
  bge t1, t2, 2f
200101e2:	00735a63          	bge	t1,t2,200101f6 <_start+0xa6>
C:/Users/nandg/Desktop/FE310-G003/sifive_hifive1_revb_sifive_welcome/freedom-metal/gloss/crt0.S:123

1:
#if __riscv_xlen == 32
  lw   a0, 0(t0)
200101e6:	0002a503          	lw	a0,0(t0)
C:/Users/nandg/Desktop/FE310-G003/sifive_hifive1_revb_sifive_welcome/freedom-metal/gloss/crt0.S:124
  addi t0, t0, 4
200101ea:	0291                	addi	t0,t0,4
C:/Users/nandg/Desktop/FE310-G003/sifive_hifive1_revb_sifive_welcome/freedom-metal/gloss/crt0.S:125
  sw   a0, 0(t1)
200101ec:	00a32023          	sw	a0,0(t1)
C:/Users/nandg/Desktop/FE310-G003/sifive_hifive1_revb_sifive_welcome/freedom-metal/gloss/crt0.S:126
  addi t1, t1, 4
200101f0:	0311                	addi	t1,t1,4
C:/Users/nandg/Desktop/FE310-G003/sifive_hifive1_revb_sifive_welcome/freedom-metal/gloss/crt0.S:127
  blt  t1, t2, 1b
200101f2:	fe734ae3          	blt	t1,t2,200101e6 <_start+0x96>
C:/Users/nandg/Desktop/FE310-G003/sifive_hifive1_revb_sifive_welcome/freedom-metal/gloss/crt0.S:139
#endif
2:

  /* Fence all subsequent instruction fetches until after the LIM writes
     complete */
  fence.i
200101f6:	0000100f          	fence.i
C:/Users/nandg/Desktop/FE310-G003/sifive_hifive1_revb_sifive_welcome/freedom-metal/gloss/crt0.S:142

  /* Zero the BSS segment. */
  la t1, metal_segment_bss_target_start
200101fa:	5fff1317          	auipc	t1,0x5fff1
200101fe:	8ce30313          	addi	t1,t1,-1842 # 80000ac8 <__malloc_free_list>
C:/Users/nandg/Desktop/FE310-G003/sifive_hifive1_revb_sifive_welcome/freedom-metal/gloss/crt0.S:143
  la t2, metal_segment_bss_target_end
20010202:	8cc18393          	addi	t2,gp,-1844 # 80000b6c <metal_segment_bss_target_end>
C:/Users/nandg/Desktop/FE310-G003/sifive_hifive1_revb_sifive_welcome/freedom-metal/gloss/crt0.S:145

  bge t1, t2, 2f
20010206:	00735763          	bge	t1,t2,20010214 <_start+0xc4>
C:/Users/nandg/Desktop/FE310-G003/sifive_hifive1_revb_sifive_welcome/freedom-metal/gloss/crt0.S:149

1:
#if __riscv_xlen == 32
  sw   x0, 0(t1)
2001020a:	00032023          	sw	zero,0(t1)
C:/Users/nandg/Desktop/FE310-G003/sifive_hifive1_revb_sifive_welcome/freedom-metal/gloss/crt0.S:150
  addi t1, t1, 4
2001020e:	0311                	addi	t1,t1,4
C:/Users/nandg/Desktop/FE310-G003/sifive_hifive1_revb_sifive_welcome/freedom-metal/gloss/crt0.S:151
  blt  t1, t2, 1b
20010210:	fe734de3          	blt	t1,t2,2001020a <_start+0xba>
C:/Users/nandg/Desktop/FE310-G003/sifive_hifive1_revb_sifive_welcome/freedom-metal/gloss/crt0.S:161
#endif
2:

  /* Set TLS pointer */
  .weak __tls_base	
  la tp, __tls_base
20010214:	5fff1217          	auipc	tp,0x5fff1
20010218:	8b420213          	addi	tp,tp,-1868 # 80000ac8 <__malloc_free_list>
C:/Users/nandg/Desktop/FE310-G003/sifive_hifive1_revb_sifive_welcome/freedom-metal/gloss/crt0.S:166

  /* At this point we're in an environment that can execute C code.  The first
   * thing to do is to make the callback to the parent environment if it's been
   * requested to do so. */
  beqz a2, 1f
2001021c:	c211                	beqz	a2,20010220 <_start+0xd0>
C:/Users/nandg/Desktop/FE310-G003/sifive_hifive1_revb_sifive_welcome/freedom-metal/gloss/crt0.S:167
  jalr a2
2001021e:	9602                	jalr	a2
C:/Users/nandg/Desktop/FE310-G003/sifive_hifive1_revb_sifive_welcome/freedom-metal/gloss/crt0.S:171
1:

  /* The RISC-V port only uses new-style constructors and destructors. */
  la a0, __libc_fini_array
20010220:	00007517          	auipc	a0,0x7
20010224:	96450513          	addi	a0,a0,-1692 # 20016b84 <__libc_fini_array>
C:/Users/nandg/Desktop/FE310-G003/sifive_hifive1_revb_sifive_welcome/freedom-metal/gloss/crt0.S:172
  call atexit
20010228:	11f060ef          	jal	ra,20016b46 <atexit>
C:/Users/nandg/Desktop/FE310-G003/sifive_hifive1_revb_sifive_welcome/freedom-metal/gloss/crt0.S:173
  call __libc_init_array
2001022c:	18f060ef          	jal	ra,20016bba <__libc_init_array>
C:/Users/nandg/Desktop/FE310-G003/sifive_hifive1_revb_sifive_welcome/freedom-metal/gloss/crt0.S:177

  /* Register metal_fini_run as a destructor and call metal_init_run to
   * run and setup Metal constructors */
  la a0, metal_fini_run
20010230:	00007517          	auipc	a0,0x7
20010234:	2d250513          	addi	a0,a0,722 # 20017502 <metal_fini_run>
C:/Users/nandg/Desktop/FE310-G003/sifive_hifive1_revb_sifive_welcome/freedom-metal/gloss/crt0.S:178
  call atexit
20010238:	10f060ef          	jal	ra,20016b46 <atexit>
C:/Users/nandg/Desktop/FE310-G003/sifive_hifive1_revb_sifive_welcome/freedom-metal/gloss/crt0.S:179
  call metal_init_run
2001023c:	2b0070ef          	jal	ra,200174ec <metal_init_run>

20010240 <_skip_init>:
_skip_init():
C:/Users/nandg/Desktop/FE310-G003/sifive_hifive1_revb_sifive_welcome/freedom-metal/gloss/crt0.S:185

_skip_init:

  /* Synchronize harts so that secondary harts wait until hart 0 finishes
     initializing */
  call __metal_synchronize_harts
20010240:	3709                	jal	20010142 <__metal_synchronize_harts>
C:/Users/nandg/Desktop/FE310-G003/sifive_hifive1_revb_sifive_welcome/freedom-metal/gloss/crt0.S:188

  /* Disable and clear all interrupt sources */
  li   a3, -1
20010242:	56fd                	li	a3,-1
C:/Users/nandg/Desktop/FE310-G003/sifive_hifive1_revb_sifive_welcome/freedom-metal/gloss/crt0.S:189
  csrc mie, a3
20010244:	3046b073          	csrc	mie,a3
C:/Users/nandg/Desktop/FE310-G003/sifive_hifive1_revb_sifive_welcome/freedom-metal/gloss/crt0.S:190
  csrc mip, a3
20010248:	3446b073          	csrc	mip,a3
C:/Users/nandg/Desktop/FE310-G003/sifive_hifive1_revb_sifive_welcome/freedom-metal/gloss/crt0.S:194

  /* The delegation CSRs exist if user mode interrupts (N extension) or
   * supervisor mode (S extension) are supported */
  csrr a5, misa
2001024c:	301027f3          	csrr	a5,misa
C:/Users/nandg/Desktop/FE310-G003/sifive_hifive1_revb_sifive_welcome/freedom-metal/gloss/crt0.S:195
  lui  a4, 0x42
20010250:	00042737          	lui	a4,0x42
C:/Users/nandg/Desktop/FE310-G003/sifive_hifive1_revb_sifive_welcome/freedom-metal/gloss/crt0.S:196
  and  a4, a4, a5
20010254:	8f7d                	and	a4,a4,a5
C:/Users/nandg/Desktop/FE310-G003/sifive_hifive1_revb_sifive_welcome/freedom-metal/gloss/crt0.S:197
  beqz a4, 1f
20010256:	c709                	beqz	a4,20010260 <_skip_init+0x20>
C:/Users/nandg/Desktop/FE310-G003/sifive_hifive1_revb_sifive_welcome/freedom-metal/gloss/crt0.S:198
  csrc mideleg, a3
20010258:	3036b073          	csrc	mideleg,a3
C:/Users/nandg/Desktop/FE310-G003/sifive_hifive1_revb_sifive_welcome/freedom-metal/gloss/crt0.S:199
  csrc medeleg, a3
2001025c:	3026b073          	csrc	medeleg,a3
C:/Users/nandg/Desktop/FE310-G003/sifive_hifive1_revb_sifive_welcome/freedom-metal/gloss/crt0.S:203
1:

  /* The satp CSR exists if supervisor mode (S extension) is supported */
  lui  a4, 0x40
20010260:	00040737          	lui	a4,0x40
C:/Users/nandg/Desktop/FE310-G003/sifive_hifive1_revb_sifive_welcome/freedom-metal/gloss/crt0.S:204
  and  a4, a4, a5
20010264:	8f7d                	and	a4,a4,a5
C:/Users/nandg/Desktop/FE310-G003/sifive_hifive1_revb_sifive_welcome/freedom-metal/gloss/crt0.S:205
  beqz a4, 1f
20010266:	c319                	beqz	a4,2001026c <_skip_init+0x2c>
C:/Users/nandg/Desktop/FE310-G003/sifive_hifive1_revb_sifive_welcome/freedom-metal/gloss/crt0.S:206
  csrc satp, a3
20010268:	1806b073          	csrc	satp,a3
C:/Users/nandg/Desktop/FE310-G003/sifive_hifive1_revb_sifive_welcome/freedom-metal/gloss/crt0.S:210
1:

  /* Check RISC-V isa and enable FS bits if Floating Point architecture. */
  li   a4, 0x10028
2001026c:	6741                	lui	a4,0x10
2001026e:	02870713          	addi	a4,a4,40 # 10028 <__heap_size+0xf828>
C:/Users/nandg/Desktop/FE310-G003/sifive_hifive1_revb_sifive_welcome/freedom-metal/gloss/crt0.S:211
  and  a5, a5, a4
20010272:	8ff9                	and	a5,a5,a4
C:/Users/nandg/Desktop/FE310-G003/sifive_hifive1_revb_sifive_welcome/freedom-metal/gloss/crt0.S:212
  beqz a5, 1f
20010274:	cb89                	beqz	a5,20010286 <_skip_init+0x46>
C:/Users/nandg/Desktop/FE310-G003/sifive_hifive1_revb_sifive_welcome/freedom-metal/gloss/crt0.S:213
  csrr a5, mstatus
20010276:	300027f3          	csrr	a5,mstatus
C:/Users/nandg/Desktop/FE310-G003/sifive_hifive1_revb_sifive_welcome/freedom-metal/gloss/crt0.S:214
  lui  a4, 0x2
2001027a:	6709                	lui	a4,0x2
C:/Users/nandg/Desktop/FE310-G003/sifive_hifive1_revb_sifive_welcome/freedom-metal/gloss/crt0.S:215
  or   a5, a5, a4
2001027c:	8fd9                	or	a5,a5,a4
C:/Users/nandg/Desktop/FE310-G003/sifive_hifive1_revb_sifive_welcome/freedom-metal/gloss/crt0.S:216
  csrw mstatus, a5
2001027e:	30079073          	csrw	mstatus,a5
C:/Users/nandg/Desktop/FE310-G003/sifive_hifive1_revb_sifive_welcome/freedom-metal/gloss/crt0.S:217
  csrwi fcsr, 0
20010282:	00305073          	csrwi	fcsr,0
C:/Users/nandg/Desktop/FE310-G003/sifive_hifive1_revb_sifive_welcome/freedom-metal/gloss/crt0.S:221
1:

  /* Check for vector extension support and enable it if found */
  csrr a5, misa
20010286:	301027f3          	csrr	a5,misa
C:/Users/nandg/Desktop/FE310-G003/sifive_hifive1_revb_sifive_welcome/freedom-metal/gloss/crt0.S:222
  li a4, 0x200000
2001028a:	00200737          	lui	a4,0x200
C:/Users/nandg/Desktop/FE310-G003/sifive_hifive1_revb_sifive_welcome/freedom-metal/gloss/crt0.S:223
  and a5, a5, a4
2001028e:	8ff9                	and	a5,a5,a4
C:/Users/nandg/Desktop/FE310-G003/sifive_hifive1_revb_sifive_welcome/freedom-metal/gloss/crt0.S:224
  beqz a5, 1f
20010290:	c799                	beqz	a5,2001029e <_skip_init+0x5e>
C:/Users/nandg/Desktop/FE310-G003/sifive_hifive1_revb_sifive_welcome/freedom-metal/gloss/crt0.S:225
  csrr a5, mstatus
20010292:	300027f3          	csrr	a5,mstatus
C:/Users/nandg/Desktop/FE310-G003/sifive_hifive1_revb_sifive_welcome/freedom-metal/gloss/crt0.S:226
  ori a5, a5, 0x200
20010296:	2007e793          	ori	a5,a5,512
C:/Users/nandg/Desktop/FE310-G003/sifive_hifive1_revb_sifive_welcome/freedom-metal/gloss/crt0.S:227
  csrw mstatus, a5
2001029a:	30079073          	csrw	mstatus,a5
C:/Users/nandg/Desktop/FE310-G003/sifive_hifive1_revb_sifive_welcome/freedom-metal/gloss/crt0.S:233
1:

  /* This is a C runtime, so main() is defined to have some arguments.  Since
   * there's nothing sane the METAL can pass we don't bother with that but
   * instead just setup as close to a NOP as we can. */
  li a0, 1     /* argc=1 */
2001029e:	4505                	li	a0,1
C:/Users/nandg/Desktop/FE310-G003/sifive_hifive1_revb_sifive_welcome/freedom-metal/gloss/crt0.S:234
  la a1, argv  /* argv = {"libgloss", NULL} */
200102a0:	00001597          	auipc	a1,0x1
200102a4:	c9058593          	addi	a1,a1,-880 # 20010f30 <argv>
C:/Users/nandg/Desktop/FE310-G003/sifive_hifive1_revb_sifive_welcome/freedom-metal/gloss/crt0.S:235
  la a2, envp  /* envp = {NULL} */
200102a8:	00001617          	auipc	a2,0x1
200102ac:	c8c60613          	addi	a2,a2,-884 # 20010f34 <envp>
C:/Users/nandg/Desktop/FE310-G003/sifive_hifive1_revb_sifive_welcome/freedom-metal/gloss/crt0.S:236
  call secondary_main
200102b0:	2031                	jal	200102bc <secondary_main>
C:/Users/nandg/Desktop/FE310-G003/sifive_hifive1_revb_sifive_welcome/freedom-metal/gloss/crt0.S:242

  /* Call exit to handle libc's cleanup routines.  Under normal contains this
   * shouldn't even get called, but I'm still not using a tail call here
   * because returning to the METAL is the right thing to do in pathological
   * situations. */
  call exit
200102b2:	0a9060ef          	jal	ra,20016b5a <exit>
C:/Users/nandg/Desktop/FE310-G003/sifive_hifive1_revb_sifive_welcome/freedom-metal/gloss/crt0.S:247

  /* And here's where we return.  Again, it's a bit odd but the METAL defines
   * this as a bad idea (ie, as opposed to leaving it undefined) and at this
   * point it's really the only thing left to do. */
  mv ra, s0
200102b6:	80a2                	mv	ra,s0
C:/Users/nandg/Desktop/FE310-G003/sifive_hifive1_revb_sifive_welcome/freedom-metal/gloss/crt0.S:248
  ret
200102b8:	8082                	ret

200102ba <_fini>:
_init():
C:/Users/nandg/Desktop/FE310-G003/sifive_hifive1_revb_sifive_welcome/freedom-metal/gloss/crt0.S:260
.type   _init, @function
.global _fini
.type   _fini, @function
_init:
_fini:
  ret
200102ba:	8082                	ret

200102bc <secondary_main>:
secondary_main():
C:/Users/nandg/Desktop/FE310-G003/sifive_hifive1_revb_sifive_welcome/freedom-metal/gloss/crt0.S:271
.weak   secondary_main
.global secondary_main
.type   secondary_main, @function

secondary_main:
  addi sp, sp, -16
200102bc:	1141                	addi	sp,sp,-16
C:/Users/nandg/Desktop/FE310-G003/sifive_hifive1_revb_sifive_welcome/freedom-metal/gloss/crt0.S:273
#if __riscv_xlen == 32
  sw ra, 4(sp)
200102be:	c206                	sw	ra,4(sp)
C:/Users/nandg/Desktop/FE310-G003/sifive_hifive1_revb_sifive_welcome/freedom-metal/gloss/crt0.S:277
#else
  sd ra, 8(sp)
#endif
  csrr t0, mhartid
200102c0:	f14022f3          	csrr	t0,mhartid
C:/Users/nandg/Desktop/FE310-G003/sifive_hifive1_revb_sifive_welcome/freedom-metal/gloss/crt0.S:278
  la t1, __metal_boot_hart
200102c4:	00000313          	li	t1,0
C:/Users/nandg/Desktop/FE310-G003/sifive_hifive1_revb_sifive_welcome/freedom-metal/gloss/crt0.S:279
  beq t0, t1, 2f
200102c8:	00628563          	beq	t0,t1,200102d2 <secondary_main+0x16>
C:/Users/nandg/Desktop/FE310-G003/sifive_hifive1_revb_sifive_welcome/freedom-metal/gloss/crt0.S:281
1:
  wfi
200102cc:	10500073          	wfi
C:/Users/nandg/Desktop/FE310-G003/sifive_hifive1_revb_sifive_welcome/freedom-metal/gloss/crt0.S:282
  j 1b
200102d0:	bff5                	j	200102cc <secondary_main+0x10>
C:/Users/nandg/Desktop/FE310-G003/sifive_hifive1_revb_sifive_welcome/freedom-metal/gloss/crt0.S:284
2:
  call main
200102d2:	5f1000ef          	jal	ra,200110c2 <main>
C:/Users/nandg/Desktop/FE310-G003/sifive_hifive1_revb_sifive_welcome/freedom-metal/gloss/crt0.S:286
#if __riscv_xlen == 32
  lw ra, 4(sp)
200102d6:	4092                	lw	ra,4(sp)
C:/Users/nandg/Desktop/FE310-G003/sifive_hifive1_revb_sifive_welcome/freedom-metal/gloss/crt0.S:290
#else
  ld ra, 8(sp)
#endif
  addi sp, sp, 16
200102d8:	0141                	addi	sp,sp,16
C:/Users/nandg/Desktop/FE310-G003/sifive_hifive1_revb_sifive_welcome/freedom-metal/gloss/crt0.S:291
  ret
200102da:	8082                	ret

Disassembly of section .ctors:

200102ec <metal_sifive_fe310_g000_pll_init>:
metal_sifive_fe310_g000_pll_init():
C:/Users/nandg/Desktop/FE310-G003/sifive_hifive1_revb_sifive_welcome/freedom-metal/src/drivers/sifive_fe310-g000_pll.c:151
    return pll_input_rate * config->multiplier / config->divisor;
}

#ifdef __METAL_DT_SIFIVE_FE310_G000_PLL_HANDLE

METAL_CONSTRUCTOR(metal_sifive_fe310_g000_pll_init) {
200102ec:	1101                	addi	sp,sp,-32
200102ee:	ce06                	sw	ra,28(sp)
200102f0:	cc22                	sw	s0,24(sp)
200102f2:	1000                	addi	s0,sp,32
C:/Users/nandg/Desktop/FE310-G003/sifive_hifive1_revb_sifive_welcome/freedom-metal/src/drivers/sifive_fe310-g000_pll.c:152
    long init_rate = __metal_driver_sifive_fe310_g000_pll_init_rate();
200102f4:	021040ef          	jal	ra,20014b14 <__metal_driver_sifive_fe310_g000_pll_init_rate>
200102f8:	fea42623          	sw	a0,-20(s0)
C:/Users/nandg/Desktop/FE310-G003/sifive_hifive1_revb_sifive_welcome/freedom-metal/src/drivers/sifive_fe310-g000_pll.c:154
    /* If the PLL init_rate is zero, don't initialize the PLL */
    if (init_rate != 0)
200102fc:	fec42783          	lw	a5,-20(s0)
20010300:	c799                	beqz	a5,2001030e <__fini_array_end+0x1e>
C:/Users/nandg/Desktop/FE310-G003/sifive_hifive1_revb_sifive_welcome/freedom-metal/src/drivers/sifive_fe310-g000_pll.c:155
        __metal_driver_sifive_fe310_g000_pll_init(
20010302:	800017b7          	lui	a5,0x80001
20010306:	a9078513          	addi	a0,a5,-1392 # 80000a90 <metal_segment_heap_target_end+0xfffff320>
2001030a:	097040ef          	jal	ra,20014ba0 <__metal_driver_sifive_fe310_g000_pll_init>
C:/Users/nandg/Desktop/FE310-G003/sifive_hifive1_revb_sifive_welcome/freedom-metal/src/drivers/sifive_fe310-g000_pll.c:157
            __METAL_DT_SIFIVE_FE310_G000_PLL_HANDLE);
}
2001030e:	0001                	nop
20010310:	40f2                	lw	ra,28(sp)
20010312:	4462                	lw	s0,24(sp)
20010314:	6105                	addi	sp,sp,32
20010316:	8082                	ret

20010318 <use_hfxosc>:
use_hfxosc():
C:/Users/nandg/Desktop/FE310-G003/sifive_hifive1_revb_sifive_welcome/freedom-metal/src/drivers/sifive_fe310-g000_pll.c:389

    return __metal_driver_sifive_fe310_g000_pll_get_rate_hz(clock);
}

#ifdef __METAL_DT_SIFIVE_FE310_G000_PLL_HANDLE
METAL_CONSTRUCTOR(use_hfxosc) {
20010318:	1101                	addi	sp,sp,-32
2001031a:	ce06                	sw	ra,28(sp)
2001031c:	cc22                	sw	s0,24(sp)
2001031e:	1000                	addi	s0,sp,32
C:/Users/nandg/Desktop/FE310-G003/sifive_hifive1_revb_sifive_welcome/freedom-metal/src/drivers/sifive_fe310-g000_pll.c:390
    long init_rate = __metal_driver_sifive_fe310_g000_pll_init_rate();
20010320:	7f4040ef          	jal	ra,20014b14 <__metal_driver_sifive_fe310_g000_pll_init_rate>
20010324:	fea42623          	sw	a0,-20(s0)
C:/Users/nandg/Desktop/FE310-G003/sifive_hifive1_revb_sifive_welcome/freedom-metal/src/drivers/sifive_fe310-g000_pll.c:391
    metal_clock_set_rate_hz(&__METAL_DT_SIFIVE_FE310_G000_PLL_HANDLE->clock,
20010328:	fec42583          	lw	a1,-20(s0)
2001032c:	800017b7          	lui	a5,0x80001
20010330:	a9078513          	addi	a0,a5,-1392 # 80000a90 <metal_segment_heap_target_end+0xfffff320>
20010334:	110060ef          	jal	ra,20016444 <metal_clock_set_rate_hz>
C:/Users/nandg/Desktop/FE310-G003/sifive_hifive1_revb_sifive_welcome/freedom-metal/src/drivers/sifive_fe310-g000_pll.c:393
                            init_rate);
}
20010338:	0001                	nop
2001033a:	40f2                	lw	ra,28(sp)
2001033c:	4462                	lw	s0,24(sp)
2001033e:	6105                	addi	sp,sp,32
20010340:	8082                	ret

20010342 <metal_tty_init>:
metal_tty_init():
C:/Users/nandg/Desktop/FE310-G003/sifive_hifive1_revb_sifive_welcome/freedom-metal/src/tty.c:28

#ifndef __METAL_DT_STDOUT_UART_BAUD
#define __METAL_DT_STDOUT_UART_BAUD 115200
#endif

METAL_CONSTRUCTOR(metal_tty_init) {
20010342:	1141                	addi	sp,sp,-16
20010344:	c606                	sw	ra,12(sp)
20010346:	c422                	sw	s0,8(sp)
20010348:	0800                	addi	s0,sp,16
C:/Users/nandg/Desktop/FE310-G003/sifive_hifive1_revb_sifive_welcome/freedom-metal/src/tty.c:29
    metal_uart_init(__METAL_DT_STDOUT_UART_HANDLE, __METAL_DT_STDOUT_UART_BAUD);
2001034a:	67f1                	lui	a5,0x1c
2001034c:	20078593          	addi	a1,a5,512 # 1c200 <__heap_size+0x1ba00>
20010350:	800017b7          	lui	a5,0x80001
20010354:	a3878513          	addi	a0,a5,-1480 # 80000a38 <metal_segment_heap_target_end+0xfffff2c8>
20010358:	266060ef          	jal	ra,200165be <metal_uart_init>
C:/Users/nandg/Desktop/FE310-G003/sifive_hifive1_revb_sifive_welcome/freedom-metal/src/tty.c:30
}
2001035c:	0001                	nop
2001035e:	40b2                	lw	ra,12(sp)
20010360:	4422                	lw	s0,8(sp)
20010362:	0141                	addi	sp,sp,16
20010364:	8082                	ret

Disassembly of section .text:

20011080 <delay_us>:
delay_us():
C:\Users\nandg\Desktop\FE310-G003\sifive_hifive1_revb_sifive_welcome\src/sifive-welcome.c:53
#define OUTPUT_DEV_15594_IO_16 (10)  // Label: "16" (SPI 1 SS3)      // (PWM 2-1)
#define OUTPUT_DEV_15594_IO_17 (11)  // Label: "~17" (SPI 1 SS3*)    // (PWM 2-2)
#define OUTPUT_DEV_15594_IO_18 (12)  // Is connected to: OUTPUT_DEV_15594_IO_SDA
#define OUTPUT_DEV_15594_IO_19 (13)  // Is connected to: OUTPUT_DEV_15594_IO_SCL

void delay_us(int delayTime_us) {
20011080:	7179                	addi	sp,sp,-48
20011082:	d606                	sw	ra,44(sp)
20011084:	d422                	sw	s0,40(sp)
20011086:	1800                	addi	s0,sp,48
20011088:	fca42e23          	sw	a0,-36(s0)
C:\Users\nandg\Desktop\FE310-G003\sifive_hifive1_revb_sifive_welcome\src/sifive-welcome.c:55
    // Covert the requested time to multiples of 100 nanoseconds
    int requestedDelay_us_mul_10 = 10 * delayTime_us;
2001108c:	fdc42703          	lw	a4,-36(s0)
20011090:	87ba                	mv	a5,a4
20011092:	078a                	slli	a5,a5,0x2
20011094:	97ba                	add	a5,a5,a4
20011096:	0786                	slli	a5,a5,0x1
20011098:	fef42623          	sw	a5,-20(s0)
C:\Users\nandg\Desktop\FE310-G003\sifive_hifive1_revb_sifive_welcome\src/sifive-welcome.c:58

    // Store the start time
    clock_t startTime_us = clock();
2001109c:	20c5                	jal	2001117c <clock>
2001109e:	fea42423          	sw	a0,-24(s0)
C:\Users\nandg\Desktop\FE310-G003\sifive_hifive1_revb_sifive_welcome\src/sifive-welcome.c:61

    // Loop until the required time delay is achieved
    while( clock() < startTime_us + requestedDelay_us_mul_10);
200110a2:	0001                	nop
C:\Users\nandg\Desktop\FE310-G003\sifive_hifive1_revb_sifive_welcome\src/sifive-welcome.c:61 (discriminator 1)
200110a4:	28e1                	jal	2001117c <clock>
200110a6:	86aa                	mv	a3,a0
200110a8:	fec42703          	lw	a4,-20(s0)
200110ac:	fe842783          	lw	a5,-24(s0)
200110b0:	97ba                	add	a5,a5,a4
200110b2:	fef6e9e3          	bltu	a3,a5,200110a4 <delay_us+0x24>
C:\Users\nandg\Desktop\FE310-G003\sifive_hifive1_revb_sifive_welcome\src/sifive-welcome.c:62
}
200110b6:	0001                	nop
200110b8:	0001                	nop
200110ba:	50b2                	lw	ra,44(sp)
200110bc:	5422                	lw	s0,40(sp)
200110be:	6145                	addi	sp,sp,48
200110c0:	8082                	ret

200110c2 <main>:
main():
C:\Users\nandg\Desktop\FE310-G003\sifive_hifive1_revb_sifive_welcome\src/sifive-welcome.c:64

int main() {
200110c2:	1101                	addi	sp,sp,-32
200110c4:	ce06                	sw	ra,28(sp)
200110c6:	cc22                	sw	s0,24(sp)
200110c8:	1000                	addi	s0,sp,32
C:\Users\nandg\Desktop\FE310-G003\sifive_hifive1_revb_sifive_welcome\src/sifive-welcome.c:65
    delay_us(STARTUP_DELAY_US);
200110ca:	000f47b7          	lui	a5,0xf4
200110ce:	24078513          	addi	a0,a5,576 # f4240 <__heap_size+0xf3a40>
200110d2:	377d                	jal	20011080 <delay_us>
C:\Users\nandg\Desktop\FE310-G003\sifive_hifive1_revb_sifive_welcome\src/sifive-welcome.c:66
    printf("[ OK ] Power-on reset\n");
200110d4:	200107b7          	lui	a5,0x20010
200110d8:	36878513          	addi	a0,a5,872 # 20010368 <metal_tty_init+0x26>
200110dc:	2255                	jal	20011280 <puts>
C:\Users\nandg\Desktop\FE310-G003\sifive_hifive1_revb_sifive_welcome\src/sifive-welcome.c:69

    //---Bare Metal Library: GPIO Setup
    struct metal_gpio* gpio_device = metal_gpio_get_device(0);
200110de:	4501                	li	a0,0
200110e0:	569000ef          	jal	ra,20011e48 <metal_gpio_get_device>
200110e4:	fea42623          	sw	a0,-20(s0)
C:\Users\nandg\Desktop\FE310-G003\sifive_hifive1_revb_sifive_welcome\src/sifive-welcome.c:72

    //---Initialize GPIO directions
    metal_gpio_enable_output(gpio_device, OUTPUT_DEV_15799_IO_0); // Red LED
200110e8:	4581                	li	a1,0
200110ea:	fec42503          	lw	a0,-20(s0)
200110ee:	473000ef          	jal	ra,20011d60 <metal_gpio_enable_output>
C:\Users\nandg\Desktop\FE310-G003\sifive_hifive1_revb_sifive_welcome\src/sifive-welcome.c:73
    metal_gpio_enable_output(gpio_device, OUTPUT_DEV_15799_IO_1); // Green LED
200110f2:	4585                	li	a1,1
200110f4:	fec42503          	lw	a0,-20(s0)
200110f8:	469000ef          	jal	ra,20011d60 <metal_gpio_enable_output>
C:\Users\nandg\Desktop\FE310-G003\sifive_hifive1_revb_sifive_welcome\src/sifive-welcome.c:74
    metal_gpio_enable_output(gpio_device, OUTPUT_DEV_15799_IO_SCK); // Blue LED
200110fc:	4595                	li	a1,5
200110fe:	fec42503          	lw	a0,-20(s0)
20011102:	45f000ef          	jal	ra,20011d60 <metal_gpio_enable_output>
C:\Users\nandg\Desktop\FE310-G003\sifive_hifive1_revb_sifive_welcome\src/sifive-welcome.c:75
    metal_gpio_disable_pinmux(gpio_device, OUTPUT_DEV_15799_IO_SCK); // Disable SPI
20011106:	4595                	li	a1,5
20011108:	fec42503          	lw	a0,-20(s0)
2001110c:	4fd000ef          	jal	ra,20011e08 <metal_gpio_disable_pinmux>
C:\Users\nandg\Desktop\FE310-G003\sifive_hifive1_revb_sifive_welcome\src/sifive-welcome.c:79 (discriminator 1)

    while(1)
    {
        metal_gpio_set_pin(gpio_device, OUTPUT_DEV_15799_IO_0, 1); // Red On
20011110:	4605                	li	a2,1
20011112:	4581                	li	a1,0
20011114:	fec42503          	lw	a0,-20(s0)
20011118:	489000ef          	jal	ra,20011da0 <metal_gpio_set_pin>
C:\Users\nandg\Desktop\FE310-G003\sifive_hifive1_revb_sifive_welcome\src/sifive-welcome.c:80 (discriminator 1)
        delay_us(DWELL_TIME_US);
2001111c:	6789                	lui	a5,0x2
2001111e:	71078513          	addi	a0,a5,1808 # 2710 <__heap_size+0x1f10>
20011122:	3fb9                	jal	20011080 <delay_us>
C:\Users\nandg\Desktop\FE310-G003\sifive_hifive1_revb_sifive_welcome\src/sifive-welcome.c:81 (discriminator 1)
        metal_gpio_set_pin(gpio_device, OUTPUT_DEV_15799_IO_0, 0); // Red off
20011124:	4601                	li	a2,0
20011126:	4581                	li	a1,0
20011128:	fec42503          	lw	a0,-20(s0)
2001112c:	475000ef          	jal	ra,20011da0 <metal_gpio_set_pin>
C:\Users\nandg\Desktop\FE310-G003\sifive_hifive1_revb_sifive_welcome\src/sifive-welcome.c:82 (discriminator 1)
        metal_gpio_set_pin(gpio_device, OUTPUT_DEV_15799_IO_1, 1); // Green On
20011130:	4605                	li	a2,1
20011132:	4585                	li	a1,1
20011134:	fec42503          	lw	a0,-20(s0)
20011138:	469000ef          	jal	ra,20011da0 <metal_gpio_set_pin>
C:\Users\nandg\Desktop\FE310-G003\sifive_hifive1_revb_sifive_welcome\src/sifive-welcome.c:83 (discriminator 1)
        delay_us(DWELL_TIME_US);
2001113c:	6789                	lui	a5,0x2
2001113e:	71078513          	addi	a0,a5,1808 # 2710 <__heap_size+0x1f10>
20011142:	3f3d                	jal	20011080 <delay_us>
C:\Users\nandg\Desktop\FE310-G003\sifive_hifive1_revb_sifive_welcome\src/sifive-welcome.c:84 (discriminator 1)
        metal_gpio_set_pin(gpio_device, OUTPUT_DEV_15799_IO_1, 0); // Green off
20011144:	4601                	li	a2,0
20011146:	4585                	li	a1,1
20011148:	fec42503          	lw	a0,-20(s0)
2001114c:	455000ef          	jal	ra,20011da0 <metal_gpio_set_pin>
C:\Users\nandg\Desktop\FE310-G003\sifive_hifive1_revb_sifive_welcome\src/sifive-welcome.c:85 (discriminator 1)
        metal_gpio_set_pin(gpio_device, OUTPUT_DEV_15799_IO_SCK, 1); // Blue On
20011150:	4605                	li	a2,1
20011152:	4595                	li	a1,5
20011154:	fec42503          	lw	a0,-20(s0)
20011158:	449000ef          	jal	ra,20011da0 <metal_gpio_set_pin>
C:\Users\nandg\Desktop\FE310-G003\sifive_hifive1_revb_sifive_welcome\src/sifive-welcome.c:86 (discriminator 1)
        delay_us(DWELL_TIME_US);
2001115c:	6789                	lui	a5,0x2
2001115e:	71078513          	addi	a0,a5,1808 # 2710 <__heap_size+0x1f10>
20011162:	3f39                	jal	20011080 <delay_us>
C:\Users\nandg\Desktop\FE310-G003\sifive_hifive1_revb_sifive_welcome\src/sifive-welcome.c:87 (discriminator 1)
        metal_gpio_set_pin(gpio_device, OUTPUT_DEV_15799_IO_SCK, 0); // Blue Off
20011164:	4601                	li	a2,0
20011166:	4595                	li	a1,5
20011168:	fec42503          	lw	a0,-20(s0)
2001116c:	435000ef          	jal	ra,20011da0 <metal_gpio_set_pin>
C:\Users\nandg\Desktop\FE310-G003\sifive_hifive1_revb_sifive_welcome\src/sifive-welcome.c:88 (discriminator 1)
        printf("[INFO] Cycle complete.\n");
20011170:	200107b7          	lui	a5,0x20010
20011174:	38078513          	addi	a0,a5,896 # 20010380 <metal_tty_init+0x3e>
20011178:	2221                	jal	20011280 <puts>
C:\Users\nandg\Desktop\FE310-G003\sifive_hifive1_revb_sifive_welcome\src/sifive-welcome.c:79 (discriminator 1)
        metal_gpio_set_pin(gpio_device, OUTPUT_DEV_15799_IO_0, 1); // Red On
2001117a:	bf59                	j	20011110 <main+0x4e>

2001117c <clock>:
clock():
2001117c:	1101                	addi	sp,sp,-32
2001117e:	858a                	mv	a1,sp
20011180:	5fff0517          	auipc	a0,0x5fff0
20011184:	92052503          	lw	a0,-1760(a0) # 80000aa0 <_impure_ptr>
20011188:	ce06                	sw	ra,28(sp)
2001118a:	2209                	jal	2001128c <_times_r>
2001118c:	57fd                	li	a5,-1
2001118e:	00f50963          	beq	a0,a5,200111a0 <clock+0x24>
20011192:	4792                	lw	a5,4(sp)
20011194:	4502                	lw	a0,0(sp)
20011196:	953e                	add	a0,a0,a5
20011198:	47a2                	lw	a5,8(sp)
2001119a:	953e                	add	a0,a0,a5
2001119c:	47b2                	lw	a5,12(sp)
2001119e:	953e                	add	a0,a0,a5
200111a0:	40f2                	lw	ra,28(sp)
200111a2:	6105                	addi	sp,sp,32
200111a4:	8082                	ret

200111a6 <_puts_r>:
_puts_r():
200111a6:	1101                	addi	sp,sp,-32
200111a8:	ca26                	sw	s1,20(sp)
200111aa:	c84a                	sw	s2,16(sp)
200111ac:	ce06                	sw	ra,28(sp)
200111ae:	cc22                	sw	s0,24(sp)
200111b0:	c64e                	sw	s3,12(sp)
200111b2:	c452                	sw	s4,8(sp)
200111b4:	84aa                	mv	s1,a0
200111b6:	892e                	mv	s2,a1
200111b8:	c501                	beqz	a0,200111c0 <_puts_r+0x1a>
200111ba:	4d1c                	lw	a5,24(a0)
200111bc:	e391                	bnez	a5,200111c0 <_puts_r+0x1a>
200111be:	29fd                	jal	200116bc <__sinit>
200111c0:	4c9c                	lw	a5,24(s1)
200111c2:	4480                	lw	s0,8(s1)
200111c4:	e399                	bnez	a5,200111ca <_puts_r+0x24>
200111c6:	8526                	mv	a0,s1
200111c8:	29d5                	jal	200116bc <__sinit>
200111ca:	fffff797          	auipc	a5,0xfffff
200111ce:	1ee78793          	addi	a5,a5,494 # 200103b8 <__sf_fake_stdin>
200111d2:	02f41c63          	bne	s0,a5,2001120a <_puts_r+0x64>
200111d6:	40c0                	lw	s0,4(s1)
200111d8:	00c45783          	lhu	a5,12(s0)
200111dc:	8ba1                	andi	a5,a5,8
200111de:	c7b1                	beqz	a5,2001122a <_puts_r+0x84>
200111e0:	481c                	lw	a5,16(s0)
200111e2:	c7a1                	beqz	a5,2001122a <_puts_r+0x84>
200111e4:	59fd                	li	s3,-1
200111e6:	4a29                	li	s4,10
200111e8:	441c                	lw	a5,8(s0)
200111ea:	00094583          	lbu	a1,0(s2)
200111ee:	17fd                	addi	a5,a5,-1
200111f0:	e9b1                	bnez	a1,20011244 <_puts_r+0x9e>
200111f2:	c41c                	sw	a5,8(s0)
200111f4:	0607de63          	bgez	a5,20011270 <_puts_r+0xca>
200111f8:	8622                	mv	a2,s0
200111fa:	45a9                	li	a1,10
200111fc:	8526                	mv	a0,s1
200111fe:	2851                	jal	20011292 <__swbuf_r>
20011200:	57fd                	li	a5,-1
20011202:	02f50863          	beq	a0,a5,20011232 <_puts_r+0x8c>
20011206:	4529                	li	a0,10
20011208:	a035                	j	20011234 <_puts_r+0x8e>
2001120a:	fffff797          	auipc	a5,0xfffff
2001120e:	1ce78793          	addi	a5,a5,462 # 200103d8 <__sf_fake_stdout>
20011212:	00f41463          	bne	s0,a5,2001121a <_puts_r+0x74>
20011216:	4480                	lw	s0,8(s1)
20011218:	b7c1                	j	200111d8 <_puts_r+0x32>
2001121a:	fffff797          	auipc	a5,0xfffff
2001121e:	17e78793          	addi	a5,a5,382 # 20010398 <__sf_fake_stderr>
20011222:	faf41be3          	bne	s0,a5,200111d8 <_puts_r+0x32>
20011226:	44c0                	lw	s0,12(s1)
20011228:	bf45                	j	200111d8 <_puts_r+0x32>
2001122a:	85a2                	mv	a1,s0
2001122c:	8526                	mv	a0,s1
2001122e:	2215                	jal	20011352 <__swsetup_r>
20011230:	d955                	beqz	a0,200111e4 <_puts_r+0x3e>
20011232:	557d                	li	a0,-1
20011234:	40f2                	lw	ra,28(sp)
20011236:	4462                	lw	s0,24(sp)
20011238:	44d2                	lw	s1,20(sp)
2001123a:	4942                	lw	s2,16(sp)
2001123c:	49b2                	lw	s3,12(sp)
2001123e:	4a22                	lw	s4,8(sp)
20011240:	6105                	addi	sp,sp,32
20011242:	8082                	ret
20011244:	c41c                	sw	a5,8(s0)
20011246:	0905                	addi	s2,s2,1
20011248:	0007d763          	bgez	a5,20011256 <_puts_r+0xb0>
2001124c:	4c18                	lw	a4,24(s0)
2001124e:	00e7cb63          	blt	a5,a4,20011264 <_puts_r+0xbe>
20011252:	01458963          	beq	a1,s4,20011264 <_puts_r+0xbe>
20011256:	401c                	lw	a5,0(s0)
20011258:	00178713          	addi	a4,a5,1
2001125c:	c018                	sw	a4,0(s0)
2001125e:	00b78023          	sb	a1,0(a5)
20011262:	b759                	j	200111e8 <_puts_r+0x42>
20011264:	8622                	mv	a2,s0
20011266:	8526                	mv	a0,s1
20011268:	202d                	jal	20011292 <__swbuf_r>
2001126a:	f7351fe3          	bne	a0,s3,200111e8 <_puts_r+0x42>
2001126e:	b7d1                	j	20011232 <_puts_r+0x8c>
20011270:	401c                	lw	a5,0(s0)
20011272:	00178713          	addi	a4,a5,1
20011276:	c018                	sw	a4,0(s0)
20011278:	4729                	li	a4,10
2001127a:	00e78023          	sb	a4,0(a5)
2001127e:	b761                	j	20011206 <_puts_r+0x60>

20011280 <puts>:
puts():
20011280:	85aa                	mv	a1,a0
20011282:	5fff0517          	auipc	a0,0x5fff0
20011286:	81e52503          	lw	a0,-2018(a0) # 80000aa0 <_impure_ptr>
2001128a:	bf31                	j	200111a6 <_puts_r>

2001128c <_times_r>:
_times_r():
2001128c:	852e                	mv	a0,a1
2001128e:	7b80506f          	j	20016a46 <_times>

20011292 <__swbuf_r>:
__swbuf_r():
20011292:	1101                	addi	sp,sp,-32
20011294:	cc22                	sw	s0,24(sp)
20011296:	ca26                	sw	s1,20(sp)
20011298:	c84a                	sw	s2,16(sp)
2001129a:	ce06                	sw	ra,28(sp)
2001129c:	c64e                	sw	s3,12(sp)
2001129e:	84aa                	mv	s1,a0
200112a0:	892e                	mv	s2,a1
200112a2:	8432                	mv	s0,a2
200112a4:	c501                	beqz	a0,200112ac <__swbuf_r+0x1a>
200112a6:	4d1c                	lw	a5,24(a0)
200112a8:	e391                	bnez	a5,200112ac <__swbuf_r+0x1a>
200112aa:	2909                	jal	200116bc <__sinit>
200112ac:	fffff797          	auipc	a5,0xfffff
200112b0:	10c78793          	addi	a5,a5,268 # 200103b8 <__sf_fake_stdin>
200112b4:	06f41963          	bne	s0,a5,20011326 <__swbuf_r+0x94>
200112b8:	40c0                	lw	s0,4(s1)
200112ba:	4c1c                	lw	a5,24(s0)
200112bc:	c41c                	sw	a5,8(s0)
200112be:	00c45783          	lhu	a5,12(s0)
200112c2:	8ba1                	andi	a5,a5,8
200112c4:	c3c9                	beqz	a5,20011346 <__swbuf_r+0xb4>
200112c6:	481c                	lw	a5,16(s0)
200112c8:	cfbd                	beqz	a5,20011346 <__swbuf_r+0xb4>
200112ca:	481c                	lw	a5,16(s0)
200112cc:	4008                	lw	a0,0(s0)
200112ce:	0ff97993          	zext.b	s3,s2
200112d2:	0ff97913          	zext.b	s2,s2
200112d6:	8d1d                	sub	a0,a0,a5
200112d8:	485c                	lw	a5,20(s0)
200112da:	00f54663          	blt	a0,a5,200112e6 <__swbuf_r+0x54>
200112de:	85a2                	mv	a1,s0
200112e0:	8526                	mv	a0,s1
200112e2:	24c1                	jal	200115a2 <_fflush_r>
200112e4:	e52d                	bnez	a0,2001134e <__swbuf_r+0xbc>
200112e6:	441c                	lw	a5,8(s0)
200112e8:	0505                	addi	a0,a0,1
200112ea:	17fd                	addi	a5,a5,-1
200112ec:	c41c                	sw	a5,8(s0)
200112ee:	401c                	lw	a5,0(s0)
200112f0:	00178713          	addi	a4,a5,1
200112f4:	c018                	sw	a4,0(s0)
200112f6:	01378023          	sb	s3,0(a5)
200112fa:	485c                	lw	a5,20(s0)
200112fc:	00a78963          	beq	a5,a0,2001130e <__swbuf_r+0x7c>
20011300:	00c45783          	lhu	a5,12(s0)
20011304:	8b85                	andi	a5,a5,1
20011306:	cb81                	beqz	a5,20011316 <__swbuf_r+0x84>
20011308:	47a9                	li	a5,10
2001130a:	00f91663          	bne	s2,a5,20011316 <__swbuf_r+0x84>
2001130e:	85a2                	mv	a1,s0
20011310:	8526                	mv	a0,s1
20011312:	2c41                	jal	200115a2 <_fflush_r>
20011314:	ed0d                	bnez	a0,2001134e <__swbuf_r+0xbc>
20011316:	40f2                	lw	ra,28(sp)
20011318:	4462                	lw	s0,24(sp)
2001131a:	44d2                	lw	s1,20(sp)
2001131c:	49b2                	lw	s3,12(sp)
2001131e:	854a                	mv	a0,s2
20011320:	4942                	lw	s2,16(sp)
20011322:	6105                	addi	sp,sp,32
20011324:	8082                	ret
20011326:	fffff797          	auipc	a5,0xfffff
2001132a:	0b278793          	addi	a5,a5,178 # 200103d8 <__sf_fake_stdout>
2001132e:	00f41463          	bne	s0,a5,20011336 <__swbuf_r+0xa4>
20011332:	4480                	lw	s0,8(s1)
20011334:	b759                	j	200112ba <__swbuf_r+0x28>
20011336:	fffff797          	auipc	a5,0xfffff
2001133a:	06278793          	addi	a5,a5,98 # 20010398 <__sf_fake_stderr>
2001133e:	f6f41ee3          	bne	s0,a5,200112ba <__swbuf_r+0x28>
20011342:	44c0                	lw	s0,12(s1)
20011344:	bf9d                	j	200112ba <__swbuf_r+0x28>
20011346:	85a2                	mv	a1,s0
20011348:	8526                	mv	a0,s1
2001134a:	2021                	jal	20011352 <__swsetup_r>
2001134c:	dd3d                	beqz	a0,200112ca <__swbuf_r+0x38>
2001134e:	597d                	li	s2,-1
20011350:	b7d9                	j	20011316 <__swbuf_r+0x84>

20011352 <__swsetup_r>:
__swsetup_r():
20011352:	1141                	addi	sp,sp,-16
20011354:	c422                	sw	s0,8(sp)
20011356:	c226                	sw	s1,4(sp)
20011358:	c04a                	sw	s2,0(sp)
2001135a:	c606                	sw	ra,12(sp)
2001135c:	5ffef497          	auipc	s1,0x5ffef
20011360:	7444a483          	lw	s1,1860(s1) # 80000aa0 <_impure_ptr>
20011364:	892a                	mv	s2,a0
20011366:	842e                	mv	s0,a1
20011368:	c489                	beqz	s1,20011372 <__swsetup_r+0x20>
2001136a:	4c9c                	lw	a5,24(s1)
2001136c:	e399                	bnez	a5,20011372 <__swsetup_r+0x20>
2001136e:	8526                	mv	a0,s1
20011370:	26b1                	jal	200116bc <__sinit>
20011372:	fffff797          	auipc	a5,0xfffff
20011376:	04678793          	addi	a5,a5,70 # 200103b8 <__sf_fake_stdin>
2001137a:	02f41763          	bne	s0,a5,200113a8 <__swsetup_r+0x56>
2001137e:	40c0                	lw	s0,4(s1)
20011380:	00c41783          	lh	a5,12(s0)
20011384:	01079713          	slli	a4,a5,0x10
20011388:	0087f693          	andi	a3,a5,8
2001138c:	8341                	srli	a4,a4,0x10
2001138e:	eaad                	bnez	a3,20011400 <__swsetup_r+0xae>
20011390:	01077693          	andi	a3,a4,16
20011394:	ea95                	bnez	a3,200113c8 <__swsetup_r+0x76>
20011396:	4725                	li	a4,9
20011398:	00e92023          	sw	a4,0(s2)
2001139c:	0407e793          	ori	a5,a5,64
200113a0:	00f41623          	sh	a5,12(s0)
200113a4:	557d                	li	a0,-1
200113a6:	a871                	j	20011442 <__swsetup_r+0xf0>
200113a8:	fffff797          	auipc	a5,0xfffff
200113ac:	03078793          	addi	a5,a5,48 # 200103d8 <__sf_fake_stdout>
200113b0:	00f41463          	bne	s0,a5,200113b8 <__swsetup_r+0x66>
200113b4:	4480                	lw	s0,8(s1)
200113b6:	b7e9                	j	20011380 <__swsetup_r+0x2e>
200113b8:	fffff797          	auipc	a5,0xfffff
200113bc:	fe078793          	addi	a5,a5,-32 # 20010398 <__sf_fake_stderr>
200113c0:	fcf410e3          	bne	s0,a5,20011380 <__swsetup_r+0x2e>
200113c4:	44c0                	lw	s0,12(s1)
200113c6:	bf6d                	j	20011380 <__swsetup_r+0x2e>
200113c8:	8b11                	andi	a4,a4,4
200113ca:	c70d                	beqz	a4,200113f4 <__swsetup_r+0xa2>
200113cc:	584c                	lw	a1,52(s0)
200113ce:	c989                	beqz	a1,200113e0 <__swsetup_r+0x8e>
200113d0:	04440793          	addi	a5,s0,68
200113d4:	00f58463          	beq	a1,a5,200113dc <__swsetup_r+0x8a>
200113d8:	854a                	mv	a0,s2
200113da:	2bc5                	jal	200119ca <_free_r>
200113dc:	02042a23          	sw	zero,52(s0)
200113e0:	00c45783          	lhu	a5,12(s0)
200113e4:	00042223          	sw	zero,4(s0)
200113e8:	fdb7f793          	andi	a5,a5,-37
200113ec:	00f41623          	sh	a5,12(s0)
200113f0:	481c                	lw	a5,16(s0)
200113f2:	c01c                	sw	a5,0(s0)
200113f4:	00c45783          	lhu	a5,12(s0)
200113f8:	0087e793          	ori	a5,a5,8
200113fc:	00f41623          	sh	a5,12(s0)
20011400:	481c                	lw	a5,16(s0)
20011402:	ef81                	bnez	a5,2001141a <__swsetup_r+0xc8>
20011404:	00c45783          	lhu	a5,12(s0)
20011408:	20000713          	li	a4,512
2001140c:	2807f793          	andi	a5,a5,640
20011410:	00e78563          	beq	a5,a4,2001141a <__swsetup_r+0xc8>
20011414:	85a2                	mv	a1,s0
20011416:	854a                	mv	a0,s2
20011418:	21bd                	jal	20011886 <__smakebuf_r>
2001141a:	00c41783          	lh	a5,12(s0)
2001141e:	01079713          	slli	a4,a5,0x10
20011422:	0017f693          	andi	a3,a5,1
20011426:	8341                	srli	a4,a4,0x10
20011428:	c29d                	beqz	a3,2001144e <__swsetup_r+0xfc>
2001142a:	4854                	lw	a3,20(s0)
2001142c:	00042423          	sw	zero,8(s0)
20011430:	40d006b3          	neg	a3,a3
20011434:	cc14                	sw	a3,24(s0)
20011436:	4814                	lw	a3,16(s0)
20011438:	4501                	li	a0,0
2001143a:	e681                	bnez	a3,20011442 <__swsetup_r+0xf0>
2001143c:	08077713          	andi	a4,a4,128
20011440:	ff31                	bnez	a4,2001139c <__swsetup_r+0x4a>
20011442:	40b2                	lw	ra,12(sp)
20011444:	4422                	lw	s0,8(sp)
20011446:	4492                	lw	s1,4(sp)
20011448:	4902                	lw	s2,0(sp)
2001144a:	0141                	addi	sp,sp,16
2001144c:	8082                	ret
2001144e:	00277693          	andi	a3,a4,2
20011452:	4601                	li	a2,0
20011454:	e291                	bnez	a3,20011458 <__swsetup_r+0x106>
20011456:	4850                	lw	a2,20(s0)
20011458:	c410                	sw	a2,8(s0)
2001145a:	bff1                	j	20011436 <__swsetup_r+0xe4>

2001145c <__sflush_r>:
__sflush_r():
2001145c:	00c5d783          	lhu	a5,12(a1)
20011460:	1101                	addi	sp,sp,-32
20011462:	cc22                	sw	s0,24(sp)
20011464:	ca26                	sw	s1,20(sp)
20011466:	ce06                	sw	ra,28(sp)
20011468:	c84a                	sw	s2,16(sp)
2001146a:	c64e                	sw	s3,12(sp)
2001146c:	0087f713          	andi	a4,a5,8
20011470:	84aa                	mv	s1,a0
20011472:	842e                	mv	s0,a1
20011474:	e375                	bnez	a4,20011558 <__sflush_r+0xfc>
20011476:	41d8                	lw	a4,4(a1)
20011478:	00e04763          	bgtz	a4,20011486 <__sflush_r+0x2a>
2001147c:	41b8                	lw	a4,64(a1)
2001147e:	00e04463          	bgtz	a4,20011486 <__sflush_r+0x2a>
20011482:	4501                	li	a0,0
20011484:	a875                	j	20011540 <__sflush_r+0xe4>
20011486:	5458                	lw	a4,44(s0)
20011488:	df6d                	beqz	a4,20011482 <__sflush_r+0x26>
2001148a:	6685                	lui	a3,0x1
2001148c:	0004a903          	lw	s2,0(s1)
20011490:	8ff5                	and	a5,a5,a3
20011492:	0004a023          	sw	zero,0(s1)
20011496:	cfa5                	beqz	a5,2001150e <__sflush_r+0xb2>
20011498:	4868                	lw	a0,84(s0)
2001149a:	00c45783          	lhu	a5,12(s0)
2001149e:	8b91                	andi	a5,a5,4
200114a0:	c799                	beqz	a5,200114ae <__sflush_r+0x52>
200114a2:	405c                	lw	a5,4(s0)
200114a4:	8d1d                	sub	a0,a0,a5
200114a6:	585c                	lw	a5,52(s0)
200114a8:	c399                	beqz	a5,200114ae <__sflush_r+0x52>
200114aa:	403c                	lw	a5,64(s0)
200114ac:	8d1d                	sub	a0,a0,a5
200114ae:	545c                	lw	a5,44(s0)
200114b0:	500c                	lw	a1,32(s0)
200114b2:	862a                	mv	a2,a0
200114b4:	4681                	li	a3,0
200114b6:	8526                	mv	a0,s1
200114b8:	9782                	jalr	a5
200114ba:	57fd                	li	a5,-1
200114bc:	00c45703          	lhu	a4,12(s0)
200114c0:	00f51d63          	bne	a0,a5,200114da <__sflush_r+0x7e>
200114c4:	4094                	lw	a3,0(s1)
200114c6:	47f5                	li	a5,29
200114c8:	08d7e363          	bltu	a5,a3,2001154e <__sflush_r+0xf2>
200114cc:	204007b7          	lui	a5,0x20400
200114d0:	0785                	addi	a5,a5,1
200114d2:	00d7d7b3          	srl	a5,a5,a3
200114d6:	8b85                	andi	a5,a5,1
200114d8:	cbbd                	beqz	a5,2001154e <__sflush_r+0xf2>
200114da:	481c                	lw	a5,16(s0)
200114dc:	00042223          	sw	zero,4(s0)
200114e0:	c01c                	sw	a5,0(s0)
200114e2:	6785                	lui	a5,0x1
200114e4:	8f7d                	and	a4,a4,a5
200114e6:	c719                	beqz	a4,200114f4 <__sflush_r+0x98>
200114e8:	57fd                	li	a5,-1
200114ea:	00f51463          	bne	a0,a5,200114f2 <__sflush_r+0x96>
200114ee:	409c                	lw	a5,0(s1)
200114f0:	e391                	bnez	a5,200114f4 <__sflush_r+0x98>
200114f2:	c868                	sw	a0,84(s0)
200114f4:	584c                	lw	a1,52(s0)
200114f6:	0124a023          	sw	s2,0(s1)
200114fa:	d5c1                	beqz	a1,20011482 <__sflush_r+0x26>
200114fc:	04440793          	addi	a5,s0,68
20011500:	00f58463          	beq	a1,a5,20011508 <__sflush_r+0xac>
20011504:	8526                	mv	a0,s1
20011506:	21d1                	jal	200119ca <_free_r>
20011508:	02042a23          	sw	zero,52(s0)
2001150c:	bf9d                	j	20011482 <__sflush_r+0x26>
2001150e:	500c                	lw	a1,32(s0)
20011510:	4685                	li	a3,1
20011512:	4601                	li	a2,0
20011514:	8526                	mv	a0,s1
20011516:	9702                	jalr	a4
20011518:	57fd                	li	a5,-1
2001151a:	f8f510e3          	bne	a0,a5,2001149a <__sflush_r+0x3e>
2001151e:	409c                	lw	a5,0(s1)
20011520:	dfad                	beqz	a5,2001149a <__sflush_r+0x3e>
20011522:	4775                	li	a4,29
20011524:	00e78563          	beq	a5,a4,2001152e <__sflush_r+0xd2>
20011528:	4759                	li	a4,22
2001152a:	00e79563          	bne	a5,a4,20011534 <__sflush_r+0xd8>
2001152e:	0124a023          	sw	s2,0(s1)
20011532:	bf81                	j	20011482 <__sflush_r+0x26>
20011534:	00c45783          	lhu	a5,12(s0)
20011538:	0407e793          	ori	a5,a5,64
2001153c:	00f41623          	sh	a5,12(s0)
20011540:	40f2                	lw	ra,28(sp)
20011542:	4462                	lw	s0,24(sp)
20011544:	44d2                	lw	s1,20(sp)
20011546:	4942                	lw	s2,16(sp)
20011548:	49b2                	lw	s3,12(sp)
2001154a:	6105                	addi	sp,sp,32
2001154c:	8082                	ret
2001154e:	04076713          	ori	a4,a4,64
20011552:	00e41623          	sh	a4,12(s0)
20011556:	b7ed                	j	20011540 <__sflush_r+0xe4>
20011558:	0105a983          	lw	s3,16(a1)
2001155c:	f20983e3          	beqz	s3,20011482 <__sflush_r+0x26>
20011560:	0005a903          	lw	s2,0(a1)
20011564:	8b8d                	andi	a5,a5,3
20011566:	0135a023          	sw	s3,0(a1)
2001156a:	41390933          	sub	s2,s2,s3
2001156e:	4701                	li	a4,0
20011570:	e391                	bnez	a5,20011574 <__sflush_r+0x118>
20011572:	49d8                	lw	a4,20(a1)
20011574:	c418                	sw	a4,8(s0)
20011576:	f12056e3          	blez	s2,20011482 <__sflush_r+0x26>
2001157a:	541c                	lw	a5,40(s0)
2001157c:	500c                	lw	a1,32(s0)
2001157e:	86ca                	mv	a3,s2
20011580:	864e                	mv	a2,s3
20011582:	8526                	mv	a0,s1
20011584:	9782                	jalr	a5
20011586:	00a04a63          	bgtz	a0,2001159a <__sflush_r+0x13e>
2001158a:	00c45783          	lhu	a5,12(s0)
2001158e:	557d                	li	a0,-1
20011590:	0407e793          	ori	a5,a5,64
20011594:	00f41623          	sh	a5,12(s0)
20011598:	b765                	j	20011540 <__sflush_r+0xe4>
2001159a:	99aa                	add	s3,s3,a0
2001159c:	40a90933          	sub	s2,s2,a0
200115a0:	bfd9                	j	20011576 <__sflush_r+0x11a>

200115a2 <_fflush_r>:
_fflush_r():
200115a2:	499c                	lw	a5,16(a1)
200115a4:	cfb9                	beqz	a5,20011602 <_fflush_r+0x60>
200115a6:	1101                	addi	sp,sp,-32
200115a8:	cc22                	sw	s0,24(sp)
200115aa:	ce06                	sw	ra,28(sp)
200115ac:	842a                	mv	s0,a0
200115ae:	c511                	beqz	a0,200115ba <_fflush_r+0x18>
200115b0:	4d1c                	lw	a5,24(a0)
200115b2:	e781                	bnez	a5,200115ba <_fflush_r+0x18>
200115b4:	c62e                	sw	a1,12(sp)
200115b6:	2219                	jal	200116bc <__sinit>
200115b8:	45b2                	lw	a1,12(sp)
200115ba:	fffff797          	auipc	a5,0xfffff
200115be:	dfe78793          	addi	a5,a5,-514 # 200103b8 <__sf_fake_stdin>
200115c2:	00f59b63          	bne	a1,a5,200115d8 <_fflush_r+0x36>
200115c6:	404c                	lw	a1,4(s0)
200115c8:	00c59783          	lh	a5,12(a1)
200115cc:	c795                	beqz	a5,200115f8 <_fflush_r+0x56>
200115ce:	8522                	mv	a0,s0
200115d0:	4462                	lw	s0,24(sp)
200115d2:	40f2                	lw	ra,28(sp)
200115d4:	6105                	addi	sp,sp,32
200115d6:	b559                	j	2001145c <__sflush_r>
200115d8:	fffff797          	auipc	a5,0xfffff
200115dc:	e0078793          	addi	a5,a5,-512 # 200103d8 <__sf_fake_stdout>
200115e0:	00f59463          	bne	a1,a5,200115e8 <_fflush_r+0x46>
200115e4:	440c                	lw	a1,8(s0)
200115e6:	b7cd                	j	200115c8 <_fflush_r+0x26>
200115e8:	fffff797          	auipc	a5,0xfffff
200115ec:	db078793          	addi	a5,a5,-592 # 20010398 <__sf_fake_stderr>
200115f0:	fcf59ce3          	bne	a1,a5,200115c8 <_fflush_r+0x26>
200115f4:	444c                	lw	a1,12(s0)
200115f6:	bfc9                	j	200115c8 <_fflush_r+0x26>
200115f8:	40f2                	lw	ra,28(sp)
200115fa:	4462                	lw	s0,24(sp)
200115fc:	4501                	li	a0,0
200115fe:	6105                	addi	sp,sp,32
20011600:	8082                	ret
20011602:	4501                	li	a0,0
20011604:	8082                	ret

20011606 <std>:
std():
20011606:	1141                	addi	sp,sp,-16
20011608:	c422                	sw	s0,8(sp)
2001160a:	c606                	sw	ra,12(sp)
2001160c:	842a                	mv	s0,a0
2001160e:	00b51623          	sh	a1,12(a0)
20011612:	00c51723          	sh	a2,14(a0)
20011616:	00052023          	sw	zero,0(a0)
2001161a:	00052223          	sw	zero,4(a0)
2001161e:	00052423          	sw	zero,8(a0)
20011622:	06052223          	sw	zero,100(a0)
20011626:	00052823          	sw	zero,16(a0)
2001162a:	00052a23          	sw	zero,20(a0)
2001162e:	00052c23          	sw	zero,24(a0)
20011632:	4621                	li	a2,8
20011634:	4581                	li	a1,0
20011636:	05c50513          	addi	a0,a0,92
2001163a:	24e5                	jal	20011922 <memset>
2001163c:	00000797          	auipc	a5,0x0
20011640:	53878793          	addi	a5,a5,1336 # 20011b74 <__sread>
20011644:	d05c                	sw	a5,36(s0)
20011646:	00000797          	auipc	a5,0x0
2001164a:	55e78793          	addi	a5,a5,1374 # 20011ba4 <__swrite>
2001164e:	d41c                	sw	a5,40(s0)
20011650:	00000797          	auipc	a5,0x0
20011654:	5a278793          	addi	a5,a5,1442 # 20011bf2 <__sseek>
20011658:	d45c                	sw	a5,44(s0)
2001165a:	00000797          	auipc	a5,0x0
2001165e:	5ce78793          	addi	a5,a5,1486 # 20011c28 <__sclose>
20011662:	40b2                	lw	ra,12(sp)
20011664:	d000                	sw	s0,32(s0)
20011666:	d81c                	sw	a5,48(s0)
20011668:	4422                	lw	s0,8(sp)
2001166a:	0141                	addi	sp,sp,16
2001166c:	8082                	ret

2001166e <_cleanup_r>:
_cleanup_r():
2001166e:	00000597          	auipc	a1,0x0
20011672:	f3458593          	addi	a1,a1,-204 # 200115a2 <_fflush_r>
20011676:	a2b1                	j	200117c2 <_fwalk_reent>

20011678 <__sfmoreglue>:
__sfmoreglue():
20011678:	1141                	addi	sp,sp,-16
2001167a:	c226                	sw	s1,4(sp)
2001167c:	06800613          	li	a2,104
20011680:	fff58493          	addi	s1,a1,-1
20011684:	02c484b3          	mul	s1,s1,a2
20011688:	c04a                	sw	s2,0(sp)
2001168a:	892e                	mv	s2,a1
2001168c:	c422                	sw	s0,8(sp)
2001168e:	c606                	sw	ra,12(sp)
20011690:	07448593          	addi	a1,s1,116
20011694:	2ee1                	jal	20011a6c <_malloc_r>
20011696:	842a                	mv	s0,a0
20011698:	c919                	beqz	a0,200116ae <__sfmoreglue+0x36>
2001169a:	00052023          	sw	zero,0(a0)
2001169e:	01252223          	sw	s2,4(a0)
200116a2:	0531                	addi	a0,a0,12
200116a4:	c408                	sw	a0,8(s0)
200116a6:	06848613          	addi	a2,s1,104
200116aa:	4581                	li	a1,0
200116ac:	2c9d                	jal	20011922 <memset>
200116ae:	40b2                	lw	ra,12(sp)
200116b0:	8522                	mv	a0,s0
200116b2:	4422                	lw	s0,8(sp)
200116b4:	4492                	lw	s1,4(sp)
200116b6:	4902                	lw	s2,0(sp)
200116b8:	0141                	addi	sp,sp,16
200116ba:	8082                	ret

200116bc <__sinit>:
__sinit():
200116bc:	4d1c                	lw	a5,24(a0)
200116be:	e3bd                	bnez	a5,20011724 <__sinit+0x68>
200116c0:	1141                	addi	sp,sp,-16
200116c2:	c422                	sw	s0,8(sp)
200116c4:	c606                	sw	ra,12(sp)
200116c6:	00000797          	auipc	a5,0x0
200116ca:	fa878793          	addi	a5,a5,-88 # 2001166e <_cleanup_r>
200116ce:	d51c                	sw	a5,40(a0)
200116d0:	04052423          	sw	zero,72(a0)
200116d4:	04052623          	sw	zero,76(a0)
200116d8:	04052823          	sw	zero,80(a0)
200116dc:	00000797          	auipc	a5,0x0
200116e0:	96c7a783          	lw	a5,-1684(a5) # 20011048 <_global_impure_ptr>
200116e4:	842a                	mv	s0,a0
200116e6:	00f51463          	bne	a0,a5,200116ee <__sinit+0x32>
200116ea:	4785                	li	a5,1
200116ec:	cd1c                	sw	a5,24(a0)
200116ee:	8522                	mv	a0,s0
200116f0:	281d                	jal	20011726 <__sfp>
200116f2:	c048                	sw	a0,4(s0)
200116f4:	8522                	mv	a0,s0
200116f6:	2805                	jal	20011726 <__sfp>
200116f8:	c408                	sw	a0,8(s0)
200116fa:	8522                	mv	a0,s0
200116fc:	202d                	jal	20011726 <__sfp>
200116fe:	c448                	sw	a0,12(s0)
20011700:	4048                	lw	a0,4(s0)
20011702:	4601                	li	a2,0
20011704:	4591                	li	a1,4
20011706:	3701                	jal	20011606 <std>
20011708:	4408                	lw	a0,8(s0)
2001170a:	4605                	li	a2,1
2001170c:	45a5                	li	a1,9
2001170e:	3de5                	jal	20011606 <std>
20011710:	4448                	lw	a0,12(s0)
20011712:	4609                	li	a2,2
20011714:	45c9                	li	a1,18
20011716:	3dc5                	jal	20011606 <std>
20011718:	4785                	li	a5,1
2001171a:	40b2                	lw	ra,12(sp)
2001171c:	cc1c                	sw	a5,24(s0)
2001171e:	4422                	lw	s0,8(sp)
20011720:	0141                	addi	sp,sp,16
20011722:	8082                	ret
20011724:	8082                	ret

20011726 <__sfp>:
__sfp():
20011726:	1141                	addi	sp,sp,-16
20011728:	c226                	sw	s1,4(sp)
2001172a:	00000497          	auipc	s1,0x0
2001172e:	91e4a483          	lw	s1,-1762(s1) # 20011048 <_global_impure_ptr>
20011732:	4c9c                	lw	a5,24(s1)
20011734:	c04a                	sw	s2,0(sp)
20011736:	c606                	sw	ra,12(sp)
20011738:	c422                	sw	s0,8(sp)
2001173a:	892a                	mv	s2,a0
2001173c:	e399                	bnez	a5,20011742 <__sfp+0x1c>
2001173e:	8526                	mv	a0,s1
20011740:	3fb5                	jal	200116bc <__sinit>
20011742:	04848493          	addi	s1,s1,72
20011746:	4480                	lw	s0,8(s1)
20011748:	40dc                	lw	a5,4(s1)
2001174a:	17fd                	addi	a5,a5,-1
2001174c:	0007d663          	bgez	a5,20011758 <__sfp+0x32>
20011750:	409c                	lw	a5,0(s1)
20011752:	cfb1                	beqz	a5,200117ae <__sfp+0x88>
20011754:	4084                	lw	s1,0(s1)
20011756:	bfc5                	j	20011746 <__sfp+0x20>
20011758:	00c41703          	lh	a4,12(s0)
2001175c:	e731                	bnez	a4,200117a8 <__sfp+0x82>
2001175e:	77c1                	lui	a5,0xffff0
20011760:	0785                	addi	a5,a5,1
20011762:	06042223          	sw	zero,100(s0)
20011766:	00042023          	sw	zero,0(s0)
2001176a:	00042223          	sw	zero,4(s0)
2001176e:	00042423          	sw	zero,8(s0)
20011772:	c45c                	sw	a5,12(s0)
20011774:	00042823          	sw	zero,16(s0)
20011778:	00042a23          	sw	zero,20(s0)
2001177c:	00042c23          	sw	zero,24(s0)
20011780:	4621                	li	a2,8
20011782:	4581                	li	a1,0
20011784:	05c40513          	addi	a0,s0,92
20011788:	2a69                	jal	20011922 <memset>
2001178a:	02042a23          	sw	zero,52(s0)
2001178e:	02042c23          	sw	zero,56(s0)
20011792:	04042423          	sw	zero,72(s0)
20011796:	04042623          	sw	zero,76(s0)
2001179a:	40b2                	lw	ra,12(sp)
2001179c:	8522                	mv	a0,s0
2001179e:	4422                	lw	s0,8(sp)
200117a0:	4492                	lw	s1,4(sp)
200117a2:	4902                	lw	s2,0(sp)
200117a4:	0141                	addi	sp,sp,16
200117a6:	8082                	ret
200117a8:	06840413          	addi	s0,s0,104
200117ac:	bf79                	j	2001174a <__sfp+0x24>
200117ae:	4591                	li	a1,4
200117b0:	854a                	mv	a0,s2
200117b2:	35d9                	jal	20011678 <__sfmoreglue>
200117b4:	c088                	sw	a0,0(s1)
200117b6:	842a                	mv	s0,a0
200117b8:	fd51                	bnez	a0,20011754 <__sfp+0x2e>
200117ba:	47b1                	li	a5,12
200117bc:	00f92023          	sw	a5,0(s2)
200117c0:	bfe9                	j	2001179a <__sfp+0x74>

200117c2 <_fwalk_reent>:
_fwalk_reent():
200117c2:	7179                	addi	sp,sp,-48
200117c4:	d422                	sw	s0,40(sp)
200117c6:	d04a                	sw	s2,32(sp)
200117c8:	ce4e                	sw	s3,28(sp)
200117ca:	cc52                	sw	s4,24(sp)
200117cc:	c85a                	sw	s6,16(sp)
200117ce:	c65e                	sw	s7,12(sp)
200117d0:	d606                	sw	ra,44(sp)
200117d2:	d226                	sw	s1,36(sp)
200117d4:	ca56                	sw	s5,20(sp)
200117d6:	892a                	mv	s2,a0
200117d8:	8a2e                	mv	s4,a1
200117da:	04850413          	addi	s0,a0,72
200117de:	4981                	li	s3,0
200117e0:	4b05                	li	s6,1
200117e2:	5bfd                	li	s7,-1
200117e4:	4404                	lw	s1,8(s0)
200117e6:	00442a83          	lw	s5,4(s0)
200117ea:	1afd                	addi	s5,s5,-1
200117ec:	020ad063          	bgez	s5,2001180c <_fwalk_reent+0x4a>
200117f0:	4000                	lw	s0,0(s0)
200117f2:	f86d                	bnez	s0,200117e4 <_fwalk_reent+0x22>
200117f4:	50b2                	lw	ra,44(sp)
200117f6:	5422                	lw	s0,40(sp)
200117f8:	5492                	lw	s1,36(sp)
200117fa:	5902                	lw	s2,32(sp)
200117fc:	4a62                	lw	s4,24(sp)
200117fe:	4ad2                	lw	s5,20(sp)
20011800:	4b42                	lw	s6,16(sp)
20011802:	4bb2                	lw	s7,12(sp)
20011804:	854e                	mv	a0,s3
20011806:	49f2                	lw	s3,28(sp)
20011808:	6145                	addi	sp,sp,48
2001180a:	8082                	ret
2001180c:	00c4d783          	lhu	a5,12(s1)
20011810:	00fb7b63          	bgeu	s6,a5,20011826 <_fwalk_reent+0x64>
20011814:	00e49783          	lh	a5,14(s1)
20011818:	01778763          	beq	a5,s7,20011826 <_fwalk_reent+0x64>
2001181c:	85a6                	mv	a1,s1
2001181e:	854a                	mv	a0,s2
20011820:	9a02                	jalr	s4
20011822:	00a9e9b3          	or	s3,s3,a0
20011826:	06848493          	addi	s1,s1,104
2001182a:	b7c1                	j	200117ea <_fwalk_reent+0x28>

2001182c <__swhatbuf_r>:
__swhatbuf_r():
2001182c:	7159                	addi	sp,sp,-112
2001182e:	d0ca                	sw	s2,96(sp)
20011830:	892e                	mv	s2,a1
20011832:	00e59583          	lh	a1,14(a1)
20011836:	d4a2                	sw	s0,104(sp)
20011838:	d2a6                	sw	s1,100(sp)
2001183a:	d686                	sw	ra,108(sp)
2001183c:	8432                	mv	s0,a2
2001183e:	84b6                	mv	s1,a3
20011840:	0005dc63          	bgez	a1,20011858 <__swhatbuf_r+0x2c>
20011844:	00c91783          	lh	a5,12(s2)
20011848:	0004a023          	sw	zero,0(s1)
2001184c:	0807f793          	andi	a5,a5,128
20011850:	e38d                	bnez	a5,20011872 <__swhatbuf_r+0x46>
20011852:	40000793          	li	a5,1024
20011856:	a005                	j	20011876 <__swhatbuf_r+0x4a>
20011858:	0030                	addi	a2,sp,8
2001185a:	2925                	jal	20011c92 <_fstat_r>
2001185c:	fe0544e3          	bltz	a0,20011844 <__swhatbuf_r+0x18>
20011860:	4732                	lw	a4,12(sp)
20011862:	67bd                	lui	a5,0xf
20011864:	8ff9                	and	a5,a5,a4
20011866:	7779                	lui	a4,0xffffe
20011868:	97ba                	add	a5,a5,a4
2001186a:	0017b793          	seqz	a5,a5
2001186e:	c09c                	sw	a5,0(s1)
20011870:	b7cd                	j	20011852 <__swhatbuf_r+0x26>
20011872:	04000793          	li	a5,64
20011876:	50b6                	lw	ra,108(sp)
20011878:	c01c                	sw	a5,0(s0)
2001187a:	5426                	lw	s0,104(sp)
2001187c:	5496                	lw	s1,100(sp)
2001187e:	5906                	lw	s2,96(sp)
20011880:	4501                	li	a0,0
20011882:	6165                	addi	sp,sp,112
20011884:	8082                	ret

20011886 <__smakebuf_r>:
__smakebuf_r():
20011886:	00c5d783          	lhu	a5,12(a1)
2001188a:	1101                	addi	sp,sp,-32
2001188c:	cc22                	sw	s0,24(sp)
2001188e:	ce06                	sw	ra,28(sp)
20011890:	ca26                	sw	s1,20(sp)
20011892:	c84a                	sw	s2,16(sp)
20011894:	8b89                	andi	a5,a5,2
20011896:	842e                	mv	s0,a1
20011898:	cf89                	beqz	a5,200118b2 <__smakebuf_r+0x2c>
2001189a:	04740793          	addi	a5,s0,71
2001189e:	c01c                	sw	a5,0(s0)
200118a0:	c81c                	sw	a5,16(s0)
200118a2:	4785                	li	a5,1
200118a4:	c85c                	sw	a5,20(s0)
200118a6:	40f2                	lw	ra,28(sp)
200118a8:	4462                	lw	s0,24(sp)
200118aa:	44d2                	lw	s1,20(sp)
200118ac:	4942                	lw	s2,16(sp)
200118ae:	6105                	addi	sp,sp,32
200118b0:	8082                	ret
200118b2:	0074                	addi	a3,sp,12
200118b4:	0030                	addi	a2,sp,8
200118b6:	892a                	mv	s2,a0
200118b8:	3f95                	jal	2001182c <__swhatbuf_r>
200118ba:	45a2                	lw	a1,8(sp)
200118bc:	84aa                	mv	s1,a0
200118be:	854a                	mv	a0,s2
200118c0:	2275                	jal	20011a6c <_malloc_r>
200118c2:	ed01                	bnez	a0,200118da <__smakebuf_r+0x54>
200118c4:	00c41783          	lh	a5,12(s0)
200118c8:	2007f713          	andi	a4,a5,512
200118cc:	ff69                	bnez	a4,200118a6 <__smakebuf_r+0x20>
200118ce:	9bf1                	andi	a5,a5,-4
200118d0:	0027e793          	ori	a5,a5,2
200118d4:	00f41623          	sh	a5,12(s0)
200118d8:	b7c9                	j	2001189a <__smakebuf_r+0x14>
200118da:	00000797          	auipc	a5,0x0
200118de:	d9478793          	addi	a5,a5,-620 # 2001166e <_cleanup_r>
200118e2:	02f92423          	sw	a5,40(s2)
200118e6:	00c45783          	lhu	a5,12(s0)
200118ea:	c008                	sw	a0,0(s0)
200118ec:	c808                	sw	a0,16(s0)
200118ee:	0807e793          	ori	a5,a5,128
200118f2:	00f41623          	sh	a5,12(s0)
200118f6:	47a2                	lw	a5,8(sp)
200118f8:	c85c                	sw	a5,20(s0)
200118fa:	47b2                	lw	a5,12(sp)
200118fc:	cf89                	beqz	a5,20011916 <__smakebuf_r+0x90>
200118fe:	00e41583          	lh	a1,14(s0)
20011902:	854a                	mv	a0,s2
20011904:	26c1                	jal	20011cc4 <_isatty_r>
20011906:	c901                	beqz	a0,20011916 <__smakebuf_r+0x90>
20011908:	00c45783          	lhu	a5,12(s0)
2001190c:	9bf1                	andi	a5,a5,-4
2001190e:	0017e793          	ori	a5,a5,1
20011912:	00f41623          	sh	a5,12(s0)
20011916:	00c45503          	lhu	a0,12(s0)
2001191a:	8cc9                	or	s1,s1,a0
2001191c:	00941623          	sh	s1,12(s0)
20011920:	b759                	j	200118a6 <__smakebuf_r+0x20>

20011922 <memset>:
memset():
20011922:	433d                	li	t1,15
20011924:	872a                	mv	a4,a0
20011926:	02c37363          	bgeu	t1,a2,2001194c <memset+0x2a>
2001192a:	00f77793          	andi	a5,a4,15
2001192e:	efbd                	bnez	a5,200119ac <memset+0x8a>
20011930:	e5ad                	bnez	a1,2001199a <memset+0x78>
20011932:	ff067693          	andi	a3,a2,-16
20011936:	8a3d                	andi	a2,a2,15
20011938:	96ba                	add	a3,a3,a4
2001193a:	c30c                	sw	a1,0(a4)
2001193c:	c34c                	sw	a1,4(a4)
2001193e:	c70c                	sw	a1,8(a4)
20011940:	c74c                	sw	a1,12(a4)
20011942:	0741                	addi	a4,a4,16
20011944:	fed76be3          	bltu	a4,a3,2001193a <memset+0x18>
20011948:	e211                	bnez	a2,2001194c <memset+0x2a>
2001194a:	8082                	ret
2001194c:	40c306b3          	sub	a3,t1,a2
20011950:	068a                	slli	a3,a3,0x2
20011952:	00000297          	auipc	t0,0x0
20011956:	9696                	add	a3,a3,t0
20011958:	00a68067          	jr	10(a3) # 100a <__heap_size+0x80a>
2001195c:	00b70723          	sb	a1,14(a4) # ffffe00e <metal_segment_heap_target_end+0x7fffc89e>
20011960:	00b706a3          	sb	a1,13(a4)
20011964:	00b70623          	sb	a1,12(a4)
20011968:	00b705a3          	sb	a1,11(a4)
2001196c:	00b70523          	sb	a1,10(a4)
20011970:	00b704a3          	sb	a1,9(a4)
20011974:	00b70423          	sb	a1,8(a4)
20011978:	00b703a3          	sb	a1,7(a4)
2001197c:	00b70323          	sb	a1,6(a4)
20011980:	00b702a3          	sb	a1,5(a4)
20011984:	00b70223          	sb	a1,4(a4)
20011988:	00b701a3          	sb	a1,3(a4)
2001198c:	00b70123          	sb	a1,2(a4)
20011990:	00b700a3          	sb	a1,1(a4)
20011994:	00b70023          	sb	a1,0(a4)
20011998:	8082                	ret
2001199a:	0ff5f593          	zext.b	a1,a1
2001199e:	00859693          	slli	a3,a1,0x8
200119a2:	8dd5                	or	a1,a1,a3
200119a4:	01059693          	slli	a3,a1,0x10
200119a8:	8dd5                	or	a1,a1,a3
200119aa:	b761                	j	20011932 <memset+0x10>
200119ac:	00279693          	slli	a3,a5,0x2
200119b0:	00000297          	auipc	t0,0x0
200119b4:	9696                	add	a3,a3,t0
200119b6:	8286                	mv	t0,ra
200119b8:	fa8680e7          	jalr	-88(a3)
200119bc:	8096                	mv	ra,t0
200119be:	17c1                	addi	a5,a5,-16
200119c0:	8f1d                	sub	a4,a4,a5
200119c2:	963e                	add	a2,a2,a5
200119c4:	f8c374e3          	bgeu	t1,a2,2001194c <memset+0x2a>
200119c8:	b7a5                	j	20011930 <memset+0xe>

200119ca <_free_r>:
_free_r():
200119ca:	c1c5                	beqz	a1,20011a6a <_free_r+0xa0>
200119cc:	ffc5a783          	lw	a5,-4(a1)
200119d0:	1101                	addi	sp,sp,-32
200119d2:	cc22                	sw	s0,24(sp)
200119d4:	ce06                	sw	ra,28(sp)
200119d6:	ffc58413          	addi	s0,a1,-4
200119da:	0007d363          	bgez	a5,200119e0 <_free_r+0x16>
200119de:	943e                	add	s0,s0,a5
200119e0:	c62a                	sw	a0,12(sp)
200119e2:	2699                	jal	20011d28 <__malloc_lock>
200119e4:	5ffef717          	auipc	a4,0x5ffef
200119e8:	0e470713          	addi	a4,a4,228 # 80000ac8 <__malloc_free_list>
200119ec:	431c                	lw	a5,0(a4)
200119ee:	4532                	lw	a0,12(sp)
200119f0:	eb81                	bnez	a5,20011a00 <_free_r+0x36>
200119f2:	00042223          	sw	zero,4(s0)
200119f6:	c300                	sw	s0,0(a4)
200119f8:	4462                	lw	s0,24(sp)
200119fa:	40f2                	lw	ra,28(sp)
200119fc:	6105                	addi	sp,sp,32
200119fe:	a635                	j	20011d2a <__malloc_unlock>
20011a00:	00f47d63          	bgeu	s0,a5,20011a1a <_free_r+0x50>
20011a04:	4010                	lw	a2,0(s0)
20011a06:	00c406b3          	add	a3,s0,a2
20011a0a:	00d79663          	bne	a5,a3,20011a16 <_free_r+0x4c>
20011a0e:	4394                	lw	a3,0(a5)
20011a10:	43dc                	lw	a5,4(a5)
20011a12:	96b2                	add	a3,a3,a2
20011a14:	c014                	sw	a3,0(s0)
20011a16:	c05c                	sw	a5,4(s0)
20011a18:	bff9                	j	200119f6 <_free_r+0x2c>
20011a1a:	873e                	mv	a4,a5
20011a1c:	43dc                	lw	a5,4(a5)
20011a1e:	c399                	beqz	a5,20011a24 <_free_r+0x5a>
20011a20:	fef47de3          	bgeu	s0,a5,20011a1a <_free_r+0x50>
20011a24:	4314                	lw	a3,0(a4)
20011a26:	00d70633          	add	a2,a4,a3
20011a2a:	00861f63          	bne	a2,s0,20011a48 <_free_r+0x7e>
20011a2e:	4010                	lw	a2,0(s0)
20011a30:	96b2                	add	a3,a3,a2
20011a32:	c314                	sw	a3,0(a4)
20011a34:	00d70633          	add	a2,a4,a3
20011a38:	fcc790e3          	bne	a5,a2,200119f8 <_free_r+0x2e>
20011a3c:	4390                	lw	a2,0(a5)
20011a3e:	43dc                	lw	a5,4(a5)
20011a40:	96b2                	add	a3,a3,a2
20011a42:	c314                	sw	a3,0(a4)
20011a44:	c35c                	sw	a5,4(a4)
20011a46:	bf4d                	j	200119f8 <_free_r+0x2e>
20011a48:	00c47563          	bgeu	s0,a2,20011a52 <_free_r+0x88>
20011a4c:	47b1                	li	a5,12
20011a4e:	c11c                	sw	a5,0(a0)
20011a50:	b765                	j	200119f8 <_free_r+0x2e>
20011a52:	4010                	lw	a2,0(s0)
20011a54:	00c406b3          	add	a3,s0,a2
20011a58:	00d79663          	bne	a5,a3,20011a64 <_free_r+0x9a>
20011a5c:	4394                	lw	a3,0(a5)
20011a5e:	43dc                	lw	a5,4(a5)
20011a60:	96b2                	add	a3,a3,a2
20011a62:	c014                	sw	a3,0(s0)
20011a64:	c05c                	sw	a5,4(s0)
20011a66:	c340                	sw	s0,4(a4)
20011a68:	bf41                	j	200119f8 <_free_r+0x2e>
20011a6a:	8082                	ret

20011a6c <_malloc_r>:
_malloc_r():
20011a6c:	1101                	addi	sp,sp,-32
20011a6e:	ca26                	sw	s1,20(sp)
20011a70:	00358493          	addi	s1,a1,3
20011a74:	98f1                	andi	s1,s1,-4
20011a76:	c84a                	sw	s2,16(sp)
20011a78:	ce06                	sw	ra,28(sp)
20011a7a:	cc22                	sw	s0,24(sp)
20011a7c:	c64e                	sw	s3,12(sp)
20011a7e:	04a1                	addi	s1,s1,8
20011a80:	47b1                	li	a5,12
20011a82:	892a                	mv	s2,a0
20011a84:	04f4f463          	bgeu	s1,a5,20011acc <_malloc_r+0x60>
20011a88:	44b1                	li	s1,12
20011a8a:	04b4e363          	bltu	s1,a1,20011ad0 <_malloc_r+0x64>
20011a8e:	854a                	mv	a0,s2
20011a90:	2c61                	jal	20011d28 <__malloc_lock>
20011a92:	5ffef697          	auipc	a3,0x5ffef
20011a96:	03668693          	addi	a3,a3,54 # 80000ac8 <__malloc_free_list>
20011a9a:	4298                	lw	a4,0(a3)
20011a9c:	843a                	mv	s0,a4
20011a9e:	e421                	bnez	s0,20011ae6 <_malloc_r+0x7a>
20011aa0:	5ffef417          	auipc	s0,0x5ffef
20011aa4:	02c40413          	addi	s0,s0,44 # 80000acc <__malloc_sbrk_start>
20011aa8:	401c                	lw	a5,0(s0)
20011aaa:	e789                	bnez	a5,20011ab4 <_malloc_r+0x48>
20011aac:	4581                	li	a1,0
20011aae:	854a                	mv	a0,s2
20011ab0:	2851                	jal	20011b44 <_sbrk_r>
20011ab2:	c008                	sw	a0,0(s0)
20011ab4:	85a6                	mv	a1,s1
20011ab6:	854a                	mv	a0,s2
20011ab8:	2071                	jal	20011b44 <_sbrk_r>
20011aba:	59fd                	li	s3,-1
20011abc:	07351863          	bne	a0,s3,20011b2c <_malloc_r+0xc0>
20011ac0:	47b1                	li	a5,12
20011ac2:	00f92023          	sw	a5,0(s2)
20011ac6:	854a                	mv	a0,s2
20011ac8:	248d                	jal	20011d2a <__malloc_unlock>
20011aca:	a031                	j	20011ad6 <_malloc_r+0x6a>
20011acc:	fa04dfe3          	bgez	s1,20011a8a <_malloc_r+0x1e>
20011ad0:	47b1                	li	a5,12
20011ad2:	00f92023          	sw	a5,0(s2)
20011ad6:	4501                	li	a0,0
20011ad8:	40f2                	lw	ra,28(sp)
20011ada:	4462                	lw	s0,24(sp)
20011adc:	44d2                	lw	s1,20(sp)
20011ade:	4942                	lw	s2,16(sp)
20011ae0:	49b2                	lw	s3,12(sp)
20011ae2:	6105                	addi	sp,sp,32
20011ae4:	8082                	ret
20011ae6:	401c                	lw	a5,0(s0)
20011ae8:	8f85                	sub	a5,a5,s1
20011aea:	0207ce63          	bltz	a5,20011b26 <_malloc_r+0xba>
20011aee:	462d                	li	a2,11
20011af0:	00f67663          	bgeu	a2,a5,20011afc <_malloc_r+0x90>
20011af4:	c01c                	sw	a5,0(s0)
20011af6:	943e                	add	s0,s0,a5
20011af8:	c004                	sw	s1,0(s0)
20011afa:	a029                	j	20011b04 <_malloc_r+0x98>
20011afc:	405c                	lw	a5,4(s0)
20011afe:	02871263          	bne	a4,s0,20011b22 <_malloc_r+0xb6>
20011b02:	c29c                	sw	a5,0(a3)
20011b04:	854a                	mv	a0,s2
20011b06:	2415                	jal	20011d2a <__malloc_unlock>
20011b08:	00b40513          	addi	a0,s0,11
20011b0c:	00440793          	addi	a5,s0,4
20011b10:	9961                	andi	a0,a0,-8
20011b12:	40f50733          	sub	a4,a0,a5
20011b16:	fcf501e3          	beq	a0,a5,20011ad8 <_malloc_r+0x6c>
20011b1a:	943a                	add	s0,s0,a4
20011b1c:	8f89                	sub	a5,a5,a0
20011b1e:	c01c                	sw	a5,0(s0)
20011b20:	bf65                	j	20011ad8 <_malloc_r+0x6c>
20011b22:	c35c                	sw	a5,4(a4)
20011b24:	b7c5                	j	20011b04 <_malloc_r+0x98>
20011b26:	8722                	mv	a4,s0
20011b28:	4040                	lw	s0,4(s0)
20011b2a:	bf95                	j	20011a9e <_malloc_r+0x32>
20011b2c:	00350413          	addi	s0,a0,3
20011b30:	9871                	andi	s0,s0,-4
20011b32:	fc8503e3          	beq	a0,s0,20011af8 <_malloc_r+0x8c>
20011b36:	40a405b3          	sub	a1,s0,a0
20011b3a:	854a                	mv	a0,s2
20011b3c:	2021                	jal	20011b44 <_sbrk_r>
20011b3e:	fb351de3          	bne	a0,s3,20011af8 <_malloc_r+0x8c>
20011b42:	bfbd                	j	20011ac0 <_malloc_r+0x54>

20011b44 <_sbrk_r>:
_sbrk_r():
20011b44:	1141                	addi	sp,sp,-16
20011b46:	c422                	sw	s0,8(sp)
20011b48:	842a                	mv	s0,a0
20011b4a:	852e                	mv	a0,a1
20011b4c:	5ffef797          	auipc	a5,0x5ffef
20011b50:	f807a223          	sw	zero,-124(a5) # 80000ad0 <errno>
20011b54:	c606                	sw	ra,12(sp)
20011b56:	5a7040ef          	jal	ra,200168fc <_sbrk>
20011b5a:	57fd                	li	a5,-1
20011b5c:	00f51863          	bne	a0,a5,20011b6c <_sbrk_r+0x28>
20011b60:	5ffef797          	auipc	a5,0x5ffef
20011b64:	f707a783          	lw	a5,-144(a5) # 80000ad0 <errno>
20011b68:	c391                	beqz	a5,20011b6c <_sbrk_r+0x28>
20011b6a:	c01c                	sw	a5,0(s0)
20011b6c:	40b2                	lw	ra,12(sp)
20011b6e:	4422                	lw	s0,8(sp)
20011b70:	0141                	addi	sp,sp,16
20011b72:	8082                	ret

20011b74 <__sread>:
__sread():
20011b74:	1141                	addi	sp,sp,-16
20011b76:	c422                	sw	s0,8(sp)
20011b78:	842e                	mv	s0,a1
20011b7a:	00e59583          	lh	a1,14(a1)
20011b7e:	c606                	sw	ra,12(sp)
20011b80:	2275                	jal	20011d2c <_read_r>
20011b82:	00054963          	bltz	a0,20011b94 <__sread+0x20>
20011b86:	487c                	lw	a5,84(s0)
20011b88:	97aa                	add	a5,a5,a0
20011b8a:	c87c                	sw	a5,84(s0)
20011b8c:	40b2                	lw	ra,12(sp)
20011b8e:	4422                	lw	s0,8(sp)
20011b90:	0141                	addi	sp,sp,16
20011b92:	8082                	ret
20011b94:	00c45783          	lhu	a5,12(s0)
20011b98:	777d                	lui	a4,0xfffff
20011b9a:	177d                	addi	a4,a4,-1
20011b9c:	8ff9                	and	a5,a5,a4
20011b9e:	00f41623          	sh	a5,12(s0)
20011ba2:	b7ed                	j	20011b8c <__sread+0x18>

20011ba4 <__swrite>:
__swrite():
20011ba4:	00c5d783          	lhu	a5,12(a1)
20011ba8:	1101                	addi	sp,sp,-32
20011baa:	cc22                	sw	s0,24(sp)
20011bac:	ca26                	sw	s1,20(sp)
20011bae:	c84a                	sw	s2,16(sp)
20011bb0:	c64e                	sw	s3,12(sp)
20011bb2:	ce06                	sw	ra,28(sp)
20011bb4:	1007f793          	andi	a5,a5,256
20011bb8:	84aa                	mv	s1,a0
20011bba:	842e                	mv	s0,a1
20011bbc:	8932                	mv	s2,a2
20011bbe:	89b6                	mv	s3,a3
20011bc0:	c791                	beqz	a5,20011bcc <__swrite+0x28>
20011bc2:	00e59583          	lh	a1,14(a1)
20011bc6:	4689                	li	a3,2
20011bc8:	4601                	li	a2,0
20011bca:	222d                	jal	20011cf4 <_lseek_r>
20011bcc:	00c45783          	lhu	a5,12(s0)
20011bd0:	777d                	lui	a4,0xfffff
20011bd2:	177d                	addi	a4,a4,-1
20011bd4:	8ff9                	and	a5,a5,a4
20011bd6:	00e41583          	lh	a1,14(s0)
20011bda:	00f41623          	sh	a5,12(s0)
20011bde:	4462                	lw	s0,24(sp)
20011be0:	40f2                	lw	ra,28(sp)
20011be2:	86ce                	mv	a3,s3
20011be4:	864a                	mv	a2,s2
20011be6:	49b2                	lw	s3,12(sp)
20011be8:	4942                	lw	s2,16(sp)
20011bea:	8526                	mv	a0,s1
20011bec:	44d2                	lw	s1,20(sp)
20011bee:	6105                	addi	sp,sp,32
20011bf0:	a83d                	j	20011c2e <_write_r>

20011bf2 <__sseek>:
__sseek():
20011bf2:	1141                	addi	sp,sp,-16
20011bf4:	c422                	sw	s0,8(sp)
20011bf6:	842e                	mv	s0,a1
20011bf8:	00e59583          	lh	a1,14(a1)
20011bfc:	c606                	sw	ra,12(sp)
20011bfe:	28dd                	jal	20011cf4 <_lseek_r>
20011c00:	57fd                	li	a5,-1
20011c02:	00c45703          	lhu	a4,12(s0)
20011c06:	00f51b63          	bne	a0,a5,20011c1c <__sseek+0x2a>
20011c0a:	77fd                	lui	a5,0xfffff
20011c0c:	17fd                	addi	a5,a5,-1
20011c0e:	8ff9                	and	a5,a5,a4
20011c10:	00f41623          	sh	a5,12(s0)
20011c14:	40b2                	lw	ra,12(sp)
20011c16:	4422                	lw	s0,8(sp)
20011c18:	0141                	addi	sp,sp,16
20011c1a:	8082                	ret
20011c1c:	6785                	lui	a5,0x1
20011c1e:	8fd9                	or	a5,a5,a4
20011c20:	00f41623          	sh	a5,12(s0)
20011c24:	c868                	sw	a0,84(s0)
20011c26:	b7fd                	j	20011c14 <__sseek+0x22>

20011c28 <__sclose>:
__sclose():
20011c28:	00e59583          	lh	a1,14(a1)
20011c2c:	a81d                	j	20011c62 <_close_r>

20011c2e <_write_r>:
_write_r():
20011c2e:	1141                	addi	sp,sp,-16
20011c30:	c422                	sw	s0,8(sp)
20011c32:	842a                	mv	s0,a0
20011c34:	852e                	mv	a0,a1
20011c36:	85b2                	mv	a1,a2
20011c38:	8636                	mv	a2,a3
20011c3a:	5ffef797          	auipc	a5,0x5ffef
20011c3e:	e807ab23          	sw	zero,-362(a5) # 80000ad0 <errno>
20011c42:	c606                	sw	ra,12(sp)
20011c44:	693040ef          	jal	ra,20016ad6 <_write>
20011c48:	57fd                	li	a5,-1
20011c4a:	00f51863          	bne	a0,a5,20011c5a <_write_r+0x2c>
20011c4e:	5ffef797          	auipc	a5,0x5ffef
20011c52:	e827a783          	lw	a5,-382(a5) # 80000ad0 <errno>
20011c56:	c391                	beqz	a5,20011c5a <_write_r+0x2c>
20011c58:	c01c                	sw	a5,0(s0)
20011c5a:	40b2                	lw	ra,12(sp)
20011c5c:	4422                	lw	s0,8(sp)
20011c5e:	0141                	addi	sp,sp,16
20011c60:	8082                	ret

20011c62 <_close_r>:
_close_r():
20011c62:	1141                	addi	sp,sp,-16
20011c64:	c422                	sw	s0,8(sp)
20011c66:	842a                	mv	s0,a0
20011c68:	852e                	mv	a0,a1
20011c6a:	5ffef797          	auipc	a5,0x5ffef
20011c6e:	e607a323          	sw	zero,-410(a5) # 80000ad0 <errno>
20011c72:	c606                	sw	ra,12(sp)
20011c74:	3cd040ef          	jal	ra,20016840 <_close>
20011c78:	57fd                	li	a5,-1
20011c7a:	00f51863          	bne	a0,a5,20011c8a <_close_r+0x28>
20011c7e:	5ffef797          	auipc	a5,0x5ffef
20011c82:	e527a783          	lw	a5,-430(a5) # 80000ad0 <errno>
20011c86:	c391                	beqz	a5,20011c8a <_close_r+0x28>
20011c88:	c01c                	sw	a5,0(s0)
20011c8a:	40b2                	lw	ra,12(sp)
20011c8c:	4422                	lw	s0,8(sp)
20011c8e:	0141                	addi	sp,sp,16
20011c90:	8082                	ret

20011c92 <_fstat_r>:
_fstat_r():
20011c92:	1141                	addi	sp,sp,-16
20011c94:	c422                	sw	s0,8(sp)
20011c96:	842a                	mv	s0,a0
20011c98:	852e                	mv	a0,a1
20011c9a:	85b2                	mv	a1,a2
20011c9c:	5ffef797          	auipc	a5,0x5ffef
20011ca0:	e207aa23          	sw	zero,-460(a5) # 80000ad0 <errno>
20011ca4:	c606                	sw	ra,12(sp)
20011ca6:	3bd040ef          	jal	ra,20016862 <_fstat>
20011caa:	57fd                	li	a5,-1
20011cac:	00f51863          	bne	a0,a5,20011cbc <_fstat_r+0x2a>
20011cb0:	5ffef797          	auipc	a5,0x5ffef
20011cb4:	e207a783          	lw	a5,-480(a5) # 80000ad0 <errno>
20011cb8:	c391                	beqz	a5,20011cbc <_fstat_r+0x2a>
20011cba:	c01c                	sw	a5,0(s0)
20011cbc:	40b2                	lw	ra,12(sp)
20011cbe:	4422                	lw	s0,8(sp)
20011cc0:	0141                	addi	sp,sp,16
20011cc2:	8082                	ret

20011cc4 <_isatty_r>:
_isatty_r():
20011cc4:	1141                	addi	sp,sp,-16
20011cc6:	c422                	sw	s0,8(sp)
20011cc8:	842a                	mv	s0,a0
20011cca:	852e                	mv	a0,a1
20011ccc:	5ffef797          	auipc	a5,0x5ffef
20011cd0:	e007a223          	sw	zero,-508(a5) # 80000ad0 <errno>
20011cd4:	c606                	sw	ra,12(sp)
20011cd6:	3b3040ef          	jal	ra,20016888 <_isatty>
20011cda:	57fd                	li	a5,-1
20011cdc:	00f51863          	bne	a0,a5,20011cec <_isatty_r+0x28>
20011ce0:	5ffef797          	auipc	a5,0x5ffef
20011ce4:	df07a783          	lw	a5,-528(a5) # 80000ad0 <errno>
20011ce8:	c391                	beqz	a5,20011cec <_isatty_r+0x28>
20011cea:	c01c                	sw	a5,0(s0)
20011cec:	40b2                	lw	ra,12(sp)
20011cee:	4422                	lw	s0,8(sp)
20011cf0:	0141                	addi	sp,sp,16
20011cf2:	8082                	ret

20011cf4 <_lseek_r>:
_lseek_r():
20011cf4:	1141                	addi	sp,sp,-16
20011cf6:	c422                	sw	s0,8(sp)
20011cf8:	842a                	mv	s0,a0
20011cfa:	852e                	mv	a0,a1
20011cfc:	85b2                	mv	a1,a2
20011cfe:	8636                	mv	a2,a3
20011d00:	5ffef797          	auipc	a5,0x5ffef
20011d04:	dc07a823          	sw	zero,-560(a5) # 80000ad0 <errno>
20011d08:	c606                	sw	ra,12(sp)
20011d0a:	39f040ef          	jal	ra,200168a8 <_lseek>
20011d0e:	57fd                	li	a5,-1
20011d10:	00f51863          	bne	a0,a5,20011d20 <_lseek_r+0x2c>
20011d14:	5ffef797          	auipc	a5,0x5ffef
20011d18:	dbc7a783          	lw	a5,-580(a5) # 80000ad0 <errno>
20011d1c:	c391                	beqz	a5,20011d20 <_lseek_r+0x2c>
20011d1e:	c01c                	sw	a5,0(s0)
20011d20:	40b2                	lw	ra,12(sp)
20011d22:	4422                	lw	s0,8(sp)
20011d24:	0141                	addi	sp,sp,16
20011d26:	8082                	ret

20011d28 <__malloc_lock>:
__malloc_lock():
20011d28:	8082                	ret

20011d2a <__malloc_unlock>:
__malloc_unlock():
20011d2a:	8082                	ret

20011d2c <_read_r>:
_read_r():
20011d2c:	1141                	addi	sp,sp,-16
20011d2e:	c422                	sw	s0,8(sp)
20011d30:	842a                	mv	s0,a0
20011d32:	852e                	mv	a0,a1
20011d34:	85b2                	mv	a1,a2
20011d36:	8636                	mv	a2,a3
20011d38:	5ffef797          	auipc	a5,0x5ffef
20011d3c:	d807ac23          	sw	zero,-616(a5) # 80000ad0 <errno>
20011d40:	c606                	sw	ra,12(sp)
20011d42:	391040ef          	jal	ra,200168d2 <_read>
20011d46:	57fd                	li	a5,-1
20011d48:	00f51863          	bne	a0,a5,20011d58 <_read_r+0x2c>
20011d4c:	5ffef797          	auipc	a5,0x5ffef
20011d50:	d847a783          	lw	a5,-636(a5) # 80000ad0 <errno>
20011d54:	c391                	beqz	a5,20011d58 <_read_r+0x2c>
20011d56:	c01c                	sw	a5,0(s0)
20011d58:	40b2                	lw	ra,12(sp)
20011d5a:	4422                	lw	s0,8(sp)
20011d5c:	0141                	addi	sp,sp,16
20011d5e:	8082                	ret

20011d60 <metal_gpio_enable_output>:
metal_gpio_enable_output():
C:/Users/nandg/Desktop/FE310-G003/sifive_hifive1_revb_sifive_welcome/freedom-metal/metal/gpio.h:93
 * @brief Enable output on a pin
 * @param gpio The handle for the GPIO interface
 * @param pin The pin number indexed from 0
 * @return 0 if the output is successfully enabled
 */
__inline__ int metal_gpio_enable_output(struct metal_gpio *gpio, int pin) {
20011d60:	1101                	addi	sp,sp,-32
20011d62:	ce06                	sw	ra,28(sp)
20011d64:	cc22                	sw	s0,24(sp)
20011d66:	1000                	addi	s0,sp,32
20011d68:	fea42623          	sw	a0,-20(s0)
20011d6c:	feb42423          	sw	a1,-24(s0)
C:/Users/nandg/Desktop/FE310-G003/sifive_hifive1_revb_sifive_welcome/freedom-metal/metal/gpio.h:94
    if (!gpio) {
20011d70:	fec42783          	lw	a5,-20(s0)
20011d74:	e399                	bnez	a5,20011d7a <metal_gpio_enable_output+0x1a>
C:/Users/nandg/Desktop/FE310-G003/sifive_hifive1_revb_sifive_welcome/freedom-metal/metal/gpio.h:95
        return 1;
20011d76:	4785                	li	a5,1
20011d78:	a839                	j	20011d96 <metal_gpio_enable_output+0x36>
C:/Users/nandg/Desktop/FE310-G003/sifive_hifive1_revb_sifive_welcome/freedom-metal/metal/gpio.h:98
    }

    return gpio->vtable->enable_output(gpio, (1 << pin));
20011d7a:	fec42783          	lw	a5,-20(s0)
20011d7e:	439c                	lw	a5,0(a5)
20011d80:	4bd4                	lw	a3,20(a5)
20011d82:	fe842783          	lw	a5,-24(s0)
20011d86:	4705                	li	a4,1
20011d88:	00f717b3          	sll	a5,a4,a5
20011d8c:	85be                	mv	a1,a5
20011d8e:	fec42503          	lw	a0,-20(s0)
20011d92:	9682                	jalr	a3
20011d94:	87aa                	mv	a5,a0
C:/Users/nandg/Desktop/FE310-G003/sifive_hifive1_revb_sifive_welcome/freedom-metal/metal/gpio.h:99
}
20011d96:	853e                	mv	a0,a5
20011d98:	40f2                	lw	ra,28(sp)
20011d9a:	4462                	lw	s0,24(sp)
20011d9c:	6105                	addi	sp,sp,32
20011d9e:	8082                	ret

20011da0 <metal_gpio_set_pin>:
metal_gpio_set_pin():
C:/Users/nandg/Desktop/FE310-G003/sifive_hifive1_revb_sifive_welcome/freedom-metal/metal/gpio.h:122
 * @param gpio The handle for the GPIO interface
 * @param pin The pin number indexed from 0
 * @param value The value to set the pin to
 * @return 0 if the output is successfully set
 */
__inline__ int metal_gpio_set_pin(struct metal_gpio *gpio, int pin, int value) {
20011da0:	1101                	addi	sp,sp,-32
20011da2:	ce06                	sw	ra,28(sp)
20011da4:	cc22                	sw	s0,24(sp)
20011da6:	1000                	addi	s0,sp,32
20011da8:	fea42623          	sw	a0,-20(s0)
20011dac:	feb42423          	sw	a1,-24(s0)
20011db0:	fec42223          	sw	a2,-28(s0)
C:/Users/nandg/Desktop/FE310-G003/sifive_hifive1_revb_sifive_welcome/freedom-metal/metal/gpio.h:123
    if (!gpio) {
20011db4:	fec42783          	lw	a5,-20(s0)
20011db8:	e399                	bnez	a5,20011dbe <metal_gpio_set_pin+0x1e>
C:/Users/nandg/Desktop/FE310-G003/sifive_hifive1_revb_sifive_welcome/freedom-metal/metal/gpio.h:124
        return 1;
20011dba:	4785                	li	a5,1
20011dbc:	a089                	j	20011dfe <metal_gpio_set_pin+0x5e>
C:/Users/nandg/Desktop/FE310-G003/sifive_hifive1_revb_sifive_welcome/freedom-metal/metal/gpio.h:127
    }

    if (value == 0) {
20011dbe:	fe442783          	lw	a5,-28(s0)
20011dc2:	e385                	bnez	a5,20011de2 <metal_gpio_set_pin+0x42>
C:/Users/nandg/Desktop/FE310-G003/sifive_hifive1_revb_sifive_welcome/freedom-metal/metal/gpio.h:128
        return gpio->vtable->output_clear(gpio, (1 << pin));
20011dc4:	fec42783          	lw	a5,-20(s0)
20011dc8:	439c                	lw	a5,0(a5)
20011dca:	4fd4                	lw	a3,28(a5)
20011dcc:	fe842783          	lw	a5,-24(s0)
20011dd0:	4705                	li	a4,1
20011dd2:	00f717b3          	sll	a5,a4,a5
20011dd6:	85be                	mv	a1,a5
20011dd8:	fec42503          	lw	a0,-20(s0)
20011ddc:	9682                	jalr	a3
20011dde:	87aa                	mv	a5,a0
20011de0:	a839                	j	20011dfe <metal_gpio_set_pin+0x5e>
C:/Users/nandg/Desktop/FE310-G003/sifive_hifive1_revb_sifive_welcome/freedom-metal/metal/gpio.h:130
    } else {
        return gpio->vtable->output_set(gpio, (1 << pin));
20011de2:	fec42783          	lw	a5,-20(s0)
20011de6:	439c                	lw	a5,0(a5)
20011de8:	4f94                	lw	a3,24(a5)
20011dea:	fe842783          	lw	a5,-24(s0)
20011dee:	4705                	li	a4,1
20011df0:	00f717b3          	sll	a5,a4,a5
20011df4:	85be                	mv	a1,a5
20011df6:	fec42503          	lw	a0,-20(s0)
20011dfa:	9682                	jalr	a3
20011dfc:	87aa                	mv	a5,a0
C:/Users/nandg/Desktop/FE310-G003/sifive_hifive1_revb_sifive_welcome/freedom-metal/metal/gpio.h:132
    }
}
20011dfe:	853e                	mv	a0,a5
20011e00:	40f2                	lw	ra,28(sp)
20011e02:	4462                	lw	s0,24(sp)
20011e04:	6105                	addi	sp,sp,32
20011e06:	8082                	ret

20011e08 <metal_gpio_disable_pinmux>:
metal_gpio_disable_pinmux():
C:/Users/nandg/Desktop/FE310-G003/sifive_hifive1_revb_sifive_welcome/freedom-metal/metal/gpio.h:224
 * @brief Disables the pinmux for a GPIO pin
 * @param gpio The handle for the GPIO interface
 * @param pin The bitmask for the pin to disable pinmux on
 * @return 0 if the pinmux is successfully set
 */
__inline__ int metal_gpio_disable_pinmux(struct metal_gpio *gpio, int pin) {
20011e08:	1101                	addi	sp,sp,-32
20011e0a:	ce06                	sw	ra,28(sp)
20011e0c:	cc22                	sw	s0,24(sp)
20011e0e:	1000                	addi	s0,sp,32
20011e10:	fea42623          	sw	a0,-20(s0)
20011e14:	feb42423          	sw	a1,-24(s0)
C:/Users/nandg/Desktop/FE310-G003/sifive_hifive1_revb_sifive_welcome/freedom-metal/metal/gpio.h:225
    if (!gpio) {
20011e18:	fec42783          	lw	a5,-20(s0)
20011e1c:	e399                	bnez	a5,20011e22 <metal_gpio_disable_pinmux+0x1a>
C:/Users/nandg/Desktop/FE310-G003/sifive_hifive1_revb_sifive_welcome/freedom-metal/metal/gpio.h:226
        return 1;
20011e1e:	4785                	li	a5,1
20011e20:	a839                	j	20011e3e <metal_gpio_disable_pinmux+0x36>
C:/Users/nandg/Desktop/FE310-G003/sifive_hifive1_revb_sifive_welcome/freedom-metal/metal/gpio.h:229
    }

    return gpio->vtable->disable_io(gpio, (1 << pin));
20011e22:	fec42783          	lw	a5,-20(s0)
20011e26:	439c                	lw	a5,0(a5)
20011e28:	5794                	lw	a3,40(a5)
20011e2a:	fe842783          	lw	a5,-24(s0)
20011e2e:	4705                	li	a4,1
20011e30:	00f717b3          	sll	a5,a4,a5
20011e34:	85be                	mv	a1,a5
20011e36:	fec42503          	lw	a0,-20(s0)
20011e3a:	9682                	jalr	a3
20011e3c:	87aa                	mv	a5,a0
C:/Users/nandg/Desktop/FE310-G003/sifive_hifive1_revb_sifive_welcome/freedom-metal/metal/gpio.h:230
}
20011e3e:	853e                	mv	a0,a5
20011e40:	40f2                	lw	ra,28(sp)
20011e42:	4462                	lw	s0,24(sp)
20011e44:	6105                	addi	sp,sp,32
20011e46:	8082                	ret

20011e48 <metal_gpio_get_device>:
metal_gpio_get_device():
C:/Users/nandg/Desktop/FE310-G003/sifive_hifive1_revb_sifive_welcome/freedom-metal/src/gpio.c:34
extern __inline__ int metal_gpio_config_interrupt(struct metal_gpio *gpio,
                                                  int pin, int intr_type);
extern __inline__ int metal_gpio_clear_interrupt(struct metal_gpio *gpio,
                                                 int pin, int intr_type);

struct metal_gpio *metal_gpio_get_device(unsigned int device_num) {
20011e48:	1101                	addi	sp,sp,-32
20011e4a:	ce22                	sw	s0,28(sp)
20011e4c:	1000                	addi	s0,sp,32
20011e4e:	fea42623          	sw	a0,-20(s0)
C:/Users/nandg/Desktop/FE310-G003/sifive_hifive1_revb_sifive_welcome/freedom-metal/src/gpio.c:35
    if (device_num > __MEE_DT_MAX_GPIOS) {
20011e52:	fec42703          	lw	a4,-20(s0)
20011e56:	4785                	li	a5,1
20011e58:	00e7f463          	bgeu	a5,a4,20011e60 <metal_gpio_get_device+0x18>
C:/Users/nandg/Desktop/FE310-G003/sifive_hifive1_revb_sifive_welcome/freedom-metal/src/gpio.c:36
        return NULL;
20011e5c:	4781                	li	a5,0
20011e5e:	a811                	j	20011e72 <metal_gpio_get_device+0x2a>
C:/Users/nandg/Desktop/FE310-G003/sifive_hifive1_revb_sifive_welcome/freedom-metal/src/gpio.c:39
    }

    return (struct metal_gpio *)__metal_gpio_table[device_num];
20011e60:	800017b7          	lui	a5,0x80001
20011e64:	fec42703          	lw	a4,-20(s0)
20011e68:	070a                	slli	a4,a4,0x2
20011e6a:	aa878793          	addi	a5,a5,-1368 # 80000aa8 <metal_segment_heap_target_end+0xfffff338>
20011e6e:	97ba                	add	a5,a5,a4
20011e70:	439c                	lw	a5,0(a5)
C:/Users/nandg/Desktop/FE310-G003/sifive_hifive1_revb_sifive_welcome/freedom-metal/src/gpio.c:40
}
20011e72:	853e                	mv	a0,a5
20011e74:	4472                	lw	s0,28(sp)
20011e76:	6105                	addi	sp,sp,32
20011e78:	8082                	ret

20011e7a <__metal_driver_sifive_clint0_control_base>:
__metal_driver_sifive_clint0_control_base():
C:\Users\nandg\Desktop\FE310-G003\sifive_hifive1_revb_sifive_welcome\bsp\build\debug/./metal/machine.h:233
/* --------------------- fixed_factor_clock ------------ */


/* --------------------- sifive_clint0 ------------ */
static __inline__ unsigned long __metal_driver_sifive_clint0_control_base(struct metal_interrupt *controller)
{
20011e7a:	1101                	addi	sp,sp,-32
20011e7c:	ce22                	sw	s0,28(sp)
20011e7e:	1000                	addi	s0,sp,32
20011e80:	fea42623          	sw	a0,-20(s0)
C:\Users\nandg\Desktop\FE310-G003\sifive_hifive1_revb_sifive_welcome\bsp\build\debug/./metal/machine.h:234
	if ((uintptr_t)controller == (uintptr_t)&__metal_dt_clint_2000000) {
20011e84:	fec42703          	lw	a4,-20(s0)
20011e88:	800017b7          	lui	a5,0x80001
20011e8c:	aac78793          	addi	a5,a5,-1364 # 80000aac <metal_segment_heap_target_end+0xfffff33c>
20011e90:	00f71563          	bne	a4,a5,20011e9a <__metal_driver_sifive_clint0_control_base+0x20>
C:\Users\nandg\Desktop\FE310-G003\sifive_hifive1_revb_sifive_welcome\bsp\build\debug/./metal/machine.h:235
		return METAL_RISCV_CLINT0_2000000_BASE_ADDRESS;
20011e94:	020007b7          	lui	a5,0x2000
20011e98:	a011                	j	20011e9c <__metal_driver_sifive_clint0_control_base+0x22>
C:\Users\nandg\Desktop\FE310-G003\sifive_hifive1_revb_sifive_welcome\bsp\build\debug/./metal/machine.h:238
	}
	else {
		return 0;
20011e9a:	4781                	li	a5,0
C:\Users\nandg\Desktop\FE310-G003\sifive_hifive1_revb_sifive_welcome\bsp\build\debug/./metal/machine.h:240
	}
}
20011e9c:	853e                	mv	a0,a5
20011e9e:	4472                	lw	s0,28(sp)
20011ea0:	6105                	addi	sp,sp,32
20011ea2:	8082                	ret

20011ea4 <__metal_driver_sifive_clint0_num_interrupts>:
__metal_driver_sifive_clint0_num_interrupts():
C:\Users\nandg\Desktop\FE310-G003\sifive_hifive1_revb_sifive_welcome\bsp\build\debug/./metal/machine.h:253
		return 0;
	}
}

static __inline__ int __metal_driver_sifive_clint0_num_interrupts(struct metal_interrupt *controller)
{
20011ea4:	1101                	addi	sp,sp,-32
20011ea6:	ce22                	sw	s0,28(sp)
20011ea8:	1000                	addi	s0,sp,32
20011eaa:	fea42623          	sw	a0,-20(s0)
C:\Users\nandg\Desktop\FE310-G003\sifive_hifive1_revb_sifive_welcome\bsp\build\debug/./metal/machine.h:254
	if ((uintptr_t)controller == (uintptr_t)&__metal_dt_clint_2000000) {
20011eae:	fec42703          	lw	a4,-20(s0)
20011eb2:	800017b7          	lui	a5,0x80001
20011eb6:	aac78793          	addi	a5,a5,-1364 # 80000aac <metal_segment_heap_target_end+0xfffff33c>
20011eba:	00f71463          	bne	a4,a5,20011ec2 <__metal_driver_sifive_clint0_num_interrupts+0x1e>
C:\Users\nandg\Desktop\FE310-G003\sifive_hifive1_revb_sifive_welcome\bsp\build\debug/./metal/machine.h:255
		return METAL_MAX_CLINT_INTERRUPTS;
20011ebe:	4789                	li	a5,2
20011ec0:	a011                	j	20011ec4 <__metal_driver_sifive_clint0_num_interrupts+0x20>
C:\Users\nandg\Desktop\FE310-G003\sifive_hifive1_revb_sifive_welcome\bsp\build\debug/./metal/machine.h:258
	}
	else {
		return 0;
20011ec2:	4781                	li	a5,0
C:\Users\nandg\Desktop\FE310-G003\sifive_hifive1_revb_sifive_welcome\bsp\build\debug/./metal/machine.h:260
	}
}
20011ec4:	853e                	mv	a0,a5
20011ec6:	4472                	lw	s0,28(sp)
20011ec8:	6105                	addi	sp,sp,32
20011eca:	8082                	ret

20011ecc <__metal_driver_sifive_clint0_interrupt_parents>:
__metal_driver_sifive_clint0_interrupt_parents():
C:\Users\nandg\Desktop\FE310-G003\sifive_hifive1_revb_sifive_welcome\bsp\build\debug/./metal/machine.h:263

static __inline__ struct metal_interrupt * __metal_driver_sifive_clint0_interrupt_parents(struct metal_interrupt *controller, int idx)
{
20011ecc:	1101                	addi	sp,sp,-32
20011ece:	ce22                	sw	s0,28(sp)
20011ed0:	1000                	addi	s0,sp,32
20011ed2:	fea42623          	sw	a0,-20(s0)
20011ed6:	feb42423          	sw	a1,-24(s0)
C:\Users\nandg\Desktop\FE310-G003\sifive_hifive1_revb_sifive_welcome\bsp\build\debug/./metal/machine.h:264
	if (idx == 0) {
20011eda:	fe842783          	lw	a5,-24(s0)
20011ede:	e791                	bnez	a5,20011eea <__metal_driver_sifive_clint0_interrupt_parents+0x1e>
C:\Users\nandg\Desktop\FE310-G003\sifive_hifive1_revb_sifive_welcome\bsp\build\debug/./metal/machine.h:265
		return (struct metal_interrupt *)&__metal_dt_cpu_0_interrupt_controller.controller;
20011ee0:	800007b7          	lui	a5,0x80000
20011ee4:	09078793          	addi	a5,a5,144 # 80000090 <metal_segment_heap_target_end+0xffffe920>
20011ee8:	a821                	j	20011f00 <__metal_driver_sifive_clint0_interrupt_parents+0x34>
C:\Users\nandg\Desktop\FE310-G003\sifive_hifive1_revb_sifive_welcome\bsp\build\debug/./metal/machine.h:267
	}
	else if (idx == 1) {
20011eea:	fe842703          	lw	a4,-24(s0)
20011eee:	4785                	li	a5,1
20011ef0:	00f71763          	bne	a4,a5,20011efe <__metal_driver_sifive_clint0_interrupt_parents+0x32>
C:\Users\nandg\Desktop\FE310-G003\sifive_hifive1_revb_sifive_welcome\bsp\build\debug/./metal/machine.h:268
		return (struct metal_interrupt *)&__metal_dt_cpu_0_interrupt_controller.controller;
20011ef4:	800007b7          	lui	a5,0x80000
20011ef8:	09078793          	addi	a5,a5,144 # 80000090 <metal_segment_heap_target_end+0xffffe920>
20011efc:	a011                	j	20011f00 <__metal_driver_sifive_clint0_interrupt_parents+0x34>
C:\Users\nandg\Desktop\FE310-G003\sifive_hifive1_revb_sifive_welcome\bsp\build\debug/./metal/machine.h:271
	}
	else {
		return NULL;
20011efe:	4781                	li	a5,0
C:\Users\nandg\Desktop\FE310-G003\sifive_hifive1_revb_sifive_welcome\bsp\build\debug/./metal/machine.h:273
	}
}
20011f00:	853e                	mv	a0,a5
20011f02:	4472                	lw	s0,28(sp)
20011f04:	6105                	addi	sp,sp,32
20011f06:	8082                	ret

20011f08 <__metal_driver_sifive_clint0_interrupt_lines>:
__metal_driver_sifive_clint0_interrupt_lines():
C:\Users\nandg\Desktop\FE310-G003\sifive_hifive1_revb_sifive_welcome\bsp\build\debug/./metal/machine.h:276

static __inline__ int __metal_driver_sifive_clint0_interrupt_lines(struct metal_interrupt *controller, int idx)
{
20011f08:	1101                	addi	sp,sp,-32
20011f0a:	ce22                	sw	s0,28(sp)
20011f0c:	1000                	addi	s0,sp,32
20011f0e:	fea42623          	sw	a0,-20(s0)
20011f12:	feb42423          	sw	a1,-24(s0)
C:\Users\nandg\Desktop\FE310-G003\sifive_hifive1_revb_sifive_welcome\bsp\build\debug/./metal/machine.h:277
	if (idx == 0) {
20011f16:	fe842783          	lw	a5,-24(s0)
20011f1a:	e399                	bnez	a5,20011f20 <__metal_driver_sifive_clint0_interrupt_lines+0x18>
C:\Users\nandg\Desktop\FE310-G003\sifive_hifive1_revb_sifive_welcome\bsp\build\debug/./metal/machine.h:278
		return 3;
20011f1c:	478d                	li	a5,3
20011f1e:	a809                	j	20011f30 <__metal_driver_sifive_clint0_interrupt_lines+0x28>
C:\Users\nandg\Desktop\FE310-G003\sifive_hifive1_revb_sifive_welcome\bsp\build\debug/./metal/machine.h:280
	}
	else if (idx == 1) {
20011f20:	fe842703          	lw	a4,-24(s0)
20011f24:	4785                	li	a5,1
20011f26:	00f71463          	bne	a4,a5,20011f2e <__metal_driver_sifive_clint0_interrupt_lines+0x26>
C:\Users\nandg\Desktop\FE310-G003\sifive_hifive1_revb_sifive_welcome\bsp\build\debug/./metal/machine.h:281
		return 7;
20011f2a:	479d                	li	a5,7
20011f2c:	a011                	j	20011f30 <__metal_driver_sifive_clint0_interrupt_lines+0x28>
C:\Users\nandg\Desktop\FE310-G003\sifive_hifive1_revb_sifive_welcome\bsp\build\debug/./metal/machine.h:284
	}
	else {
		return 0;
20011f2e:	4781                	li	a5,0
C:\Users\nandg\Desktop\FE310-G003\sifive_hifive1_revb_sifive_welcome\bsp\build\debug/./metal/machine.h:286
	}
}
20011f30:	853e                	mv	a0,a5
20011f32:	4472                	lw	s0,28(sp)
20011f34:	6105                	addi	sp,sp,32
20011f36:	8082                	ret

20011f38 <__metal_clint0_mtime_get>:
__metal_clint0_mtime_get():
C:/Users/nandg/Desktop/FE310-G003/sifive_hifive1_revb_sifive_welcome/freedom-metal/src/drivers/riscv_clint0.c:14
#include <metal/drivers/riscv_clint0.h>
#include <metal/io.h>
#include <metal/machine.h>

unsigned long long
__metal_clint0_mtime_get(struct __metal_driver_riscv_clint0 *clint) {
20011f38:	715d                	addi	sp,sp,-80
20011f3a:	c686                	sw	ra,76(sp)
20011f3c:	c4a2                	sw	s0,72(sp)
20011f3e:	c2ca                	sw	s2,68(sp)
20011f40:	c0ce                	sw	s3,64(sp)
20011f42:	de52                	sw	s4,60(sp)
20011f44:	dc56                	sw	s5,56(sp)
20011f46:	da5a                	sw	s6,52(sp)
20011f48:	d85e                	sw	s7,48(sp)
20011f4a:	d662                	sw	s8,44(sp)
20011f4c:	d466                	sw	s9,40(sp)
20011f4e:	0880                	addi	s0,sp,80
20011f50:	faa42e23          	sw	a0,-68(s0)
C:/Users/nandg/Desktop/FE310-G003/sifive_hifive1_revb_sifive_welcome/freedom-metal/src/drivers/riscv_clint0.c:17
    __metal_io_u32 lo, hi;
    unsigned long control_base =
        __metal_driver_sifive_clint0_control_base(&clint->controller);
20011f54:	fbc42783          	lw	a5,-68(s0)
20011f58:	853e                	mv	a0,a5
20011f5a:	3705                	jal	20011e7a <__metal_driver_sifive_clint0_control_base>
20011f5c:	fca42623          	sw	a0,-52(s0)
C:/Users/nandg/Desktop/FE310-G003/sifive_hifive1_revb_sifive_welcome/freedom-metal/src/drivers/riscv_clint0.c:21 (discriminator 1)

    /* Guard against rollover when reading */
    do {
        hi = __METAL_ACCESS_ONCE(
20011f60:	fcc42703          	lw	a4,-52(s0)
20011f64:	67b1                	lui	a5,0xc
20011f66:	17f1                	addi	a5,a5,-4
20011f68:	97ba                	add	a5,a5,a4
20011f6a:	439c                	lw	a5,0(a5)
20011f6c:	fcf42423          	sw	a5,-56(s0)
C:/Users/nandg/Desktop/FE310-G003/sifive_hifive1_revb_sifive_welcome/freedom-metal/src/drivers/riscv_clint0.c:23 (discriminator 1)
            (__metal_io_u32 *)(control_base + METAL_RISCV_CLINT0_MTIME + 4));
        lo = __METAL_ACCESS_ONCE(
20011f70:	fcc42703          	lw	a4,-52(s0)
20011f74:	67b1                	lui	a5,0xc
20011f76:	17e1                	addi	a5,a5,-8
20011f78:	97ba                	add	a5,a5,a4
20011f7a:	439c                	lw	a5,0(a5)
20011f7c:	fcf42223          	sw	a5,-60(s0)
C:/Users/nandg/Desktop/FE310-G003/sifive_hifive1_revb_sifive_welcome/freedom-metal/src/drivers/riscv_clint0.c:25 (discriminator 1)
            (__metal_io_u32 *)(control_base + METAL_RISCV_CLINT0_MTIME));
    } while (__METAL_ACCESS_ONCE((__metal_io_u32 *)(control_base +
20011f80:	fcc42703          	lw	a4,-52(s0)
20011f84:	67b1                	lui	a5,0xc
20011f86:	17f1                	addi	a5,a5,-4
20011f88:	97ba                	add	a5,a5,a4
20011f8a:	439c                	lw	a5,0(a5)
20011f8c:	fc842703          	lw	a4,-56(s0)
20011f90:	fcf718e3          	bne	a4,a5,20011f60 <__metal_clint0_mtime_get+0x28>
C:/Users/nandg/Desktop/FE310-G003/sifive_hifive1_revb_sifive_welcome/freedom-metal/src/drivers/riscv_clint0.c:29
                                                    METAL_RISCV_CLINT0_MTIME +
                                                    4)) != hi);

    return (((unsigned long long)hi) << 32) | lo;
20011f94:	fc842783          	lw	a5,-56(s0)
20011f98:	8c3e                	mv	s8,a5
20011f9a:	4c81                	li	s9,0
20011f9c:	000c1993          	slli	s3,s8,0x0
20011fa0:	4901                	li	s2,0
20011fa2:	fc442783          	lw	a5,-60(s0)
20011fa6:	8a3e                	mv	s4,a5
20011fa8:	4a81                	li	s5,0
20011faa:	01496b33          	or	s6,s2,s4
20011fae:	0159ebb3          	or	s7,s3,s5
20011fb2:	875a                	mv	a4,s6
20011fb4:	87de                	mv	a5,s7
C:/Users/nandg/Desktop/FE310-G003/sifive_hifive1_revb_sifive_welcome/freedom-metal/src/drivers/riscv_clint0.c:30
}
20011fb6:	853a                	mv	a0,a4
20011fb8:	85be                	mv	a1,a5
20011fba:	40b6                	lw	ra,76(sp)
20011fbc:	4426                	lw	s0,72(sp)
20011fbe:	4916                	lw	s2,68(sp)
20011fc0:	4986                	lw	s3,64(sp)
20011fc2:	5a72                	lw	s4,60(sp)
20011fc4:	5ae2                	lw	s5,56(sp)
20011fc6:	5b52                	lw	s6,52(sp)
20011fc8:	5bc2                	lw	s7,48(sp)
20011fca:	5c32                	lw	s8,44(sp)
20011fcc:	5ca2                	lw	s9,40(sp)
20011fce:	6161                	addi	sp,sp,80
20011fd0:	8082                	ret

20011fd2 <__metal_driver_riscv_clint0_mtimecmp_set>:
__metal_driver_riscv_clint0_mtimecmp_set():
C:/Users/nandg/Desktop/FE310-G003/sifive_hifive1_revb_sifive_welcome/freedom-metal/src/drivers/riscv_clint0.c:34

int __metal_driver_riscv_clint0_mtimecmp_set(struct metal_interrupt *controller,
                                             int hartid,
                                             unsigned long long time) {
20011fd2:	7179                	addi	sp,sp,-48
20011fd4:	d606                	sw	ra,44(sp)
20011fd6:	d422                	sw	s0,40(sp)
20011fd8:	d24a                	sw	s2,36(sp)
20011fda:	d04e                	sw	s3,32(sp)
20011fdc:	1800                	addi	s0,sp,48
20011fde:	fca42e23          	sw	a0,-36(s0)
20011fe2:	fcb42c23          	sw	a1,-40(s0)
20011fe6:	fcc42823          	sw	a2,-48(s0)
20011fea:	fcd42a23          	sw	a3,-44(s0)
C:/Users/nandg/Desktop/FE310-G003/sifive_hifive1_revb_sifive_welcome/freedom-metal/src/drivers/riscv_clint0.c:35
    struct __metal_driver_riscv_clint0 *clint =
20011fee:	fdc42783          	lw	a5,-36(s0)
20011ff2:	fef42623          	sw	a5,-20(s0)
C:/Users/nandg/Desktop/FE310-G003/sifive_hifive1_revb_sifive_welcome/freedom-metal/src/drivers/riscv_clint0.c:38
        (struct __metal_driver_riscv_clint0 *)(controller);
    unsigned long control_base =
        __metal_driver_sifive_clint0_control_base(&clint->controller);
20011ff6:	fec42783          	lw	a5,-20(s0)
20011ffa:	853e                	mv	a0,a5
20011ffc:	3dbd                	jal	20011e7a <__metal_driver_sifive_clint0_control_base>
20011ffe:	fea42423          	sw	a0,-24(s0)
C:/Users/nandg/Desktop/FE310-G003/sifive_hifive1_revb_sifive_welcome/freedom-metal/src/drivers/riscv_clint0.c:45
     * and are NOT internally latched for multiword transfers.
     * Need to be careful about sequencing to avoid triggering
     * spurious interrupts: For that set the high word to a max
     * value first.
     */
    __METAL_ACCESS_ONCE((__metal_io_u32 *)(control_base + (8 * hartid) +
20012002:	fd842783          	lw	a5,-40(s0)
20012006:	078e                	slli	a5,a5,0x3
20012008:	873e                	mv	a4,a5
2001200a:	fe842783          	lw	a5,-24(s0)
2001200e:	973e                	add	a4,a4,a5
20012010:	6791                	lui	a5,0x4
20012012:	0791                	addi	a5,a5,4
20012014:	97ba                	add	a5,a5,a4
20012016:	873e                	mv	a4,a5
C:/Users/nandg/Desktop/FE310-G003/sifive_hifive1_revb_sifive_welcome/freedom-metal/src/drivers/riscv_clint0.c:47
                                           METAL_RISCV_CLINT0_MTIMECMP_BASE +
                                           4)) = 0xFFFFFFFF;
20012018:	57fd                	li	a5,-1
2001201a:	c31c                	sw	a5,0(a4)
C:/Users/nandg/Desktop/FE310-G003/sifive_hifive1_revb_sifive_welcome/freedom-metal/src/drivers/riscv_clint0.c:48
    __METAL_ACCESS_ONCE((__metal_io_u32 *)(control_base + (8 * hartid) +
2001201c:	fd842783          	lw	a5,-40(s0)
20012020:	078e                	slli	a5,a5,0x3
20012022:	873e                	mv	a4,a5
20012024:	fe842783          	lw	a5,-24(s0)
20012028:	973e                	add	a4,a4,a5
2001202a:	6791                	lui	a5,0x4
2001202c:	97ba                	add	a5,a5,a4
2001202e:	873e                	mv	a4,a5
C:/Users/nandg/Desktop/FE310-G003/sifive_hifive1_revb_sifive_welcome/freedom-metal/src/drivers/riscv_clint0.c:50
                                           METAL_RISCV_CLINT0_MTIMECMP_BASE)) =
        (__metal_io_u32)time;
20012030:	fd042783          	lw	a5,-48(s0)
C:/Users/nandg/Desktop/FE310-G003/sifive_hifive1_revb_sifive_welcome/freedom-metal/src/drivers/riscv_clint0.c:49
                                           METAL_RISCV_CLINT0_MTIMECMP_BASE)) =
20012034:	c31c                	sw	a5,0(a4)
C:/Users/nandg/Desktop/FE310-G003/sifive_hifive1_revb_sifive_welcome/freedom-metal/src/drivers/riscv_clint0.c:53
    __METAL_ACCESS_ONCE((__metal_io_u32 *)(control_base + (8 * hartid) +
                                           METAL_RISCV_CLINT0_MTIMECMP_BASE +
                                           4)) = (__metal_io_u32)(time >> 32);
20012036:	fd442783          	lw	a5,-44(s0)
2001203a:	0007d913          	srli	s2,a5,0x0
2001203e:	4981                	li	s3,0
C:/Users/nandg/Desktop/FE310-G003/sifive_hifive1_revb_sifive_welcome/freedom-metal/src/drivers/riscv_clint0.c:51
    __METAL_ACCESS_ONCE((__metal_io_u32 *)(control_base + (8 * hartid) +
20012040:	fd842783          	lw	a5,-40(s0)
20012044:	078e                	slli	a5,a5,0x3
20012046:	873e                	mv	a4,a5
20012048:	fe842783          	lw	a5,-24(s0)
2001204c:	973e                	add	a4,a4,a5
2001204e:	6791                	lui	a5,0x4
20012050:	0791                	addi	a5,a5,4
20012052:	97ba                	add	a5,a5,a4
C:/Users/nandg/Desktop/FE310-G003/sifive_hifive1_revb_sifive_welcome/freedom-metal/src/drivers/riscv_clint0.c:53
                                           4)) = (__metal_io_u32)(time >> 32);
20012054:	874a                	mv	a4,s2
20012056:	c398                	sw	a4,0(a5)
C:/Users/nandg/Desktop/FE310-G003/sifive_hifive1_revb_sifive_welcome/freedom-metal/src/drivers/riscv_clint0.c:54
    return 0;
20012058:	4781                	li	a5,0
C:/Users/nandg/Desktop/FE310-G003/sifive_hifive1_revb_sifive_welcome/freedom-metal/src/drivers/riscv_clint0.c:55
}
2001205a:	853e                	mv	a0,a5
2001205c:	50b2                	lw	ra,44(sp)
2001205e:	5422                	lw	s0,40(sp)
20012060:	5912                	lw	s2,36(sp)
20012062:	5982                	lw	s3,32(sp)
20012064:	6145                	addi	sp,sp,48
20012066:	8082                	ret

20012068 <_get_cpu_intc>:
_get_cpu_intc():
C:/Users/nandg/Desktop/FE310-G003/sifive_hifive1_revb_sifive_welcome/freedom-metal/src/drivers/riscv_clint0.c:57

static struct metal_interrupt *_get_cpu_intc() {
20012068:	1101                	addi	sp,sp,-32
2001206a:	ce06                	sw	ra,28(sp)
2001206c:	cc22                	sw	s0,24(sp)
2001206e:	1000                	addi	s0,sp,32
C:/Users/nandg/Desktop/FE310-G003/sifive_hifive1_revb_sifive_welcome/freedom-metal/src/drivers/riscv_clint0.c:58
    int hartid = 0;
20012070:	fe042623          	sw	zero,-20(s0)
C:/Users/nandg/Desktop/FE310-G003/sifive_hifive1_revb_sifive_welcome/freedom-metal/src/drivers/riscv_clint0.c:59
    __asm__ volatile("csrr %[hartid], mhartid"
20012074:	f14027f3          	csrr	a5,mhartid
20012078:	fef42623          	sw	a5,-20(s0)
C:/Users/nandg/Desktop/FE310-G003/sifive_hifive1_revb_sifive_welcome/freedom-metal/src/drivers/riscv_clint0.c:62
                     : [hartid] "=r"(hartid)::"memory");

    struct metal_cpu *cpu = metal_cpu_get(hartid);
2001207c:	fec42783          	lw	a5,-20(s0)
20012080:	853e                	mv	a0,a5
20012082:	4e6040ef          	jal	ra,20016568 <metal_cpu_get>
20012086:	fea42423          	sw	a0,-24(s0)
C:/Users/nandg/Desktop/FE310-G003/sifive_hifive1_revb_sifive_welcome/freedom-metal/src/drivers/riscv_clint0.c:64

    return metal_cpu_interrupt_controller(cpu);
2001208a:	fe842503          	lw	a0,-24(s0)
2001208e:	4b4040ef          	jal	ra,20016542 <metal_cpu_interrupt_controller>
20012092:	87aa                	mv	a5,a0
C:/Users/nandg/Desktop/FE310-G003/sifive_hifive1_revb_sifive_welcome/freedom-metal/src/drivers/riscv_clint0.c:65
}
20012094:	853e                	mv	a0,a5
20012096:	40f2                	lw	ra,28(sp)
20012098:	4462                	lw	s0,24(sp)
2001209a:	6105                	addi	sp,sp,32
2001209c:	8082                	ret

2001209e <__metal_driver_riscv_clint0_init>:
__metal_driver_riscv_clint0_init():
C:/Users/nandg/Desktop/FE310-G003/sifive_hifive1_revb_sifive_welcome/freedom-metal/src/drivers/riscv_clint0.c:67

void __metal_driver_riscv_clint0_init(struct metal_interrupt *controller) {
2001209e:	7139                	addi	sp,sp,-64
200120a0:	de06                	sw	ra,60(sp)
200120a2:	dc22                	sw	s0,56(sp)
200120a4:	0080                	addi	s0,sp,64
200120a6:	fca42623          	sw	a0,-52(s0)
C:/Users/nandg/Desktop/FE310-G003/sifive_hifive1_revb_sifive_welcome/freedom-metal/src/drivers/riscv_clint0.c:69
    int num_interrupts =
        __metal_driver_sifive_clint0_num_interrupts(controller);
200120aa:	fcc42503          	lw	a0,-52(s0)
200120ae:	3bdd                	jal	20011ea4 <__metal_driver_sifive_clint0_num_interrupts>
200120b0:	fea42423          	sw	a0,-24(s0)
C:/Users/nandg/Desktop/FE310-G003/sifive_hifive1_revb_sifive_welcome/freedom-metal/src/drivers/riscv_clint0.c:70
    struct __metal_driver_riscv_clint0 *clint =
200120b4:	fcc42783          	lw	a5,-52(s0)
200120b8:	fef42223          	sw	a5,-28(s0)
C:/Users/nandg/Desktop/FE310-G003/sifive_hifive1_revb_sifive_welcome/freedom-metal/src/drivers/riscv_clint0.c:73
        (struct __metal_driver_riscv_clint0 *)(controller);

    if (!clint->init_done) {
200120bc:	fe442783          	lw	a5,-28(s0)
200120c0:	43dc                	lw	a5,4(a5)
200120c2:	efa9                	bnez	a5,2001211c <__metal_driver_riscv_clint0_init+0x7e>
C:/Users/nandg/Desktop/FE310-G003/sifive_hifive1_revb_sifive_welcome/freedom-metal/src/drivers/riscv_clint0.c:76
        /* Register its interrupts with with parent controller, aka sw and
         * timerto its default isr */
        for (int i = 0; i < num_interrupts; i++) {
200120c4:	fe042623          	sw	zero,-20(s0)
200120c8:	a081                	j	20012108 <__metal_driver_riscv_clint0_init+0x6a>
C:/Users/nandg/Desktop/FE310-G003/sifive_hifive1_revb_sifive_welcome/freedom-metal/src/drivers/riscv_clint0.c:78 (discriminator 3)
            struct metal_interrupt *intc =
                __metal_driver_sifive_clint0_interrupt_parents(controller, i);
200120ca:	fec42583          	lw	a1,-20(s0)
200120ce:	fcc42503          	lw	a0,-52(s0)
200120d2:	3bed                	jal	20011ecc <__metal_driver_sifive_clint0_interrupt_parents>
200120d4:	fea42023          	sw	a0,-32(s0)
C:/Users/nandg/Desktop/FE310-G003/sifive_hifive1_revb_sifive_welcome/freedom-metal/src/drivers/riscv_clint0.c:80 (discriminator 3)
            int line =
                __metal_driver_sifive_clint0_interrupt_lines(controller, i);
200120d8:	fec42583          	lw	a1,-20(s0)
200120dc:	fcc42503          	lw	a0,-52(s0)
200120e0:	3525                	jal	20011f08 <__metal_driver_sifive_clint0_interrupt_lines>
200120e2:	fca42e23          	sw	a0,-36(s0)
C:/Users/nandg/Desktop/FE310-G003/sifive_hifive1_revb_sifive_welcome/freedom-metal/src/drivers/riscv_clint0.c:81 (discriminator 3)
            intc->vtable->interrupt_register(intc, line, NULL, controller);
200120e6:	fe042783          	lw	a5,-32(s0)
200120ea:	439c                	lw	a5,0(a5)
200120ec:	4fdc                	lw	a5,28(a5)
200120ee:	fcc42683          	lw	a3,-52(s0)
200120f2:	4601                	li	a2,0
200120f4:	fdc42583          	lw	a1,-36(s0)
200120f8:	fe042503          	lw	a0,-32(s0)
200120fc:	9782                	jalr	a5
C:/Users/nandg/Desktop/FE310-G003/sifive_hifive1_revb_sifive_welcome/freedom-metal/src/drivers/riscv_clint0.c:76 (discriminator 3)
        for (int i = 0; i < num_interrupts; i++) {
200120fe:	fec42783          	lw	a5,-20(s0)
20012102:	0785                	addi	a5,a5,1
20012104:	fef42623          	sw	a5,-20(s0)
C:/Users/nandg/Desktop/FE310-G003/sifive_hifive1_revb_sifive_welcome/freedom-metal/src/drivers/riscv_clint0.c:76 (discriminator 1)
20012108:	fec42703          	lw	a4,-20(s0)
2001210c:	fe842783          	lw	a5,-24(s0)
20012110:	faf74de3          	blt	a4,a5,200120ca <__metal_driver_riscv_clint0_init+0x2c>
C:/Users/nandg/Desktop/FE310-G003/sifive_hifive1_revb_sifive_welcome/freedom-metal/src/drivers/riscv_clint0.c:83
        }
        clint->init_done = 1;
20012114:	fe442783          	lw	a5,-28(s0)
20012118:	4705                	li	a4,1
2001211a:	c3d8                	sw	a4,4(a5)
C:/Users/nandg/Desktop/FE310-G003/sifive_hifive1_revb_sifive_welcome/freedom-metal/src/drivers/riscv_clint0.c:85
    }
}
2001211c:	0001                	nop
2001211e:	50f2                	lw	ra,60(sp)
20012120:	5462                	lw	s0,56(sp)
20012122:	6121                	addi	sp,sp,64
20012124:	8082                	ret

20012126 <__metal_driver_riscv_clint0_register>:
__metal_driver_riscv_clint0_register():
C:/Users/nandg/Desktop/FE310-G003/sifive_hifive1_revb_sifive_welcome/freedom-metal/src/drivers/riscv_clint0.c:89

int __metal_driver_riscv_clint0_register(struct metal_interrupt *controller,
                                         int id, metal_interrupt_handler_t isr,
                                         void *priv) {
20012126:	7139                	addi	sp,sp,-64
20012128:	de06                	sw	ra,60(sp)
2001212a:	dc22                	sw	s0,56(sp)
2001212c:	0080                	addi	s0,sp,64
2001212e:	fca42623          	sw	a0,-52(s0)
20012132:	fcb42423          	sw	a1,-56(s0)
20012136:	fcc42223          	sw	a2,-60(s0)
2001213a:	fcd42023          	sw	a3,-64(s0)
C:/Users/nandg/Desktop/FE310-G003/sifive_hifive1_revb_sifive_welcome/freedom-metal/src/drivers/riscv_clint0.c:90
    int rc = -1;
2001213e:	57fd                	li	a5,-1
20012140:	fef42623          	sw	a5,-20(s0)
C:/Users/nandg/Desktop/FE310-G003/sifive_hifive1_revb_sifive_welcome/freedom-metal/src/drivers/riscv_clint0.c:91
    metal_vector_mode mode = __metal_controller_interrupt_vector_mode();
20012144:	494010ef          	jal	ra,200135d8 <__metal_controller_interrupt_vector_mode>
20012148:	fea42023          	sw	a0,-32(s0)
C:/Users/nandg/Desktop/FE310-G003/sifive_hifive1_revb_sifive_welcome/freedom-metal/src/drivers/riscv_clint0.c:92
    struct metal_interrupt *intc = NULL;
2001214c:	fe042423          	sw	zero,-24(s0)
C:/Users/nandg/Desktop/FE310-G003/sifive_hifive1_revb_sifive_welcome/freedom-metal/src/drivers/riscv_clint0.c:93
    struct metal_interrupt *cpu_intc = _get_cpu_intc();
20012150:	3f21                	jal	20012068 <_get_cpu_intc>
20012152:	fca42e23          	sw	a0,-36(s0)
C:/Users/nandg/Desktop/FE310-G003/sifive_hifive1_revb_sifive_welcome/freedom-metal/src/drivers/riscv_clint0.c:95
    int num_interrupts =
        __metal_driver_sifive_clint0_num_interrupts(controller);
20012156:	fcc42503          	lw	a0,-52(s0)
2001215a:	33a9                	jal	20011ea4 <__metal_driver_sifive_clint0_num_interrupts>
2001215c:	fca42c23          	sw	a0,-40(s0)
C:/Users/nandg/Desktop/FE310-G003/sifive_hifive1_revb_sifive_welcome/freedom-metal/src/drivers/riscv_clint0.c:97

    if ((mode != METAL_VECTOR_MODE) && (mode != METAL_DIRECT_MODE)) {
20012160:	fe042703          	lw	a4,-32(s0)
20012164:	4785                	li	a5,1
20012166:	00f70863          	beq	a4,a5,20012176 <__metal_driver_riscv_clint0_register+0x50>
C:/Users/nandg/Desktop/FE310-G003/sifive_hifive1_revb_sifive_welcome/freedom-metal/src/drivers/riscv_clint0.c:97 (discriminator 1)
2001216a:	fe042783          	lw	a5,-32(s0)
2001216e:	c781                	beqz	a5,20012176 <__metal_driver_riscv_clint0_register+0x50>
C:/Users/nandg/Desktop/FE310-G003/sifive_hifive1_revb_sifive_welcome/freedom-metal/src/drivers/riscv_clint0.c:98
        return rc;
20012170:	fec42783          	lw	a5,-20(s0)
20012174:	a049                	j	200121f6 <__metal_driver_riscv_clint0_register+0xd0>
C:/Users/nandg/Desktop/FE310-G003/sifive_hifive1_revb_sifive_welcome/freedom-metal/src/drivers/riscv_clint0.c:101
    }

    for (int i = 0; i < num_interrupts; i++) {
20012176:	fe042223          	sw	zero,-28(s0)
2001217a:	a091                	j	200121be <__metal_driver_riscv_clint0_register+0x98>
C:/Users/nandg/Desktop/FE310-G003/sifive_hifive1_revb_sifive_welcome/freedom-metal/src/drivers/riscv_clint0.c:102
        int line = __metal_driver_sifive_clint0_interrupt_lines(controller, i);
2001217c:	fe442583          	lw	a1,-28(s0)
20012180:	fcc42503          	lw	a0,-52(s0)
20012184:	3351                	jal	20011f08 <__metal_driver_sifive_clint0_interrupt_lines>
20012186:	fca42a23          	sw	a0,-44(s0)
C:/Users/nandg/Desktop/FE310-G003/sifive_hifive1_revb_sifive_welcome/freedom-metal/src/drivers/riscv_clint0.c:103
        intc = __metal_driver_sifive_clint0_interrupt_parents(controller, i);
2001218a:	fe442583          	lw	a1,-28(s0)
2001218e:	fcc42503          	lw	a0,-52(s0)
20012192:	3b2d                	jal	20011ecc <__metal_driver_sifive_clint0_interrupt_parents>
20012194:	fea42423          	sw	a0,-24(s0)
C:/Users/nandg/Desktop/FE310-G003/sifive_hifive1_revb_sifive_welcome/freedom-metal/src/drivers/riscv_clint0.c:104
        if (cpu_intc == intc && id == line) {
20012198:	fdc42703          	lw	a4,-36(s0)
2001219c:	fe842783          	lw	a5,-24(s0)
200121a0:	00f71863          	bne	a4,a5,200121b0 <__metal_driver_riscv_clint0_register+0x8a>
C:/Users/nandg/Desktop/FE310-G003/sifive_hifive1_revb_sifive_welcome/freedom-metal/src/drivers/riscv_clint0.c:104 (discriminator 1)
200121a4:	fc842703          	lw	a4,-56(s0)
200121a8:	fd442783          	lw	a5,-44(s0)
200121ac:	02f70063          	beq	a4,a5,200121cc <__metal_driver_riscv_clint0_register+0xa6>
C:/Users/nandg/Desktop/FE310-G003/sifive_hifive1_revb_sifive_welcome/freedom-metal/src/drivers/riscv_clint0.c:107 (discriminator 2)
            break;
        }
        intc = NULL;
200121b0:	fe042423          	sw	zero,-24(s0)
C:/Users/nandg/Desktop/FE310-G003/sifive_hifive1_revb_sifive_welcome/freedom-metal/src/drivers/riscv_clint0.c:101 (discriminator 2)
    for (int i = 0; i < num_interrupts; i++) {
200121b4:	fe442783          	lw	a5,-28(s0)
200121b8:	0785                	addi	a5,a5,1
200121ba:	fef42223          	sw	a5,-28(s0)
C:/Users/nandg/Desktop/FE310-G003/sifive_hifive1_revb_sifive_welcome/freedom-metal/src/drivers/riscv_clint0.c:101 (discriminator 1)
200121be:	fe442703          	lw	a4,-28(s0)
200121c2:	fd842783          	lw	a5,-40(s0)
200121c6:	faf74be3          	blt	a4,a5,2001217c <__metal_driver_riscv_clint0_register+0x56>
200121ca:	a011                	j	200121ce <__metal_driver_riscv_clint0_register+0xa8>
C:/Users/nandg/Desktop/FE310-G003/sifive_hifive1_revb_sifive_welcome/freedom-metal/src/drivers/riscv_clint0.c:105
            break;
200121cc:	0001                	nop
C:/Users/nandg/Desktop/FE310-G003/sifive_hifive1_revb_sifive_welcome/freedom-metal/src/drivers/riscv_clint0.c:111
    }

    /* Register its interrupts with parent controller */
    if (intc) {
200121ce:	fe842783          	lw	a5,-24(s0)
200121d2:	c385                	beqz	a5,200121f2 <__metal_driver_riscv_clint0_register+0xcc>
C:/Users/nandg/Desktop/FE310-G003/sifive_hifive1_revb_sifive_welcome/freedom-metal/src/drivers/riscv_clint0.c:112
        rc = intc->vtable->interrupt_register(intc, id, isr, priv);
200121d4:	fe842783          	lw	a5,-24(s0)
200121d8:	439c                	lw	a5,0(a5)
200121da:	4fdc                	lw	a5,28(a5)
200121dc:	fc042683          	lw	a3,-64(s0)
200121e0:	fc442603          	lw	a2,-60(s0)
200121e4:	fc842583          	lw	a1,-56(s0)
200121e8:	fe842503          	lw	a0,-24(s0)
200121ec:	9782                	jalr	a5
200121ee:	fea42623          	sw	a0,-20(s0)
C:/Users/nandg/Desktop/FE310-G003/sifive_hifive1_revb_sifive_welcome/freedom-metal/src/drivers/riscv_clint0.c:114
    }
    return rc;
200121f2:	fec42783          	lw	a5,-20(s0)
C:/Users/nandg/Desktop/FE310-G003/sifive_hifive1_revb_sifive_welcome/freedom-metal/src/drivers/riscv_clint0.c:115
}
200121f6:	853e                	mv	a0,a5
200121f8:	50f2                	lw	ra,60(sp)
200121fa:	5462                	lw	s0,56(sp)
200121fc:	6121                	addi	sp,sp,64
200121fe:	8082                	ret

20012200 <__metal_driver_riscv_clint0_vector_register>:
__metal_driver_riscv_clint0_vector_register():
C:/Users/nandg/Desktop/FE310-G003/sifive_hifive1_revb_sifive_welcome/freedom-metal/src/drivers/riscv_clint0.c:119

int __metal_driver_riscv_clint0_vector_register(
    struct metal_interrupt *controller, int id,
    metal_interrupt_vector_handler_t isr, void *priv) {
20012200:	7179                	addi	sp,sp,-48
20012202:	d622                	sw	s0,44(sp)
20012204:	1800                	addi	s0,sp,48
20012206:	fca42e23          	sw	a0,-36(s0)
2001220a:	fcb42c23          	sw	a1,-40(s0)
2001220e:	fcc42a23          	sw	a2,-44(s0)
20012212:	fcd42823          	sw	a3,-48(s0)
C:/Users/nandg/Desktop/FE310-G003/sifive_hifive1_revb_sifive_welcome/freedom-metal/src/drivers/riscv_clint0.c:121
    /* Not supported. User can override the 'weak' handler with their own */
    int rc = -1;
20012216:	57fd                	li	a5,-1
20012218:	fef42623          	sw	a5,-20(s0)
C:/Users/nandg/Desktop/FE310-G003/sifive_hifive1_revb_sifive_welcome/freedom-metal/src/drivers/riscv_clint0.c:122
    return rc;
2001221c:	fec42783          	lw	a5,-20(s0)
C:/Users/nandg/Desktop/FE310-G003/sifive_hifive1_revb_sifive_welcome/freedom-metal/src/drivers/riscv_clint0.c:123
}
20012220:	853e                	mv	a0,a5
20012222:	5432                	lw	s0,44(sp)
20012224:	6145                	addi	sp,sp,48
20012226:	8082                	ret

20012228 <__metal_driver_riscv_clint0_get_vector_mode>:
__metal_driver_riscv_clint0_get_vector_mode():
C:/Users/nandg/Desktop/FE310-G003/sifive_hifive1_revb_sifive_welcome/freedom-metal/src/drivers/riscv_clint0.c:126

metal_vector_mode __metal_driver_riscv_clint0_get_vector_mode(
    struct metal_interrupt *controller) {
20012228:	1101                	addi	sp,sp,-32
2001222a:	ce06                	sw	ra,28(sp)
2001222c:	cc22                	sw	s0,24(sp)
2001222e:	1000                	addi	s0,sp,32
20012230:	fea42623          	sw	a0,-20(s0)
C:/Users/nandg/Desktop/FE310-G003/sifive_hifive1_revb_sifive_welcome/freedom-metal/src/drivers/riscv_clint0.c:127
    return __metal_controller_interrupt_vector_mode();
20012234:	3a4010ef          	jal	ra,200135d8 <__metal_controller_interrupt_vector_mode>
20012238:	87aa                	mv	a5,a0
C:/Users/nandg/Desktop/FE310-G003/sifive_hifive1_revb_sifive_welcome/freedom-metal/src/drivers/riscv_clint0.c:128
}
2001223a:	853e                	mv	a0,a5
2001223c:	40f2                	lw	ra,28(sp)
2001223e:	4462                	lw	s0,24(sp)
20012240:	6105                	addi	sp,sp,32
20012242:	8082                	ret

20012244 <__metal_driver_riscv_clint0_set_vector_mode>:
__metal_driver_riscv_clint0_set_vector_mode():
C:/Users/nandg/Desktop/FE310-G003/sifive_hifive1_revb_sifive_welcome/freedom-metal/src/drivers/riscv_clint0.c:131

int __metal_driver_riscv_clint0_set_vector_mode(
    struct metal_interrupt *controller, metal_vector_mode mode) {
20012244:	7179                	addi	sp,sp,-48
20012246:	d606                	sw	ra,44(sp)
20012248:	d422                	sw	s0,40(sp)
2001224a:	1800                	addi	s0,sp,48
2001224c:	fca42e23          	sw	a0,-36(s0)
20012250:	fcb42c23          	sw	a1,-40(s0)
C:/Users/nandg/Desktop/FE310-G003/sifive_hifive1_revb_sifive_welcome/freedom-metal/src/drivers/riscv_clint0.c:132
    int rc = -1;
20012254:	57fd                	li	a5,-1
20012256:	fef42623          	sw	a5,-20(s0)
C:/Users/nandg/Desktop/FE310-G003/sifive_hifive1_revb_sifive_welcome/freedom-metal/src/drivers/riscv_clint0.c:133
    struct metal_interrupt *intc = _get_cpu_intc();
2001225a:	3539                	jal	20012068 <_get_cpu_intc>
2001225c:	fea42423          	sw	a0,-24(s0)
C:/Users/nandg/Desktop/FE310-G003/sifive_hifive1_revb_sifive_welcome/freedom-metal/src/drivers/riscv_clint0.c:135

    if (intc) {
20012260:	fe842783          	lw	a5,-24(s0)
20012264:	c395                	beqz	a5,20012288 <__metal_driver_riscv_clint0_set_vector_mode+0x44>
C:/Users/nandg/Desktop/FE310-G003/sifive_hifive1_revb_sifive_welcome/freedom-metal/src/drivers/riscv_clint0.c:138
        /* Valid vector modes are VECTOR and DIRECT, anything else is invalid
         * (-1) */
        switch (mode) {
20012266:	fd842703          	lw	a4,-40(s0)
2001226a:	4785                	li	a5,1
2001226c:	02e7e063          	bltu	a5,a4,2001228c <__metal_driver_riscv_clint0_set_vector_mode+0x48>
C:/Users/nandg/Desktop/FE310-G003/sifive_hifive1_revb_sifive_welcome/freedom-metal/src/drivers/riscv_clint0.c:141
        case METAL_VECTOR_MODE:
        case METAL_DIRECT_MODE:
            rc = intc->vtable->interrupt_set_vector_mode(intc, mode);
20012270:	fe842783          	lw	a5,-24(s0)
20012274:	439c                	lw	a5,0(a5)
20012276:	43dc                	lw	a5,4(a5)
20012278:	fd842583          	lw	a1,-40(s0)
2001227c:	fe842503          	lw	a0,-24(s0)
20012280:	9782                	jalr	a5
20012282:	fea42623          	sw	a0,-20(s0)
C:/Users/nandg/Desktop/FE310-G003/sifive_hifive1_revb_sifive_welcome/freedom-metal/src/drivers/riscv_clint0.c:142
            break;
20012286:	a021                	j	2001228e <__metal_driver_riscv_clint0_set_vector_mode+0x4a>
C:/Users/nandg/Desktop/FE310-G003/sifive_hifive1_revb_sifive_welcome/freedom-metal/src/drivers/riscv_clint0.c:146
        default:
            break;
        }
    }
20012288:	0001                	nop
2001228a:	a011                	j	2001228e <__metal_driver_riscv_clint0_set_vector_mode+0x4a>
C:/Users/nandg/Desktop/FE310-G003/sifive_hifive1_revb_sifive_welcome/freedom-metal/src/drivers/riscv_clint0.c:144
            break;
2001228c:	0001                	nop
C:/Users/nandg/Desktop/FE310-G003/sifive_hifive1_revb_sifive_welcome/freedom-metal/src/drivers/riscv_clint0.c:147
    return rc;
2001228e:	fec42783          	lw	a5,-20(s0)
C:/Users/nandg/Desktop/FE310-G003/sifive_hifive1_revb_sifive_welcome/freedom-metal/src/drivers/riscv_clint0.c:148
}
20012292:	853e                	mv	a0,a5
20012294:	50b2                	lw	ra,44(sp)
20012296:	5422                	lw	s0,40(sp)
20012298:	6145                	addi	sp,sp,48
2001229a:	8082                	ret

2001229c <__metal_driver_riscv_clint0_enable>:
__metal_driver_riscv_clint0_enable():
C:/Users/nandg/Desktop/FE310-G003/sifive_hifive1_revb_sifive_welcome/freedom-metal/src/drivers/riscv_clint0.c:151

int __metal_driver_riscv_clint0_enable(struct metal_interrupt *controller,
                                       int id) {
2001229c:	7139                	addi	sp,sp,-64
2001229e:	de06                	sw	ra,60(sp)
200122a0:	dc22                	sw	s0,56(sp)
200122a2:	0080                	addi	s0,sp,64
200122a4:	fca42623          	sw	a0,-52(s0)
200122a8:	fcb42423          	sw	a1,-56(s0)
C:/Users/nandg/Desktop/FE310-G003/sifive_hifive1_revb_sifive_welcome/freedom-metal/src/drivers/riscv_clint0.c:152
    int rc = -1;
200122ac:	57fd                	li	a5,-1
200122ae:	fef42623          	sw	a5,-20(s0)
C:/Users/nandg/Desktop/FE310-G003/sifive_hifive1_revb_sifive_welcome/freedom-metal/src/drivers/riscv_clint0.c:154

    if (id) {
200122b2:	fc842783          	lw	a5,-56(s0)
200122b6:	c7c9                	beqz	a5,20012340 <__metal_driver_riscv_clint0_enable+0xa4>
C:/Users/nandg/Desktop/FE310-G003/sifive_hifive1_revb_sifive_welcome/freedom-metal/src/drivers/riscv_clint0.c:155
        struct metal_interrupt *intc = NULL;
200122b8:	fe042423          	sw	zero,-24(s0)
C:/Users/nandg/Desktop/FE310-G003/sifive_hifive1_revb_sifive_welcome/freedom-metal/src/drivers/riscv_clint0.c:156
        struct metal_interrupt *cpu_intc = _get_cpu_intc();
200122bc:	3375                	jal	20012068 <_get_cpu_intc>
200122be:	fea42023          	sw	a0,-32(s0)
C:/Users/nandg/Desktop/FE310-G003/sifive_hifive1_revb_sifive_welcome/freedom-metal/src/drivers/riscv_clint0.c:158
        int num_interrupts =
            __metal_driver_sifive_clint0_num_interrupts(controller);
200122c2:	fcc42503          	lw	a0,-52(s0)
200122c6:	3ef9                	jal	20011ea4 <__metal_driver_sifive_clint0_num_interrupts>
200122c8:	fca42e23          	sw	a0,-36(s0)
C:/Users/nandg/Desktop/FE310-G003/sifive_hifive1_revb_sifive_welcome/freedom-metal/src/drivers/riscv_clint0.c:160

        for (int i = 0; i < num_interrupts; i++) {
200122cc:	fe042223          	sw	zero,-28(s0)
200122d0:	a091                	j	20012314 <__metal_driver_riscv_clint0_enable+0x78>
C:/Users/nandg/Desktop/FE310-G003/sifive_hifive1_revb_sifive_welcome/freedom-metal/src/drivers/riscv_clint0.c:162
            int line =
                __metal_driver_sifive_clint0_interrupt_lines(controller, i);
200122d2:	fe442583          	lw	a1,-28(s0)
200122d6:	fcc42503          	lw	a0,-52(s0)
200122da:	313d                	jal	20011f08 <__metal_driver_sifive_clint0_interrupt_lines>
200122dc:	fca42c23          	sw	a0,-40(s0)
C:/Users/nandg/Desktop/FE310-G003/sifive_hifive1_revb_sifive_welcome/freedom-metal/src/drivers/riscv_clint0.c:164
            intc =
                __metal_driver_sifive_clint0_interrupt_parents(controller, i);
200122e0:	fe442583          	lw	a1,-28(s0)
200122e4:	fcc42503          	lw	a0,-52(s0)
200122e8:	36d5                	jal	20011ecc <__metal_driver_sifive_clint0_interrupt_parents>
200122ea:	fea42423          	sw	a0,-24(s0)
C:/Users/nandg/Desktop/FE310-G003/sifive_hifive1_revb_sifive_welcome/freedom-metal/src/drivers/riscv_clint0.c:165
            if (cpu_intc == intc && id == line) {
200122ee:	fe042703          	lw	a4,-32(s0)
200122f2:	fe842783          	lw	a5,-24(s0)
200122f6:	00f71863          	bne	a4,a5,20012306 <__metal_driver_riscv_clint0_enable+0x6a>
C:/Users/nandg/Desktop/FE310-G003/sifive_hifive1_revb_sifive_welcome/freedom-metal/src/drivers/riscv_clint0.c:165 (discriminator 1)
200122fa:	fc842703          	lw	a4,-56(s0)
200122fe:	fd842783          	lw	a5,-40(s0)
20012302:	02f70063          	beq	a4,a5,20012322 <__metal_driver_riscv_clint0_enable+0x86>
C:/Users/nandg/Desktop/FE310-G003/sifive_hifive1_revb_sifive_welcome/freedom-metal/src/drivers/riscv_clint0.c:168 (discriminator 2)
                break;
            }
            intc = NULL;
20012306:	fe042423          	sw	zero,-24(s0)
C:/Users/nandg/Desktop/FE310-G003/sifive_hifive1_revb_sifive_welcome/freedom-metal/src/drivers/riscv_clint0.c:160 (discriminator 2)
        for (int i = 0; i < num_interrupts; i++) {
2001230a:	fe442783          	lw	a5,-28(s0)
2001230e:	0785                	addi	a5,a5,1
20012310:	fef42223          	sw	a5,-28(s0)
C:/Users/nandg/Desktop/FE310-G003/sifive_hifive1_revb_sifive_welcome/freedom-metal/src/drivers/riscv_clint0.c:160 (discriminator 1)
20012314:	fe442703          	lw	a4,-28(s0)
20012318:	fdc42783          	lw	a5,-36(s0)
2001231c:	faf74be3          	blt	a4,a5,200122d2 <__metal_driver_riscv_clint0_enable+0x36>
20012320:	a011                	j	20012324 <__metal_driver_riscv_clint0_enable+0x88>
C:/Users/nandg/Desktop/FE310-G003/sifive_hifive1_revb_sifive_welcome/freedom-metal/src/drivers/riscv_clint0.c:166
                break;
20012322:	0001                	nop
C:/Users/nandg/Desktop/FE310-G003/sifive_hifive1_revb_sifive_welcome/freedom-metal/src/drivers/riscv_clint0.c:172
        }

        /* Enable its interrupts with parent controller */
        if (intc) {
20012324:	fe842783          	lw	a5,-24(s0)
20012328:	cf81                	beqz	a5,20012340 <__metal_driver_riscv_clint0_enable+0xa4>
C:/Users/nandg/Desktop/FE310-G003/sifive_hifive1_revb_sifive_welcome/freedom-metal/src/drivers/riscv_clint0.c:173
            rc = intc->vtable->interrupt_enable(intc, id);
2001232a:	fe842783          	lw	a5,-24(s0)
2001232e:	439c                	lw	a5,0(a5)
20012330:	53dc                	lw	a5,36(a5)
20012332:	fc842583          	lw	a1,-56(s0)
20012336:	fe842503          	lw	a0,-24(s0)
2001233a:	9782                	jalr	a5
2001233c:	fea42623          	sw	a0,-20(s0)
C:/Users/nandg/Desktop/FE310-G003/sifive_hifive1_revb_sifive_welcome/freedom-metal/src/drivers/riscv_clint0.c:177
        }
    }

    return rc;
20012340:	fec42783          	lw	a5,-20(s0)
C:/Users/nandg/Desktop/FE310-G003/sifive_hifive1_revb_sifive_welcome/freedom-metal/src/drivers/riscv_clint0.c:178
}
20012344:	853e                	mv	a0,a5
20012346:	50f2                	lw	ra,60(sp)
20012348:	5462                	lw	s0,56(sp)
2001234a:	6121                	addi	sp,sp,64
2001234c:	8082                	ret

2001234e <__metal_driver_riscv_clint0_disable>:
__metal_driver_riscv_clint0_disable():
C:/Users/nandg/Desktop/FE310-G003/sifive_hifive1_revb_sifive_welcome/freedom-metal/src/drivers/riscv_clint0.c:181

int __metal_driver_riscv_clint0_disable(struct metal_interrupt *controller,
                                        int id) {
2001234e:	7139                	addi	sp,sp,-64
20012350:	de06                	sw	ra,60(sp)
20012352:	dc22                	sw	s0,56(sp)
20012354:	0080                	addi	s0,sp,64
20012356:	fca42623          	sw	a0,-52(s0)
2001235a:	fcb42423          	sw	a1,-56(s0)
C:/Users/nandg/Desktop/FE310-G003/sifive_hifive1_revb_sifive_welcome/freedom-metal/src/drivers/riscv_clint0.c:182
    int rc = -1;
2001235e:	57fd                	li	a5,-1
20012360:	fef42623          	sw	a5,-20(s0)
C:/Users/nandg/Desktop/FE310-G003/sifive_hifive1_revb_sifive_welcome/freedom-metal/src/drivers/riscv_clint0.c:184

    if (id) {
20012364:	fc842783          	lw	a5,-56(s0)
20012368:	c7c9                	beqz	a5,200123f2 <__metal_driver_riscv_clint0_disable+0xa4>
C:/Users/nandg/Desktop/FE310-G003/sifive_hifive1_revb_sifive_welcome/freedom-metal/src/drivers/riscv_clint0.c:185
        struct metal_interrupt *intc = NULL;
2001236a:	fe042423          	sw	zero,-24(s0)
C:/Users/nandg/Desktop/FE310-G003/sifive_hifive1_revb_sifive_welcome/freedom-metal/src/drivers/riscv_clint0.c:186
        struct metal_interrupt *cpu_intc = _get_cpu_intc();
2001236e:	39ed                	jal	20012068 <_get_cpu_intc>
20012370:	fea42023          	sw	a0,-32(s0)
C:/Users/nandg/Desktop/FE310-G003/sifive_hifive1_revb_sifive_welcome/freedom-metal/src/drivers/riscv_clint0.c:188
        int num_interrupts =
            __metal_driver_sifive_clint0_num_interrupts(controller);
20012374:	fcc42503          	lw	a0,-52(s0)
20012378:	3635                	jal	20011ea4 <__metal_driver_sifive_clint0_num_interrupts>
2001237a:	fca42e23          	sw	a0,-36(s0)
C:/Users/nandg/Desktop/FE310-G003/sifive_hifive1_revb_sifive_welcome/freedom-metal/src/drivers/riscv_clint0.c:190

        for (int i = 0; i < num_interrupts; i++) {
2001237e:	fe042223          	sw	zero,-28(s0)
20012382:	a091                	j	200123c6 <__metal_driver_riscv_clint0_disable+0x78>
C:/Users/nandg/Desktop/FE310-G003/sifive_hifive1_revb_sifive_welcome/freedom-metal/src/drivers/riscv_clint0.c:192
            int line =
                __metal_driver_sifive_clint0_interrupt_lines(controller, i);
20012384:	fe442583          	lw	a1,-28(s0)
20012388:	fcc42503          	lw	a0,-52(s0)
2001238c:	3eb5                	jal	20011f08 <__metal_driver_sifive_clint0_interrupt_lines>
2001238e:	fca42c23          	sw	a0,-40(s0)
C:/Users/nandg/Desktop/FE310-G003/sifive_hifive1_revb_sifive_welcome/freedom-metal/src/drivers/riscv_clint0.c:194
            intc =
                __metal_driver_sifive_clint0_interrupt_parents(controller, i);
20012392:	fe442583          	lw	a1,-28(s0)
20012396:	fcc42503          	lw	a0,-52(s0)
2001239a:	3e0d                	jal	20011ecc <__metal_driver_sifive_clint0_interrupt_parents>
2001239c:	fea42423          	sw	a0,-24(s0)
C:/Users/nandg/Desktop/FE310-G003/sifive_hifive1_revb_sifive_welcome/freedom-metal/src/drivers/riscv_clint0.c:195
            if (cpu_intc == intc && id == line) {
200123a0:	fe042703          	lw	a4,-32(s0)
200123a4:	fe842783          	lw	a5,-24(s0)
200123a8:	00f71863          	bne	a4,a5,200123b8 <__metal_driver_riscv_clint0_disable+0x6a>
C:/Users/nandg/Desktop/FE310-G003/sifive_hifive1_revb_sifive_welcome/freedom-metal/src/drivers/riscv_clint0.c:195 (discriminator 1)
200123ac:	fc842703          	lw	a4,-56(s0)
200123b0:	fd842783          	lw	a5,-40(s0)
200123b4:	02f70063          	beq	a4,a5,200123d4 <__metal_driver_riscv_clint0_disable+0x86>
C:/Users/nandg/Desktop/FE310-G003/sifive_hifive1_revb_sifive_welcome/freedom-metal/src/drivers/riscv_clint0.c:198 (discriminator 2)
                break;
            }
            intc = NULL;
200123b8:	fe042423          	sw	zero,-24(s0)
C:/Users/nandg/Desktop/FE310-G003/sifive_hifive1_revb_sifive_welcome/freedom-metal/src/drivers/riscv_clint0.c:190 (discriminator 2)
        for (int i = 0; i < num_interrupts; i++) {
200123bc:	fe442783          	lw	a5,-28(s0)
200123c0:	0785                	addi	a5,a5,1
200123c2:	fef42223          	sw	a5,-28(s0)
C:/Users/nandg/Desktop/FE310-G003/sifive_hifive1_revb_sifive_welcome/freedom-metal/src/drivers/riscv_clint0.c:190 (discriminator 1)
200123c6:	fe442703          	lw	a4,-28(s0)
200123ca:	fdc42783          	lw	a5,-36(s0)
200123ce:	faf74be3          	blt	a4,a5,20012384 <__metal_driver_riscv_clint0_disable+0x36>
200123d2:	a011                	j	200123d6 <__metal_driver_riscv_clint0_disable+0x88>
C:/Users/nandg/Desktop/FE310-G003/sifive_hifive1_revb_sifive_welcome/freedom-metal/src/drivers/riscv_clint0.c:196
                break;
200123d4:	0001                	nop
C:/Users/nandg/Desktop/FE310-G003/sifive_hifive1_revb_sifive_welcome/freedom-metal/src/drivers/riscv_clint0.c:202
        }

        /* Disable its interrupts with parent controller */
        if (intc) {
200123d6:	fe842783          	lw	a5,-24(s0)
200123da:	cf81                	beqz	a5,200123f2 <__metal_driver_riscv_clint0_disable+0xa4>
C:/Users/nandg/Desktop/FE310-G003/sifive_hifive1_revb_sifive_welcome/freedom-metal/src/drivers/riscv_clint0.c:203
            rc = intc->vtable->interrupt_disable(intc, id);
200123dc:	fe842783          	lw	a5,-24(s0)
200123e0:	439c                	lw	a5,0(a5)
200123e2:	579c                	lw	a5,40(a5)
200123e4:	fc842583          	lw	a1,-56(s0)
200123e8:	fe842503          	lw	a0,-24(s0)
200123ec:	9782                	jalr	a5
200123ee:	fea42623          	sw	a0,-20(s0)
C:/Users/nandg/Desktop/FE310-G003/sifive_hifive1_revb_sifive_welcome/freedom-metal/src/drivers/riscv_clint0.c:207
        }
    }

    return rc;
200123f2:	fec42783          	lw	a5,-20(s0)
C:/Users/nandg/Desktop/FE310-G003/sifive_hifive1_revb_sifive_welcome/freedom-metal/src/drivers/riscv_clint0.c:208
}
200123f6:	853e                	mv	a0,a5
200123f8:	50f2                	lw	ra,60(sp)
200123fa:	5462                	lw	s0,56(sp)
200123fc:	6121                	addi	sp,sp,64
200123fe:	8082                	ret

20012400 <__metal_driver_riscv_clint0_command_request>:
__metal_driver_riscv_clint0_command_request():
C:/Users/nandg/Desktop/FE310-G003/sifive_hifive1_revb_sifive_welcome/freedom-metal/src/drivers/riscv_clint0.c:211

int __metal_driver_riscv_clint0_command_request(
    struct metal_interrupt *controller, int command, void *data) {
20012400:	7179                	addi	sp,sp,-48
20012402:	d606                	sw	ra,44(sp)
20012404:	d422                	sw	s0,40(sp)
20012406:	1800                	addi	s0,sp,48
20012408:	fca42e23          	sw	a0,-36(s0)
2001240c:	fcb42c23          	sw	a1,-40(s0)
20012410:	fcc42a23          	sw	a2,-44(s0)
C:/Users/nandg/Desktop/FE310-G003/sifive_hifive1_revb_sifive_welcome/freedom-metal/src/drivers/riscv_clint0.c:213
    int hartid;
    int rc = -1;
20012414:	57fd                	li	a5,-1
20012416:	fef42623          	sw	a5,-20(s0)
C:/Users/nandg/Desktop/FE310-G003/sifive_hifive1_revb_sifive_welcome/freedom-metal/src/drivers/riscv_clint0.c:214
    struct __metal_driver_riscv_clint0 *clint =
2001241a:	fdc42783          	lw	a5,-36(s0)
2001241e:	fef42423          	sw	a5,-24(s0)
C:/Users/nandg/Desktop/FE310-G003/sifive_hifive1_revb_sifive_welcome/freedom-metal/src/drivers/riscv_clint0.c:217
        (struct __metal_driver_riscv_clint0 *)(controller);
    unsigned long control_base =
        __metal_driver_sifive_clint0_control_base(controller);
20012422:	fdc42503          	lw	a0,-36(s0)
20012426:	a55ff0ef          	jal	ra,20011e7a <__metal_driver_sifive_clint0_control_base>
2001242a:	fea42223          	sw	a0,-28(s0)
C:/Users/nandg/Desktop/FE310-G003/sifive_hifive1_revb_sifive_welcome/freedom-metal/src/drivers/riscv_clint0.c:219

    switch (command) {
2001242e:	fd842703          	lw	a4,-40(s0)
20012432:	4791                	li	a5,4
20012434:	0cf70063          	beq	a4,a5,200124f4 <__metal_driver_riscv_clint0_command_request+0xf4>
20012438:	fd842703          	lw	a4,-40(s0)
2001243c:	4791                	li	a5,4
2001243e:	0ee7c063          	blt	a5,a4,2001251e <__metal_driver_riscv_clint0_command_request+0x11e>
20012442:	fd842703          	lw	a4,-40(s0)
20012446:	478d                	li	a5,3
20012448:	06f70563          	beq	a4,a5,200124b2 <__metal_driver_riscv_clint0_command_request+0xb2>
2001244c:	fd842703          	lw	a4,-40(s0)
20012450:	478d                	li	a5,3
20012452:	0ce7c663          	blt	a5,a4,2001251e <__metal_driver_riscv_clint0_command_request+0x11e>
20012456:	fd842703          	lw	a4,-40(s0)
2001245a:	4785                	li	a5,1
2001245c:	00f70863          	beq	a4,a5,2001246c <__metal_driver_riscv_clint0_command_request+0x6c>
20012460:	fd842703          	lw	a4,-40(s0)
20012464:	4789                	li	a5,2
20012466:	02f70263          	beq	a4,a5,2001248a <__metal_driver_riscv_clint0_command_request+0x8a>
C:/Users/nandg/Desktop/FE310-G003/sifive_hifive1_revb_sifive_welcome/freedom-metal/src/drivers/riscv_clint0.c:263
            rc = __METAL_ACCESS_ONCE(
                (__metal_io_u32 *)(control_base + (hartid * 4)));
        }
        break;
    default:
        break;
2001246a:	a855                	j	2001251e <__metal_driver_riscv_clint0_command_request+0x11e>
C:/Users/nandg/Desktop/FE310-G003/sifive_hifive1_revb_sifive_welcome/freedom-metal/src/drivers/riscv_clint0.c:221
        if (data) {
2001246c:	fd442783          	lw	a5,-44(s0)
20012470:	cbcd                	beqz	a5,20012522 <__metal_driver_riscv_clint0_command_request+0x122>
C:/Users/nandg/Desktop/FE310-G003/sifive_hifive1_revb_sifive_welcome/freedom-metal/src/drivers/riscv_clint0.c:222
            *(unsigned long long *)data = __metal_clint0_mtime_get(clint);
20012472:	fe842503          	lw	a0,-24(s0)
20012476:	34c9                	jal	20011f38 <__metal_clint0_mtime_get>
20012478:	872a                	mv	a4,a0
2001247a:	87ae                	mv	a5,a1
2001247c:	fd442683          	lw	a3,-44(s0)
20012480:	c298                	sw	a4,0(a3)
20012482:	c2dc                	sw	a5,4(a3)
C:/Users/nandg/Desktop/FE310-G003/sifive_hifive1_revb_sifive_welcome/freedom-metal/src/drivers/riscv_clint0.c:223
            rc = 0;
20012484:	fe042623          	sw	zero,-20(s0)
C:/Users/nandg/Desktop/FE310-G003/sifive_hifive1_revb_sifive_welcome/freedom-metal/src/drivers/riscv_clint0.c:225
        break;
20012488:	a869                	j	20012522 <__metal_driver_riscv_clint0_command_request+0x122>
C:/Users/nandg/Desktop/FE310-G003/sifive_hifive1_revb_sifive_welcome/freedom-metal/src/drivers/riscv_clint0.c:227
        if (data) {
2001248a:	fd442783          	lw	a5,-44(s0)
2001248e:	cfc1                	beqz	a5,20012526 <__metal_driver_riscv_clint0_command_request+0x126>
C:/Users/nandg/Desktop/FE310-G003/sifive_hifive1_revb_sifive_welcome/freedom-metal/src/drivers/riscv_clint0.c:228
            hartid = *(int *)data;
20012490:	fd442783          	lw	a5,-44(s0)
20012494:	439c                	lw	a5,0(a5)
20012496:	fef42023          	sw	a5,-32(s0)
C:/Users/nandg/Desktop/FE310-G003/sifive_hifive1_revb_sifive_welcome/freedom-metal/src/drivers/riscv_clint0.c:229
            __METAL_ACCESS_ONCE((
2001249a:	fe042783          	lw	a5,-32(s0)
2001249e:	078a                	slli	a5,a5,0x2
200124a0:	873e                	mv	a4,a5
200124a2:	fe442783          	lw	a5,-28(s0)
200124a6:	97ba                	add	a5,a5,a4
C:/Users/nandg/Desktop/FE310-G003/sifive_hifive1_revb_sifive_welcome/freedom-metal/src/drivers/riscv_clint0.c:230
                __metal_io_u32 *)(control_base + (hartid * 4))) = METAL_DISABLE;
200124a8:	0007a023          	sw	zero,0(a5) # 4000 <__heap_size+0x3800>
C:/Users/nandg/Desktop/FE310-G003/sifive_hifive1_revb_sifive_welcome/freedom-metal/src/drivers/riscv_clint0.c:231
            rc = 0;
200124ac:	fe042623          	sw	zero,-20(s0)
C:/Users/nandg/Desktop/FE310-G003/sifive_hifive1_revb_sifive_welcome/freedom-metal/src/drivers/riscv_clint0.c:233
        break;
200124b0:	a89d                	j	20012526 <__metal_driver_riscv_clint0_command_request+0x126>
C:/Users/nandg/Desktop/FE310-G003/sifive_hifive1_revb_sifive_welcome/freedom-metal/src/drivers/riscv_clint0.c:235
        if (data) {
200124b2:	fd442783          	lw	a5,-44(s0)
200124b6:	cbb5                	beqz	a5,2001252a <__metal_driver_riscv_clint0_command_request+0x12a>
C:/Users/nandg/Desktop/FE310-G003/sifive_hifive1_revb_sifive_welcome/freedom-metal/src/drivers/riscv_clint0.c:236
            hartid = *(int *)data;
200124b8:	fd442783          	lw	a5,-44(s0)
200124bc:	439c                	lw	a5,0(a5)
200124be:	fef42023          	sw	a5,-32(s0)
C:/Users/nandg/Desktop/FE310-G003/sifive_hifive1_revb_sifive_welcome/freedom-metal/src/drivers/riscv_clint0.c:237
            __METAL_ACCESS_ONCE(
200124c2:	fe042783          	lw	a5,-32(s0)
200124c6:	078a                	slli	a5,a5,0x2
200124c8:	873e                	mv	a4,a5
200124ca:	fe442783          	lw	a5,-28(s0)
200124ce:	97ba                	add	a5,a5,a4
200124d0:	873e                	mv	a4,a5
C:/Users/nandg/Desktop/FE310-G003/sifive_hifive1_revb_sifive_welcome/freedom-metal/src/drivers/riscv_clint0.c:238
                (__metal_io_u32 *)(control_base + (hartid * 4))) = METAL_ENABLE;
200124d2:	4785                	li	a5,1
200124d4:	c31c                	sw	a5,0(a4)
C:/Users/nandg/Desktop/FE310-G003/sifive_hifive1_revb_sifive_welcome/freedom-metal/src/drivers/riscv_clint0.c:248
            __METAL_IO_FENCE(o, i);
200124d6:	0480000f          	fence	o,i
C:/Users/nandg/Desktop/FE310-G003/sifive_hifive1_revb_sifive_welcome/freedom-metal/src/drivers/riscv_clint0.c:249
            rc = __METAL_ACCESS_ONCE(
200124da:	fe042783          	lw	a5,-32(s0)
200124de:	078a                	slli	a5,a5,0x2
200124e0:	873e                	mv	a4,a5
200124e2:	fe442783          	lw	a5,-28(s0)
200124e6:	97ba                	add	a5,a5,a4
200124e8:	439c                	lw	a5,0(a5)
200124ea:	fef42623          	sw	a5,-20(s0)
C:/Users/nandg/Desktop/FE310-G003/sifive_hifive1_revb_sifive_welcome/freedom-metal/src/drivers/riscv_clint0.c:251
            rc = 0;
200124ee:	fe042623          	sw	zero,-20(s0)
C:/Users/nandg/Desktop/FE310-G003/sifive_hifive1_revb_sifive_welcome/freedom-metal/src/drivers/riscv_clint0.c:253
        break;
200124f2:	a825                	j	2001252a <__metal_driver_riscv_clint0_command_request+0x12a>
C:/Users/nandg/Desktop/FE310-G003/sifive_hifive1_revb_sifive_welcome/freedom-metal/src/drivers/riscv_clint0.c:255
        rc = 0;
200124f4:	fe042623          	sw	zero,-20(s0)
C:/Users/nandg/Desktop/FE310-G003/sifive_hifive1_revb_sifive_welcome/freedom-metal/src/drivers/riscv_clint0.c:256
        if (data) {
200124f8:	fd442783          	lw	a5,-44(s0)
200124fc:	cb8d                	beqz	a5,2001252e <__metal_driver_riscv_clint0_command_request+0x12e>
C:/Users/nandg/Desktop/FE310-G003/sifive_hifive1_revb_sifive_welcome/freedom-metal/src/drivers/riscv_clint0.c:257
            hartid = *(int *)data;
200124fe:	fd442783          	lw	a5,-44(s0)
20012502:	439c                	lw	a5,0(a5)
20012504:	fef42023          	sw	a5,-32(s0)
C:/Users/nandg/Desktop/FE310-G003/sifive_hifive1_revb_sifive_welcome/freedom-metal/src/drivers/riscv_clint0.c:258
            rc = __METAL_ACCESS_ONCE(
20012508:	fe042783          	lw	a5,-32(s0)
2001250c:	078a                	slli	a5,a5,0x2
2001250e:	873e                	mv	a4,a5
20012510:	fe442783          	lw	a5,-28(s0)
20012514:	97ba                	add	a5,a5,a4
20012516:	439c                	lw	a5,0(a5)
20012518:	fef42623          	sw	a5,-20(s0)
C:/Users/nandg/Desktop/FE310-G003/sifive_hifive1_revb_sifive_welcome/freedom-metal/src/drivers/riscv_clint0.c:261
        break;
2001251c:	a809                	j	2001252e <__metal_driver_riscv_clint0_command_request+0x12e>
C:/Users/nandg/Desktop/FE310-G003/sifive_hifive1_revb_sifive_welcome/freedom-metal/src/drivers/riscv_clint0.c:263
        break;
2001251e:	0001                	nop
20012520:	a801                	j	20012530 <__metal_driver_riscv_clint0_command_request+0x130>
C:/Users/nandg/Desktop/FE310-G003/sifive_hifive1_revb_sifive_welcome/freedom-metal/src/drivers/riscv_clint0.c:225
        break;
20012522:	0001                	nop
20012524:	a031                	j	20012530 <__metal_driver_riscv_clint0_command_request+0x130>
C:/Users/nandg/Desktop/FE310-G003/sifive_hifive1_revb_sifive_welcome/freedom-metal/src/drivers/riscv_clint0.c:233
        break;
20012526:	0001                	nop
20012528:	a021                	j	20012530 <__metal_driver_riscv_clint0_command_request+0x130>
C:/Users/nandg/Desktop/FE310-G003/sifive_hifive1_revb_sifive_welcome/freedom-metal/src/drivers/riscv_clint0.c:253
        break;
2001252a:	0001                	nop
2001252c:	a011                	j	20012530 <__metal_driver_riscv_clint0_command_request+0x130>
C:/Users/nandg/Desktop/FE310-G003/sifive_hifive1_revb_sifive_welcome/freedom-metal/src/drivers/riscv_clint0.c:261
        break;
2001252e:	0001                	nop
C:/Users/nandg/Desktop/FE310-G003/sifive_hifive1_revb_sifive_welcome/freedom-metal/src/drivers/riscv_clint0.c:266
    }

    return rc;
20012530:	fec42783          	lw	a5,-20(s0)
C:/Users/nandg/Desktop/FE310-G003/sifive_hifive1_revb_sifive_welcome/freedom-metal/src/drivers/riscv_clint0.c:267
}
20012534:	853e                	mv	a0,a5
20012536:	50b2                	lw	ra,44(sp)
20012538:	5422                	lw	s0,40(sp)
2001253a:	6145                	addi	sp,sp,48
2001253c:	8082                	ret

2001253e <__metal_driver_riscv_clint0_clear_interrupt>:
__metal_driver_riscv_clint0_clear_interrupt():
C:/Users/nandg/Desktop/FE310-G003/sifive_hifive1_revb_sifive_welcome/freedom-metal/src/drivers/riscv_clint0.c:270

int __metal_driver_riscv_clint0_clear_interrupt(
    struct metal_interrupt *controller, int id) {
2001253e:	7179                	addi	sp,sp,-48
20012540:	d606                	sw	ra,44(sp)
20012542:	d422                	sw	s0,40(sp)
20012544:	1800                	addi	s0,sp,48
20012546:	fca42e23          	sw	a0,-36(s0)
2001254a:	fcb42c23          	sw	a1,-40(s0)
C:/Users/nandg/Desktop/FE310-G003/sifive_hifive1_revb_sifive_welcome/freedom-metal/src/drivers/riscv_clint0.c:271
    int hartid = metal_cpu_get_current_hartid();
2001254e:	048040ef          	jal	ra,20016596 <metal_cpu_get_current_hartid>
20012552:	87aa                	mv	a5,a0
20012554:	fef42623          	sw	a5,-20(s0)
C:/Users/nandg/Desktop/FE310-G003/sifive_hifive1_revb_sifive_welcome/freedom-metal/src/drivers/riscv_clint0.c:272
    return __metal_driver_riscv_clint0_command_request(
20012558:	fec40793          	addi	a5,s0,-20
2001255c:	863e                	mv	a2,a5
2001255e:	4589                	li	a1,2
20012560:	fdc42503          	lw	a0,-36(s0)
20012564:	3d71                	jal	20012400 <__metal_driver_riscv_clint0_command_request>
20012566:	87aa                	mv	a5,a0
C:/Users/nandg/Desktop/FE310-G003/sifive_hifive1_revb_sifive_welcome/freedom-metal/src/drivers/riscv_clint0.c:274
        controller, METAL_SOFTWARE_IPI_CLEAR, &hartid);
}
20012568:	853e                	mv	a0,a5
2001256a:	50b2                	lw	ra,44(sp)
2001256c:	5422                	lw	s0,40(sp)
2001256e:	6145                	addi	sp,sp,48
20012570:	8082                	ret

20012572 <__metal_driver_riscv_clint0_set_interrupt>:
__metal_driver_riscv_clint0_set_interrupt():
C:/Users/nandg/Desktop/FE310-G003/sifive_hifive1_revb_sifive_welcome/freedom-metal/src/drivers/riscv_clint0.c:277

int __metal_driver_riscv_clint0_set_interrupt(
    struct metal_interrupt *controller, int id) {
20012572:	7179                	addi	sp,sp,-48
20012574:	d606                	sw	ra,44(sp)
20012576:	d422                	sw	s0,40(sp)
20012578:	1800                	addi	s0,sp,48
2001257a:	fca42e23          	sw	a0,-36(s0)
2001257e:	fcb42c23          	sw	a1,-40(s0)
C:/Users/nandg/Desktop/FE310-G003/sifive_hifive1_revb_sifive_welcome/freedom-metal/src/drivers/riscv_clint0.c:278
    int hartid = metal_cpu_get_current_hartid();
20012582:	014040ef          	jal	ra,20016596 <metal_cpu_get_current_hartid>
20012586:	87aa                	mv	a5,a0
20012588:	fef42623          	sw	a5,-20(s0)
C:/Users/nandg/Desktop/FE310-G003/sifive_hifive1_revb_sifive_welcome/freedom-metal/src/drivers/riscv_clint0.c:279
    return __metal_driver_riscv_clint0_command_request(
2001258c:	fec40793          	addi	a5,s0,-20
20012590:	863e                	mv	a2,a5
20012592:	458d                	li	a1,3
20012594:	fdc42503          	lw	a0,-36(s0)
20012598:	35a5                	jal	20012400 <__metal_driver_riscv_clint0_command_request>
2001259a:	87aa                	mv	a5,a0
C:/Users/nandg/Desktop/FE310-G003/sifive_hifive1_revb_sifive_welcome/freedom-metal/src/drivers/riscv_clint0.c:281
        controller, METAL_SOFTWARE_IPI_SET, &hartid);
}
2001259c:	853e                	mv	a0,a5
2001259e:	50b2                	lw	ra,44(sp)
200125a0:	5422                	lw	s0,40(sp)
200125a2:	6145                	addi	sp,sp,48
200125a4:	8082                	ret

200125a6 <__metal_driver_cpu_hartid>:
__metal_driver_cpu_hartid():
C:\Users\nandg\Desktop\FE310-G003\sifive_hifive1_revb_sifive_welcome\bsp\build\debug/./metal/machine.h:292



/* --------------------- cpu ------------ */
static __inline__ int __metal_driver_cpu_hartid(struct metal_cpu *cpu)
{
200125a6:	1101                	addi	sp,sp,-32
200125a8:	ce22                	sw	s0,28(sp)
200125aa:	1000                	addi	s0,sp,32
200125ac:	fea42623          	sw	a0,-20(s0)
C:\Users\nandg\Desktop\FE310-G003\sifive_hifive1_revb_sifive_welcome\bsp\build\debug/./metal/machine.h:293
	if ((uintptr_t)cpu == (uintptr_t)&__metal_dt_cpu_0) {
200125b0:	fec42703          	lw	a4,-20(s0)
200125b4:	81418793          	addi	a5,gp,-2028 # 80000ab4 <__metal_dt_cpu_0>
200125b8:	00f71463          	bne	a4,a5,200125c0 <__metal_driver_cpu_hartid+0x1a>
C:\Users\nandg\Desktop\FE310-G003\sifive_hifive1_revb_sifive_welcome\bsp\build\debug/./metal/machine.h:294
		return 0;
200125bc:	4781                	li	a5,0
200125be:	a011                	j	200125c2 <__metal_driver_cpu_hartid+0x1c>
C:\Users\nandg\Desktop\FE310-G003\sifive_hifive1_revb_sifive_welcome\bsp\build\debug/./metal/machine.h:297
	}
	else {
		return -1;
200125c0:	57fd                	li	a5,-1
C:\Users\nandg\Desktop\FE310-G003\sifive_hifive1_revb_sifive_welcome\bsp\build\debug/./metal/machine.h:299
	}
}
200125c2:	853e                	mv	a0,a5
200125c4:	4472                	lw	s0,28(sp)
200125c6:	6105                	addi	sp,sp,32
200125c8:	8082                	ret

200125ca <__metal_driver_cpu_timebase>:
__metal_driver_cpu_timebase():
C:\Users\nandg\Desktop\FE310-G003\sifive_hifive1_revb_sifive_welcome\bsp\build\debug/./metal/machine.h:302

static __inline__ int __metal_driver_cpu_timebase(struct metal_cpu *cpu)
{
200125ca:	1101                	addi	sp,sp,-32
200125cc:	ce22                	sw	s0,28(sp)
200125ce:	1000                	addi	s0,sp,32
200125d0:	fea42623          	sw	a0,-20(s0)
C:\Users\nandg\Desktop\FE310-G003\sifive_hifive1_revb_sifive_welcome\bsp\build\debug/./metal/machine.h:303
	if ((uintptr_t)cpu == (uintptr_t)&__metal_dt_cpu_0) {
200125d4:	fec42703          	lw	a4,-20(s0)
200125d8:	81418793          	addi	a5,gp,-2028 # 80000ab4 <__metal_dt_cpu_0>
200125dc:	00f71763          	bne	a4,a5,200125ea <__metal_driver_cpu_timebase+0x20>
C:\Users\nandg\Desktop\FE310-G003\sifive_hifive1_revb_sifive_welcome\bsp\build\debug/./metal/machine.h:304
		return 16000000;
200125e0:	00f427b7          	lui	a5,0xf42
200125e4:	40078793          	addi	a5,a5,1024 # f42400 <__heap_size+0xf41c00>
200125e8:	a011                	j	200125ec <__metal_driver_cpu_timebase+0x22>
C:\Users\nandg\Desktop\FE310-G003\sifive_hifive1_revb_sifive_welcome\bsp\build\debug/./metal/machine.h:307
	}
	else {
		return 0;
200125ea:	4781                	li	a5,0
C:\Users\nandg\Desktop\FE310-G003\sifive_hifive1_revb_sifive_welcome\bsp\build\debug/./metal/machine.h:309
	}
}
200125ec:	853e                	mv	a0,a5
200125ee:	4472                	lw	s0,28(sp)
200125f0:	6105                	addi	sp,sp,32
200125f2:	8082                	ret

200125f4 <__metal_driver_cpu_interrupt_controller>:
__metal_driver_cpu_interrupt_controller():
C:\Users\nandg\Desktop\FE310-G003\sifive_hifive1_revb_sifive_welcome\bsp\build\debug/./metal/machine.h:312

static __inline__ struct metal_interrupt * __metal_driver_cpu_interrupt_controller(struct metal_cpu *cpu)
{
200125f4:	1101                	addi	sp,sp,-32
200125f6:	ce22                	sw	s0,28(sp)
200125f8:	1000                	addi	s0,sp,32
200125fa:	fea42623          	sw	a0,-20(s0)
C:\Users\nandg\Desktop\FE310-G003\sifive_hifive1_revb_sifive_welcome\bsp\build\debug/./metal/machine.h:313
	if ((uintptr_t)cpu == (uintptr_t)&__metal_dt_cpu_0) {
200125fe:	fec42703          	lw	a4,-20(s0)
20012602:	81418793          	addi	a5,gp,-2028 # 80000ab4 <__metal_dt_cpu_0>
20012606:	00f71763          	bne	a4,a5,20012614 <__metal_driver_cpu_interrupt_controller+0x20>
C:\Users\nandg\Desktop\FE310-G003\sifive_hifive1_revb_sifive_welcome\bsp\build\debug/./metal/machine.h:314
		return &__metal_dt_cpu_0_interrupt_controller.controller;
2001260a:	800007b7          	lui	a5,0x80000
2001260e:	09078793          	addi	a5,a5,144 # 80000090 <metal_segment_heap_target_end+0xffffe920>
20012612:	a011                	j	20012616 <__metal_driver_cpu_interrupt_controller+0x22>
C:\Users\nandg\Desktop\FE310-G003\sifive_hifive1_revb_sifive_welcome\bsp\build\debug/./metal/machine.h:317
	}
	else {
		return NULL;
20012614:	4781                	li	a5,0
C:\Users\nandg\Desktop\FE310-G003\sifive_hifive1_revb_sifive_welcome\bsp\build\debug/./metal/machine.h:319
	}
}
20012616:	853e                	mv	a0,a5
20012618:	4472                	lw	s0,28(sp)
2001261a:	6105                	addi	sp,sp,32
2001261c:	8082                	ret

2001261e <__metal_driver_cpu_buserror>:
__metal_driver_cpu_buserror():
C:\Users\nandg\Desktop\FE310-G003\sifive_hifive1_revb_sifive_welcome\bsp\build\debug/./metal/machine.h:332
		return 0;
	}
}

static __inline__ struct metal_buserror * __metal_driver_cpu_buserror(struct metal_cpu *cpu)
{
2001261e:	1101                	addi	sp,sp,-32
20012620:	ce22                	sw	s0,28(sp)
20012622:	1000                	addi	s0,sp,32
20012624:	fea42623          	sw	a0,-20(s0)
C:\Users\nandg\Desktop\FE310-G003\sifive_hifive1_revb_sifive_welcome\bsp\build\debug/./metal/machine.h:333
	if ((uintptr_t)cpu == (uintptr_t)&__metal_dt_cpu_0) {
20012628:	fec42703          	lw	a4,-20(s0)
2001262c:	81418793          	addi	a5,gp,-2028 # 80000ab4 <__metal_dt_cpu_0>
20012630:	00f71463          	bne	a4,a5,20012638 <__metal_driver_cpu_buserror+0x1a>
C:\Users\nandg\Desktop\FE310-G003\sifive_hifive1_revb_sifive_welcome\bsp\build\debug/./metal/machine.h:334
		return NULL;
20012634:	4781                	li	a5,0
20012636:	a011                	j	2001263a <__metal_driver_cpu_buserror+0x1c>
C:\Users\nandg\Desktop\FE310-G003\sifive_hifive1_revb_sifive_welcome\bsp\build\debug/./metal/machine.h:337
	}
	else {
		return NULL;
20012638:	4781                	li	a5,0
C:\Users\nandg\Desktop\FE310-G003\sifive_hifive1_revb_sifive_welcome\bsp\build\debug/./metal/machine.h:339
	}
}
2001263a:	853e                	mv	a0,a5
2001263c:	4472                	lw	s0,28(sp)
2001263e:	6105                	addi	sp,sp,32
20012640:	8082                	ret

20012642 <__metal_driver_cpu_get>:
__metal_driver_cpu_get():
C:/Users/nandg/Desktop/FE310-G003/sifive_hifive1_revb_sifive_welcome/freedom-metal/src/drivers/riscv_cpu.c:25
extern void __metal_vector_table();
unsigned long long __metal_driver_cpu_mtime_get(struct metal_cpu *cpu);
int __metal_driver_cpu_mtimecmp_set(struct metal_cpu *cpu,
                                    unsigned long long time);

struct metal_cpu *__metal_driver_cpu_get(int hartid) {
20012642:	1101                	addi	sp,sp,-32
20012644:	ce22                	sw	s0,28(sp)
20012646:	1000                	addi	s0,sp,32
20012648:	fea42623          	sw	a0,-20(s0)
C:/Users/nandg/Desktop/FE310-G003/sifive_hifive1_revb_sifive_welcome/freedom-metal/src/drivers/riscv_cpu.c:26
    if (hartid < __METAL_DT_MAX_HARTS) {
2001264c:	fec42783          	lw	a5,-20(s0)
20012650:	00f04c63          	bgtz	a5,20012668 <__metal_driver_cpu_get+0x26>
C:/Users/nandg/Desktop/FE310-G003/sifive_hifive1_revb_sifive_welcome/freedom-metal/src/drivers/riscv_cpu.c:27
        return &(__metal_cpu_table[hartid]->cpu);
20012654:	800017b7          	lui	a5,0x80001
20012658:	fec42703          	lw	a4,-20(s0)
2001265c:	070a                	slli	a4,a4,0x2
2001265e:	aa478793          	addi	a5,a5,-1372 # 80000aa4 <metal_segment_heap_target_end+0xfffff334>
20012662:	97ba                	add	a5,a5,a4
20012664:	439c                	lw	a5,0(a5)
20012666:	a011                	j	2001266a <__metal_driver_cpu_get+0x28>
C:/Users/nandg/Desktop/FE310-G003/sifive_hifive1_revb_sifive_welcome/freedom-metal/src/drivers/riscv_cpu.c:29
    }
    return (struct metal_cpu *)NULL;
20012668:	4781                	li	a5,0
C:/Users/nandg/Desktop/FE310-G003/sifive_hifive1_revb_sifive_welcome/freedom-metal/src/drivers/riscv_cpu.c:30
}
2001266a:	853e                	mv	a0,a5
2001266c:	4472                	lw	s0,28(sp)
2001266e:	6105                	addi	sp,sp,32
20012670:	8082                	ret

20012672 <__metal_myhart_id>:
__metal_myhart_id():
C:/Users/nandg/Desktop/FE310-G003/sifive_hifive1_revb_sifive_welcome/freedom-metal/src/drivers/riscv_cpu.c:32

uintptr_t __metal_myhart_id(void) {
20012672:	1101                	addi	sp,sp,-32
20012674:	ce22                	sw	s0,28(sp)
20012676:	1000                	addi	s0,sp,32
C:/Users/nandg/Desktop/FE310-G003/sifive_hifive1_revb_sifive_welcome/freedom-metal/src/drivers/riscv_cpu.c:34
    uintptr_t myhart;
    __asm__ volatile("csrr %0, mhartid" : "=r"(myhart));
20012678:	f14027f3          	csrr	a5,mhartid
2001267c:	fef42623          	sw	a5,-20(s0)
C:/Users/nandg/Desktop/FE310-G003/sifive_hifive1_revb_sifive_welcome/freedom-metal/src/drivers/riscv_cpu.c:35
    return myhart;
20012680:	fec42783          	lw	a5,-20(s0)
C:/Users/nandg/Desktop/FE310-G003/sifive_hifive1_revb_sifive_welcome/freedom-metal/src/drivers/riscv_cpu.c:36
}
20012684:	853e                	mv	a0,a5
20012686:	4472                	lw	s0,28(sp)
20012688:	6105                	addi	sp,sp,32
2001268a:	8082                	ret

2001268c <__metal_interrupt_global_enable>:
__metal_interrupt_global_enable():
C:/Users/nandg/Desktop/FE310-G003/sifive_hifive1_revb_sifive_welcome/freedom-metal/src/drivers/riscv_cpu.c:45
    for (ptr = base; ptr < (base + size); ptr++) {
        *ptr = 0;
    }
}

void __metal_interrupt_global_enable(void) {
2001268c:	1101                	addi	sp,sp,-32
2001268e:	ce22                	sw	s0,28(sp)
20012690:	1000                	addi	s0,sp,32
C:/Users/nandg/Desktop/FE310-G003/sifive_hifive1_revb_sifive_welcome/freedom-metal/src/drivers/riscv_cpu.c:47
    uintptr_t m;
    __asm__ volatile("csrrs %0, mstatus, %1"
20012692:	47a1                	li	a5,8
20012694:	3007a7f3          	csrrs	a5,mstatus,a5
20012698:	fef42623          	sw	a5,-20(s0)
C:/Users/nandg/Desktop/FE310-G003/sifive_hifive1_revb_sifive_welcome/freedom-metal/src/drivers/riscv_cpu.c:50
                     : "=r"(m)
                     : "r"(METAL_MIE_INTERRUPT));
}
2001269c:	0001                	nop
2001269e:	4472                	lw	s0,28(sp)
200126a0:	6105                	addi	sp,sp,32
200126a2:	8082                	ret

200126a4 <__metal_interrupt_global_disable>:
__metal_interrupt_global_disable():
C:/Users/nandg/Desktop/FE310-G003/sifive_hifive1_revb_sifive_welcome/freedom-metal/src/drivers/riscv_cpu.c:52

void __metal_interrupt_global_disable(void) {
200126a4:	1101                	addi	sp,sp,-32
200126a6:	ce22                	sw	s0,28(sp)
200126a8:	1000                	addi	s0,sp,32
C:/Users/nandg/Desktop/FE310-G003/sifive_hifive1_revb_sifive_welcome/freedom-metal/src/drivers/riscv_cpu.c:54
    uintptr_t m;
    __asm__ volatile("csrrc %0, mstatus, %1"
200126aa:	47a1                	li	a5,8
200126ac:	3007b7f3          	csrrc	a5,mstatus,a5
200126b0:	fef42623          	sw	a5,-20(s0)
C:/Users/nandg/Desktop/FE310-G003/sifive_hifive1_revb_sifive_welcome/freedom-metal/src/drivers/riscv_cpu.c:57
                     : "=r"(m)
                     : "r"(METAL_MIE_INTERRUPT));
}
200126b4:	0001                	nop
200126b6:	4472                	lw	s0,28(sp)
200126b8:	6105                	addi	sp,sp,32
200126ba:	8082                	ret

200126bc <__metal_interrupt_software_enable>:
__metal_interrupt_software_enable():
C:/Users/nandg/Desktop/FE310-G003/sifive_hifive1_revb_sifive_welcome/freedom-metal/src/drivers/riscv_cpu.c:59

void __metal_interrupt_software_enable(void) {
200126bc:	1101                	addi	sp,sp,-32
200126be:	ce22                	sw	s0,28(sp)
200126c0:	1000                	addi	s0,sp,32
C:/Users/nandg/Desktop/FE310-G003/sifive_hifive1_revb_sifive_welcome/freedom-metal/src/drivers/riscv_cpu.c:61
    uintptr_t m;
    __asm__ volatile("csrrs %0, mie, %1"
200126c2:	47a1                	li	a5,8
200126c4:	3047a7f3          	csrrs	a5,mie,a5
200126c8:	fef42623          	sw	a5,-20(s0)
C:/Users/nandg/Desktop/FE310-G003/sifive_hifive1_revb_sifive_welcome/freedom-metal/src/drivers/riscv_cpu.c:64
                     : "=r"(m)
                     : "r"(METAL_LOCAL_INTERRUPT_SW));
}
200126cc:	0001                	nop
200126ce:	4472                	lw	s0,28(sp)
200126d0:	6105                	addi	sp,sp,32
200126d2:	8082                	ret

200126d4 <__metal_interrupt_software_disable>:
__metal_interrupt_software_disable():
C:/Users/nandg/Desktop/FE310-G003/sifive_hifive1_revb_sifive_welcome/freedom-metal/src/drivers/riscv_cpu.c:66

void __metal_interrupt_software_disable(void) {
200126d4:	1101                	addi	sp,sp,-32
200126d6:	ce22                	sw	s0,28(sp)
200126d8:	1000                	addi	s0,sp,32
C:/Users/nandg/Desktop/FE310-G003/sifive_hifive1_revb_sifive_welcome/freedom-metal/src/drivers/riscv_cpu.c:68
    uintptr_t m;
    __asm__ volatile("csrrc %0, mie, %1"
200126da:	47a1                	li	a5,8
200126dc:	3047b7f3          	csrrc	a5,mie,a5
200126e0:	fef42623          	sw	a5,-20(s0)
C:/Users/nandg/Desktop/FE310-G003/sifive_hifive1_revb_sifive_welcome/freedom-metal/src/drivers/riscv_cpu.c:71
                     : "=r"(m)
                     : "r"(METAL_LOCAL_INTERRUPT_SW));
}
200126e4:	0001                	nop
200126e6:	4472                	lw	s0,28(sp)
200126e8:	6105                	addi	sp,sp,32
200126ea:	8082                	ret

200126ec <__metal_interrupt_timer_enable>:
__metal_interrupt_timer_enable():
C:/Users/nandg/Desktop/FE310-G003/sifive_hifive1_revb_sifive_welcome/freedom-metal/src/drivers/riscv_cpu.c:73

void __metal_interrupt_timer_enable(void) {
200126ec:	1101                	addi	sp,sp,-32
200126ee:	ce22                	sw	s0,28(sp)
200126f0:	1000                	addi	s0,sp,32
C:/Users/nandg/Desktop/FE310-G003/sifive_hifive1_revb_sifive_welcome/freedom-metal/src/drivers/riscv_cpu.c:75
    uintptr_t m;
    __asm__ volatile("csrrs %0, mie, %1"
200126f2:	08000793          	li	a5,128
200126f6:	3047a7f3          	csrrs	a5,mie,a5
200126fa:	fef42623          	sw	a5,-20(s0)
C:/Users/nandg/Desktop/FE310-G003/sifive_hifive1_revb_sifive_welcome/freedom-metal/src/drivers/riscv_cpu.c:78
                     : "=r"(m)
                     : "r"(METAL_LOCAL_INTERRUPT_TMR));
}
200126fe:	0001                	nop
20012700:	4472                	lw	s0,28(sp)
20012702:	6105                	addi	sp,sp,32
20012704:	8082                	ret

20012706 <__metal_interrupt_timer_disable>:
__metal_interrupt_timer_disable():
C:/Users/nandg/Desktop/FE310-G003/sifive_hifive1_revb_sifive_welcome/freedom-metal/src/drivers/riscv_cpu.c:80

void __metal_interrupt_timer_disable(void) {
20012706:	1101                	addi	sp,sp,-32
20012708:	ce22                	sw	s0,28(sp)
2001270a:	1000                	addi	s0,sp,32
C:/Users/nandg/Desktop/FE310-G003/sifive_hifive1_revb_sifive_welcome/freedom-metal/src/drivers/riscv_cpu.c:82
    uintptr_t m;
    __asm__ volatile("csrrc %0, mie, %1"
2001270c:	08000793          	li	a5,128
20012710:	3047b7f3          	csrrc	a5,mie,a5
20012714:	fef42623          	sw	a5,-20(s0)
C:/Users/nandg/Desktop/FE310-G003/sifive_hifive1_revb_sifive_welcome/freedom-metal/src/drivers/riscv_cpu.c:85
                     : "=r"(m)
                     : "r"(METAL_LOCAL_INTERRUPT_TMR));
}
20012718:	0001                	nop
2001271a:	4472                	lw	s0,28(sp)
2001271c:	6105                	addi	sp,sp,32
2001271e:	8082                	ret

20012720 <__metal_interrupt_external_enable>:
__metal_interrupt_external_enable():
C:/Users/nandg/Desktop/FE310-G003/sifive_hifive1_revb_sifive_welcome/freedom-metal/src/drivers/riscv_cpu.c:87

void __metal_interrupt_external_enable(void) {
20012720:	1101                	addi	sp,sp,-32
20012722:	ce22                	sw	s0,28(sp)
20012724:	1000                	addi	s0,sp,32
C:/Users/nandg/Desktop/FE310-G003/sifive_hifive1_revb_sifive_welcome/freedom-metal/src/drivers/riscv_cpu.c:89
    uintptr_t m;
    __asm__ volatile("csrrs %0, mie, %1"
20012726:	6785                	lui	a5,0x1
20012728:	80078793          	addi	a5,a5,-2048 # 800 <__heap_size>
2001272c:	3047a7f3          	csrrs	a5,mie,a5
20012730:	fef42623          	sw	a5,-20(s0)
C:/Users/nandg/Desktop/FE310-G003/sifive_hifive1_revb_sifive_welcome/freedom-metal/src/drivers/riscv_cpu.c:92
                     : "=r"(m)
                     : "r"(METAL_LOCAL_INTERRUPT_EXT));
}
20012734:	0001                	nop
20012736:	4472                	lw	s0,28(sp)
20012738:	6105                	addi	sp,sp,32
2001273a:	8082                	ret

2001273c <__metal_interrupt_external_disable>:
__metal_interrupt_external_disable():
C:/Users/nandg/Desktop/FE310-G003/sifive_hifive1_revb_sifive_welcome/freedom-metal/src/drivers/riscv_cpu.c:94

void __metal_interrupt_external_disable(void) {
2001273c:	1101                	addi	sp,sp,-32
2001273e:	ce22                	sw	s0,28(sp)
20012740:	1000                	addi	s0,sp,32
C:/Users/nandg/Desktop/FE310-G003/sifive_hifive1_revb_sifive_welcome/freedom-metal/src/drivers/riscv_cpu.c:96
    unsigned long m;
    __asm__ volatile("csrrc %0, mie, %1"
20012742:	6785                	lui	a5,0x1
20012744:	80078793          	addi	a5,a5,-2048 # 800 <__heap_size>
20012748:	3047b7f3          	csrrc	a5,mie,a5
2001274c:	fef42623          	sw	a5,-20(s0)
C:/Users/nandg/Desktop/FE310-G003/sifive_hifive1_revb_sifive_welcome/freedom-metal/src/drivers/riscv_cpu.c:99
                     : "=r"(m)
                     : "r"(METAL_LOCAL_INTERRUPT_EXT));
}
20012750:	0001                	nop
20012752:	4472                	lw	s0,28(sp)
20012754:	6105                	addi	sp,sp,32
20012756:	8082                	ret

20012758 <__metal_interrupt_local_enable>:
__metal_interrupt_local_enable():
C:/Users/nandg/Desktop/FE310-G003/sifive_hifive1_revb_sifive_welcome/freedom-metal/src/drivers/riscv_cpu.c:101

void __metal_interrupt_local_enable(int id) {
20012758:	7179                	addi	sp,sp,-48
2001275a:	d622                	sw	s0,44(sp)
2001275c:	1800                	addi	s0,sp,48
2001275e:	fca42e23          	sw	a0,-36(s0)
C:/Users/nandg/Desktop/FE310-G003/sifive_hifive1_revb_sifive_welcome/freedom-metal/src/drivers/riscv_cpu.c:102
    uintptr_t b = 1 << id;
20012762:	fdc42783          	lw	a5,-36(s0)
20012766:	4705                	li	a4,1
20012768:	00f717b3          	sll	a5,a4,a5
2001276c:	fef42623          	sw	a5,-20(s0)
C:/Users/nandg/Desktop/FE310-G003/sifive_hifive1_revb_sifive_welcome/freedom-metal/src/drivers/riscv_cpu.c:104
    uintptr_t m;
    __asm__ volatile("csrrs %0, mie, %1" : "=r"(m) : "r"(b));
20012770:	fec42783          	lw	a5,-20(s0)
20012774:	3047a7f3          	csrrs	a5,mie,a5
20012778:	fef42423          	sw	a5,-24(s0)
C:/Users/nandg/Desktop/FE310-G003/sifive_hifive1_revb_sifive_welcome/freedom-metal/src/drivers/riscv_cpu.c:105
}
2001277c:	0001                	nop
2001277e:	5432                	lw	s0,44(sp)
20012780:	6145                	addi	sp,sp,48
20012782:	8082                	ret

20012784 <__metal_interrupt_local_disable>:
__metal_interrupt_local_disable():
C:/Users/nandg/Desktop/FE310-G003/sifive_hifive1_revb_sifive_welcome/freedom-metal/src/drivers/riscv_cpu.c:107

void __metal_interrupt_local_disable(int id) {
20012784:	7179                	addi	sp,sp,-48
20012786:	d622                	sw	s0,44(sp)
20012788:	1800                	addi	s0,sp,48
2001278a:	fca42e23          	sw	a0,-36(s0)
C:/Users/nandg/Desktop/FE310-G003/sifive_hifive1_revb_sifive_welcome/freedom-metal/src/drivers/riscv_cpu.c:108
    uintptr_t b = 1 << id;
2001278e:	fdc42783          	lw	a5,-36(s0)
20012792:	4705                	li	a4,1
20012794:	00f717b3          	sll	a5,a4,a5
20012798:	fef42623          	sw	a5,-20(s0)
C:/Users/nandg/Desktop/FE310-G003/sifive_hifive1_revb_sifive_welcome/freedom-metal/src/drivers/riscv_cpu.c:110
    uintptr_t m;
    __asm__ volatile("csrrc %0, mie, %1" : "=r"(m) : "r"(b));
2001279c:	fec42783          	lw	a5,-20(s0)
200127a0:	3047b7f3          	csrrc	a5,mie,a5
200127a4:	fef42423          	sw	a5,-24(s0)
C:/Users/nandg/Desktop/FE310-G003/sifive_hifive1_revb_sifive_welcome/freedom-metal/src/drivers/riscv_cpu.c:111
}
200127a8:	0001                	nop
200127aa:	5432                	lw	s0,44(sp)
200127ac:	6145                	addi	sp,sp,48
200127ae:	8082                	ret

200127b0 <__metal_default_exception_handler>:
__metal_default_exception_handler():
C:/Users/nandg/Desktop/FE310-G003/sifive_hifive1_revb_sifive_welcome/freedom-metal/src/drivers/riscv_cpu.c:113

void __metal_default_exception_handler(struct metal_cpu *cpu, int ecode) {
200127b0:	1101                	addi	sp,sp,-32
200127b2:	ce06                	sw	ra,28(sp)
200127b4:	cc22                	sw	s0,24(sp)
200127b6:	1000                	addi	s0,sp,32
200127b8:	fea42623          	sw	a0,-20(s0)
200127bc:	feb42423          	sw	a1,-24(s0)
C:/Users/nandg/Desktop/FE310-G003/sifive_hifive1_revb_sifive_welcome/freedom-metal/src/drivers/riscv_cpu.c:114
    metal_shutdown(100);
200127c0:	06400513          	li	a0,100
200127c4:	5ed030ef          	jal	ra,200165b0 <metal_shutdown>

200127c8 <__metal_default_interrupt_handler>:
__metal_default_interrupt_handler():
C:/Users/nandg/Desktop/FE310-G003/sifive_hifive1_revb_sifive_welcome/freedom-metal/src/drivers/riscv_cpu.c:117
}

void __metal_default_interrupt_handler(int id, void *priv) {
200127c8:	1101                	addi	sp,sp,-32
200127ca:	ce06                	sw	ra,28(sp)
200127cc:	cc22                	sw	s0,24(sp)
200127ce:	1000                	addi	s0,sp,32
200127d0:	fea42623          	sw	a0,-20(s0)
200127d4:	feb42423          	sw	a1,-24(s0)
C:/Users/nandg/Desktop/FE310-G003/sifive_hifive1_revb_sifive_welcome/freedom-metal/src/drivers/riscv_cpu.c:118
    metal_shutdown(200);
200127d8:	0c800513          	li	a0,200
200127dc:	5d5030ef          	jal	ra,200165b0 <metal_shutdown>

200127e0 <metal_interrupt_vector_handler>:
metal_interrupt_vector_handler():
C:/Users/nandg/Desktop/FE310-G003/sifive_hifive1_revb_sifive_welcome/freedom-metal/src/drivers/riscv_cpu.c:122
}

/* The metal_interrupt_vector_handler() function can be redefined. */
void __attribute__((weak, interrupt)) metal_interrupt_vector_handler(void) {
200127e0:	715d                	addi	sp,sp,-80
200127e2:	c686                	sw	ra,76(sp)
200127e4:	c496                	sw	t0,72(sp)
200127e6:	c29a                	sw	t1,68(sp)
200127e8:	c09e                	sw	t2,64(sp)
200127ea:	de22                	sw	s0,60(sp)
200127ec:	dc2a                	sw	a0,56(sp)
200127ee:	da2e                	sw	a1,52(sp)
200127f0:	d832                	sw	a2,48(sp)
200127f2:	d636                	sw	a3,44(sp)
200127f4:	d43a                	sw	a4,40(sp)
200127f6:	d23e                	sw	a5,36(sp)
200127f8:	d042                	sw	a6,32(sp)
200127fa:	ce46                	sw	a7,28(sp)
200127fc:	cc72                	sw	t3,24(sp)
200127fe:	ca76                	sw	t4,20(sp)
20012800:	c87a                	sw	t5,16(sp)
20012802:	c67e                	sw	t6,12(sp)
20012804:	0880                	addi	s0,sp,80
C:/Users/nandg/Desktop/FE310-G003/sifive_hifive1_revb_sifive_welcome/freedom-metal/src/drivers/riscv_cpu.c:123
    metal_shutdown(300);
20012806:	12c00513          	li	a0,300
2001280a:	5a7030ef          	jal	ra,200165b0 <metal_shutdown>

2001280e <metal_software_interrupt_vector_handler>:
metal_software_interrupt_vector_handler():
C:/Users/nandg/Desktop/FE310-G003/sifive_hifive1_revb_sifive_welcome/freedom-metal/src/drivers/riscv_cpu.c:128
}

/* The metal_software_interrupt_vector_handler() function can be redefined. */
void __attribute__((weak, interrupt))
metal_software_interrupt_vector_handler(void) {
2001280e:	711d                	addi	sp,sp,-96
20012810:	ce86                	sw	ra,92(sp)
20012812:	cc96                	sw	t0,88(sp)
20012814:	ca9a                	sw	t1,84(sp)
20012816:	c89e                	sw	t2,80(sp)
20012818:	c6a2                	sw	s0,76(sp)
2001281a:	c4aa                	sw	a0,72(sp)
2001281c:	c2ae                	sw	a1,68(sp)
2001281e:	c0b2                	sw	a2,64(sp)
20012820:	de36                	sw	a3,60(sp)
20012822:	dc3a                	sw	a4,56(sp)
20012824:	da3e                	sw	a5,52(sp)
20012826:	d842                	sw	a6,48(sp)
20012828:	d646                	sw	a7,44(sp)
2001282a:	d472                	sw	t3,40(sp)
2001282c:	d276                	sw	t4,36(sp)
2001282e:	d07a                	sw	t5,32(sp)
20012830:	ce7e                	sw	t6,28(sp)
20012832:	1080                	addi	s0,sp,96
C:/Users/nandg/Desktop/FE310-G003/sifive_hifive1_revb_sifive_welcome/freedom-metal/src/drivers/riscv_cpu.c:129
    __METAL_IRQ_VECTOR_HANDLER(METAL_INTERRUPT_ID_SW);
20012834:	3d3d                	jal	20012672 <__metal_myhart_id>
20012836:	872a                	mv	a4,a0
20012838:	800017b7          	lui	a5,0x80001
2001283c:	070a                	slli	a4,a4,0x2
2001283e:	aa478793          	addi	a5,a5,-1372 # 80000aa4 <metal_segment_heap_target_end+0xfffff334>
20012842:	97ba                	add	a5,a5,a4
20012844:	439c                	lw	a5,0(a5)
20012846:	faf42623          	sw	a5,-84(s0)
2001284a:	fac42783          	lw	a5,-84(s0)
2001284e:	c785                	beqz	a5,20012876 <metal_software_interrupt_vector_handler+0x68>
C:/Users/nandg/Desktop/FE310-G003/sifive_hifive1_revb_sifive_welcome/freedom-metal/src/drivers/riscv_cpu.c:129 (discriminator 1)
20012850:	fac42503          	lw	a0,-84(s0)
20012854:	3345                	jal	200125f4 <__metal_driver_cpu_interrupt_controller>
20012856:	faa42423          	sw	a0,-88(s0)
2001285a:	fa842783          	lw	a5,-88(s0)
2001285e:	0e07a783          	lw	a5,224(a5)
20012862:	faf42223          	sw	a5,-92(s0)
20012866:	fa842783          	lw	a5,-88(s0)
2001286a:	0d87a783          	lw	a5,216(a5)
2001286e:	fa442583          	lw	a1,-92(s0)
20012872:	450d                	li	a0,3
20012874:	9782                	jalr	a5
C:/Users/nandg/Desktop/FE310-G003/sifive_hifive1_revb_sifive_welcome/freedom-metal/src/drivers/riscv_cpu.c:130
}
20012876:	0001                	nop
20012878:	40f6                	lw	ra,92(sp)
2001287a:	42e6                	lw	t0,88(sp)
2001287c:	4356                	lw	t1,84(sp)
2001287e:	43c6                	lw	t2,80(sp)
20012880:	4436                	lw	s0,76(sp)
20012882:	4526                	lw	a0,72(sp)
20012884:	4596                	lw	a1,68(sp)
20012886:	4606                	lw	a2,64(sp)
20012888:	56f2                	lw	a3,60(sp)
2001288a:	5762                	lw	a4,56(sp)
2001288c:	57d2                	lw	a5,52(sp)
2001288e:	5842                	lw	a6,48(sp)
20012890:	58b2                	lw	a7,44(sp)
20012892:	5e22                	lw	t3,40(sp)
20012894:	5e92                	lw	t4,36(sp)
20012896:	5f02                	lw	t5,32(sp)
20012898:	4ff2                	lw	t6,28(sp)
2001289a:	6125                	addi	sp,sp,96
2001289c:	30200073          	mret

200128a0 <__metal_default_sw_handler>:
__metal_default_sw_handler():
C:/Users/nandg/Desktop/FE310-G003/sifive_hifive1_revb_sifive_welcome/freedom-metal/src/drivers/riscv_cpu.c:132

void __metal_default_sw_handler(int id, void *priv) {
200128a0:	7179                	addi	sp,sp,-48
200128a2:	d606                	sw	ra,44(sp)
200128a4:	d422                	sw	s0,40(sp)
200128a6:	1800                	addi	s0,sp,48
200128a8:	fca42e23          	sw	a0,-36(s0)
200128ac:	fcb42c23          	sw	a1,-40(s0)
C:/Users/nandg/Desktop/FE310-G003/sifive_hifive1_revb_sifive_welcome/freedom-metal/src/drivers/riscv_cpu.c:135
    uintptr_t mcause;
    struct __metal_driver_riscv_cpu_intc *intc;
    struct __metal_driver_cpu *cpu = __metal_cpu_table[__metal_myhart_id()];
200128b0:	33c9                	jal	20012672 <__metal_myhart_id>
200128b2:	872a                	mv	a4,a0
200128b4:	800017b7          	lui	a5,0x80001
200128b8:	070a                	slli	a4,a4,0x2
200128ba:	aa478793          	addi	a5,a5,-1372 # 80000aa4 <metal_segment_heap_target_end+0xfffff334>
200128be:	97ba                	add	a5,a5,a4
200128c0:	439c                	lw	a5,0(a5)
200128c2:	fef42623          	sw	a5,-20(s0)
C:/Users/nandg/Desktop/FE310-G003/sifive_hifive1_revb_sifive_welcome/freedom-metal/src/drivers/riscv_cpu.c:137

    __asm__ volatile("csrr %0, mcause" : "=r"(mcause));
200128c6:	342027f3          	csrr	a5,mcause
200128ca:	fef42423          	sw	a5,-24(s0)
C:/Users/nandg/Desktop/FE310-G003/sifive_hifive1_revb_sifive_welcome/freedom-metal/src/drivers/riscv_cpu.c:138
    if (cpu) {
200128ce:	fec42783          	lw	a5,-20(s0)
200128d2:	c795                	beqz	a5,200128fe <__metal_default_sw_handler+0x5e>
C:/Users/nandg/Desktop/FE310-G003/sifive_hifive1_revb_sifive_welcome/freedom-metal/src/drivers/riscv_cpu.c:140
        intc = (struct __metal_driver_riscv_cpu_intc *)
            __metal_driver_cpu_interrupt_controller((struct metal_cpu *)cpu);
200128d4:	fec42503          	lw	a0,-20(s0)
200128d8:	3b31                	jal	200125f4 <__metal_driver_cpu_interrupt_controller>
200128da:	fea42223          	sw	a0,-28(s0)
C:/Users/nandg/Desktop/FE310-G003/sifive_hifive1_revb_sifive_welcome/freedom-metal/src/drivers/riscv_cpu.c:141
        intc->metal_exception_table[mcause & METAL_MCAUSE_CAUSE](
200128de:	fe842783          	lw	a5,-24(s0)
200128e2:	3ff7f793          	andi	a5,a5,1023
200128e6:	fe442703          	lw	a4,-28(s0)
200128ea:	0e878793          	addi	a5,a5,232
200128ee:	078a                	slli	a5,a5,0x2
200128f0:	97ba                	add	a5,a5,a4
200128f2:	439c                	lw	a5,0(a5)
200128f4:	fdc42583          	lw	a1,-36(s0)
200128f8:	fec42503          	lw	a0,-20(s0)
200128fc:	9782                	jalr	a5
C:/Users/nandg/Desktop/FE310-G003/sifive_hifive1_revb_sifive_welcome/freedom-metal/src/drivers/riscv_cpu.c:144
            (struct metal_cpu *)cpu, id);
    }
}
200128fe:	0001                	nop
20012900:	50b2                	lw	ra,44(sp)
20012902:	5422                	lw	s0,40(sp)
20012904:	6145                	addi	sp,sp,48
20012906:	8082                	ret

20012908 <metal_timer_interrupt_vector_handler>:
metal_timer_interrupt_vector_handler():
C:/Users/nandg/Desktop/FE310-G003/sifive_hifive1_revb_sifive_welcome/freedom-metal/src/drivers/riscv_cpu.c:148

/* The metal_timer_interrupt_vector_handler() function can be redefined. */
void __attribute__((weak, interrupt))
metal_timer_interrupt_vector_handler(void) {
20012908:	711d                	addi	sp,sp,-96
2001290a:	ce86                	sw	ra,92(sp)
2001290c:	cc96                	sw	t0,88(sp)
2001290e:	ca9a                	sw	t1,84(sp)
20012910:	c89e                	sw	t2,80(sp)
20012912:	c6a2                	sw	s0,76(sp)
20012914:	c4aa                	sw	a0,72(sp)
20012916:	c2ae                	sw	a1,68(sp)
20012918:	c0b2                	sw	a2,64(sp)
2001291a:	de36                	sw	a3,60(sp)
2001291c:	dc3a                	sw	a4,56(sp)
2001291e:	da3e                	sw	a5,52(sp)
20012920:	d842                	sw	a6,48(sp)
20012922:	d646                	sw	a7,44(sp)
20012924:	d472                	sw	t3,40(sp)
20012926:	d276                	sw	t4,36(sp)
20012928:	d07a                	sw	t5,32(sp)
2001292a:	ce7e                	sw	t6,28(sp)
2001292c:	1080                	addi	s0,sp,96
C:/Users/nandg/Desktop/FE310-G003/sifive_hifive1_revb_sifive_welcome/freedom-metal/src/drivers/riscv_cpu.c:149
    __METAL_IRQ_VECTOR_HANDLER(METAL_INTERRUPT_ID_TMR);
2001292e:	3391                	jal	20012672 <__metal_myhart_id>
20012930:	872a                	mv	a4,a0
20012932:	800017b7          	lui	a5,0x80001
20012936:	070a                	slli	a4,a4,0x2
20012938:	aa478793          	addi	a5,a5,-1372 # 80000aa4 <metal_segment_heap_target_end+0xfffff334>
2001293c:	97ba                	add	a5,a5,a4
2001293e:	439c                	lw	a5,0(a5)
20012940:	faf42623          	sw	a5,-84(s0)
20012944:	fac42783          	lw	a5,-84(s0)
20012948:	c785                	beqz	a5,20012970 <metal_timer_interrupt_vector_handler+0x68>
C:/Users/nandg/Desktop/FE310-G003/sifive_hifive1_revb_sifive_welcome/freedom-metal/src/drivers/riscv_cpu.c:149 (discriminator 1)
2001294a:	fac42503          	lw	a0,-84(s0)
2001294e:	315d                	jal	200125f4 <__metal_driver_cpu_interrupt_controller>
20012950:	faa42423          	sw	a0,-88(s0)
20012954:	fa842783          	lw	a5,-88(s0)
20012958:	1407a783          	lw	a5,320(a5)
2001295c:	faf42223          	sw	a5,-92(s0)
20012960:	fa842783          	lw	a5,-88(s0)
20012964:	1387a783          	lw	a5,312(a5)
20012968:	fa442583          	lw	a1,-92(s0)
2001296c:	451d                	li	a0,7
2001296e:	9782                	jalr	a5
C:/Users/nandg/Desktop/FE310-G003/sifive_hifive1_revb_sifive_welcome/freedom-metal/src/drivers/riscv_cpu.c:150
}
20012970:	0001                	nop
20012972:	40f6                	lw	ra,92(sp)
20012974:	42e6                	lw	t0,88(sp)
20012976:	4356                	lw	t1,84(sp)
20012978:	43c6                	lw	t2,80(sp)
2001297a:	4436                	lw	s0,76(sp)
2001297c:	4526                	lw	a0,72(sp)
2001297e:	4596                	lw	a1,68(sp)
20012980:	4606                	lw	a2,64(sp)
20012982:	56f2                	lw	a3,60(sp)
20012984:	5762                	lw	a4,56(sp)
20012986:	57d2                	lw	a5,52(sp)
20012988:	5842                	lw	a6,48(sp)
2001298a:	58b2                	lw	a7,44(sp)
2001298c:	5e22                	lw	t3,40(sp)
2001298e:	5e92                	lw	t4,36(sp)
20012990:	5f02                	lw	t5,32(sp)
20012992:	4ff2                	lw	t6,28(sp)
20012994:	6125                	addi	sp,sp,96
20012996:	30200073          	mret

2001299a <__metal_default_beu_handler>:
__metal_default_beu_handler():
C:/Users/nandg/Desktop/FE310-G003/sifive_hifive1_revb_sifive_welcome/freedom-metal/src/drivers/riscv_cpu.c:152

void __metal_default_beu_handler(int id, void *priv) {}
2001299a:	1101                	addi	sp,sp,-32
2001299c:	ce22                	sw	s0,28(sp)
2001299e:	1000                	addi	s0,sp,32
200129a0:	fea42623          	sw	a0,-20(s0)
200129a4:	feb42423          	sw	a1,-24(s0)
200129a8:	0001                	nop
200129aa:	4472                	lw	s0,28(sp)
200129ac:	6105                	addi	sp,sp,32
200129ae:	8082                	ret

200129b0 <__metal_default_timer_handler>:
__metal_default_timer_handler():
C:/Users/nandg/Desktop/FE310-G003/sifive_hifive1_revb_sifive_welcome/freedom-metal/src/drivers/riscv_cpu.c:154

void __metal_default_timer_handler(int id, void *priv) {
200129b0:	7179                	addi	sp,sp,-48
200129b2:	d606                	sw	ra,44(sp)
200129b4:	d422                	sw	s0,40(sp)
200129b6:	1800                	addi	s0,sp,48
200129b8:	fca42e23          	sw	a0,-36(s0)
200129bc:	fcb42c23          	sw	a1,-40(s0)
C:/Users/nandg/Desktop/FE310-G003/sifive_hifive1_revb_sifive_welcome/freedom-metal/src/drivers/riscv_cpu.c:155
    struct metal_cpu *cpu = __metal_driver_cpu_get(__metal_myhart_id());
200129c0:	394d                	jal	20012672 <__metal_myhart_id>
200129c2:	87aa                	mv	a5,a0
200129c4:	853e                	mv	a0,a5
200129c6:	39b5                	jal	20012642 <__metal_driver_cpu_get>
200129c8:	fea42623          	sw	a0,-20(s0)
C:/Users/nandg/Desktop/FE310-G003/sifive_hifive1_revb_sifive_welcome/freedom-metal/src/drivers/riscv_cpu.c:156
    unsigned long long time = __metal_driver_cpu_mtime_get(cpu);
200129cc:	fec42503          	lw	a0,-20(s0)
200129d0:	2cc010ef          	jal	ra,20013c9c <__metal_driver_cpu_mtime_get>
200129d4:	fea42023          	sw	a0,-32(s0)
200129d8:	feb42223          	sw	a1,-28(s0)
C:/Users/nandg/Desktop/FE310-G003/sifive_hifive1_revb_sifive_welcome/freedom-metal/src/drivers/riscv_cpu.c:159

    /* Set a 10 cycle timer */
    __metal_driver_cpu_mtimecmp_set(cpu, time + 10);
200129dc:	fe042703          	lw	a4,-32(s0)
200129e0:	fe442783          	lw	a5,-28(s0)
200129e4:	4529                	li	a0,10
200129e6:	4581                	li	a1,0
200129e8:	00a70633          	add	a2,a4,a0
200129ec:	8832                	mv	a6,a2
200129ee:	00e83833          	sltu	a6,a6,a4
200129f2:	00b786b3          	add	a3,a5,a1
200129f6:	00d807b3          	add	a5,a6,a3
200129fa:	86be                	mv	a3,a5
200129fc:	8732                	mv	a4,a2
200129fe:	87b6                	mv	a5,a3
20012a00:	85ba                	mv	a1,a4
20012a02:	863e                	mv	a2,a5
20012a04:	fec42503          	lw	a0,-20(s0)
20012a08:	2fa010ef          	jal	ra,20013d02 <__metal_driver_cpu_mtimecmp_set>
C:/Users/nandg/Desktop/FE310-G003/sifive_hifive1_revb_sifive_welcome/freedom-metal/src/drivers/riscv_cpu.c:160
}
20012a0c:	0001                	nop
20012a0e:	50b2                	lw	ra,44(sp)
20012a10:	5422                	lw	s0,40(sp)
20012a12:	6145                	addi	sp,sp,48
20012a14:	8082                	ret
	...

20012a80 <__metal_exception_handler>:
__metal_exception_handler():
C:/Users/nandg/Desktop/FE310-G003/sifive_hifive1_revb_sifive_welcome/freedom-metal/src/drivers/riscv_cpu.c:169
metal_external_interrupt_vector_handler(void) {
    __METAL_IRQ_VECTOR_HANDLER(METAL_INTERRUPT_ID_EXT);
}

void __metal_exception_handler(void) __attribute__((interrupt, aligned(128)));
void __metal_exception_handler(void) {
20012a80:	7119                	addi	sp,sp,-128
20012a82:	de86                	sw	ra,124(sp)
20012a84:	dc96                	sw	t0,120(sp)
20012a86:	da9a                	sw	t1,116(sp)
20012a88:	d89e                	sw	t2,112(sp)
20012a8a:	d6a2                	sw	s0,108(sp)
20012a8c:	d4aa                	sw	a0,104(sp)
20012a8e:	d2ae                	sw	a1,100(sp)
20012a90:	d0b2                	sw	a2,96(sp)
20012a92:	ceb6                	sw	a3,92(sp)
20012a94:	ccba                	sw	a4,88(sp)
20012a96:	cabe                	sw	a5,84(sp)
20012a98:	c8c2                	sw	a6,80(sp)
20012a9a:	c6c6                	sw	a7,76(sp)
20012a9c:	c4f2                	sw	t3,72(sp)
20012a9e:	c2f6                	sw	t4,68(sp)
20012aa0:	c0fa                	sw	t5,64(sp)
20012aa2:	de7e                	sw	t6,60(sp)
20012aa4:	0100                	addi	s0,sp,128
C:/Users/nandg/Desktop/FE310-G003/sifive_hifive1_revb_sifive_welcome/freedom-metal/src/drivers/riscv_cpu.c:174
    int id;
    void *priv;
    uintptr_t mcause, mepc, mtval, mtvec;
    struct __metal_driver_riscv_cpu_intc *intc;
    struct __metal_driver_cpu *cpu = __metal_cpu_table[__metal_myhart_id()];
20012aa6:	36f1                	jal	20012672 <__metal_myhart_id>
20012aa8:	872a                	mv	a4,a0
20012aaa:	800017b7          	lui	a5,0x80001
20012aae:	070a                	slli	a4,a4,0x2
20012ab0:	aa478793          	addi	a5,a5,-1372 # 80000aa4 <metal_segment_heap_target_end+0xfffff334>
20012ab4:	97ba                	add	a5,a5,a4
20012ab6:	439c                	lw	a5,0(a5)
20012ab8:	faf42623          	sw	a5,-84(s0)
C:/Users/nandg/Desktop/FE310-G003/sifive_hifive1_revb_sifive_welcome/freedom-metal/src/drivers/riscv_cpu.c:176

    __asm__ volatile("csrr %0, mcause" : "=r"(mcause));
20012abc:	342027f3          	csrr	a5,mcause
20012ac0:	faf42423          	sw	a5,-88(s0)
C:/Users/nandg/Desktop/FE310-G003/sifive_hifive1_revb_sifive_welcome/freedom-metal/src/drivers/riscv_cpu.c:177
    __asm__ volatile("csrr %0, mepc" : "=r"(mepc));
20012ac4:	341027f3          	csrr	a5,mepc
20012ac8:	faf42223          	sw	a5,-92(s0)
C:/Users/nandg/Desktop/FE310-G003/sifive_hifive1_revb_sifive_welcome/freedom-metal/src/drivers/riscv_cpu.c:178
    __asm__ volatile("csrr %0, mtval" : "=r"(mtval));
20012acc:	343027f3          	csrr	a5,mtval
20012ad0:	faf42023          	sw	a5,-96(s0)
C:/Users/nandg/Desktop/FE310-G003/sifive_hifive1_revb_sifive_welcome/freedom-metal/src/drivers/riscv_cpu.c:179
    __asm__ volatile("csrr %0, mtvec" : "=r"(mtvec));
20012ad4:	305027f3          	csrr	a5,mtvec
20012ad8:	f8f42e23          	sw	a5,-100(s0)
C:/Users/nandg/Desktop/FE310-G003/sifive_hifive1_revb_sifive_welcome/freedom-metal/src/drivers/riscv_cpu.c:181

    if (cpu) {
20012adc:	fac42783          	lw	a5,-84(s0)
20012ae0:	cbfd                	beqz	a5,20012bd6 <__metal_exception_handler+0x156>
C:/Users/nandg/Desktop/FE310-G003/sifive_hifive1_revb_sifive_welcome/freedom-metal/src/drivers/riscv_cpu.c:183
        intc = (struct __metal_driver_riscv_cpu_intc *)
            __metal_driver_cpu_interrupt_controller((struct metal_cpu *)cpu);
20012ae2:	fac42503          	lw	a0,-84(s0)
20012ae6:	b0fff0ef          	jal	ra,200125f4 <__metal_driver_cpu_interrupt_controller>
20012aea:	f8a42c23          	sw	a0,-104(s0)
C:/Users/nandg/Desktop/FE310-G003/sifive_hifive1_revb_sifive_welcome/freedom-metal/src/drivers/riscv_cpu.c:184
        id = mcause & METAL_MCAUSE_CAUSE;
20012aee:	fa842783          	lw	a5,-88(s0)
20012af2:	3ff7f793          	andi	a5,a5,1023
20012af6:	f8f42a23          	sw	a5,-108(s0)
C:/Users/nandg/Desktop/FE310-G003/sifive_hifive1_revb_sifive_welcome/freedom-metal/src/drivers/riscv_cpu.c:185
        if (mcause & METAL_MCAUSE_INTR) {
20012afa:	fa842783          	lw	a5,-88(s0)
20012afe:	0a07de63          	bgez	a5,20012bba <__metal_exception_handler+0x13a>
C:/Users/nandg/Desktop/FE310-G003/sifive_hifive1_revb_sifive_welcome/freedom-metal/src/drivers/riscv_cpu.c:186
            if (id == METAL_INTERRUPT_ID_BEU) {
20012b02:	f9442703          	lw	a4,-108(s0)
20012b06:	08000793          	li	a5,128
20012b0a:	02f71263          	bne	a4,a5,20012b2e <__metal_exception_handler+0xae>
C:/Users/nandg/Desktop/FE310-G003/sifive_hifive1_revb_sifive_welcome/freedom-metal/src/drivers/riscv_cpu.c:187
                priv = intc->metal_int_beu.exint_data;
20012b0e:	f9842783          	lw	a5,-104(s0)
20012b12:	3987a783          	lw	a5,920(a5)
20012b16:	f8f42623          	sw	a5,-116(s0)
C:/Users/nandg/Desktop/FE310-G003/sifive_hifive1_revb_sifive_welcome/freedom-metal/src/drivers/riscv_cpu.c:188
                intc->metal_int_beu.handler(id, priv);
20012b1a:	f9842783          	lw	a5,-104(s0)
20012b1e:	3907a783          	lw	a5,912(a5)
20012b22:	f8c42583          	lw	a1,-116(s0)
20012b26:	f9442503          	lw	a0,-108(s0)
20012b2a:	9782                	jalr	a5
C:/Users/nandg/Desktop/FE310-G003/sifive_hifive1_revb_sifive_welcome/freedom-metal/src/drivers/riscv_cpu.c:189
                return;
20012b2c:	a06d                	j	20012bd6 <__metal_exception_handler+0x156>
C:/Users/nandg/Desktop/FE310-G003/sifive_hifive1_revb_sifive_welcome/freedom-metal/src/drivers/riscv_cpu.c:191
            }
            if ((id < METAL_INTERRUPT_ID_CSW) ||
20012b2e:	f9442703          	lw	a4,-108(s0)
20012b32:	47ad                	li	a5,11
20012b34:	00e7d763          	bge	a5,a4,20012b42 <__metal_exception_handler+0xc2>
C:/Users/nandg/Desktop/FE310-G003/sifive_hifive1_revb_sifive_welcome/freedom-metal/src/drivers/riscv_cpu.c:192 (discriminator 1)
                ((mtvec & METAL_MTVEC_MASK) == METAL_MTVEC_DIRECT)) {
20012b38:	f9c42783          	lw	a5,-100(s0)
20012b3c:	03f7f793          	andi	a5,a5,63
C:/Users/nandg/Desktop/FE310-G003/sifive_hifive1_revb_sifive_welcome/freedom-metal/src/drivers/riscv_cpu.c:191 (discriminator 1)
            if ((id < METAL_INTERRUPT_ID_CSW) ||
20012b40:	ef9d                	bnez	a5,20012b7e <__metal_exception_handler+0xfe>
C:/Users/nandg/Desktop/FE310-G003/sifive_hifive1_revb_sifive_welcome/freedom-metal/src/drivers/riscv_cpu.c:193
                priv = intc->metal_int_table[id].exint_data;
20012b42:	f9842683          	lw	a3,-104(s0)
20012b46:	f9442703          	lw	a4,-108(s0)
20012b4a:	87ba                	mv	a5,a4
20012b4c:	0786                	slli	a5,a5,0x1
20012b4e:	97ba                	add	a5,a5,a4
20012b50:	078e                	slli	a5,a5,0x3
20012b52:	97b6                	add	a5,a5,a3
20012b54:	0987a783          	lw	a5,152(a5)
20012b58:	f8f42623          	sw	a5,-116(s0)
C:/Users/nandg/Desktop/FE310-G003/sifive_hifive1_revb_sifive_welcome/freedom-metal/src/drivers/riscv_cpu.c:194
                intc->metal_int_table[id].handler(id, priv);
20012b5c:	f9842683          	lw	a3,-104(s0)
20012b60:	f9442703          	lw	a4,-108(s0)
20012b64:	87ba                	mv	a5,a4
20012b66:	0786                	slli	a5,a5,0x1
20012b68:	97ba                	add	a5,a5,a4
20012b6a:	078e                	slli	a5,a5,0x3
20012b6c:	97b6                	add	a5,a5,a3
20012b6e:	0907a783          	lw	a5,144(a5)
20012b72:	f8c42583          	lw	a1,-116(s0)
20012b76:	f9442503          	lw	a0,-108(s0)
20012b7a:	9782                	jalr	a5
C:/Users/nandg/Desktop/FE310-G003/sifive_hifive1_revb_sifive_welcome/freedom-metal/src/drivers/riscv_cpu.c:195
                return;
20012b7c:	a8a9                	j	20012bd6 <__metal_exception_handler+0x156>
C:/Users/nandg/Desktop/FE310-G003/sifive_hifive1_revb_sifive_welcome/freedom-metal/src/drivers/riscv_cpu.c:197
            }
            if ((mtvec & METAL_MTVEC_MASK) == METAL_MTVEC_CLIC) {
20012b7e:	f9c42783          	lw	a5,-100(s0)
20012b82:	03f7f713          	andi	a4,a5,63
20012b86:	4789                	li	a5,2
20012b88:	04f71763          	bne	a4,a5,20012bd6 <__metal_exception_handler+0x156>
C:/Users/nandg/Desktop/FE310-G003/sifive_hifive1_revb_sifive_welcome/freedom-metal/src/drivers/riscv_cpu.c:201
                uintptr_t mtvt;
                metal_interrupt_handler_t mtvt_handler;

                __asm__ volatile("csrr %0, 0x307" : "=r"(mtvt));
20012b8c:	307027f3          	csrr	a5,mtvt
20012b90:	f8f42823          	sw	a5,-112(s0)
C:/Users/nandg/Desktop/FE310-G003/sifive_hifive1_revb_sifive_welcome/freedom-metal/src/drivers/riscv_cpu.c:202
                priv = intc->metal_int_table[METAL_INTERRUPT_ID_SW].sub_int;
20012b94:	f9842783          	lw	a5,-104(s0)
20012b98:	0dc7a783          	lw	a5,220(a5)
20012b9c:	f8f42623          	sw	a5,-116(s0)
C:/Users/nandg/Desktop/FE310-G003/sifive_hifive1_revb_sifive_welcome/freedom-metal/src/drivers/riscv_cpu.c:203
                mtvt_handler = (metal_interrupt_handler_t) * (uintptr_t *)mtvt;
20012ba0:	f9042783          	lw	a5,-112(s0)
20012ba4:	439c                	lw	a5,0(a5)
20012ba6:	f8f42423          	sw	a5,-120(s0)
C:/Users/nandg/Desktop/FE310-G003/sifive_hifive1_revb_sifive_welcome/freedom-metal/src/drivers/riscv_cpu.c:204
                mtvt_handler(id, priv);
20012baa:	f8842783          	lw	a5,-120(s0)
20012bae:	f8c42583          	lw	a1,-116(s0)
20012bb2:	f9442503          	lw	a0,-108(s0)
20012bb6:	9782                	jalr	a5
C:/Users/nandg/Desktop/FE310-G003/sifive_hifive1_revb_sifive_welcome/freedom-metal/src/drivers/riscv_cpu.c:205
                return;
20012bb8:	a839                	j	20012bd6 <__metal_exception_handler+0x156>
C:/Users/nandg/Desktop/FE310-G003/sifive_hifive1_revb_sifive_welcome/freedom-metal/src/drivers/riscv_cpu.c:208
            }
        } else {
            intc->metal_exception_table[id]((struct metal_cpu *)cpu, id);
20012bba:	f9842703          	lw	a4,-104(s0)
20012bbe:	f9442783          	lw	a5,-108(s0)
20012bc2:	0e878793          	addi	a5,a5,232
20012bc6:	078a                	slli	a5,a5,0x2
20012bc8:	97ba                	add	a5,a5,a4
20012bca:	439c                	lw	a5,0(a5)
20012bcc:	f9442583          	lw	a1,-108(s0)
20012bd0:	fac42503          	lw	a0,-84(s0)
20012bd4:	9782                	jalr	a5
C:/Users/nandg/Desktop/FE310-G003/sifive_hifive1_revb_sifive_welcome/freedom-metal/src/drivers/riscv_cpu.c:211
        }
    }
}
20012bd6:	50f6                	lw	ra,124(sp)
20012bd8:	52e6                	lw	t0,120(sp)
20012bda:	5356                	lw	t1,116(sp)
20012bdc:	53c6                	lw	t2,112(sp)
20012bde:	5436                	lw	s0,108(sp)
20012be0:	5526                	lw	a0,104(sp)
20012be2:	5596                	lw	a1,100(sp)
20012be4:	5606                	lw	a2,96(sp)
20012be6:	46f6                	lw	a3,92(sp)
20012be8:	4766                	lw	a4,88(sp)
20012bea:	47d6                	lw	a5,84(sp)
20012bec:	4846                	lw	a6,80(sp)
20012bee:	48b6                	lw	a7,76(sp)
20012bf0:	4e26                	lw	t3,72(sp)
20012bf2:	4e96                	lw	t4,68(sp)
20012bf4:	4f06                	lw	t5,64(sp)
20012bf6:	5ff2                	lw	t6,60(sp)
20012bf8:	6109                	addi	sp,sp,128
20012bfa:	30200073          	mret
	...

20012c78 <metal_lc0_interrupt_vector_handler>:
metal_lc0_interrupt_vector_handler():
C:/Users/nandg/Desktop/FE310-G003/sifive_hifive1_revb_sifive_welcome/freedom-metal/src/drivers/riscv_cpu.c:214

/* The metal_lc0_interrupt_vector_handler() function can be redefined. */
void __attribute__((weak, interrupt)) metal_lc0_interrupt_vector_handler(void) {
20012c78:	711d                	addi	sp,sp,-96
20012c7a:	ce86                	sw	ra,92(sp)
20012c7c:	cc96                	sw	t0,88(sp)
20012c7e:	ca9a                	sw	t1,84(sp)
20012c80:	c89e                	sw	t2,80(sp)
20012c82:	c6a2                	sw	s0,76(sp)
20012c84:	c4aa                	sw	a0,72(sp)
20012c86:	c2ae                	sw	a1,68(sp)
20012c88:	c0b2                	sw	a2,64(sp)
20012c8a:	de36                	sw	a3,60(sp)
20012c8c:	dc3a                	sw	a4,56(sp)
20012c8e:	da3e                	sw	a5,52(sp)
20012c90:	d842                	sw	a6,48(sp)
20012c92:	d646                	sw	a7,44(sp)
20012c94:	d472                	sw	t3,40(sp)
20012c96:	d276                	sw	t4,36(sp)
20012c98:	d07a                	sw	t5,32(sp)
20012c9a:	ce7e                	sw	t6,28(sp)
20012c9c:	1080                	addi	s0,sp,96
C:/Users/nandg/Desktop/FE310-G003/sifive_hifive1_revb_sifive_welcome/freedom-metal/src/drivers/riscv_cpu.c:215
    __METAL_IRQ_VECTOR_HANDLER(METAL_INTERRUPT_ID_LC0);
20012c9e:	9d5ff0ef          	jal	ra,20012672 <__metal_myhart_id>
20012ca2:	872a                	mv	a4,a0
20012ca4:	800017b7          	lui	a5,0x80001
20012ca8:	070a                	slli	a4,a4,0x2
20012caa:	aa478793          	addi	a5,a5,-1372 # 80000aa4 <metal_segment_heap_target_end+0xfffff334>
20012cae:	97ba                	add	a5,a5,a4
20012cb0:	439c                	lw	a5,0(a5)
20012cb2:	faf42623          	sw	a5,-84(s0)
20012cb6:	fac42783          	lw	a5,-84(s0)
20012cba:	c78d                	beqz	a5,20012ce4 <metal_lc0_interrupt_vector_handler+0x6c>
C:/Users/nandg/Desktop/FE310-G003/sifive_hifive1_revb_sifive_welcome/freedom-metal/src/drivers/riscv_cpu.c:215 (discriminator 1)
20012cbc:	fac42503          	lw	a0,-84(s0)
20012cc0:	935ff0ef          	jal	ra,200125f4 <__metal_driver_cpu_interrupt_controller>
20012cc4:	faa42423          	sw	a0,-88(s0)
20012cc8:	fa842783          	lw	a5,-88(s0)
20012ccc:	2187a783          	lw	a5,536(a5)
20012cd0:	faf42223          	sw	a5,-92(s0)
20012cd4:	fa842783          	lw	a5,-88(s0)
20012cd8:	2107a783          	lw	a5,528(a5)
20012cdc:	fa442583          	lw	a1,-92(s0)
20012ce0:	4541                	li	a0,16
20012ce2:	9782                	jalr	a5
C:/Users/nandg/Desktop/FE310-G003/sifive_hifive1_revb_sifive_welcome/freedom-metal/src/drivers/riscv_cpu.c:216
}
20012ce4:	0001                	nop
20012ce6:	40f6                	lw	ra,92(sp)
20012ce8:	42e6                	lw	t0,88(sp)
20012cea:	4356                	lw	t1,84(sp)
20012cec:	43c6                	lw	t2,80(sp)
20012cee:	4436                	lw	s0,76(sp)
20012cf0:	4526                	lw	a0,72(sp)
20012cf2:	4596                	lw	a1,68(sp)
20012cf4:	4606                	lw	a2,64(sp)
20012cf6:	56f2                	lw	a3,60(sp)
20012cf8:	5762                	lw	a4,56(sp)
20012cfa:	57d2                	lw	a5,52(sp)
20012cfc:	5842                	lw	a6,48(sp)
20012cfe:	58b2                	lw	a7,44(sp)
20012d00:	5e22                	lw	t3,40(sp)
20012d02:	5e92                	lw	t4,36(sp)
20012d04:	5f02                	lw	t5,32(sp)
20012d06:	4ff2                	lw	t6,28(sp)
20012d08:	6125                	addi	sp,sp,96
20012d0a:	30200073          	mret

20012d0e <metal_lc1_interrupt_vector_handler>:
metal_lc1_interrupt_vector_handler():
C:/Users/nandg/Desktop/FE310-G003/sifive_hifive1_revb_sifive_welcome/freedom-metal/src/drivers/riscv_cpu.c:219

/* The metal_lc1_interrupt_vector_handler() function can be redefined. */
void __attribute__((weak, interrupt)) metal_lc1_interrupt_vector_handler(void) {
20012d0e:	711d                	addi	sp,sp,-96
20012d10:	ce86                	sw	ra,92(sp)
20012d12:	cc96                	sw	t0,88(sp)
20012d14:	ca9a                	sw	t1,84(sp)
20012d16:	c89e                	sw	t2,80(sp)
20012d18:	c6a2                	sw	s0,76(sp)
20012d1a:	c4aa                	sw	a0,72(sp)
20012d1c:	c2ae                	sw	a1,68(sp)
20012d1e:	c0b2                	sw	a2,64(sp)
20012d20:	de36                	sw	a3,60(sp)
20012d22:	dc3a                	sw	a4,56(sp)
20012d24:	da3e                	sw	a5,52(sp)
20012d26:	d842                	sw	a6,48(sp)
20012d28:	d646                	sw	a7,44(sp)
20012d2a:	d472                	sw	t3,40(sp)
20012d2c:	d276                	sw	t4,36(sp)
20012d2e:	d07a                	sw	t5,32(sp)
20012d30:	ce7e                	sw	t6,28(sp)
20012d32:	1080                	addi	s0,sp,96
C:/Users/nandg/Desktop/FE310-G003/sifive_hifive1_revb_sifive_welcome/freedom-metal/src/drivers/riscv_cpu.c:220
    __METAL_IRQ_VECTOR_HANDLER(METAL_INTERRUPT_ID_LC1);
20012d34:	93fff0ef          	jal	ra,20012672 <__metal_myhart_id>
20012d38:	872a                	mv	a4,a0
20012d3a:	800017b7          	lui	a5,0x80001
20012d3e:	070a                	slli	a4,a4,0x2
20012d40:	aa478793          	addi	a5,a5,-1372 # 80000aa4 <metal_segment_heap_target_end+0xfffff334>
20012d44:	97ba                	add	a5,a5,a4
20012d46:	439c                	lw	a5,0(a5)
20012d48:	faf42623          	sw	a5,-84(s0)
20012d4c:	fac42783          	lw	a5,-84(s0)
20012d50:	c78d                	beqz	a5,20012d7a <metal_lc1_interrupt_vector_handler+0x6c>
C:/Users/nandg/Desktop/FE310-G003/sifive_hifive1_revb_sifive_welcome/freedom-metal/src/drivers/riscv_cpu.c:220 (discriminator 1)
20012d52:	fac42503          	lw	a0,-84(s0)
20012d56:	89fff0ef          	jal	ra,200125f4 <__metal_driver_cpu_interrupt_controller>
20012d5a:	faa42423          	sw	a0,-88(s0)
20012d5e:	fa842783          	lw	a5,-88(s0)
20012d62:	2307a783          	lw	a5,560(a5)
20012d66:	faf42223          	sw	a5,-92(s0)
20012d6a:	fa842783          	lw	a5,-88(s0)
20012d6e:	2287a783          	lw	a5,552(a5)
20012d72:	fa442583          	lw	a1,-92(s0)
20012d76:	4545                	li	a0,17
20012d78:	9782                	jalr	a5
C:/Users/nandg/Desktop/FE310-G003/sifive_hifive1_revb_sifive_welcome/freedom-metal/src/drivers/riscv_cpu.c:221
}
20012d7a:	0001                	nop
20012d7c:	40f6                	lw	ra,92(sp)
20012d7e:	42e6                	lw	t0,88(sp)
20012d80:	4356                	lw	t1,84(sp)
20012d82:	43c6                	lw	t2,80(sp)
20012d84:	4436                	lw	s0,76(sp)
20012d86:	4526                	lw	a0,72(sp)
20012d88:	4596                	lw	a1,68(sp)
20012d8a:	4606                	lw	a2,64(sp)
20012d8c:	56f2                	lw	a3,60(sp)
20012d8e:	5762                	lw	a4,56(sp)
20012d90:	57d2                	lw	a5,52(sp)
20012d92:	5842                	lw	a6,48(sp)
20012d94:	58b2                	lw	a7,44(sp)
20012d96:	5e22                	lw	t3,40(sp)
20012d98:	5e92                	lw	t4,36(sp)
20012d9a:	5f02                	lw	t5,32(sp)
20012d9c:	4ff2                	lw	t6,28(sp)
20012d9e:	6125                	addi	sp,sp,96
20012da0:	30200073          	mret

20012da4 <metal_lc2_interrupt_vector_handler>:
metal_lc2_interrupt_vector_handler():
C:/Users/nandg/Desktop/FE310-G003/sifive_hifive1_revb_sifive_welcome/freedom-metal/src/drivers/riscv_cpu.c:224

/* The metal_lc2_interrupt_vector_handler() function can be redefined. */
void __attribute__((weak, interrupt)) metal_lc2_interrupt_vector_handler(void) {
20012da4:	711d                	addi	sp,sp,-96
20012da6:	ce86                	sw	ra,92(sp)
20012da8:	cc96                	sw	t0,88(sp)
20012daa:	ca9a                	sw	t1,84(sp)
20012dac:	c89e                	sw	t2,80(sp)
20012dae:	c6a2                	sw	s0,76(sp)
20012db0:	c4aa                	sw	a0,72(sp)
20012db2:	c2ae                	sw	a1,68(sp)
20012db4:	c0b2                	sw	a2,64(sp)
20012db6:	de36                	sw	a3,60(sp)
20012db8:	dc3a                	sw	a4,56(sp)
20012dba:	da3e                	sw	a5,52(sp)
20012dbc:	d842                	sw	a6,48(sp)
20012dbe:	d646                	sw	a7,44(sp)
20012dc0:	d472                	sw	t3,40(sp)
20012dc2:	d276                	sw	t4,36(sp)
20012dc4:	d07a                	sw	t5,32(sp)
20012dc6:	ce7e                	sw	t6,28(sp)
20012dc8:	1080                	addi	s0,sp,96
C:/Users/nandg/Desktop/FE310-G003/sifive_hifive1_revb_sifive_welcome/freedom-metal/src/drivers/riscv_cpu.c:225
    __METAL_IRQ_VECTOR_HANDLER(METAL_INTERRUPT_ID_LC2);
20012dca:	8a9ff0ef          	jal	ra,20012672 <__metal_myhart_id>
20012dce:	872a                	mv	a4,a0
20012dd0:	800017b7          	lui	a5,0x80001
20012dd4:	070a                	slli	a4,a4,0x2
20012dd6:	aa478793          	addi	a5,a5,-1372 # 80000aa4 <metal_segment_heap_target_end+0xfffff334>
20012dda:	97ba                	add	a5,a5,a4
20012ddc:	439c                	lw	a5,0(a5)
20012dde:	faf42623          	sw	a5,-84(s0)
20012de2:	fac42783          	lw	a5,-84(s0)
20012de6:	c78d                	beqz	a5,20012e10 <metal_lc2_interrupt_vector_handler+0x6c>
C:/Users/nandg/Desktop/FE310-G003/sifive_hifive1_revb_sifive_welcome/freedom-metal/src/drivers/riscv_cpu.c:225 (discriminator 1)
20012de8:	fac42503          	lw	a0,-84(s0)
20012dec:	809ff0ef          	jal	ra,200125f4 <__metal_driver_cpu_interrupt_controller>
20012df0:	faa42423          	sw	a0,-88(s0)
20012df4:	fa842783          	lw	a5,-88(s0)
20012df8:	2487a783          	lw	a5,584(a5)
20012dfc:	faf42223          	sw	a5,-92(s0)
20012e00:	fa842783          	lw	a5,-88(s0)
20012e04:	2407a783          	lw	a5,576(a5)
20012e08:	fa442583          	lw	a1,-92(s0)
20012e0c:	4549                	li	a0,18
20012e0e:	9782                	jalr	a5
C:/Users/nandg/Desktop/FE310-G003/sifive_hifive1_revb_sifive_welcome/freedom-metal/src/drivers/riscv_cpu.c:226
}
20012e10:	0001                	nop
20012e12:	40f6                	lw	ra,92(sp)
20012e14:	42e6                	lw	t0,88(sp)
20012e16:	4356                	lw	t1,84(sp)
20012e18:	43c6                	lw	t2,80(sp)
20012e1a:	4436                	lw	s0,76(sp)
20012e1c:	4526                	lw	a0,72(sp)
20012e1e:	4596                	lw	a1,68(sp)
20012e20:	4606                	lw	a2,64(sp)
20012e22:	56f2                	lw	a3,60(sp)
20012e24:	5762                	lw	a4,56(sp)
20012e26:	57d2                	lw	a5,52(sp)
20012e28:	5842                	lw	a6,48(sp)
20012e2a:	58b2                	lw	a7,44(sp)
20012e2c:	5e22                	lw	t3,40(sp)
20012e2e:	5e92                	lw	t4,36(sp)
20012e30:	5f02                	lw	t5,32(sp)
20012e32:	4ff2                	lw	t6,28(sp)
20012e34:	6125                	addi	sp,sp,96
20012e36:	30200073          	mret

20012e3a <metal_lc3_interrupt_vector_handler>:
metal_lc3_interrupt_vector_handler():
C:/Users/nandg/Desktop/FE310-G003/sifive_hifive1_revb_sifive_welcome/freedom-metal/src/drivers/riscv_cpu.c:229

/* The metal_lc3_interrupt_vector_handler() function can be redefined. */
void __attribute__((weak, interrupt)) metal_lc3_interrupt_vector_handler(void) {
20012e3a:	711d                	addi	sp,sp,-96
20012e3c:	ce86                	sw	ra,92(sp)
20012e3e:	cc96                	sw	t0,88(sp)
20012e40:	ca9a                	sw	t1,84(sp)
20012e42:	c89e                	sw	t2,80(sp)
20012e44:	c6a2                	sw	s0,76(sp)
20012e46:	c4aa                	sw	a0,72(sp)
20012e48:	c2ae                	sw	a1,68(sp)
20012e4a:	c0b2                	sw	a2,64(sp)
20012e4c:	de36                	sw	a3,60(sp)
20012e4e:	dc3a                	sw	a4,56(sp)
20012e50:	da3e                	sw	a5,52(sp)
20012e52:	d842                	sw	a6,48(sp)
20012e54:	d646                	sw	a7,44(sp)
20012e56:	d472                	sw	t3,40(sp)
20012e58:	d276                	sw	t4,36(sp)
20012e5a:	d07a                	sw	t5,32(sp)
20012e5c:	ce7e                	sw	t6,28(sp)
20012e5e:	1080                	addi	s0,sp,96
C:/Users/nandg/Desktop/FE310-G003/sifive_hifive1_revb_sifive_welcome/freedom-metal/src/drivers/riscv_cpu.c:230
    __METAL_IRQ_VECTOR_HANDLER(METAL_INTERRUPT_ID_LC3);
20012e60:	813ff0ef          	jal	ra,20012672 <__metal_myhart_id>
20012e64:	872a                	mv	a4,a0
20012e66:	800017b7          	lui	a5,0x80001
20012e6a:	070a                	slli	a4,a4,0x2
20012e6c:	aa478793          	addi	a5,a5,-1372 # 80000aa4 <metal_segment_heap_target_end+0xfffff334>
20012e70:	97ba                	add	a5,a5,a4
20012e72:	439c                	lw	a5,0(a5)
20012e74:	faf42623          	sw	a5,-84(s0)
20012e78:	fac42783          	lw	a5,-84(s0)
20012e7c:	c78d                	beqz	a5,20012ea6 <metal_lc3_interrupt_vector_handler+0x6c>
C:/Users/nandg/Desktop/FE310-G003/sifive_hifive1_revb_sifive_welcome/freedom-metal/src/drivers/riscv_cpu.c:230 (discriminator 1)
20012e7e:	fac42503          	lw	a0,-84(s0)
20012e82:	f72ff0ef          	jal	ra,200125f4 <__metal_driver_cpu_interrupt_controller>
20012e86:	faa42423          	sw	a0,-88(s0)
20012e8a:	fa842783          	lw	a5,-88(s0)
20012e8e:	2607a783          	lw	a5,608(a5)
20012e92:	faf42223          	sw	a5,-92(s0)
20012e96:	fa842783          	lw	a5,-88(s0)
20012e9a:	2587a783          	lw	a5,600(a5)
20012e9e:	fa442583          	lw	a1,-92(s0)
20012ea2:	454d                	li	a0,19
20012ea4:	9782                	jalr	a5
C:/Users/nandg/Desktop/FE310-G003/sifive_hifive1_revb_sifive_welcome/freedom-metal/src/drivers/riscv_cpu.c:231
}
20012ea6:	0001                	nop
20012ea8:	40f6                	lw	ra,92(sp)
20012eaa:	42e6                	lw	t0,88(sp)
20012eac:	4356                	lw	t1,84(sp)
20012eae:	43c6                	lw	t2,80(sp)
20012eb0:	4436                	lw	s0,76(sp)
20012eb2:	4526                	lw	a0,72(sp)
20012eb4:	4596                	lw	a1,68(sp)
20012eb6:	4606                	lw	a2,64(sp)
20012eb8:	56f2                	lw	a3,60(sp)
20012eba:	5762                	lw	a4,56(sp)
20012ebc:	57d2                	lw	a5,52(sp)
20012ebe:	5842                	lw	a6,48(sp)
20012ec0:	58b2                	lw	a7,44(sp)
20012ec2:	5e22                	lw	t3,40(sp)
20012ec4:	5e92                	lw	t4,36(sp)
20012ec6:	5f02                	lw	t5,32(sp)
20012ec8:	4ff2                	lw	t6,28(sp)
20012eca:	6125                	addi	sp,sp,96
20012ecc:	30200073          	mret

20012ed0 <metal_lc4_interrupt_vector_handler>:
metal_lc4_interrupt_vector_handler():
C:/Users/nandg/Desktop/FE310-G003/sifive_hifive1_revb_sifive_welcome/freedom-metal/src/drivers/riscv_cpu.c:234

/* The metal_lc4_interrupt_vector_handler() function can be redefined. */
void __attribute__((weak, interrupt)) metal_lc4_interrupt_vector_handler(void) {
20012ed0:	711d                	addi	sp,sp,-96
20012ed2:	ce86                	sw	ra,92(sp)
20012ed4:	cc96                	sw	t0,88(sp)
20012ed6:	ca9a                	sw	t1,84(sp)
20012ed8:	c89e                	sw	t2,80(sp)
20012eda:	c6a2                	sw	s0,76(sp)
20012edc:	c4aa                	sw	a0,72(sp)
20012ede:	c2ae                	sw	a1,68(sp)
20012ee0:	c0b2                	sw	a2,64(sp)
20012ee2:	de36                	sw	a3,60(sp)
20012ee4:	dc3a                	sw	a4,56(sp)
20012ee6:	da3e                	sw	a5,52(sp)
20012ee8:	d842                	sw	a6,48(sp)
20012eea:	d646                	sw	a7,44(sp)
20012eec:	d472                	sw	t3,40(sp)
20012eee:	d276                	sw	t4,36(sp)
20012ef0:	d07a                	sw	t5,32(sp)
20012ef2:	ce7e                	sw	t6,28(sp)
20012ef4:	1080                	addi	s0,sp,96
C:/Users/nandg/Desktop/FE310-G003/sifive_hifive1_revb_sifive_welcome/freedom-metal/src/drivers/riscv_cpu.c:235
    __METAL_IRQ_VECTOR_HANDLER(METAL_INTERRUPT_ID_LC4);
20012ef6:	f7cff0ef          	jal	ra,20012672 <__metal_myhart_id>
20012efa:	872a                	mv	a4,a0
20012efc:	800017b7          	lui	a5,0x80001
20012f00:	070a                	slli	a4,a4,0x2
20012f02:	aa478793          	addi	a5,a5,-1372 # 80000aa4 <metal_segment_heap_target_end+0xfffff334>
20012f06:	97ba                	add	a5,a5,a4
20012f08:	439c                	lw	a5,0(a5)
20012f0a:	faf42623          	sw	a5,-84(s0)
20012f0e:	fac42783          	lw	a5,-84(s0)
20012f12:	c78d                	beqz	a5,20012f3c <metal_lc4_interrupt_vector_handler+0x6c>
C:/Users/nandg/Desktop/FE310-G003/sifive_hifive1_revb_sifive_welcome/freedom-metal/src/drivers/riscv_cpu.c:235 (discriminator 1)
20012f14:	fac42503          	lw	a0,-84(s0)
20012f18:	edcff0ef          	jal	ra,200125f4 <__metal_driver_cpu_interrupt_controller>
20012f1c:	faa42423          	sw	a0,-88(s0)
20012f20:	fa842783          	lw	a5,-88(s0)
20012f24:	2787a783          	lw	a5,632(a5)
20012f28:	faf42223          	sw	a5,-92(s0)
20012f2c:	fa842783          	lw	a5,-88(s0)
20012f30:	2707a783          	lw	a5,624(a5)
20012f34:	fa442583          	lw	a1,-92(s0)
20012f38:	4551                	li	a0,20
20012f3a:	9782                	jalr	a5
C:/Users/nandg/Desktop/FE310-G003/sifive_hifive1_revb_sifive_welcome/freedom-metal/src/drivers/riscv_cpu.c:236
}
20012f3c:	0001                	nop
20012f3e:	40f6                	lw	ra,92(sp)
20012f40:	42e6                	lw	t0,88(sp)
20012f42:	4356                	lw	t1,84(sp)
20012f44:	43c6                	lw	t2,80(sp)
20012f46:	4436                	lw	s0,76(sp)
20012f48:	4526                	lw	a0,72(sp)
20012f4a:	4596                	lw	a1,68(sp)
20012f4c:	4606                	lw	a2,64(sp)
20012f4e:	56f2                	lw	a3,60(sp)
20012f50:	5762                	lw	a4,56(sp)
20012f52:	57d2                	lw	a5,52(sp)
20012f54:	5842                	lw	a6,48(sp)
20012f56:	58b2                	lw	a7,44(sp)
20012f58:	5e22                	lw	t3,40(sp)
20012f5a:	5e92                	lw	t4,36(sp)
20012f5c:	5f02                	lw	t5,32(sp)
20012f5e:	4ff2                	lw	t6,28(sp)
20012f60:	6125                	addi	sp,sp,96
20012f62:	30200073          	mret

20012f66 <metal_lc5_interrupt_vector_handler>:
metal_lc5_interrupt_vector_handler():
C:/Users/nandg/Desktop/FE310-G003/sifive_hifive1_revb_sifive_welcome/freedom-metal/src/drivers/riscv_cpu.c:239

/* The metal_lc5_interrupt_vector_handler() function can be redefined. */
void __attribute__((weak, interrupt)) metal_lc5_interrupt_vector_handler(void) {
20012f66:	711d                	addi	sp,sp,-96
20012f68:	ce86                	sw	ra,92(sp)
20012f6a:	cc96                	sw	t0,88(sp)
20012f6c:	ca9a                	sw	t1,84(sp)
20012f6e:	c89e                	sw	t2,80(sp)
20012f70:	c6a2                	sw	s0,76(sp)
20012f72:	c4aa                	sw	a0,72(sp)
20012f74:	c2ae                	sw	a1,68(sp)
20012f76:	c0b2                	sw	a2,64(sp)
20012f78:	de36                	sw	a3,60(sp)
20012f7a:	dc3a                	sw	a4,56(sp)
20012f7c:	da3e                	sw	a5,52(sp)
20012f7e:	d842                	sw	a6,48(sp)
20012f80:	d646                	sw	a7,44(sp)
20012f82:	d472                	sw	t3,40(sp)
20012f84:	d276                	sw	t4,36(sp)
20012f86:	d07a                	sw	t5,32(sp)
20012f88:	ce7e                	sw	t6,28(sp)
20012f8a:	1080                	addi	s0,sp,96
C:/Users/nandg/Desktop/FE310-G003/sifive_hifive1_revb_sifive_welcome/freedom-metal/src/drivers/riscv_cpu.c:240
    __METAL_IRQ_VECTOR_HANDLER(METAL_INTERRUPT_ID_LC5);
20012f8c:	ee6ff0ef          	jal	ra,20012672 <__metal_myhart_id>
20012f90:	872a                	mv	a4,a0
20012f92:	800017b7          	lui	a5,0x80001
20012f96:	070a                	slli	a4,a4,0x2
20012f98:	aa478793          	addi	a5,a5,-1372 # 80000aa4 <metal_segment_heap_target_end+0xfffff334>
20012f9c:	97ba                	add	a5,a5,a4
20012f9e:	439c                	lw	a5,0(a5)
20012fa0:	faf42623          	sw	a5,-84(s0)
20012fa4:	fac42783          	lw	a5,-84(s0)
20012fa8:	c78d                	beqz	a5,20012fd2 <metal_lc5_interrupt_vector_handler+0x6c>
C:/Users/nandg/Desktop/FE310-G003/sifive_hifive1_revb_sifive_welcome/freedom-metal/src/drivers/riscv_cpu.c:240 (discriminator 1)
20012faa:	fac42503          	lw	a0,-84(s0)
20012fae:	e46ff0ef          	jal	ra,200125f4 <__metal_driver_cpu_interrupt_controller>
20012fb2:	faa42423          	sw	a0,-88(s0)
20012fb6:	fa842783          	lw	a5,-88(s0)
20012fba:	2907a783          	lw	a5,656(a5)
20012fbe:	faf42223          	sw	a5,-92(s0)
20012fc2:	fa842783          	lw	a5,-88(s0)
20012fc6:	2887a783          	lw	a5,648(a5)
20012fca:	fa442583          	lw	a1,-92(s0)
20012fce:	4555                	li	a0,21
20012fd0:	9782                	jalr	a5
C:/Users/nandg/Desktop/FE310-G003/sifive_hifive1_revb_sifive_welcome/freedom-metal/src/drivers/riscv_cpu.c:241
}
20012fd2:	0001                	nop
20012fd4:	40f6                	lw	ra,92(sp)
20012fd6:	42e6                	lw	t0,88(sp)
20012fd8:	4356                	lw	t1,84(sp)
20012fda:	43c6                	lw	t2,80(sp)
20012fdc:	4436                	lw	s0,76(sp)
20012fde:	4526                	lw	a0,72(sp)
20012fe0:	4596                	lw	a1,68(sp)
20012fe2:	4606                	lw	a2,64(sp)
20012fe4:	56f2                	lw	a3,60(sp)
20012fe6:	5762                	lw	a4,56(sp)
20012fe8:	57d2                	lw	a5,52(sp)
20012fea:	5842                	lw	a6,48(sp)
20012fec:	58b2                	lw	a7,44(sp)
20012fee:	5e22                	lw	t3,40(sp)
20012ff0:	5e92                	lw	t4,36(sp)
20012ff2:	5f02                	lw	t5,32(sp)
20012ff4:	4ff2                	lw	t6,28(sp)
20012ff6:	6125                	addi	sp,sp,96
20012ff8:	30200073          	mret

20012ffc <metal_lc6_interrupt_vector_handler>:
metal_lc6_interrupt_vector_handler():
C:/Users/nandg/Desktop/FE310-G003/sifive_hifive1_revb_sifive_welcome/freedom-metal/src/drivers/riscv_cpu.c:244

/* The metal_lc6_interrupt_vector_handler() function can be redefined. */
void __attribute__((weak, interrupt)) metal_lc6_interrupt_vector_handler(void) {
20012ffc:	711d                	addi	sp,sp,-96
20012ffe:	ce86                	sw	ra,92(sp)
20013000:	cc96                	sw	t0,88(sp)
20013002:	ca9a                	sw	t1,84(sp)
20013004:	c89e                	sw	t2,80(sp)
20013006:	c6a2                	sw	s0,76(sp)
20013008:	c4aa                	sw	a0,72(sp)
2001300a:	c2ae                	sw	a1,68(sp)
2001300c:	c0b2                	sw	a2,64(sp)
2001300e:	de36                	sw	a3,60(sp)
20013010:	dc3a                	sw	a4,56(sp)
20013012:	da3e                	sw	a5,52(sp)
20013014:	d842                	sw	a6,48(sp)
20013016:	d646                	sw	a7,44(sp)
20013018:	d472                	sw	t3,40(sp)
2001301a:	d276                	sw	t4,36(sp)
2001301c:	d07a                	sw	t5,32(sp)
2001301e:	ce7e                	sw	t6,28(sp)
20013020:	1080                	addi	s0,sp,96
C:/Users/nandg/Desktop/FE310-G003/sifive_hifive1_revb_sifive_welcome/freedom-metal/src/drivers/riscv_cpu.c:245
    __METAL_IRQ_VECTOR_HANDLER(METAL_INTERRUPT_ID_LC6);
20013022:	e50ff0ef          	jal	ra,20012672 <__metal_myhart_id>
20013026:	872a                	mv	a4,a0
20013028:	800017b7          	lui	a5,0x80001
2001302c:	070a                	slli	a4,a4,0x2
2001302e:	aa478793          	addi	a5,a5,-1372 # 80000aa4 <metal_segment_heap_target_end+0xfffff334>
20013032:	97ba                	add	a5,a5,a4
20013034:	439c                	lw	a5,0(a5)
20013036:	faf42623          	sw	a5,-84(s0)
2001303a:	fac42783          	lw	a5,-84(s0)
2001303e:	c78d                	beqz	a5,20013068 <metal_lc6_interrupt_vector_handler+0x6c>
C:/Users/nandg/Desktop/FE310-G003/sifive_hifive1_revb_sifive_welcome/freedom-metal/src/drivers/riscv_cpu.c:245 (discriminator 1)
20013040:	fac42503          	lw	a0,-84(s0)
20013044:	db0ff0ef          	jal	ra,200125f4 <__metal_driver_cpu_interrupt_controller>
20013048:	faa42423          	sw	a0,-88(s0)
2001304c:	fa842783          	lw	a5,-88(s0)
20013050:	2a87a783          	lw	a5,680(a5)
20013054:	faf42223          	sw	a5,-92(s0)
20013058:	fa842783          	lw	a5,-88(s0)
2001305c:	2a07a783          	lw	a5,672(a5)
20013060:	fa442583          	lw	a1,-92(s0)
20013064:	4559                	li	a0,22
20013066:	9782                	jalr	a5
C:/Users/nandg/Desktop/FE310-G003/sifive_hifive1_revb_sifive_welcome/freedom-metal/src/drivers/riscv_cpu.c:246
}
20013068:	0001                	nop
2001306a:	40f6                	lw	ra,92(sp)
2001306c:	42e6                	lw	t0,88(sp)
2001306e:	4356                	lw	t1,84(sp)
20013070:	43c6                	lw	t2,80(sp)
20013072:	4436                	lw	s0,76(sp)
20013074:	4526                	lw	a0,72(sp)
20013076:	4596                	lw	a1,68(sp)
20013078:	4606                	lw	a2,64(sp)
2001307a:	56f2                	lw	a3,60(sp)
2001307c:	5762                	lw	a4,56(sp)
2001307e:	57d2                	lw	a5,52(sp)
20013080:	5842                	lw	a6,48(sp)
20013082:	58b2                	lw	a7,44(sp)
20013084:	5e22                	lw	t3,40(sp)
20013086:	5e92                	lw	t4,36(sp)
20013088:	5f02                	lw	t5,32(sp)
2001308a:	4ff2                	lw	t6,28(sp)
2001308c:	6125                	addi	sp,sp,96
2001308e:	30200073          	mret

20013092 <metal_lc7_interrupt_vector_handler>:
metal_lc7_interrupt_vector_handler():
C:/Users/nandg/Desktop/FE310-G003/sifive_hifive1_revb_sifive_welcome/freedom-metal/src/drivers/riscv_cpu.c:249

/* The metal_lc7_interrupt_vector_handler() function can be redefined. */
void __attribute__((weak, interrupt)) metal_lc7_interrupt_vector_handler(void) {
20013092:	711d                	addi	sp,sp,-96
20013094:	ce86                	sw	ra,92(sp)
20013096:	cc96                	sw	t0,88(sp)
20013098:	ca9a                	sw	t1,84(sp)
2001309a:	c89e                	sw	t2,80(sp)
2001309c:	c6a2                	sw	s0,76(sp)
2001309e:	c4aa                	sw	a0,72(sp)
200130a0:	c2ae                	sw	a1,68(sp)
200130a2:	c0b2                	sw	a2,64(sp)
200130a4:	de36                	sw	a3,60(sp)
200130a6:	dc3a                	sw	a4,56(sp)
200130a8:	da3e                	sw	a5,52(sp)
200130aa:	d842                	sw	a6,48(sp)
200130ac:	d646                	sw	a7,44(sp)
200130ae:	d472                	sw	t3,40(sp)
200130b0:	d276                	sw	t4,36(sp)
200130b2:	d07a                	sw	t5,32(sp)
200130b4:	ce7e                	sw	t6,28(sp)
200130b6:	1080                	addi	s0,sp,96
C:/Users/nandg/Desktop/FE310-G003/sifive_hifive1_revb_sifive_welcome/freedom-metal/src/drivers/riscv_cpu.c:250
    __METAL_IRQ_VECTOR_HANDLER(METAL_INTERRUPT_ID_LC7);
200130b8:	dbaff0ef          	jal	ra,20012672 <__metal_myhart_id>
200130bc:	872a                	mv	a4,a0
200130be:	800017b7          	lui	a5,0x80001
200130c2:	070a                	slli	a4,a4,0x2
200130c4:	aa478793          	addi	a5,a5,-1372 # 80000aa4 <metal_segment_heap_target_end+0xfffff334>
200130c8:	97ba                	add	a5,a5,a4
200130ca:	439c                	lw	a5,0(a5)
200130cc:	faf42623          	sw	a5,-84(s0)
200130d0:	fac42783          	lw	a5,-84(s0)
200130d4:	c78d                	beqz	a5,200130fe <metal_lc7_interrupt_vector_handler+0x6c>
C:/Users/nandg/Desktop/FE310-G003/sifive_hifive1_revb_sifive_welcome/freedom-metal/src/drivers/riscv_cpu.c:250 (discriminator 1)
200130d6:	fac42503          	lw	a0,-84(s0)
200130da:	d1aff0ef          	jal	ra,200125f4 <__metal_driver_cpu_interrupt_controller>
200130de:	faa42423          	sw	a0,-88(s0)
200130e2:	fa842783          	lw	a5,-88(s0)
200130e6:	2c07a783          	lw	a5,704(a5)
200130ea:	faf42223          	sw	a5,-92(s0)
200130ee:	fa842783          	lw	a5,-88(s0)
200130f2:	2b87a783          	lw	a5,696(a5)
200130f6:	fa442583          	lw	a1,-92(s0)
200130fa:	455d                	li	a0,23
200130fc:	9782                	jalr	a5
C:/Users/nandg/Desktop/FE310-G003/sifive_hifive1_revb_sifive_welcome/freedom-metal/src/drivers/riscv_cpu.c:251
}
200130fe:	0001                	nop
20013100:	40f6                	lw	ra,92(sp)
20013102:	42e6                	lw	t0,88(sp)
20013104:	4356                	lw	t1,84(sp)
20013106:	43c6                	lw	t2,80(sp)
20013108:	4436                	lw	s0,76(sp)
2001310a:	4526                	lw	a0,72(sp)
2001310c:	4596                	lw	a1,68(sp)
2001310e:	4606                	lw	a2,64(sp)
20013110:	56f2                	lw	a3,60(sp)
20013112:	5762                	lw	a4,56(sp)
20013114:	57d2                	lw	a5,52(sp)
20013116:	5842                	lw	a6,48(sp)
20013118:	58b2                	lw	a7,44(sp)
2001311a:	5e22                	lw	t3,40(sp)
2001311c:	5e92                	lw	t4,36(sp)
2001311e:	5f02                	lw	t5,32(sp)
20013120:	4ff2                	lw	t6,28(sp)
20013122:	6125                	addi	sp,sp,96
20013124:	30200073          	mret

20013128 <metal_lc8_interrupt_vector_handler>:
metal_lc8_interrupt_vector_handler():
C:/Users/nandg/Desktop/FE310-G003/sifive_hifive1_revb_sifive_welcome/freedom-metal/src/drivers/riscv_cpu.c:254

/* The metal_lc8_interrupt_vector_handler() function can be redefined. */
void __attribute__((weak, interrupt)) metal_lc8_interrupt_vector_handler(void) {
20013128:	711d                	addi	sp,sp,-96
2001312a:	ce86                	sw	ra,92(sp)
2001312c:	cc96                	sw	t0,88(sp)
2001312e:	ca9a                	sw	t1,84(sp)
20013130:	c89e                	sw	t2,80(sp)
20013132:	c6a2                	sw	s0,76(sp)
20013134:	c4aa                	sw	a0,72(sp)
20013136:	c2ae                	sw	a1,68(sp)
20013138:	c0b2                	sw	a2,64(sp)
2001313a:	de36                	sw	a3,60(sp)
2001313c:	dc3a                	sw	a4,56(sp)
2001313e:	da3e                	sw	a5,52(sp)
20013140:	d842                	sw	a6,48(sp)
20013142:	d646                	sw	a7,44(sp)
20013144:	d472                	sw	t3,40(sp)
20013146:	d276                	sw	t4,36(sp)
20013148:	d07a                	sw	t5,32(sp)
2001314a:	ce7e                	sw	t6,28(sp)
2001314c:	1080                	addi	s0,sp,96
C:/Users/nandg/Desktop/FE310-G003/sifive_hifive1_revb_sifive_welcome/freedom-metal/src/drivers/riscv_cpu.c:255
    __METAL_IRQ_VECTOR_HANDLER(METAL_INTERRUPT_ID_LC8);
2001314e:	d24ff0ef          	jal	ra,20012672 <__metal_myhart_id>
20013152:	872a                	mv	a4,a0
20013154:	800017b7          	lui	a5,0x80001
20013158:	070a                	slli	a4,a4,0x2
2001315a:	aa478793          	addi	a5,a5,-1372 # 80000aa4 <metal_segment_heap_target_end+0xfffff334>
2001315e:	97ba                	add	a5,a5,a4
20013160:	439c                	lw	a5,0(a5)
20013162:	faf42623          	sw	a5,-84(s0)
20013166:	fac42783          	lw	a5,-84(s0)
2001316a:	c78d                	beqz	a5,20013194 <metal_lc8_interrupt_vector_handler+0x6c>
C:/Users/nandg/Desktop/FE310-G003/sifive_hifive1_revb_sifive_welcome/freedom-metal/src/drivers/riscv_cpu.c:255 (discriminator 1)
2001316c:	fac42503          	lw	a0,-84(s0)
20013170:	c84ff0ef          	jal	ra,200125f4 <__metal_driver_cpu_interrupt_controller>
20013174:	faa42423          	sw	a0,-88(s0)
20013178:	fa842783          	lw	a5,-88(s0)
2001317c:	2d87a783          	lw	a5,728(a5)
20013180:	faf42223          	sw	a5,-92(s0)
20013184:	fa842783          	lw	a5,-88(s0)
20013188:	2d07a783          	lw	a5,720(a5)
2001318c:	fa442583          	lw	a1,-92(s0)
20013190:	4561                	li	a0,24
20013192:	9782                	jalr	a5
C:/Users/nandg/Desktop/FE310-G003/sifive_hifive1_revb_sifive_welcome/freedom-metal/src/drivers/riscv_cpu.c:256
}
20013194:	0001                	nop
20013196:	40f6                	lw	ra,92(sp)
20013198:	42e6                	lw	t0,88(sp)
2001319a:	4356                	lw	t1,84(sp)
2001319c:	43c6                	lw	t2,80(sp)
2001319e:	4436                	lw	s0,76(sp)
200131a0:	4526                	lw	a0,72(sp)
200131a2:	4596                	lw	a1,68(sp)
200131a4:	4606                	lw	a2,64(sp)
200131a6:	56f2                	lw	a3,60(sp)
200131a8:	5762                	lw	a4,56(sp)
200131aa:	57d2                	lw	a5,52(sp)
200131ac:	5842                	lw	a6,48(sp)
200131ae:	58b2                	lw	a7,44(sp)
200131b0:	5e22                	lw	t3,40(sp)
200131b2:	5e92                	lw	t4,36(sp)
200131b4:	5f02                	lw	t5,32(sp)
200131b6:	4ff2                	lw	t6,28(sp)
200131b8:	6125                	addi	sp,sp,96
200131ba:	30200073          	mret

200131be <metal_lc9_interrupt_vector_handler>:
metal_lc9_interrupt_vector_handler():
C:/Users/nandg/Desktop/FE310-G003/sifive_hifive1_revb_sifive_welcome/freedom-metal/src/drivers/riscv_cpu.c:259

/* The metal_lc9_interrupt_vector_handler() function can be redefined. */
void __attribute__((weak, interrupt)) metal_lc9_interrupt_vector_handler(void) {
200131be:	711d                	addi	sp,sp,-96
200131c0:	ce86                	sw	ra,92(sp)
200131c2:	cc96                	sw	t0,88(sp)
200131c4:	ca9a                	sw	t1,84(sp)
200131c6:	c89e                	sw	t2,80(sp)
200131c8:	c6a2                	sw	s0,76(sp)
200131ca:	c4aa                	sw	a0,72(sp)
200131cc:	c2ae                	sw	a1,68(sp)
200131ce:	c0b2                	sw	a2,64(sp)
200131d0:	de36                	sw	a3,60(sp)
200131d2:	dc3a                	sw	a4,56(sp)
200131d4:	da3e                	sw	a5,52(sp)
200131d6:	d842                	sw	a6,48(sp)
200131d8:	d646                	sw	a7,44(sp)
200131da:	d472                	sw	t3,40(sp)
200131dc:	d276                	sw	t4,36(sp)
200131de:	d07a                	sw	t5,32(sp)
200131e0:	ce7e                	sw	t6,28(sp)
200131e2:	1080                	addi	s0,sp,96
C:/Users/nandg/Desktop/FE310-G003/sifive_hifive1_revb_sifive_welcome/freedom-metal/src/drivers/riscv_cpu.c:260
    __METAL_IRQ_VECTOR_HANDLER(METAL_INTERRUPT_ID_LC9);
200131e4:	c8eff0ef          	jal	ra,20012672 <__metal_myhart_id>
200131e8:	872a                	mv	a4,a0
200131ea:	800017b7          	lui	a5,0x80001
200131ee:	070a                	slli	a4,a4,0x2
200131f0:	aa478793          	addi	a5,a5,-1372 # 80000aa4 <metal_segment_heap_target_end+0xfffff334>
200131f4:	97ba                	add	a5,a5,a4
200131f6:	439c                	lw	a5,0(a5)
200131f8:	faf42623          	sw	a5,-84(s0)
200131fc:	fac42783          	lw	a5,-84(s0)
20013200:	c78d                	beqz	a5,2001322a <metal_lc9_interrupt_vector_handler+0x6c>
C:/Users/nandg/Desktop/FE310-G003/sifive_hifive1_revb_sifive_welcome/freedom-metal/src/drivers/riscv_cpu.c:260 (discriminator 1)
20013202:	fac42503          	lw	a0,-84(s0)
20013206:	beeff0ef          	jal	ra,200125f4 <__metal_driver_cpu_interrupt_controller>
2001320a:	faa42423          	sw	a0,-88(s0)
2001320e:	fa842783          	lw	a5,-88(s0)
20013212:	2f07a783          	lw	a5,752(a5)
20013216:	faf42223          	sw	a5,-92(s0)
2001321a:	fa842783          	lw	a5,-88(s0)
2001321e:	2e87a783          	lw	a5,744(a5)
20013222:	fa442583          	lw	a1,-92(s0)
20013226:	4565                	li	a0,25
20013228:	9782                	jalr	a5
C:/Users/nandg/Desktop/FE310-G003/sifive_hifive1_revb_sifive_welcome/freedom-metal/src/drivers/riscv_cpu.c:261
}
2001322a:	0001                	nop
2001322c:	40f6                	lw	ra,92(sp)
2001322e:	42e6                	lw	t0,88(sp)
20013230:	4356                	lw	t1,84(sp)
20013232:	43c6                	lw	t2,80(sp)
20013234:	4436                	lw	s0,76(sp)
20013236:	4526                	lw	a0,72(sp)
20013238:	4596                	lw	a1,68(sp)
2001323a:	4606                	lw	a2,64(sp)
2001323c:	56f2                	lw	a3,60(sp)
2001323e:	5762                	lw	a4,56(sp)
20013240:	57d2                	lw	a5,52(sp)
20013242:	5842                	lw	a6,48(sp)
20013244:	58b2                	lw	a7,44(sp)
20013246:	5e22                	lw	t3,40(sp)
20013248:	5e92                	lw	t4,36(sp)
2001324a:	5f02                	lw	t5,32(sp)
2001324c:	4ff2                	lw	t6,28(sp)
2001324e:	6125                	addi	sp,sp,96
20013250:	30200073          	mret

20013254 <metal_lc10_interrupt_vector_handler>:
metal_lc10_interrupt_vector_handler():
C:/Users/nandg/Desktop/FE310-G003/sifive_hifive1_revb_sifive_welcome/freedom-metal/src/drivers/riscv_cpu.c:265

/* The metal_lc10_interrupt_vector_handler() function can be redefined. */
void __attribute__((weak, interrupt))
metal_lc10_interrupt_vector_handler(void) {
20013254:	711d                	addi	sp,sp,-96
20013256:	ce86                	sw	ra,92(sp)
20013258:	cc96                	sw	t0,88(sp)
2001325a:	ca9a                	sw	t1,84(sp)
2001325c:	c89e                	sw	t2,80(sp)
2001325e:	c6a2                	sw	s0,76(sp)
20013260:	c4aa                	sw	a0,72(sp)
20013262:	c2ae                	sw	a1,68(sp)
20013264:	c0b2                	sw	a2,64(sp)
20013266:	de36                	sw	a3,60(sp)
20013268:	dc3a                	sw	a4,56(sp)
2001326a:	da3e                	sw	a5,52(sp)
2001326c:	d842                	sw	a6,48(sp)
2001326e:	d646                	sw	a7,44(sp)
20013270:	d472                	sw	t3,40(sp)
20013272:	d276                	sw	t4,36(sp)
20013274:	d07a                	sw	t5,32(sp)
20013276:	ce7e                	sw	t6,28(sp)
20013278:	1080                	addi	s0,sp,96
C:/Users/nandg/Desktop/FE310-G003/sifive_hifive1_revb_sifive_welcome/freedom-metal/src/drivers/riscv_cpu.c:266
    __METAL_IRQ_VECTOR_HANDLER(METAL_INTERRUPT_ID_LC10);
2001327a:	bf8ff0ef          	jal	ra,20012672 <__metal_myhart_id>
2001327e:	872a                	mv	a4,a0
20013280:	800017b7          	lui	a5,0x80001
20013284:	070a                	slli	a4,a4,0x2
20013286:	aa478793          	addi	a5,a5,-1372 # 80000aa4 <metal_segment_heap_target_end+0xfffff334>
2001328a:	97ba                	add	a5,a5,a4
2001328c:	439c                	lw	a5,0(a5)
2001328e:	faf42623          	sw	a5,-84(s0)
20013292:	fac42783          	lw	a5,-84(s0)
20013296:	c78d                	beqz	a5,200132c0 <metal_lc10_interrupt_vector_handler+0x6c>
C:/Users/nandg/Desktop/FE310-G003/sifive_hifive1_revb_sifive_welcome/freedom-metal/src/drivers/riscv_cpu.c:266 (discriminator 1)
20013298:	fac42503          	lw	a0,-84(s0)
2001329c:	b58ff0ef          	jal	ra,200125f4 <__metal_driver_cpu_interrupt_controller>
200132a0:	faa42423          	sw	a0,-88(s0)
200132a4:	fa842783          	lw	a5,-88(s0)
200132a8:	3087a783          	lw	a5,776(a5)
200132ac:	faf42223          	sw	a5,-92(s0)
200132b0:	fa842783          	lw	a5,-88(s0)
200132b4:	3007a783          	lw	a5,768(a5)
200132b8:	fa442583          	lw	a1,-92(s0)
200132bc:	4569                	li	a0,26
200132be:	9782                	jalr	a5
C:/Users/nandg/Desktop/FE310-G003/sifive_hifive1_revb_sifive_welcome/freedom-metal/src/drivers/riscv_cpu.c:267
}
200132c0:	0001                	nop
200132c2:	40f6                	lw	ra,92(sp)
200132c4:	42e6                	lw	t0,88(sp)
200132c6:	4356                	lw	t1,84(sp)
200132c8:	43c6                	lw	t2,80(sp)
200132ca:	4436                	lw	s0,76(sp)
200132cc:	4526                	lw	a0,72(sp)
200132ce:	4596                	lw	a1,68(sp)
200132d0:	4606                	lw	a2,64(sp)
200132d2:	56f2                	lw	a3,60(sp)
200132d4:	5762                	lw	a4,56(sp)
200132d6:	57d2                	lw	a5,52(sp)
200132d8:	5842                	lw	a6,48(sp)
200132da:	58b2                	lw	a7,44(sp)
200132dc:	5e22                	lw	t3,40(sp)
200132de:	5e92                	lw	t4,36(sp)
200132e0:	5f02                	lw	t5,32(sp)
200132e2:	4ff2                	lw	t6,28(sp)
200132e4:	6125                	addi	sp,sp,96
200132e6:	30200073          	mret

200132ea <metal_lc11_interrupt_vector_handler>:
metal_lc11_interrupt_vector_handler():
C:/Users/nandg/Desktop/FE310-G003/sifive_hifive1_revb_sifive_welcome/freedom-metal/src/drivers/riscv_cpu.c:271

/* The metal_lc11_interrupt_vector_handler() function can be redefined. */
void __attribute__((weak, interrupt))
metal_lc11_interrupt_vector_handler(void) {
200132ea:	711d                	addi	sp,sp,-96
200132ec:	ce86                	sw	ra,92(sp)
200132ee:	cc96                	sw	t0,88(sp)
200132f0:	ca9a                	sw	t1,84(sp)
200132f2:	c89e                	sw	t2,80(sp)
200132f4:	c6a2                	sw	s0,76(sp)
200132f6:	c4aa                	sw	a0,72(sp)
200132f8:	c2ae                	sw	a1,68(sp)
200132fa:	c0b2                	sw	a2,64(sp)
200132fc:	de36                	sw	a3,60(sp)
200132fe:	dc3a                	sw	a4,56(sp)
20013300:	da3e                	sw	a5,52(sp)
20013302:	d842                	sw	a6,48(sp)
20013304:	d646                	sw	a7,44(sp)
20013306:	d472                	sw	t3,40(sp)
20013308:	d276                	sw	t4,36(sp)
2001330a:	d07a                	sw	t5,32(sp)
2001330c:	ce7e                	sw	t6,28(sp)
2001330e:	1080                	addi	s0,sp,96
C:/Users/nandg/Desktop/FE310-G003/sifive_hifive1_revb_sifive_welcome/freedom-metal/src/drivers/riscv_cpu.c:272
    __METAL_IRQ_VECTOR_HANDLER(METAL_INTERRUPT_ID_LC11);
20013310:	b62ff0ef          	jal	ra,20012672 <__metal_myhart_id>
20013314:	872a                	mv	a4,a0
20013316:	800017b7          	lui	a5,0x80001
2001331a:	070a                	slli	a4,a4,0x2
2001331c:	aa478793          	addi	a5,a5,-1372 # 80000aa4 <metal_segment_heap_target_end+0xfffff334>
20013320:	97ba                	add	a5,a5,a4
20013322:	439c                	lw	a5,0(a5)
20013324:	faf42623          	sw	a5,-84(s0)
20013328:	fac42783          	lw	a5,-84(s0)
2001332c:	c78d                	beqz	a5,20013356 <metal_lc11_interrupt_vector_handler+0x6c>
C:/Users/nandg/Desktop/FE310-G003/sifive_hifive1_revb_sifive_welcome/freedom-metal/src/drivers/riscv_cpu.c:272 (discriminator 1)
2001332e:	fac42503          	lw	a0,-84(s0)
20013332:	ac2ff0ef          	jal	ra,200125f4 <__metal_driver_cpu_interrupt_controller>
20013336:	faa42423          	sw	a0,-88(s0)
2001333a:	fa842783          	lw	a5,-88(s0)
2001333e:	3207a783          	lw	a5,800(a5)
20013342:	faf42223          	sw	a5,-92(s0)
20013346:	fa842783          	lw	a5,-88(s0)
2001334a:	3187a783          	lw	a5,792(a5)
2001334e:	fa442583          	lw	a1,-92(s0)
20013352:	456d                	li	a0,27
20013354:	9782                	jalr	a5
C:/Users/nandg/Desktop/FE310-G003/sifive_hifive1_revb_sifive_welcome/freedom-metal/src/drivers/riscv_cpu.c:273
}
20013356:	0001                	nop
20013358:	40f6                	lw	ra,92(sp)
2001335a:	42e6                	lw	t0,88(sp)
2001335c:	4356                	lw	t1,84(sp)
2001335e:	43c6                	lw	t2,80(sp)
20013360:	4436                	lw	s0,76(sp)
20013362:	4526                	lw	a0,72(sp)
20013364:	4596                	lw	a1,68(sp)
20013366:	4606                	lw	a2,64(sp)
20013368:	56f2                	lw	a3,60(sp)
2001336a:	5762                	lw	a4,56(sp)
2001336c:	57d2                	lw	a5,52(sp)
2001336e:	5842                	lw	a6,48(sp)
20013370:	58b2                	lw	a7,44(sp)
20013372:	5e22                	lw	t3,40(sp)
20013374:	5e92                	lw	t4,36(sp)
20013376:	5f02                	lw	t5,32(sp)
20013378:	4ff2                	lw	t6,28(sp)
2001337a:	6125                	addi	sp,sp,96
2001337c:	30200073          	mret

20013380 <metal_lc12_interrupt_vector_handler>:
metal_lc12_interrupt_vector_handler():
C:/Users/nandg/Desktop/FE310-G003/sifive_hifive1_revb_sifive_welcome/freedom-metal/src/drivers/riscv_cpu.c:277

/* The metal_lc12_interrupt_vector_handler() function can be redefined. */
void __attribute__((weak, interrupt))
metal_lc12_interrupt_vector_handler(void) {
20013380:	711d                	addi	sp,sp,-96
20013382:	ce86                	sw	ra,92(sp)
20013384:	cc96                	sw	t0,88(sp)
20013386:	ca9a                	sw	t1,84(sp)
20013388:	c89e                	sw	t2,80(sp)
2001338a:	c6a2                	sw	s0,76(sp)
2001338c:	c4aa                	sw	a0,72(sp)
2001338e:	c2ae                	sw	a1,68(sp)
20013390:	c0b2                	sw	a2,64(sp)
20013392:	de36                	sw	a3,60(sp)
20013394:	dc3a                	sw	a4,56(sp)
20013396:	da3e                	sw	a5,52(sp)
20013398:	d842                	sw	a6,48(sp)
2001339a:	d646                	sw	a7,44(sp)
2001339c:	d472                	sw	t3,40(sp)
2001339e:	d276                	sw	t4,36(sp)
200133a0:	d07a                	sw	t5,32(sp)
200133a2:	ce7e                	sw	t6,28(sp)
200133a4:	1080                	addi	s0,sp,96
C:/Users/nandg/Desktop/FE310-G003/sifive_hifive1_revb_sifive_welcome/freedom-metal/src/drivers/riscv_cpu.c:278
    __METAL_IRQ_VECTOR_HANDLER(METAL_INTERRUPT_ID_LC12);
200133a6:	accff0ef          	jal	ra,20012672 <__metal_myhart_id>
200133aa:	872a                	mv	a4,a0
200133ac:	800017b7          	lui	a5,0x80001
200133b0:	070a                	slli	a4,a4,0x2
200133b2:	aa478793          	addi	a5,a5,-1372 # 80000aa4 <metal_segment_heap_target_end+0xfffff334>
200133b6:	97ba                	add	a5,a5,a4
200133b8:	439c                	lw	a5,0(a5)
200133ba:	faf42623          	sw	a5,-84(s0)
200133be:	fac42783          	lw	a5,-84(s0)
200133c2:	c78d                	beqz	a5,200133ec <metal_lc12_interrupt_vector_handler+0x6c>
C:/Users/nandg/Desktop/FE310-G003/sifive_hifive1_revb_sifive_welcome/freedom-metal/src/drivers/riscv_cpu.c:278 (discriminator 1)
200133c4:	fac42503          	lw	a0,-84(s0)
200133c8:	a2cff0ef          	jal	ra,200125f4 <__metal_driver_cpu_interrupt_controller>
200133cc:	faa42423          	sw	a0,-88(s0)
200133d0:	fa842783          	lw	a5,-88(s0)
200133d4:	3387a783          	lw	a5,824(a5)
200133d8:	faf42223          	sw	a5,-92(s0)
200133dc:	fa842783          	lw	a5,-88(s0)
200133e0:	3307a783          	lw	a5,816(a5)
200133e4:	fa442583          	lw	a1,-92(s0)
200133e8:	4571                	li	a0,28
200133ea:	9782                	jalr	a5
C:/Users/nandg/Desktop/FE310-G003/sifive_hifive1_revb_sifive_welcome/freedom-metal/src/drivers/riscv_cpu.c:279
}
200133ec:	0001                	nop
200133ee:	40f6                	lw	ra,92(sp)
200133f0:	42e6                	lw	t0,88(sp)
200133f2:	4356                	lw	t1,84(sp)
200133f4:	43c6                	lw	t2,80(sp)
200133f6:	4436                	lw	s0,76(sp)
200133f8:	4526                	lw	a0,72(sp)
200133fa:	4596                	lw	a1,68(sp)
200133fc:	4606                	lw	a2,64(sp)
200133fe:	56f2                	lw	a3,60(sp)
20013400:	5762                	lw	a4,56(sp)
20013402:	57d2                	lw	a5,52(sp)
20013404:	5842                	lw	a6,48(sp)
20013406:	58b2                	lw	a7,44(sp)
20013408:	5e22                	lw	t3,40(sp)
2001340a:	5e92                	lw	t4,36(sp)
2001340c:	5f02                	lw	t5,32(sp)
2001340e:	4ff2                	lw	t6,28(sp)
20013410:	6125                	addi	sp,sp,96
20013412:	30200073          	mret

20013416 <metal_lc13_interrupt_vector_handler>:
metal_lc13_interrupt_vector_handler():
C:/Users/nandg/Desktop/FE310-G003/sifive_hifive1_revb_sifive_welcome/freedom-metal/src/drivers/riscv_cpu.c:283

/* The metal_lc13_interrupt_vector_handler() function can be redefined. */
void __attribute__((weak, interrupt))
metal_lc13_interrupt_vector_handler(void) {
20013416:	711d                	addi	sp,sp,-96
20013418:	ce86                	sw	ra,92(sp)
2001341a:	cc96                	sw	t0,88(sp)
2001341c:	ca9a                	sw	t1,84(sp)
2001341e:	c89e                	sw	t2,80(sp)
20013420:	c6a2                	sw	s0,76(sp)
20013422:	c4aa                	sw	a0,72(sp)
20013424:	c2ae                	sw	a1,68(sp)
20013426:	c0b2                	sw	a2,64(sp)
20013428:	de36                	sw	a3,60(sp)
2001342a:	dc3a                	sw	a4,56(sp)
2001342c:	da3e                	sw	a5,52(sp)
2001342e:	d842                	sw	a6,48(sp)
20013430:	d646                	sw	a7,44(sp)
20013432:	d472                	sw	t3,40(sp)
20013434:	d276                	sw	t4,36(sp)
20013436:	d07a                	sw	t5,32(sp)
20013438:	ce7e                	sw	t6,28(sp)
2001343a:	1080                	addi	s0,sp,96
C:/Users/nandg/Desktop/FE310-G003/sifive_hifive1_revb_sifive_welcome/freedom-metal/src/drivers/riscv_cpu.c:284
    __METAL_IRQ_VECTOR_HANDLER(METAL_INTERRUPT_ID_LC13);
2001343c:	a36ff0ef          	jal	ra,20012672 <__metal_myhart_id>
20013440:	872a                	mv	a4,a0
20013442:	800017b7          	lui	a5,0x80001
20013446:	070a                	slli	a4,a4,0x2
20013448:	aa478793          	addi	a5,a5,-1372 # 80000aa4 <metal_segment_heap_target_end+0xfffff334>
2001344c:	97ba                	add	a5,a5,a4
2001344e:	439c                	lw	a5,0(a5)
20013450:	faf42623          	sw	a5,-84(s0)
20013454:	fac42783          	lw	a5,-84(s0)
20013458:	c78d                	beqz	a5,20013482 <metal_lc13_interrupt_vector_handler+0x6c>
C:/Users/nandg/Desktop/FE310-G003/sifive_hifive1_revb_sifive_welcome/freedom-metal/src/drivers/riscv_cpu.c:284 (discriminator 1)
2001345a:	fac42503          	lw	a0,-84(s0)
2001345e:	996ff0ef          	jal	ra,200125f4 <__metal_driver_cpu_interrupt_controller>
20013462:	faa42423          	sw	a0,-88(s0)
20013466:	fa842783          	lw	a5,-88(s0)
2001346a:	3507a783          	lw	a5,848(a5)
2001346e:	faf42223          	sw	a5,-92(s0)
20013472:	fa842783          	lw	a5,-88(s0)
20013476:	3487a783          	lw	a5,840(a5)
2001347a:	fa442583          	lw	a1,-92(s0)
2001347e:	4575                	li	a0,29
20013480:	9782                	jalr	a5
C:/Users/nandg/Desktop/FE310-G003/sifive_hifive1_revb_sifive_welcome/freedom-metal/src/drivers/riscv_cpu.c:285
}
20013482:	0001                	nop
20013484:	40f6                	lw	ra,92(sp)
20013486:	42e6                	lw	t0,88(sp)
20013488:	4356                	lw	t1,84(sp)
2001348a:	43c6                	lw	t2,80(sp)
2001348c:	4436                	lw	s0,76(sp)
2001348e:	4526                	lw	a0,72(sp)
20013490:	4596                	lw	a1,68(sp)
20013492:	4606                	lw	a2,64(sp)
20013494:	56f2                	lw	a3,60(sp)
20013496:	5762                	lw	a4,56(sp)
20013498:	57d2                	lw	a5,52(sp)
2001349a:	5842                	lw	a6,48(sp)
2001349c:	58b2                	lw	a7,44(sp)
2001349e:	5e22                	lw	t3,40(sp)
200134a0:	5e92                	lw	t4,36(sp)
200134a2:	5f02                	lw	t5,32(sp)
200134a4:	4ff2                	lw	t6,28(sp)
200134a6:	6125                	addi	sp,sp,96
200134a8:	30200073          	mret

200134ac <metal_lc14_interrupt_vector_handler>:
metal_lc14_interrupt_vector_handler():
C:/Users/nandg/Desktop/FE310-G003/sifive_hifive1_revb_sifive_welcome/freedom-metal/src/drivers/riscv_cpu.c:289

/* The metal_lc14_interrupt_vector_handler() function can be redefined. */
void __attribute__((weak, interrupt))
metal_lc14_interrupt_vector_handler(void) {
200134ac:	711d                	addi	sp,sp,-96
200134ae:	ce86                	sw	ra,92(sp)
200134b0:	cc96                	sw	t0,88(sp)
200134b2:	ca9a                	sw	t1,84(sp)
200134b4:	c89e                	sw	t2,80(sp)
200134b6:	c6a2                	sw	s0,76(sp)
200134b8:	c4aa                	sw	a0,72(sp)
200134ba:	c2ae                	sw	a1,68(sp)
200134bc:	c0b2                	sw	a2,64(sp)
200134be:	de36                	sw	a3,60(sp)
200134c0:	dc3a                	sw	a4,56(sp)
200134c2:	da3e                	sw	a5,52(sp)
200134c4:	d842                	sw	a6,48(sp)
200134c6:	d646                	sw	a7,44(sp)
200134c8:	d472                	sw	t3,40(sp)
200134ca:	d276                	sw	t4,36(sp)
200134cc:	d07a                	sw	t5,32(sp)
200134ce:	ce7e                	sw	t6,28(sp)
200134d0:	1080                	addi	s0,sp,96
C:/Users/nandg/Desktop/FE310-G003/sifive_hifive1_revb_sifive_welcome/freedom-metal/src/drivers/riscv_cpu.c:290
    __METAL_IRQ_VECTOR_HANDLER(METAL_INTERRUPT_ID_LC14);
200134d2:	9a0ff0ef          	jal	ra,20012672 <__metal_myhart_id>
200134d6:	872a                	mv	a4,a0
200134d8:	800017b7          	lui	a5,0x80001
200134dc:	070a                	slli	a4,a4,0x2
200134de:	aa478793          	addi	a5,a5,-1372 # 80000aa4 <metal_segment_heap_target_end+0xfffff334>
200134e2:	97ba                	add	a5,a5,a4
200134e4:	439c                	lw	a5,0(a5)
200134e6:	faf42623          	sw	a5,-84(s0)
200134ea:	fac42783          	lw	a5,-84(s0)
200134ee:	c78d                	beqz	a5,20013518 <metal_lc14_interrupt_vector_handler+0x6c>
C:/Users/nandg/Desktop/FE310-G003/sifive_hifive1_revb_sifive_welcome/freedom-metal/src/drivers/riscv_cpu.c:290 (discriminator 1)
200134f0:	fac42503          	lw	a0,-84(s0)
200134f4:	900ff0ef          	jal	ra,200125f4 <__metal_driver_cpu_interrupt_controller>
200134f8:	faa42423          	sw	a0,-88(s0)
200134fc:	fa842783          	lw	a5,-88(s0)
20013500:	3687a783          	lw	a5,872(a5)
20013504:	faf42223          	sw	a5,-92(s0)
20013508:	fa842783          	lw	a5,-88(s0)
2001350c:	3607a783          	lw	a5,864(a5)
20013510:	fa442583          	lw	a1,-92(s0)
20013514:	4579                	li	a0,30
20013516:	9782                	jalr	a5
C:/Users/nandg/Desktop/FE310-G003/sifive_hifive1_revb_sifive_welcome/freedom-metal/src/drivers/riscv_cpu.c:291
}
20013518:	0001                	nop
2001351a:	40f6                	lw	ra,92(sp)
2001351c:	42e6                	lw	t0,88(sp)
2001351e:	4356                	lw	t1,84(sp)
20013520:	43c6                	lw	t2,80(sp)
20013522:	4436                	lw	s0,76(sp)
20013524:	4526                	lw	a0,72(sp)
20013526:	4596                	lw	a1,68(sp)
20013528:	4606                	lw	a2,64(sp)
2001352a:	56f2                	lw	a3,60(sp)
2001352c:	5762                	lw	a4,56(sp)
2001352e:	57d2                	lw	a5,52(sp)
20013530:	5842                	lw	a6,48(sp)
20013532:	58b2                	lw	a7,44(sp)
20013534:	5e22                	lw	t3,40(sp)
20013536:	5e92                	lw	t4,36(sp)
20013538:	5f02                	lw	t5,32(sp)
2001353a:	4ff2                	lw	t6,28(sp)
2001353c:	6125                	addi	sp,sp,96
2001353e:	30200073          	mret

20013542 <metal_lc15_interrupt_vector_handler>:
metal_lc15_interrupt_vector_handler():
C:/Users/nandg/Desktop/FE310-G003/sifive_hifive1_revb_sifive_welcome/freedom-metal/src/drivers/riscv_cpu.c:295

/* The metal_lc15_interrupt_vector_handler() function can be redefined. */
void __attribute__((weak, interrupt))
metal_lc15_interrupt_vector_handler(void) {
20013542:	711d                	addi	sp,sp,-96
20013544:	ce86                	sw	ra,92(sp)
20013546:	cc96                	sw	t0,88(sp)
20013548:	ca9a                	sw	t1,84(sp)
2001354a:	c89e                	sw	t2,80(sp)
2001354c:	c6a2                	sw	s0,76(sp)
2001354e:	c4aa                	sw	a0,72(sp)
20013550:	c2ae                	sw	a1,68(sp)
20013552:	c0b2                	sw	a2,64(sp)
20013554:	de36                	sw	a3,60(sp)
20013556:	dc3a                	sw	a4,56(sp)
20013558:	da3e                	sw	a5,52(sp)
2001355a:	d842                	sw	a6,48(sp)
2001355c:	d646                	sw	a7,44(sp)
2001355e:	d472                	sw	t3,40(sp)
20013560:	d276                	sw	t4,36(sp)
20013562:	d07a                	sw	t5,32(sp)
20013564:	ce7e                	sw	t6,28(sp)
20013566:	1080                	addi	s0,sp,96
C:/Users/nandg/Desktop/FE310-G003/sifive_hifive1_revb_sifive_welcome/freedom-metal/src/drivers/riscv_cpu.c:296
    __METAL_IRQ_VECTOR_HANDLER(METAL_INTERRUPT_ID_LC15);
20013568:	90aff0ef          	jal	ra,20012672 <__metal_myhart_id>
2001356c:	872a                	mv	a4,a0
2001356e:	800017b7          	lui	a5,0x80001
20013572:	070a                	slli	a4,a4,0x2
20013574:	aa478793          	addi	a5,a5,-1372 # 80000aa4 <metal_segment_heap_target_end+0xfffff334>
20013578:	97ba                	add	a5,a5,a4
2001357a:	439c                	lw	a5,0(a5)
2001357c:	faf42623          	sw	a5,-84(s0)
20013580:	fac42783          	lw	a5,-84(s0)
20013584:	c78d                	beqz	a5,200135ae <metal_lc15_interrupt_vector_handler+0x6c>
C:/Users/nandg/Desktop/FE310-G003/sifive_hifive1_revb_sifive_welcome/freedom-metal/src/drivers/riscv_cpu.c:296 (discriminator 1)
20013586:	fac42503          	lw	a0,-84(s0)
2001358a:	86aff0ef          	jal	ra,200125f4 <__metal_driver_cpu_interrupt_controller>
2001358e:	faa42423          	sw	a0,-88(s0)
20013592:	fa842783          	lw	a5,-88(s0)
20013596:	3807a783          	lw	a5,896(a5)
2001359a:	faf42223          	sw	a5,-92(s0)
2001359e:	fa842783          	lw	a5,-88(s0)
200135a2:	3787a783          	lw	a5,888(a5)
200135a6:	fa442583          	lw	a1,-92(s0)
200135aa:	457d                	li	a0,31
200135ac:	9782                	jalr	a5
C:/Users/nandg/Desktop/FE310-G003/sifive_hifive1_revb_sifive_welcome/freedom-metal/src/drivers/riscv_cpu.c:297
}
200135ae:	0001                	nop
200135b0:	40f6                	lw	ra,92(sp)
200135b2:	42e6                	lw	t0,88(sp)
200135b4:	4356                	lw	t1,84(sp)
200135b6:	43c6                	lw	t2,80(sp)
200135b8:	4436                	lw	s0,76(sp)
200135ba:	4526                	lw	a0,72(sp)
200135bc:	4596                	lw	a1,68(sp)
200135be:	4606                	lw	a2,64(sp)
200135c0:	56f2                	lw	a3,60(sp)
200135c2:	5762                	lw	a4,56(sp)
200135c4:	57d2                	lw	a5,52(sp)
200135c6:	5842                	lw	a6,48(sp)
200135c8:	58b2                	lw	a7,44(sp)
200135ca:	5e22                	lw	t3,40(sp)
200135cc:	5e92                	lw	t4,36(sp)
200135ce:	5f02                	lw	t5,32(sp)
200135d0:	4ff2                	lw	t6,28(sp)
200135d2:	6125                	addi	sp,sp,96
200135d4:	30200073          	mret

200135d8 <__metal_controller_interrupt_vector_mode>:
__metal_controller_interrupt_vector_mode():
C:/Users/nandg/Desktop/FE310-G003/sifive_hifive1_revb_sifive_welcome/freedom-metal/src/drivers/riscv_cpu.c:299

metal_vector_mode __metal_controller_interrupt_vector_mode(void) {
200135d8:	1101                	addi	sp,sp,-32
200135da:	ce22                	sw	s0,28(sp)
200135dc:	1000                	addi	s0,sp,32
C:/Users/nandg/Desktop/FE310-G003/sifive_hifive1_revb_sifive_welcome/freedom-metal/src/drivers/riscv_cpu.c:302
    uintptr_t val;

    __asm__ volatile("csrr %0, mtvec" : "=r"(val));
200135de:	305027f3          	csrr	a5,mtvec
200135e2:	fef42623          	sw	a5,-20(s0)
C:/Users/nandg/Desktop/FE310-G003/sifive_hifive1_revb_sifive_welcome/freedom-metal/src/drivers/riscv_cpu.c:303
    val &= METAL_MTVEC_MASK;
200135e6:	fec42783          	lw	a5,-20(s0)
200135ea:	03f7f793          	andi	a5,a5,63
200135ee:	fef42623          	sw	a5,-20(s0)
C:/Users/nandg/Desktop/FE310-G003/sifive_hifive1_revb_sifive_welcome/freedom-metal/src/drivers/riscv_cpu.c:305

    switch (val) {
200135f2:	fec42703          	lw	a4,-20(s0)
200135f6:	478d                	li	a5,3
200135f8:	02f70363          	beq	a4,a5,2001361e <__metal_controller_interrupt_vector_mode+0x46>
200135fc:	fec42703          	lw	a4,-20(s0)
20013600:	478d                	li	a5,3
20013602:	02e7e263          	bltu	a5,a4,20013626 <__metal_controller_interrupt_vector_mode+0x4e>
20013606:	fec42703          	lw	a4,-20(s0)
2001360a:	4785                	li	a5,1
2001360c:	00f70b63          	beq	a4,a5,20013622 <__metal_controller_interrupt_vector_mode+0x4a>
20013610:	fec42703          	lw	a4,-20(s0)
20013614:	4789                	li	a5,2
20013616:	00f71863          	bne	a4,a5,20013626 <__metal_controller_interrupt_vector_mode+0x4e>
C:/Users/nandg/Desktop/FE310-G003/sifive_hifive1_revb_sifive_welcome/freedom-metal/src/drivers/riscv_cpu.c:307
    case METAL_MTVEC_CLIC:
        return METAL_SELECTIVE_VECTOR_MODE;
2001361a:	478d                	li	a5,3
2001361c:	a031                	j	20013628 <__metal_controller_interrupt_vector_mode+0x50>
C:/Users/nandg/Desktop/FE310-G003/sifive_hifive1_revb_sifive_welcome/freedom-metal/src/drivers/riscv_cpu.c:309
    case METAL_MTVEC_CLIC_VECTORED:
        return METAL_HARDWARE_VECTOR_MODE;
2001361e:	4791                	li	a5,4
20013620:	a021                	j	20013628 <__metal_controller_interrupt_vector_mode+0x50>
C:/Users/nandg/Desktop/FE310-G003/sifive_hifive1_revb_sifive_welcome/freedom-metal/src/drivers/riscv_cpu.c:311
    case METAL_MTVEC_VECTORED:
        return METAL_VECTOR_MODE;
20013622:	4785                	li	a5,1
20013624:	a011                	j	20013628 <__metal_controller_interrupt_vector_mode+0x50>
C:/Users/nandg/Desktop/FE310-G003/sifive_hifive1_revb_sifive_welcome/freedom-metal/src/drivers/riscv_cpu.c:313
    }
    return METAL_DIRECT_MODE;
20013626:	4781                	li	a5,0
C:/Users/nandg/Desktop/FE310-G003/sifive_hifive1_revb_sifive_welcome/freedom-metal/src/drivers/riscv_cpu.c:314
}
20013628:	853e                	mv	a0,a5
2001362a:	4472                	lw	s0,28(sp)
2001362c:	6105                	addi	sp,sp,32
2001362e:	8082                	ret

20013630 <__metal_controller_interrupt_vector>:
__metal_controller_interrupt_vector():
C:/Users/nandg/Desktop/FE310-G003/sifive_hifive1_revb_sifive_welcome/freedom-metal/src/drivers/riscv_cpu.c:317

void __metal_controller_interrupt_vector(metal_vector_mode mode,
                                         void *vec_table) {
20013630:	7179                	addi	sp,sp,-48
20013632:	d622                	sw	s0,44(sp)
20013634:	1800                	addi	s0,sp,48
20013636:	fca42e23          	sw	a0,-36(s0)
2001363a:	fcb42c23          	sw	a1,-40(s0)
C:/Users/nandg/Desktop/FE310-G003/sifive_hifive1_revb_sifive_welcome/freedom-metal/src/drivers/riscv_cpu.c:320
    uintptr_t trap_entry, val;

    __asm__ volatile("csrr %0, mtvec" : "=r"(val));
2001363e:	305027f3          	csrr	a5,mtvec
20013642:	fef42623          	sw	a5,-20(s0)
C:/Users/nandg/Desktop/FE310-G003/sifive_hifive1_revb_sifive_welcome/freedom-metal/src/drivers/riscv_cpu.c:321
    val &= ~(METAL_MTVEC_CLIC_VECTORED | METAL_MTVEC_CLIC_RESERVED);
20013646:	fec42783          	lw	a5,-20(s0)
2001364a:	fc07f793          	andi	a5,a5,-64
2001364e:	fef42623          	sw	a5,-20(s0)
C:/Users/nandg/Desktop/FE310-G003/sifive_hifive1_revb_sifive_welcome/freedom-metal/src/drivers/riscv_cpu.c:322
    trap_entry = (uintptr_t)vec_table;
20013652:	fd842783          	lw	a5,-40(s0)
20013656:	fef42423          	sw	a5,-24(s0)
C:/Users/nandg/Desktop/FE310-G003/sifive_hifive1_revb_sifive_welcome/freedom-metal/src/drivers/riscv_cpu.c:324

    switch (mode) {
2001365a:	fdc42703          	lw	a4,-36(s0)
2001365e:	4791                	li	a5,4
20013660:	04f70563          	beq	a4,a5,200136aa <__metal_controller_interrupt_vector+0x7a>
20013664:	fdc42703          	lw	a4,-36(s0)
20013668:	4791                	li	a5,4
2001366a:	06e7e863          	bltu	a5,a4,200136da <__metal_controller_interrupt_vector+0xaa>
2001366e:	fdc42703          	lw	a4,-36(s0)
20013672:	478d                	li	a5,3
20013674:	06e7e363          	bltu	a5,a4,200136da <__metal_controller_interrupt_vector+0xaa>
20013678:	fdc42703          	lw	a4,-36(s0)
2001367c:	4789                	li	a5,2
2001367e:	00f77b63          	bgeu	a4,a5,20013694 <__metal_controller_interrupt_vector+0x64>
20013682:	fdc42783          	lw	a5,-36(s0)
20013686:	c7a1                	beqz	a5,200136ce <__metal_controller_interrupt_vector+0x9e>
20013688:	fdc42703          	lw	a4,-36(s0)
2001368c:	4785                	li	a5,1
2001368e:	02f70963          	beq	a4,a5,200136c0 <__metal_controller_interrupt_vector+0x90>
C:/Users/nandg/Desktop/FE310-G003/sifive_hifive1_revb_sifive_welcome/freedom-metal/src/drivers/riscv_cpu.c:344
    case METAL_DIRECT_MODE:
        __asm__ volatile(
            "csrw mtvec, %0" ::"r"(trap_entry & ~METAL_MTVEC_CLIC_VECTORED));
        break;
    }
}
20013692:	a0a1                	j	200136da <__metal_controller_interrupt_vector+0xaa>
C:/Users/nandg/Desktop/FE310-G003/sifive_hifive1_revb_sifive_welcome/freedom-metal/src/drivers/riscv_cpu.c:327
        __asm__ volatile("csrw 0x307, %0" ::"r"(trap_entry));
20013694:	fe842783          	lw	a5,-24(s0)
20013698:	30779073          	csrw	mtvt,a5
C:/Users/nandg/Desktop/FE310-G003/sifive_hifive1_revb_sifive_welcome/freedom-metal/src/drivers/riscv_cpu.c:328
        __asm__ volatile("csrw mtvec, %0" ::"r"(val | METAL_MTVEC_CLIC));
2001369c:	fec42783          	lw	a5,-20(s0)
200136a0:	0027e793          	ori	a5,a5,2
200136a4:	30579073          	csrw	mtvec,a5
C:/Users/nandg/Desktop/FE310-G003/sifive_hifive1_revb_sifive_welcome/freedom-metal/src/drivers/riscv_cpu.c:329
        break;
200136a8:	a80d                	j	200136da <__metal_controller_interrupt_vector+0xaa>
C:/Users/nandg/Desktop/FE310-G003/sifive_hifive1_revb_sifive_welcome/freedom-metal/src/drivers/riscv_cpu.c:331
        __asm__ volatile("csrw 0x307, %0" ::"r"(trap_entry));
200136aa:	fe842783          	lw	a5,-24(s0)
200136ae:	30779073          	csrw	mtvt,a5
C:/Users/nandg/Desktop/FE310-G003/sifive_hifive1_revb_sifive_welcome/freedom-metal/src/drivers/riscv_cpu.c:333
            "csrw mtvec, %0" ::"r"(val | METAL_MTVEC_CLIC_VECTORED));
200136b2:	fec42783          	lw	a5,-20(s0)
200136b6:	0037e793          	ori	a5,a5,3
C:/Users/nandg/Desktop/FE310-G003/sifive_hifive1_revb_sifive_welcome/freedom-metal/src/drivers/riscv_cpu.c:332
        __asm__ volatile(
200136ba:	30579073          	csrw	mtvec,a5
C:/Users/nandg/Desktop/FE310-G003/sifive_hifive1_revb_sifive_welcome/freedom-metal/src/drivers/riscv_cpu.c:334
        break;
200136be:	a831                	j	200136da <__metal_controller_interrupt_vector+0xaa>
C:/Users/nandg/Desktop/FE310-G003/sifive_hifive1_revb_sifive_welcome/freedom-metal/src/drivers/riscv_cpu.c:337
            "csrw mtvec, %0" ::"r"(trap_entry | METAL_MTVEC_VECTORED));
200136c0:	fe842783          	lw	a5,-24(s0)
200136c4:	0017e793          	ori	a5,a5,1
C:/Users/nandg/Desktop/FE310-G003/sifive_hifive1_revb_sifive_welcome/freedom-metal/src/drivers/riscv_cpu.c:336
        __asm__ volatile(
200136c8:	30579073          	csrw	mtvec,a5
C:/Users/nandg/Desktop/FE310-G003/sifive_hifive1_revb_sifive_welcome/freedom-metal/src/drivers/riscv_cpu.c:338
        break;
200136cc:	a039                	j	200136da <__metal_controller_interrupt_vector+0xaa>
C:/Users/nandg/Desktop/FE310-G003/sifive_hifive1_revb_sifive_welcome/freedom-metal/src/drivers/riscv_cpu.c:341
            "csrw mtvec, %0" ::"r"(trap_entry & ~METAL_MTVEC_CLIC_VECTORED));
200136ce:	fe842783          	lw	a5,-24(s0)
200136d2:	9bf1                	andi	a5,a5,-4
C:/Users/nandg/Desktop/FE310-G003/sifive_hifive1_revb_sifive_welcome/freedom-metal/src/drivers/riscv_cpu.c:340
        __asm__ volatile(
200136d4:	30579073          	csrw	mtvec,a5
C:/Users/nandg/Desktop/FE310-G003/sifive_hifive1_revb_sifive_welcome/freedom-metal/src/drivers/riscv_cpu.c:342
        break;
200136d8:	0001                	nop
C:/Users/nandg/Desktop/FE310-G003/sifive_hifive1_revb_sifive_welcome/freedom-metal/src/drivers/riscv_cpu.c:344
}
200136da:	0001                	nop
200136dc:	5432                	lw	s0,44(sp)
200136de:	6145                	addi	sp,sp,48
200136e0:	8082                	ret

200136e2 <__metal_valid_interrupt_id>:
__metal_valid_interrupt_id():
C:/Users/nandg/Desktop/FE310-G003/sifive_hifive1_revb_sifive_welcome/freedom-metal/src/drivers/riscv_cpu.c:346

int __metal_valid_interrupt_id(int id) {
200136e2:	1101                	addi	sp,sp,-32
200136e4:	ce22                	sw	s0,28(sp)
200136e6:	1000                	addi	s0,sp,32
200136e8:	fea42623          	sw	a0,-20(s0)
C:/Users/nandg/Desktop/FE310-G003/sifive_hifive1_revb_sifive_welcome/freedom-metal/src/drivers/riscv_cpu.c:347
    switch (id) {
200136ec:	fec42703          	lw	a4,-20(s0)
200136f0:	47fd                	li	a5,31
200136f2:	02e7c663          	blt	a5,a4,2001371e <__metal_valid_interrupt_id+0x3c>
200136f6:	fec42703          	lw	a4,-20(s0)
200136fa:	478d                	li	a5,3
200136fc:	02f74963          	blt	a4,a5,2001372e <__metal_valid_interrupt_id+0x4c>
20013700:	fec42783          	lw	a5,-20(s0)
20013704:	4705                	li	a4,1
20013706:	00f71733          	sll	a4,a4,a5
2001370a:	77c5                	lui	a5,0xffff1
2001370c:	88878793          	addi	a5,a5,-1912 # ffff0888 <metal_segment_heap_target_end+0x7ffef118>
20013710:	8ff9                	and	a5,a5,a4
20013712:	00f037b3          	snez	a5,a5
20013716:	0ff7f793          	zext.b	a5,a5
2001371a:	eb81                	bnez	a5,2001372a <__metal_valid_interrupt_id+0x48>
C:/Users/nandg/Desktop/FE310-G003/sifive_hifive1_revb_sifive_welcome/freedom-metal/src/drivers/riscv_cpu.c:370
    case METAL_INTERRUPT_ID_LC14:
    case METAL_INTERRUPT_ID_LC15:
    case METAL_INTERRUPT_ID_BEU:
        return 1;
    default:
        break;
2001371c:	a809                	j	2001372e <__metal_valid_interrupt_id+0x4c>
C:/Users/nandg/Desktop/FE310-G003/sifive_hifive1_revb_sifive_welcome/freedom-metal/src/drivers/riscv_cpu.c:347
    switch (id) {
2001371e:	fec42703          	lw	a4,-20(s0)
20013722:	08000793          	li	a5,128
20013726:	00f71463          	bne	a4,a5,2001372e <__metal_valid_interrupt_id+0x4c>
C:/Users/nandg/Desktop/FE310-G003/sifive_hifive1_revb_sifive_welcome/freedom-metal/src/drivers/riscv_cpu.c:368
        return 1;
2001372a:	4785                	li	a5,1
2001372c:	a019                	j	20013732 <__metal_valid_interrupt_id+0x50>
C:/Users/nandg/Desktop/FE310-G003/sifive_hifive1_revb_sifive_welcome/freedom-metal/src/drivers/riscv_cpu.c:370
        break;
2001372e:	0001                	nop
C:/Users/nandg/Desktop/FE310-G003/sifive_hifive1_revb_sifive_welcome/freedom-metal/src/drivers/riscv_cpu.c:373
    }

    return 0;
20013730:	4781                	li	a5,0
C:/Users/nandg/Desktop/FE310-G003/sifive_hifive1_revb_sifive_welcome/freedom-metal/src/drivers/riscv_cpu.c:374
}
20013732:	853e                	mv	a0,a5
20013734:	4472                	lw	s0,28(sp)
20013736:	6105                	addi	sp,sp,32
20013738:	8082                	ret

2001373a <__metal_local_interrupt_enable>:
__metal_local_interrupt_enable():
C:/Users/nandg/Desktop/FE310-G003/sifive_hifive1_revb_sifive_welcome/freedom-metal/src/drivers/riscv_cpu.c:377

int __metal_local_interrupt_enable(struct metal_interrupt *controller,
                                   metal_interrupt_id_e id, int enable) {
2001373a:	7179                	addi	sp,sp,-48
2001373c:	d606                	sw	ra,44(sp)
2001373e:	d422                	sw	s0,40(sp)
20013740:	1800                	addi	s0,sp,48
20013742:	fca42e23          	sw	a0,-36(s0)
20013746:	fcb42c23          	sw	a1,-40(s0)
2001374a:	fcc42a23          	sw	a2,-44(s0)
C:/Users/nandg/Desktop/FE310-G003/sifive_hifive1_revb_sifive_welcome/freedom-metal/src/drivers/riscv_cpu.c:378
    int rc = 0;
2001374e:	fe042623          	sw	zero,-20(s0)
C:/Users/nandg/Desktop/FE310-G003/sifive_hifive1_revb_sifive_welcome/freedom-metal/src/drivers/riscv_cpu.c:380

    if (!controller) {
20013752:	fdc42783          	lw	a5,-36(s0)
20013756:	e399                	bnez	a5,2001375c <__metal_local_interrupt_enable+0x22>
C:/Users/nandg/Desktop/FE310-G003/sifive_hifive1_revb_sifive_welcome/freedom-metal/src/drivers/riscv_cpu.c:381
        return -1;
20013758:	57fd                	li	a5,-1
2001375a:	a849                	j	200137ec <__metal_local_interrupt_enable+0xb2>
2001375c:	fd842703          	lw	a4,-40(s0)
20013760:	47fd                	li	a5,31
20013762:	08e7e063          	bltu	a5,a4,200137e2 <__metal_local_interrupt_enable+0xa8>
20013766:	fd842783          	lw	a5,-40(s0)
2001376a:	00279713          	slli	a4,a5,0x2
2001376e:	200107b7          	lui	a5,0x20010
20013772:	45c78793          	addi	a5,a5,1116 # 2001045c <__metal_driver_vtable_riscv_clint0+0x64>
20013776:	97ba                	add	a5,a5,a4
20013778:	439c                	lw	a5,0(a5)
2001377a:	8782                	jr	a5
C:/Users/nandg/Desktop/FE310-G003/sifive_hifive1_revb_sifive_welcome/freedom-metal/src/drivers/riscv_cpu.c:386
    }

    switch (id) {
    case METAL_INTERRUPT_ID_BASE:
        if (enable) {
2001377c:	fd442783          	lw	a5,-44(s0)
20013780:	c781                	beqz	a5,20013788 <__metal_local_interrupt_enable+0x4e>
C:/Users/nandg/Desktop/FE310-G003/sifive_hifive1_revb_sifive_welcome/freedom-metal/src/drivers/riscv_cpu.c:387
            __metal_interrupt_global_enable();
20013782:	f0bfe0ef          	jal	ra,2001268c <__metal_interrupt_global_enable>
C:/Users/nandg/Desktop/FE310-G003/sifive_hifive1_revb_sifive_welcome/freedom-metal/src/drivers/riscv_cpu.c:391
        } else {
            __metal_interrupt_global_disable();
        }
        break;
20013786:	a08d                	j	200137e8 <__metal_local_interrupt_enable+0xae>
C:/Users/nandg/Desktop/FE310-G003/sifive_hifive1_revb_sifive_welcome/freedom-metal/src/drivers/riscv_cpu.c:389
            __metal_interrupt_global_disable();
20013788:	f1dfe0ef          	jal	ra,200126a4 <__metal_interrupt_global_disable>
C:/Users/nandg/Desktop/FE310-G003/sifive_hifive1_revb_sifive_welcome/freedom-metal/src/drivers/riscv_cpu.c:391
        break;
2001378c:	a8b1                	j	200137e8 <__metal_local_interrupt_enable+0xae>
C:/Users/nandg/Desktop/FE310-G003/sifive_hifive1_revb_sifive_welcome/freedom-metal/src/drivers/riscv_cpu.c:393
    case METAL_INTERRUPT_ID_SW:
        if (enable) {
2001378e:	fd442783          	lw	a5,-44(s0)
20013792:	c781                	beqz	a5,2001379a <__metal_local_interrupt_enable+0x60>
C:/Users/nandg/Desktop/FE310-G003/sifive_hifive1_revb_sifive_welcome/freedom-metal/src/drivers/riscv_cpu.c:394
            __metal_interrupt_software_enable();
20013794:	f29fe0ef          	jal	ra,200126bc <__metal_interrupt_software_enable>
C:/Users/nandg/Desktop/FE310-G003/sifive_hifive1_revb_sifive_welcome/freedom-metal/src/drivers/riscv_cpu.c:398
        } else {
            __metal_interrupt_software_disable();
        }
        break;
20013798:	a881                	j	200137e8 <__metal_local_interrupt_enable+0xae>
C:/Users/nandg/Desktop/FE310-G003/sifive_hifive1_revb_sifive_welcome/freedom-metal/src/drivers/riscv_cpu.c:396
            __metal_interrupt_software_disable();
2001379a:	f3bfe0ef          	jal	ra,200126d4 <__metal_interrupt_software_disable>
C:/Users/nandg/Desktop/FE310-G003/sifive_hifive1_revb_sifive_welcome/freedom-metal/src/drivers/riscv_cpu.c:398
        break;
2001379e:	a0a9                	j	200137e8 <__metal_local_interrupt_enable+0xae>
C:/Users/nandg/Desktop/FE310-G003/sifive_hifive1_revb_sifive_welcome/freedom-metal/src/drivers/riscv_cpu.c:400
    case METAL_INTERRUPT_ID_TMR:
        if (enable) {
200137a0:	fd442783          	lw	a5,-44(s0)
200137a4:	c781                	beqz	a5,200137ac <__metal_local_interrupt_enable+0x72>
C:/Users/nandg/Desktop/FE310-G003/sifive_hifive1_revb_sifive_welcome/freedom-metal/src/drivers/riscv_cpu.c:401
            __metal_interrupt_timer_enable();
200137a6:	f47fe0ef          	jal	ra,200126ec <__metal_interrupt_timer_enable>
C:/Users/nandg/Desktop/FE310-G003/sifive_hifive1_revb_sifive_welcome/freedom-metal/src/drivers/riscv_cpu.c:405
        } else {
            __metal_interrupt_timer_disable();
        }
        break;
200137aa:	a83d                	j	200137e8 <__metal_local_interrupt_enable+0xae>
C:/Users/nandg/Desktop/FE310-G003/sifive_hifive1_revb_sifive_welcome/freedom-metal/src/drivers/riscv_cpu.c:403
            __metal_interrupt_timer_disable();
200137ac:	f5bfe0ef          	jal	ra,20012706 <__metal_interrupt_timer_disable>
C:/Users/nandg/Desktop/FE310-G003/sifive_hifive1_revb_sifive_welcome/freedom-metal/src/drivers/riscv_cpu.c:405
        break;
200137b0:	a825                	j	200137e8 <__metal_local_interrupt_enable+0xae>
C:/Users/nandg/Desktop/FE310-G003/sifive_hifive1_revb_sifive_welcome/freedom-metal/src/drivers/riscv_cpu.c:407
    case METAL_INTERRUPT_ID_EXT:
        if (enable) {
200137b2:	fd442783          	lw	a5,-44(s0)
200137b6:	c781                	beqz	a5,200137be <__metal_local_interrupt_enable+0x84>
C:/Users/nandg/Desktop/FE310-G003/sifive_hifive1_revb_sifive_welcome/freedom-metal/src/drivers/riscv_cpu.c:408
            __metal_interrupt_external_enable();
200137b8:	f69fe0ef          	jal	ra,20012720 <__metal_interrupt_external_enable>
C:/Users/nandg/Desktop/FE310-G003/sifive_hifive1_revb_sifive_welcome/freedom-metal/src/drivers/riscv_cpu.c:412
        } else {
            __metal_interrupt_external_disable();
        }
        break;
200137bc:	a035                	j	200137e8 <__metal_local_interrupt_enable+0xae>
C:/Users/nandg/Desktop/FE310-G003/sifive_hifive1_revb_sifive_welcome/freedom-metal/src/drivers/riscv_cpu.c:410
            __metal_interrupt_external_disable();
200137be:	f7ffe0ef          	jal	ra,2001273c <__metal_interrupt_external_disable>
C:/Users/nandg/Desktop/FE310-G003/sifive_hifive1_revb_sifive_welcome/freedom-metal/src/drivers/riscv_cpu.c:412
        break;
200137c2:	a01d                	j	200137e8 <__metal_local_interrupt_enable+0xae>
C:/Users/nandg/Desktop/FE310-G003/sifive_hifive1_revb_sifive_welcome/freedom-metal/src/drivers/riscv_cpu.c:429
    case METAL_INTERRUPT_ID_LC11:
    case METAL_INTERRUPT_ID_LC12:
    case METAL_INTERRUPT_ID_LC13:
    case METAL_INTERRUPT_ID_LC14:
    case METAL_INTERRUPT_ID_LC15:
        if (enable) {
200137c4:	fd442783          	lw	a5,-44(s0)
200137c8:	c799                	beqz	a5,200137d6 <__metal_local_interrupt_enable+0x9c>
C:/Users/nandg/Desktop/FE310-G003/sifive_hifive1_revb_sifive_welcome/freedom-metal/src/drivers/riscv_cpu.c:430
            __metal_interrupt_local_enable(id);
200137ca:	fd842783          	lw	a5,-40(s0)
200137ce:	853e                	mv	a0,a5
200137d0:	f89fe0ef          	jal	ra,20012758 <__metal_interrupt_local_enable>
C:/Users/nandg/Desktop/FE310-G003/sifive_hifive1_revb_sifive_welcome/freedom-metal/src/drivers/riscv_cpu.c:434
        } else {
            __metal_interrupt_local_disable(id);
        }
        break;
200137d4:	a811                	j	200137e8 <__metal_local_interrupt_enable+0xae>
C:/Users/nandg/Desktop/FE310-G003/sifive_hifive1_revb_sifive_welcome/freedom-metal/src/drivers/riscv_cpu.c:432
            __metal_interrupt_local_disable(id);
200137d6:	fd842783          	lw	a5,-40(s0)
200137da:	853e                	mv	a0,a5
200137dc:	fa9fe0ef          	jal	ra,20012784 <__metal_interrupt_local_disable>
C:/Users/nandg/Desktop/FE310-G003/sifive_hifive1_revb_sifive_welcome/freedom-metal/src/drivers/riscv_cpu.c:434
        break;
200137e0:	a021                	j	200137e8 <__metal_local_interrupt_enable+0xae>
C:/Users/nandg/Desktop/FE310-G003/sifive_hifive1_revb_sifive_welcome/freedom-metal/src/drivers/riscv_cpu.c:436
    default:
        rc = -1;
200137e2:	57fd                	li	a5,-1
200137e4:	fef42623          	sw	a5,-20(s0)
C:/Users/nandg/Desktop/FE310-G003/sifive_hifive1_revb_sifive_welcome/freedom-metal/src/drivers/riscv_cpu.c:438
    }
    return rc;
200137e8:	fec42783          	lw	a5,-20(s0)
C:/Users/nandg/Desktop/FE310-G003/sifive_hifive1_revb_sifive_welcome/freedom-metal/src/drivers/riscv_cpu.c:439
}
200137ec:	853e                	mv	a0,a5
200137ee:	50b2                	lw	ra,44(sp)
200137f0:	5422                	lw	s0,40(sp)
200137f2:	6145                	addi	sp,sp,48
200137f4:	8082                	ret

200137f6 <__metal_exception_register>:
__metal_exception_register():
C:/Users/nandg/Desktop/FE310-G003/sifive_hifive1_revb_sifive_welcome/freedom-metal/src/drivers/riscv_cpu.c:442

int __metal_exception_register(struct metal_interrupt *controller, int ecode,
                               metal_exception_handler_t isr) {
200137f6:	7179                	addi	sp,sp,-48
200137f8:	d622                	sw	s0,44(sp)
200137fa:	1800                	addi	s0,sp,48
200137fc:	fca42e23          	sw	a0,-36(s0)
20013800:	fcb42c23          	sw	a1,-40(s0)
20013804:	fcc42a23          	sw	a2,-44(s0)
C:/Users/nandg/Desktop/FE310-G003/sifive_hifive1_revb_sifive_welcome/freedom-metal/src/drivers/riscv_cpu.c:443
    struct __metal_driver_riscv_cpu_intc *intc = (void *)(controller);
20013808:	fdc42783          	lw	a5,-36(s0)
2001380c:	fef42623          	sw	a5,-20(s0)
C:/Users/nandg/Desktop/FE310-G003/sifive_hifive1_revb_sifive_welcome/freedom-metal/src/drivers/riscv_cpu.c:445

    if ((ecode < METAL_MAX_EXCEPTION_CODE) && isr) {
20013810:	fd842703          	lw	a4,-40(s0)
20013814:	47ad                	li	a5,11
20013816:	02e7c263          	blt	a5,a4,2001383a <__metal_exception_register+0x44>
C:/Users/nandg/Desktop/FE310-G003/sifive_hifive1_revb_sifive_welcome/freedom-metal/src/drivers/riscv_cpu.c:445 (discriminator 1)
2001381a:	fd442783          	lw	a5,-44(s0)
2001381e:	cf91                	beqz	a5,2001383a <__metal_exception_register+0x44>
C:/Users/nandg/Desktop/FE310-G003/sifive_hifive1_revb_sifive_welcome/freedom-metal/src/drivers/riscv_cpu.c:446
        intc->metal_exception_table[ecode] = isr;
20013820:	fec42703          	lw	a4,-20(s0)
20013824:	fd842783          	lw	a5,-40(s0)
20013828:	0e878793          	addi	a5,a5,232
2001382c:	078a                	slli	a5,a5,0x2
2001382e:	97ba                	add	a5,a5,a4
20013830:	fd442703          	lw	a4,-44(s0)
20013834:	c398                	sw	a4,0(a5)
C:/Users/nandg/Desktop/FE310-G003/sifive_hifive1_revb_sifive_welcome/freedom-metal/src/drivers/riscv_cpu.c:447
        return 0;
20013836:	4781                	li	a5,0
20013838:	a011                	j	2001383c <__metal_exception_register+0x46>
C:/Users/nandg/Desktop/FE310-G003/sifive_hifive1_revb_sifive_welcome/freedom-metal/src/drivers/riscv_cpu.c:449
    }
    return -1;
2001383a:	57fd                	li	a5,-1
C:/Users/nandg/Desktop/FE310-G003/sifive_hifive1_revb_sifive_welcome/freedom-metal/src/drivers/riscv_cpu.c:450
}
2001383c:	853e                	mv	a0,a5
2001383e:	5432                	lw	s0,44(sp)
20013840:	6145                	addi	sp,sp,48
20013842:	8082                	ret

20013844 <__metal_driver_riscv_cpu_controller_interrupt_init>:
__metal_driver_riscv_cpu_controller_interrupt_init():
C:/Users/nandg/Desktop/FE310-G003/sifive_hifive1_revb_sifive_welcome/freedom-metal/src/drivers/riscv_cpu.c:454

extern void early_trap_vector(void);
void __metal_driver_riscv_cpu_controller_interrupt_init(
    struct metal_interrupt *controller) {
20013844:	7179                	addi	sp,sp,-48
20013846:	d606                	sw	ra,44(sp)
20013848:	d422                	sw	s0,40(sp)
2001384a:	1800                	addi	s0,sp,48
2001384c:	fca42e23          	sw	a0,-36(s0)
C:/Users/nandg/Desktop/FE310-G003/sifive_hifive1_revb_sifive_welcome/freedom-metal/src/drivers/riscv_cpu.c:455
    struct __metal_driver_riscv_cpu_intc *intc = (void *)(controller);
20013850:	fdc42783          	lw	a5,-36(s0)
20013854:	fef42223          	sw	a5,-28(s0)
C:/Users/nandg/Desktop/FE310-G003/sifive_hifive1_revb_sifive_welcome/freedom-metal/src/drivers/riscv_cpu.c:457

    if (!intc->init_done) {
20013858:	fe442783          	lw	a5,-28(s0)
2001385c:	43dc                	lw	a5,4(a5)
2001385e:	efdd                	bnez	a5,2001391c <__metal_driver_riscv_cpu_controller_interrupt_init+0xd8>
C:/Users/nandg/Desktop/FE310-G003/sifive_hifive1_revb_sifive_welcome/freedom-metal/src/drivers/riscv_cpu.c:459
        /* Default to use direct interrupt, setup sw cb table*/
        for (int i = 0; i < METAL_MAX_MI; i++) {
20013860:	fe042623          	sw	zero,-20(s0)
20013864:	a0b9                	j	200138b2 <__metal_driver_riscv_cpu_controller_interrupt_init+0x6e>
C:/Users/nandg/Desktop/FE310-G003/sifive_hifive1_revb_sifive_welcome/freedom-metal/src/drivers/riscv_cpu.c:460 (discriminator 3)
            intc->metal_int_table[i].handler = NULL;
20013866:	fe442683          	lw	a3,-28(s0)
2001386a:	fec42703          	lw	a4,-20(s0)
2001386e:	87ba                	mv	a5,a4
20013870:	0786                	slli	a5,a5,0x1
20013872:	97ba                	add	a5,a5,a4
20013874:	078e                	slli	a5,a5,0x3
20013876:	97b6                	add	a5,a5,a3
20013878:	0807a823          	sw	zero,144(a5)
C:/Users/nandg/Desktop/FE310-G003/sifive_hifive1_revb_sifive_welcome/freedom-metal/src/drivers/riscv_cpu.c:461 (discriminator 3)
            intc->metal_int_table[i].sub_int = NULL;
2001387c:	fe442683          	lw	a3,-28(s0)
20013880:	fec42703          	lw	a4,-20(s0)
20013884:	87ba                	mv	a5,a4
20013886:	0786                	slli	a5,a5,0x1
20013888:	97ba                	add	a5,a5,a4
2001388a:	078e                	slli	a5,a5,0x3
2001388c:	97b6                	add	a5,a5,a3
2001388e:	0807aa23          	sw	zero,148(a5)
C:/Users/nandg/Desktop/FE310-G003/sifive_hifive1_revb_sifive_welcome/freedom-metal/src/drivers/riscv_cpu.c:462 (discriminator 3)
            intc->metal_int_table[i].exint_data = NULL;
20013892:	fe442683          	lw	a3,-28(s0)
20013896:	fec42703          	lw	a4,-20(s0)
2001389a:	87ba                	mv	a5,a4
2001389c:	0786                	slli	a5,a5,0x1
2001389e:	97ba                	add	a5,a5,a4
200138a0:	078e                	slli	a5,a5,0x3
200138a2:	97b6                	add	a5,a5,a3
200138a4:	0807ac23          	sw	zero,152(a5)
C:/Users/nandg/Desktop/FE310-G003/sifive_hifive1_revb_sifive_welcome/freedom-metal/src/drivers/riscv_cpu.c:459 (discriminator 3)
        for (int i = 0; i < METAL_MAX_MI; i++) {
200138a8:	fec42783          	lw	a5,-20(s0)
200138ac:	0785                	addi	a5,a5,1
200138ae:	fef42623          	sw	a5,-20(s0)
C:/Users/nandg/Desktop/FE310-G003/sifive_hifive1_revb_sifive_welcome/freedom-metal/src/drivers/riscv_cpu.c:459 (discriminator 1)
200138b2:	fec42703          	lw	a4,-20(s0)
200138b6:	47fd                	li	a5,31
200138b8:	fae7d7e3          	bge	a5,a4,20013866 <__metal_driver_riscv_cpu_controller_interrupt_init+0x22>
C:/Users/nandg/Desktop/FE310-G003/sifive_hifive1_revb_sifive_welcome/freedom-metal/src/drivers/riscv_cpu.c:465
        }

        for (int i = 0; i < METAL_MAX_ME; i++) {
200138bc:	fe042423          	sw	zero,-24(s0)
200138c0:	a01d                	j	200138e6 <__metal_driver_riscv_cpu_controller_interrupt_init+0xa2>
C:/Users/nandg/Desktop/FE310-G003/sifive_hifive1_revb_sifive_welcome/freedom-metal/src/drivers/riscv_cpu.c:466 (discriminator 3)
            intc->metal_exception_table[i] = __metal_default_exception_handler;
200138c2:	fe442703          	lw	a4,-28(s0)
200138c6:	fe842783          	lw	a5,-24(s0)
200138ca:	0e878793          	addi	a5,a5,232
200138ce:	078a                	slli	a5,a5,0x2
200138d0:	97ba                	add	a5,a5,a4
200138d2:	20012737          	lui	a4,0x20012
200138d6:	7b070713          	addi	a4,a4,1968 # 200127b0 <__metal_default_exception_handler>
200138da:	c398                	sw	a4,0(a5)
C:/Users/nandg/Desktop/FE310-G003/sifive_hifive1_revb_sifive_welcome/freedom-metal/src/drivers/riscv_cpu.c:465 (discriminator 3)
        for (int i = 0; i < METAL_MAX_ME; i++) {
200138dc:	fe842783          	lw	a5,-24(s0)
200138e0:	0785                	addi	a5,a5,1
200138e2:	fef42423          	sw	a5,-24(s0)
C:/Users/nandg/Desktop/FE310-G003/sifive_hifive1_revb_sifive_welcome/freedom-metal/src/drivers/riscv_cpu.c:465 (discriminator 1)
200138e6:	fe842703          	lw	a4,-24(s0)
200138ea:	47ad                	li	a5,11
200138ec:	fce7dbe3          	bge	a5,a4,200138c2 <__metal_driver_riscv_cpu_controller_interrupt_init+0x7e>
C:/Users/nandg/Desktop/FE310-G003/sifive_hifive1_revb_sifive_welcome/freedom-metal/src/drivers/riscv_cpu.c:475
         * Set the real trap handler if the value of mtvec is equal to
         * early_trap_vector. If mtvec is not equal to early_trap_vector,
         * that means user has own trap handler, then we don't overwrite it.
         */
        uintptr_t mtvec;
        __asm__ volatile("csrr %0, mtvec" : "=r"(mtvec));
200138f0:	305027f3          	csrr	a5,mtvec
200138f4:	fef42023          	sw	a5,-32(s0)
C:/Users/nandg/Desktop/FE310-G003/sifive_hifive1_revb_sifive_welcome/freedom-metal/src/drivers/riscv_cpu.c:476
        if (mtvec == (uintptr_t)&early_trap_vector) {
200138f8:	200107b7          	lui	a5,0x20010
200138fc:	13478793          	addi	a5,a5,308 # 20010134 <early_trap_vector>
20013900:	fe042703          	lw	a4,-32(s0)
20013904:	00f71863          	bne	a4,a5,20013914 <__metal_driver_riscv_cpu_controller_interrupt_init+0xd0>
C:/Users/nandg/Desktop/FE310-G003/sifive_hifive1_revb_sifive_welcome/freedom-metal/src/drivers/riscv_cpu.c:477
            __metal_controller_interrupt_vector(
20013908:	200137b7          	lui	a5,0x20013
2001390c:	a8078593          	addi	a1,a5,-1408 # 20012a80 <__metal_exception_handler>
20013910:	4501                	li	a0,0
20013912:	3b39                	jal	20013630 <__metal_controller_interrupt_vector>
C:/Users/nandg/Desktop/FE310-G003/sifive_hifive1_revb_sifive_welcome/freedom-metal/src/drivers/riscv_cpu.c:481
                METAL_DIRECT_MODE,
                (void *)(uintptr_t)&__metal_exception_handler);
        }
        intc->init_done = 1;
20013914:	fe442783          	lw	a5,-28(s0)
20013918:	4705                	li	a4,1
2001391a:	c3d8                	sw	a4,4(a5)
C:/Users/nandg/Desktop/FE310-G003/sifive_hifive1_revb_sifive_welcome/freedom-metal/src/drivers/riscv_cpu.c:483
    }
}
2001391c:	0001                	nop
2001391e:	50b2                	lw	ra,44(sp)
20013920:	5422                	lw	s0,40(sp)
20013922:	6145                	addi	sp,sp,48
20013924:	8082                	ret

20013926 <__metal_driver_riscv_cpu_controller_interrupt_register>:
__metal_driver_riscv_cpu_controller_interrupt_register():
C:/Users/nandg/Desktop/FE310-G003/sifive_hifive1_revb_sifive_welcome/freedom-metal/src/drivers/riscv_cpu.c:487

int __metal_driver_riscv_cpu_controller_interrupt_register(
    struct metal_interrupt *controller, int id, metal_interrupt_handler_t isr,
    void *priv) {
20013926:	7179                	addi	sp,sp,-48
20013928:	d606                	sw	ra,44(sp)
2001392a:	d422                	sw	s0,40(sp)
2001392c:	1800                	addi	s0,sp,48
2001392e:	fca42e23          	sw	a0,-36(s0)
20013932:	fcb42c23          	sw	a1,-40(s0)
20013936:	fcc42a23          	sw	a2,-44(s0)
2001393a:	fcd42823          	sw	a3,-48(s0)
C:/Users/nandg/Desktop/FE310-G003/sifive_hifive1_revb_sifive_welcome/freedom-metal/src/drivers/riscv_cpu.c:488
    int rc = 0;
2001393e:	fe042623          	sw	zero,-20(s0)
C:/Users/nandg/Desktop/FE310-G003/sifive_hifive1_revb_sifive_welcome/freedom-metal/src/drivers/riscv_cpu.c:489
    struct __metal_driver_riscv_cpu_intc *intc = (void *)(controller);
20013942:	fdc42783          	lw	a5,-36(s0)
20013946:	fef42423          	sw	a5,-24(s0)
C:/Users/nandg/Desktop/FE310-G003/sifive_hifive1_revb_sifive_welcome/freedom-metal/src/drivers/riscv_cpu.c:491

    if (!__metal_valid_interrupt_id(id)) {
2001394a:	fd842503          	lw	a0,-40(s0)
2001394e:	3b51                	jal	200136e2 <__metal_valid_interrupt_id>
20013950:	87aa                	mv	a5,a0
20013952:	e399                	bnez	a5,20013958 <__metal_driver_riscv_cpu_controller_interrupt_register+0x32>
C:/Users/nandg/Desktop/FE310-G003/sifive_hifive1_revb_sifive_welcome/freedom-metal/src/drivers/riscv_cpu.c:492
        return -11;
20013954:	57d5                	li	a5,-11
20013956:	a25d                	j	20013afc <__metal_driver_riscv_cpu_controller_interrupt_register+0x1d6>
C:/Users/nandg/Desktop/FE310-G003/sifive_hifive1_revb_sifive_welcome/freedom-metal/src/drivers/riscv_cpu.c:494
    }
    if ((id == METAL_INTERRUPT_ID_BEU) &&
20013958:	fd842703          	lw	a4,-40(s0)
2001395c:	08000793          	li	a5,128
20013960:	00f71763          	bne	a4,a5,2001396e <__metal_driver_riscv_cpu_controller_interrupt_register+0x48>
C:/Users/nandg/Desktop/FE310-G003/sifive_hifive1_revb_sifive_welcome/freedom-metal/src/drivers/riscv_cpu.c:495 (discriminator 1)
        (__metal_controller_interrupt_vector_mode() != METAL_DIRECT_MODE)) {
20013964:	3995                	jal	200135d8 <__metal_controller_interrupt_vector_mode>
20013966:	87aa                	mv	a5,a0
C:/Users/nandg/Desktop/FE310-G003/sifive_hifive1_revb_sifive_welcome/freedom-metal/src/drivers/riscv_cpu.c:494 (discriminator 1)
    if ((id == METAL_INTERRUPT_ID_BEU) &&
20013968:	c399                	beqz	a5,2001396e <__metal_driver_riscv_cpu_controller_interrupt_register+0x48>
C:/Users/nandg/Desktop/FE310-G003/sifive_hifive1_revb_sifive_welcome/freedom-metal/src/drivers/riscv_cpu.c:498
        /* Only allow registration of the bus error unit interrupt if
         * interrupt vectoring if off */
        return -13;
2001396a:	57cd                	li	a5,-13
2001396c:	aa41                	j	20013afc <__metal_driver_riscv_cpu_controller_interrupt_register+0x1d6>
C:/Users/nandg/Desktop/FE310-G003/sifive_hifive1_revb_sifive_welcome/freedom-metal/src/drivers/riscv_cpu.c:501
    }

    if (isr) {
2001396e:	fd442783          	lw	a5,-44(s0)
20013972:	cfb9                	beqz	a5,200139d0 <__metal_driver_riscv_cpu_controller_interrupt_register+0xaa>
C:/Users/nandg/Desktop/FE310-G003/sifive_hifive1_revb_sifive_welcome/freedom-metal/src/drivers/riscv_cpu.c:502
        if (id == METAL_INTERRUPT_ID_BEU) {
20013974:	fd842703          	lw	a4,-40(s0)
20013978:	08000793          	li	a5,128
2001397c:	00f71f63          	bne	a4,a5,2001399a <__metal_driver_riscv_cpu_controller_interrupt_register+0x74>
C:/Users/nandg/Desktop/FE310-G003/sifive_hifive1_revb_sifive_welcome/freedom-metal/src/drivers/riscv_cpu.c:503
            intc->metal_int_beu.handler = isr;
20013980:	fe842783          	lw	a5,-24(s0)
20013984:	fd442703          	lw	a4,-44(s0)
20013988:	38e7a823          	sw	a4,912(a5)
C:/Users/nandg/Desktop/FE310-G003/sifive_hifive1_revb_sifive_welcome/freedom-metal/src/drivers/riscv_cpu.c:504
            intc->metal_int_beu.exint_data = priv;
2001398c:	fe842783          	lw	a5,-24(s0)
20013990:	fd042703          	lw	a4,-48(s0)
20013994:	38e7ac23          	sw	a4,920(a5)
20013998:	a285                	j	20013af8 <__metal_driver_riscv_cpu_controller_interrupt_register+0x1d2>
C:/Users/nandg/Desktop/FE310-G003/sifive_hifive1_revb_sifive_welcome/freedom-metal/src/drivers/riscv_cpu.c:506
        } else {
            intc->metal_int_table[id].handler = isr;
2001399a:	fe842683          	lw	a3,-24(s0)
2001399e:	fd842703          	lw	a4,-40(s0)
200139a2:	87ba                	mv	a5,a4
200139a4:	0786                	slli	a5,a5,0x1
200139a6:	97ba                	add	a5,a5,a4
200139a8:	078e                	slli	a5,a5,0x3
200139aa:	97b6                	add	a5,a5,a3
200139ac:	fd442703          	lw	a4,-44(s0)
200139b0:	08e7a823          	sw	a4,144(a5)
C:/Users/nandg/Desktop/FE310-G003/sifive_hifive1_revb_sifive_welcome/freedom-metal/src/drivers/riscv_cpu.c:507
            intc->metal_int_table[id].exint_data = priv;
200139b4:	fe842683          	lw	a3,-24(s0)
200139b8:	fd842703          	lw	a4,-40(s0)
200139bc:	87ba                	mv	a5,a4
200139be:	0786                	slli	a5,a5,0x1
200139c0:	97ba                	add	a5,a5,a4
200139c2:	078e                	slli	a5,a5,0x3
200139c4:	97b6                	add	a5,a5,a3
200139c6:	fd042703          	lw	a4,-48(s0)
200139ca:	08e7ac23          	sw	a4,152(a5)
200139ce:	a22d                	j	20013af8 <__metal_driver_riscv_cpu_controller_interrupt_register+0x1d2>
C:/Users/nandg/Desktop/FE310-G003/sifive_hifive1_revb_sifive_welcome/freedom-metal/src/drivers/riscv_cpu.c:510
        }
    } else {
        switch (id) {
200139d0:	fd842703          	lw	a4,-40(s0)
200139d4:	08000793          	li	a5,128
200139d8:	0cf70163          	beq	a4,a5,20013a9a <__metal_driver_riscv_cpu_controller_interrupt_register+0x174>
200139dc:	fd842703          	lw	a4,-40(s0)
200139e0:	08000793          	li	a5,128
200139e4:	10e7c763          	blt	a5,a4,20013af2 <__metal_driver_riscv_cpu_controller_interrupt_register+0x1cc>
200139e8:	fd842703          	lw	a4,-40(s0)
200139ec:	47fd                	li	a5,31
200139ee:	10e7c263          	blt	a5,a4,20013af2 <__metal_driver_riscv_cpu_controller_interrupt_register+0x1cc>
200139f2:	fd842703          	lw	a4,-40(s0)
200139f6:	47c1                	li	a5,16
200139f8:	0cf75063          	bge	a4,a5,20013ab8 <__metal_driver_riscv_cpu_controller_interrupt_register+0x192>
200139fc:	fd842703          	lw	a4,-40(s0)
20013a00:	47ad                	li	a5,11
20013a02:	0af70b63          	beq	a4,a5,20013ab8 <__metal_driver_riscv_cpu_controller_interrupt_register+0x192>
20013a06:	fd842703          	lw	a4,-40(s0)
20013a0a:	47ad                	li	a5,11
20013a0c:	0ee7c363          	blt	a5,a4,20013af2 <__metal_driver_riscv_cpu_controller_interrupt_register+0x1cc>
20013a10:	fd842703          	lw	a4,-40(s0)
20013a14:	478d                	li	a5,3
20013a16:	00f70863          	beq	a4,a5,20013a26 <__metal_driver_riscv_cpu_controller_interrupt_register+0x100>
20013a1a:	fd842703          	lw	a4,-40(s0)
20013a1e:	479d                	li	a5,7
20013a20:	04f70063          	beq	a4,a5,20013a60 <__metal_driver_riscv_cpu_controller_interrupt_register+0x13a>
20013a24:	a0f9                	j	20013af2 <__metal_driver_riscv_cpu_controller_interrupt_register+0x1cc>
C:/Users/nandg/Desktop/FE310-G003/sifive_hifive1_revb_sifive_welcome/freedom-metal/src/drivers/riscv_cpu.c:512
        case METAL_INTERRUPT_ID_SW:
            intc->metal_int_table[id].handler = __metal_default_sw_handler;
20013a26:	fe842683          	lw	a3,-24(s0)
20013a2a:	fd842703          	lw	a4,-40(s0)
20013a2e:	87ba                	mv	a5,a4
20013a30:	0786                	slli	a5,a5,0x1
20013a32:	97ba                	add	a5,a5,a4
20013a34:	078e                	slli	a5,a5,0x3
20013a36:	97b6                	add	a5,a5,a3
20013a38:	20013737          	lui	a4,0x20013
20013a3c:	8a070713          	addi	a4,a4,-1888 # 200128a0 <__metal_default_sw_handler>
20013a40:	08e7a823          	sw	a4,144(a5)
C:/Users/nandg/Desktop/FE310-G003/sifive_hifive1_revb_sifive_welcome/freedom-metal/src/drivers/riscv_cpu.c:513
            intc->metal_int_table[id].sub_int = priv;
20013a44:	fe842683          	lw	a3,-24(s0)
20013a48:	fd842703          	lw	a4,-40(s0)
20013a4c:	87ba                	mv	a5,a4
20013a4e:	0786                	slli	a5,a5,0x1
20013a50:	97ba                	add	a5,a5,a4
20013a52:	078e                	slli	a5,a5,0x3
20013a54:	97b6                	add	a5,a5,a3
20013a56:	fd042703          	lw	a4,-48(s0)
20013a5a:	08e7aa23          	sw	a4,148(a5)
C:/Users/nandg/Desktop/FE310-G003/sifive_hifive1_revb_sifive_welcome/freedom-metal/src/drivers/riscv_cpu.c:514
            break;
20013a5e:	a869                	j	20013af8 <__metal_driver_riscv_cpu_controller_interrupt_register+0x1d2>
C:/Users/nandg/Desktop/FE310-G003/sifive_hifive1_revb_sifive_welcome/freedom-metal/src/drivers/riscv_cpu.c:516
        case METAL_INTERRUPT_ID_TMR:
            intc->metal_int_table[id].handler = __metal_default_timer_handler;
20013a60:	fe842683          	lw	a3,-24(s0)
20013a64:	fd842703          	lw	a4,-40(s0)
20013a68:	87ba                	mv	a5,a4
20013a6a:	0786                	slli	a5,a5,0x1
20013a6c:	97ba                	add	a5,a5,a4
20013a6e:	078e                	slli	a5,a5,0x3
20013a70:	97b6                	add	a5,a5,a3
20013a72:	20013737          	lui	a4,0x20013
20013a76:	9b070713          	addi	a4,a4,-1616 # 200129b0 <__metal_default_timer_handler>
20013a7a:	08e7a823          	sw	a4,144(a5)
C:/Users/nandg/Desktop/FE310-G003/sifive_hifive1_revb_sifive_welcome/freedom-metal/src/drivers/riscv_cpu.c:517
            intc->metal_int_table[id].sub_int = priv;
20013a7e:	fe842683          	lw	a3,-24(s0)
20013a82:	fd842703          	lw	a4,-40(s0)
20013a86:	87ba                	mv	a5,a4
20013a88:	0786                	slli	a5,a5,0x1
20013a8a:	97ba                	add	a5,a5,a4
20013a8c:	078e                	slli	a5,a5,0x3
20013a8e:	97b6                	add	a5,a5,a3
20013a90:	fd042703          	lw	a4,-48(s0)
20013a94:	08e7aa23          	sw	a4,148(a5)
C:/Users/nandg/Desktop/FE310-G003/sifive_hifive1_revb_sifive_welcome/freedom-metal/src/drivers/riscv_cpu.c:518
            break;
20013a98:	a085                	j	20013af8 <__metal_driver_riscv_cpu_controller_interrupt_register+0x1d2>
C:/Users/nandg/Desktop/FE310-G003/sifive_hifive1_revb_sifive_welcome/freedom-metal/src/drivers/riscv_cpu.c:520
        case METAL_INTERRUPT_ID_BEU:
            intc->metal_int_beu.handler = __metal_default_beu_handler;
20013a9a:	fe842783          	lw	a5,-24(s0)
20013a9e:	20013737          	lui	a4,0x20013
20013aa2:	99a70713          	addi	a4,a4,-1638 # 2001299a <__metal_default_beu_handler>
20013aa6:	38e7a823          	sw	a4,912(a5)
C:/Users/nandg/Desktop/FE310-G003/sifive_hifive1_revb_sifive_welcome/freedom-metal/src/drivers/riscv_cpu.c:521
            intc->metal_int_beu.exint_data = priv;
20013aaa:	fe842783          	lw	a5,-24(s0)
20013aae:	fd042703          	lw	a4,-48(s0)
20013ab2:	38e7ac23          	sw	a4,920(a5)
C:/Users/nandg/Desktop/FE310-G003/sifive_hifive1_revb_sifive_welcome/freedom-metal/src/drivers/riscv_cpu.c:522
            break;
20013ab6:	a089                	j	20013af8 <__metal_driver_riscv_cpu_controller_interrupt_register+0x1d2>
C:/Users/nandg/Desktop/FE310-G003/sifive_hifive1_revb_sifive_welcome/freedom-metal/src/drivers/riscv_cpu.c:540
        case METAL_INTERRUPT_ID_LC11:
        case METAL_INTERRUPT_ID_LC12:
        case METAL_INTERRUPT_ID_LC13:
        case METAL_INTERRUPT_ID_LC14:
        case METAL_INTERRUPT_ID_LC15:
            intc->metal_int_table[id].handler =
20013ab8:	fe842683          	lw	a3,-24(s0)
20013abc:	fd842703          	lw	a4,-40(s0)
20013ac0:	87ba                	mv	a5,a4
20013ac2:	0786                	slli	a5,a5,0x1
20013ac4:	97ba                	add	a5,a5,a4
20013ac6:	078e                	slli	a5,a5,0x3
20013ac8:	97b6                	add	a5,a5,a3
20013aca:	20012737          	lui	a4,0x20012
20013ace:	7c870713          	addi	a4,a4,1992 # 200127c8 <__metal_default_interrupt_handler>
20013ad2:	08e7a823          	sw	a4,144(a5)
C:/Users/nandg/Desktop/FE310-G003/sifive_hifive1_revb_sifive_welcome/freedom-metal/src/drivers/riscv_cpu.c:542
                __metal_default_interrupt_handler;
            intc->metal_int_table[id].sub_int = priv;
20013ad6:	fe842683          	lw	a3,-24(s0)
20013ada:	fd842703          	lw	a4,-40(s0)
20013ade:	87ba                	mv	a5,a4
20013ae0:	0786                	slli	a5,a5,0x1
20013ae2:	97ba                	add	a5,a5,a4
20013ae4:	078e                	slli	a5,a5,0x3
20013ae6:	97b6                	add	a5,a5,a3
20013ae8:	fd042703          	lw	a4,-48(s0)
20013aec:	08e7aa23          	sw	a4,148(a5)
C:/Users/nandg/Desktop/FE310-G003/sifive_hifive1_revb_sifive_welcome/freedom-metal/src/drivers/riscv_cpu.c:543
            break;
20013af0:	a021                	j	20013af8 <__metal_driver_riscv_cpu_controller_interrupt_register+0x1d2>
C:/Users/nandg/Desktop/FE310-G003/sifive_hifive1_revb_sifive_welcome/freedom-metal/src/drivers/riscv_cpu.c:545
        default:
            rc = -12;
20013af2:	57d1                	li	a5,-12
20013af4:	fef42623          	sw	a5,-20(s0)
C:/Users/nandg/Desktop/FE310-G003/sifive_hifive1_revb_sifive_welcome/freedom-metal/src/drivers/riscv_cpu.c:548
        }
    }
    return rc;
20013af8:	fec42783          	lw	a5,-20(s0)
C:/Users/nandg/Desktop/FE310-G003/sifive_hifive1_revb_sifive_welcome/freedom-metal/src/drivers/riscv_cpu.c:549
}
20013afc:	853e                	mv	a0,a5
20013afe:	50b2                	lw	ra,44(sp)
20013b00:	5422                	lw	s0,40(sp)
20013b02:	6145                	addi	sp,sp,48
20013b04:	8082                	ret

20013b06 <__metal_driver_riscv_cpu_controller_interrupt_enable>:
__metal_driver_riscv_cpu_controller_interrupt_enable():
C:/Users/nandg/Desktop/FE310-G003/sifive_hifive1_revb_sifive_welcome/freedom-metal/src/drivers/riscv_cpu.c:552

int __metal_driver_riscv_cpu_controller_interrupt_enable(
    struct metal_interrupt *controller, int id) {
20013b06:	1101                	addi	sp,sp,-32
20013b08:	ce06                	sw	ra,28(sp)
20013b0a:	cc22                	sw	s0,24(sp)
20013b0c:	1000                	addi	s0,sp,32
20013b0e:	fea42623          	sw	a0,-20(s0)
20013b12:	feb42423          	sw	a1,-24(s0)
C:/Users/nandg/Desktop/FE310-G003/sifive_hifive1_revb_sifive_welcome/freedom-metal/src/drivers/riscv_cpu.c:553
    return __metal_local_interrupt_enable(controller, id, METAL_ENABLE);
20013b16:	fe842783          	lw	a5,-24(s0)
20013b1a:	4605                	li	a2,1
20013b1c:	85be                	mv	a1,a5
20013b1e:	fec42503          	lw	a0,-20(s0)
20013b22:	3921                	jal	2001373a <__metal_local_interrupt_enable>
20013b24:	87aa                	mv	a5,a0
C:/Users/nandg/Desktop/FE310-G003/sifive_hifive1_revb_sifive_welcome/freedom-metal/src/drivers/riscv_cpu.c:554
}
20013b26:	853e                	mv	a0,a5
20013b28:	40f2                	lw	ra,28(sp)
20013b2a:	4462                	lw	s0,24(sp)
20013b2c:	6105                	addi	sp,sp,32
20013b2e:	8082                	ret

20013b30 <__metal_driver_riscv_cpu_controller_interrupt_disable>:
__metal_driver_riscv_cpu_controller_interrupt_disable():
C:/Users/nandg/Desktop/FE310-G003/sifive_hifive1_revb_sifive_welcome/freedom-metal/src/drivers/riscv_cpu.c:557

int __metal_driver_riscv_cpu_controller_interrupt_disable(
    struct metal_interrupt *controller, int id) {
20013b30:	1101                	addi	sp,sp,-32
20013b32:	ce06                	sw	ra,28(sp)
20013b34:	cc22                	sw	s0,24(sp)
20013b36:	1000                	addi	s0,sp,32
20013b38:	fea42623          	sw	a0,-20(s0)
20013b3c:	feb42423          	sw	a1,-24(s0)
C:/Users/nandg/Desktop/FE310-G003/sifive_hifive1_revb_sifive_welcome/freedom-metal/src/drivers/riscv_cpu.c:558
    return __metal_local_interrupt_enable(controller, id, METAL_DISABLE);
20013b40:	fe842783          	lw	a5,-24(s0)
20013b44:	4601                	li	a2,0
20013b46:	85be                	mv	a1,a5
20013b48:	fec42503          	lw	a0,-20(s0)
20013b4c:	36fd                	jal	2001373a <__metal_local_interrupt_enable>
20013b4e:	87aa                	mv	a5,a0
C:/Users/nandg/Desktop/FE310-G003/sifive_hifive1_revb_sifive_welcome/freedom-metal/src/drivers/riscv_cpu.c:559
}
20013b50:	853e                	mv	a0,a5
20013b52:	40f2                	lw	ra,28(sp)
20013b54:	4462                	lw	s0,24(sp)
20013b56:	6105                	addi	sp,sp,32
20013b58:	8082                	ret

20013b5a <__metal_driver_riscv_cpu_controller_get_vector_mode>:
__metal_driver_riscv_cpu_controller_get_vector_mode():
C:/Users/nandg/Desktop/FE310-G003/sifive_hifive1_revb_sifive_welcome/freedom-metal/src/drivers/riscv_cpu.c:591
    }
    return -1;
}

metal_vector_mode __metal_driver_riscv_cpu_controller_get_vector_mode(
    struct metal_interrupt *controller) {
20013b5a:	1101                	addi	sp,sp,-32
20013b5c:	ce06                	sw	ra,28(sp)
20013b5e:	cc22                	sw	s0,24(sp)
20013b60:	1000                	addi	s0,sp,32
20013b62:	fea42623          	sw	a0,-20(s0)
C:/Users/nandg/Desktop/FE310-G003/sifive_hifive1_revb_sifive_welcome/freedom-metal/src/drivers/riscv_cpu.c:592
    return __metal_controller_interrupt_vector_mode();
20013b66:	a73ff0ef          	jal	ra,200135d8 <__metal_controller_interrupt_vector_mode>
20013b6a:	87aa                	mv	a5,a0
C:/Users/nandg/Desktop/FE310-G003/sifive_hifive1_revb_sifive_welcome/freedom-metal/src/drivers/riscv_cpu.c:593
}
20013b6c:	853e                	mv	a0,a5
20013b6e:	40f2                	lw	ra,28(sp)
20013b70:	4462                	lw	s0,24(sp)
20013b72:	6105                	addi	sp,sp,32
20013b74:	8082                	ret

20013b76 <__metal_driver_riscv_cpu_controller_set_vector_mode>:
__metal_driver_riscv_cpu_controller_set_vector_mode():
C:/Users/nandg/Desktop/FE310-G003/sifive_hifive1_revb_sifive_welcome/freedom-metal/src/drivers/riscv_cpu.c:596

int __metal_driver_riscv_cpu_controller_set_vector_mode(
    struct metal_interrupt *controller, metal_vector_mode mode) {
20013b76:	1101                	addi	sp,sp,-32
20013b78:	ce06                	sw	ra,28(sp)
20013b7a:	cc22                	sw	s0,24(sp)
20013b7c:	1000                	addi	s0,sp,32
20013b7e:	fea42623          	sw	a0,-20(s0)
20013b82:	feb42423          	sw	a1,-24(s0)
C:/Users/nandg/Desktop/FE310-G003/sifive_hifive1_revb_sifive_welcome/freedom-metal/src/drivers/riscv_cpu.c:598

    if (mode == METAL_DIRECT_MODE) {
20013b86:	fe842783          	lw	a5,-24(s0)
20013b8a:	eb99                	bnez	a5,20013ba0 <__metal_driver_riscv_cpu_controller_set_vector_mode+0x2a>
C:/Users/nandg/Desktop/FE310-G003/sifive_hifive1_revb_sifive_welcome/freedom-metal/src/drivers/riscv_cpu.c:599
        __metal_controller_interrupt_vector(
20013b8c:	200137b7          	lui	a5,0x20013
20013b90:	a8078593          	addi	a1,a5,-1408 # 20012a80 <__metal_exception_handler>
20013b94:	fe842503          	lw	a0,-24(s0)
20013b98:	a99ff0ef          	jal	ra,20013630 <__metal_controller_interrupt_vector>
C:/Users/nandg/Desktop/FE310-G003/sifive_hifive1_revb_sifive_welcome/freedom-metal/src/drivers/riscv_cpu.c:601
            mode, (void *)(uintptr_t)&__metal_exception_handler);
        return 0;
20013b9c:	4781                	li	a5,0
20013b9e:	a00d                	j	20013bc0 <__metal_driver_riscv_cpu_controller_set_vector_mode+0x4a>
C:/Users/nandg/Desktop/FE310-G003/sifive_hifive1_revb_sifive_welcome/freedom-metal/src/drivers/riscv_cpu.c:603
    }
    if (mode == METAL_VECTOR_MODE) {
20013ba0:	fe842703          	lw	a4,-24(s0)
20013ba4:	4785                	li	a5,1
20013ba6:	00f71c63          	bne	a4,a5,20013bbe <__metal_driver_riscv_cpu_controller_set_vector_mode+0x48>
C:/Users/nandg/Desktop/FE310-G003/sifive_hifive1_revb_sifive_welcome/freedom-metal/src/drivers/riscv_cpu.c:604
        __metal_controller_interrupt_vector(
20013baa:	200167b7          	lui	a5,0x20016
20013bae:	68078593          	addi	a1,a5,1664 # 20016680 <__metal_vector_table>
20013bb2:	fe842503          	lw	a0,-24(s0)
20013bb6:	a7bff0ef          	jal	ra,20013630 <__metal_controller_interrupt_vector>
C:/Users/nandg/Desktop/FE310-G003/sifive_hifive1_revb_sifive_welcome/freedom-metal/src/drivers/riscv_cpu.c:606
            mode, (void *)(uintptr_t)__metal_vector_table);
        return 0;
20013bba:	4781                	li	a5,0
20013bbc:	a011                	j	20013bc0 <__metal_driver_riscv_cpu_controller_set_vector_mode+0x4a>
C:/Users/nandg/Desktop/FE310-G003/sifive_hifive1_revb_sifive_welcome/freedom-metal/src/drivers/riscv_cpu.c:608
    }
    return -1;
20013bbe:	57fd                	li	a5,-1
C:/Users/nandg/Desktop/FE310-G003/sifive_hifive1_revb_sifive_welcome/freedom-metal/src/drivers/riscv_cpu.c:609
}
20013bc0:	853e                	mv	a0,a5
20013bc2:	40f2                	lw	ra,28(sp)
20013bc4:	4462                	lw	s0,24(sp)
20013bc6:	6105                	addi	sp,sp,32
20013bc8:	8082                	ret

20013bca <__metal_driver_riscv_cpu_controller_command_request>:
__metal_driver_riscv_cpu_controller_command_request():
C:/Users/nandg/Desktop/FE310-G003/sifive_hifive1_revb_sifive_welcome/freedom-metal/src/drivers/riscv_cpu.c:612

int __metal_driver_riscv_cpu_controller_command_request(
    struct metal_interrupt *controller, int cmd, void *data) {
20013bca:	1101                	addi	sp,sp,-32
20013bcc:	ce22                	sw	s0,28(sp)
20013bce:	1000                	addi	s0,sp,32
20013bd0:	fea42623          	sw	a0,-20(s0)
20013bd4:	feb42423          	sw	a1,-24(s0)
20013bd8:	fec42223          	sw	a2,-28(s0)
C:/Users/nandg/Desktop/FE310-G003/sifive_hifive1_revb_sifive_welcome/freedom-metal/src/drivers/riscv_cpu.c:615
    /* NOP for now, unless local interrupt lines the like of clic, clint, plic
     */
    return 0;
20013bdc:	4781                	li	a5,0
C:/Users/nandg/Desktop/FE310-G003/sifive_hifive1_revb_sifive_welcome/freedom-metal/src/drivers/riscv_cpu.c:616
}
20013bde:	853e                	mv	a0,a5
20013be0:	4472                	lw	s0,28(sp)
20013be2:	6105                	addi	sp,sp,32
20013be4:	8082                	ret

20013be6 <__metal_driver_cpu_mcycle_get>:
__metal_driver_cpu_mcycle_get():
C:/Users/nandg/Desktop/FE310-G003/sifive_hifive1_revb_sifive_welcome/freedom-metal/src/drivers/riscv_cpu.c:620

/* CPU driver !!! */

unsigned long long __metal_driver_cpu_mcycle_get(struct metal_cpu *cpu) {
20013be6:	7139                	addi	sp,sp,-64
20013be8:	de22                	sw	s0,60(sp)
20013bea:	0080                	addi	s0,sp,64
20013bec:	fca42623          	sw	a0,-52(s0)
C:/Users/nandg/Desktop/FE310-G003/sifive_hifive1_revb_sifive_welcome/freedom-metal/src/drivers/riscv_cpu.c:621
    unsigned long long val = 0;
20013bf0:	4501                	li	a0,0
20013bf2:	4581                	li	a1,0
20013bf4:	fea42423          	sw	a0,-24(s0)
20013bf8:	feb42623          	sw	a1,-20(s0)
C:/Users/nandg/Desktop/FE310-G003/sifive_hifive1_revb_sifive_welcome/freedom-metal/src/drivers/riscv_cpu.c:627 (discriminator 1)

#if __riscv_xlen == 32
    unsigned long hi, hi1, lo;

    do {
        __asm__ volatile("csrr %0, mcycleh" : "=r"(hi));
20013bfc:	b80025f3          	csrr	a1,mcycleh
20013c00:	feb42223          	sw	a1,-28(s0)
C:/Users/nandg/Desktop/FE310-G003/sifive_hifive1_revb_sifive_welcome/freedom-metal/src/drivers/riscv_cpu.c:628 (discriminator 1)
        __asm__ volatile("csrr %0, mcycle" : "=r"(lo));
20013c04:	b00025f3          	csrr	a1,mcycle
20013c08:	feb42023          	sw	a1,-32(s0)
C:/Users/nandg/Desktop/FE310-G003/sifive_hifive1_revb_sifive_welcome/freedom-metal/src/drivers/riscv_cpu.c:629 (discriminator 1)
        __asm__ volatile("csrr %0, mcycleh" : "=r"(hi1));
20013c0c:	b80025f3          	csrr	a1,mcycleh
20013c10:	fcb42e23          	sw	a1,-36(s0)
C:/Users/nandg/Desktop/FE310-G003/sifive_hifive1_revb_sifive_welcome/freedom-metal/src/drivers/riscv_cpu.c:632 (discriminator 1)
        /* hi != hi1 means mcycle overflow during we get value,
         * so we must retry. */
    } while (hi != hi1);
20013c14:	fe442503          	lw	a0,-28(s0)
20013c18:	fdc42583          	lw	a1,-36(s0)
20013c1c:	feb510e3          	bne	a0,a1,20013bfc <__metal_driver_cpu_mcycle_get+0x16>
C:/Users/nandg/Desktop/FE310-G003/sifive_hifive1_revb_sifive_welcome/freedom-metal/src/drivers/riscv_cpu.c:634

    val = ((unsigned long long)hi << 32) | lo;
20013c20:	fe442583          	lw	a1,-28(s0)
20013c24:	882e                	mv	a6,a1
20013c26:	4881                	li	a7,0
20013c28:	00081793          	slli	a5,a6,0x0
20013c2c:	4701                	li	a4,0
20013c2e:	fe042583          	lw	a1,-32(s0)
20013c32:	862e                	mv	a2,a1
20013c34:	4681                	li	a3,0
20013c36:	00c765b3          	or	a1,a4,a2
20013c3a:	feb42423          	sw	a1,-24(s0)
20013c3e:	8fd5                	or	a5,a5,a3
20013c40:	fef42623          	sw	a5,-20(s0)
C:/Users/nandg/Desktop/FE310-G003/sifive_hifive1_revb_sifive_welcome/freedom-metal/src/drivers/riscv_cpu.c:639
#else
    __asm__ volatile("csrr %0, mcycle" : "=r"(val));
#endif

    return val;
20013c44:	fe842703          	lw	a4,-24(s0)
20013c48:	fec42783          	lw	a5,-20(s0)
C:/Users/nandg/Desktop/FE310-G003/sifive_hifive1_revb_sifive_welcome/freedom-metal/src/drivers/riscv_cpu.c:640
}
20013c4c:	853a                	mv	a0,a4
20013c4e:	85be                	mv	a1,a5
20013c50:	5472                	lw	s0,60(sp)
20013c52:	6121                	addi	sp,sp,64
20013c54:	8082                	ret

20013c56 <__metal_driver_cpu_timebase_get>:
__metal_driver_cpu_timebase_get():
C:/Users/nandg/Desktop/FE310-G003/sifive_hifive1_revb_sifive_welcome/freedom-metal/src/drivers/riscv_cpu.c:642

unsigned long long __metal_driver_cpu_timebase_get(struct metal_cpu *cpu) {
20013c56:	7179                	addi	sp,sp,-48
20013c58:	d606                	sw	ra,44(sp)
20013c5a:	d422                	sw	s0,40(sp)
20013c5c:	d24a                	sw	s2,36(sp)
20013c5e:	d04e                	sw	s3,32(sp)
20013c60:	1800                	addi	s0,sp,48
20013c62:	fca42e23          	sw	a0,-36(s0)
C:/Users/nandg/Desktop/FE310-G003/sifive_hifive1_revb_sifive_welcome/freedom-metal/src/drivers/riscv_cpu.c:644
    int timebase;
    if (!cpu) {
20013c66:	fdc42783          	lw	a5,-36(s0)
20013c6a:	e781                	bnez	a5,20013c72 <__metal_driver_cpu_timebase_get+0x1c>
C:/Users/nandg/Desktop/FE310-G003/sifive_hifive1_revb_sifive_welcome/freedom-metal/src/drivers/riscv_cpu.c:645
        return 0;
20013c6c:	4901                	li	s2,0
20013c6e:	4981                	li	s3,0
20013c70:	a821                	j	20013c88 <__metal_driver_cpu_timebase_get+0x32>
C:/Users/nandg/Desktop/FE310-G003/sifive_hifive1_revb_sifive_welcome/freedom-metal/src/drivers/riscv_cpu.c:648
    }

    timebase = __metal_driver_cpu_timebase((struct metal_cpu *)cpu);
20013c72:	fdc42503          	lw	a0,-36(s0)
20013c76:	955fe0ef          	jal	ra,200125ca <__metal_driver_cpu_timebase>
20013c7a:	fea42623          	sw	a0,-20(s0)
C:/Users/nandg/Desktop/FE310-G003/sifive_hifive1_revb_sifive_welcome/freedom-metal/src/drivers/riscv_cpu.c:649
    return timebase;
20013c7e:	fec42783          	lw	a5,-20(s0)
20013c82:	893e                	mv	s2,a5
20013c84:	87fd                	srai	a5,a5,0x1f
20013c86:	89be                	mv	s3,a5
C:/Users/nandg/Desktop/FE310-G003/sifive_hifive1_revb_sifive_welcome/freedom-metal/src/drivers/riscv_cpu.c:650
}
20013c88:	874a                	mv	a4,s2
20013c8a:	87ce                	mv	a5,s3
20013c8c:	853a                	mv	a0,a4
20013c8e:	85be                	mv	a1,a5
20013c90:	50b2                	lw	ra,44(sp)
20013c92:	5422                	lw	s0,40(sp)
20013c94:	5912                	lw	s2,36(sp)
20013c96:	5982                	lw	s3,32(sp)
20013c98:	6145                	addi	sp,sp,48
20013c9a:	8082                	ret

20013c9c <__metal_driver_cpu_mtime_get>:
__metal_driver_cpu_mtime_get():
C:/Users/nandg/Desktop/FE310-G003/sifive_hifive1_revb_sifive_welcome/freedom-metal/src/drivers/riscv_cpu.c:652

unsigned long long __metal_driver_cpu_mtime_get(struct metal_cpu *cpu) {
20013c9c:	7179                	addi	sp,sp,-48
20013c9e:	d606                	sw	ra,44(sp)
20013ca0:	d422                	sw	s0,40(sp)
20013ca2:	1800                	addi	s0,sp,48
20013ca4:	fca42e23          	sw	a0,-36(s0)
C:/Users/nandg/Desktop/FE310-G003/sifive_hifive1_revb_sifive_welcome/freedom-metal/src/drivers/riscv_cpu.c:653
    unsigned long long time = 0;
20013ca8:	4781                	li	a5,0
20013caa:	4801                	li	a6,0
20013cac:	fef42023          	sw	a5,-32(s0)
20013cb0:	ff042223          	sw	a6,-28(s0)
C:/Users/nandg/Desktop/FE310-G003/sifive_hifive1_revb_sifive_welcome/freedom-metal/src/drivers/riscv_cpu.c:657
    struct metal_interrupt *tmr_intc;
    struct __metal_driver_riscv_cpu_intc *intc =
        (struct __metal_driver_riscv_cpu_intc *)
            __metal_driver_cpu_interrupt_controller(cpu);
20013cb4:	fdc42503          	lw	a0,-36(s0)
20013cb8:	93dfe0ef          	jal	ra,200125f4 <__metal_driver_cpu_interrupt_controller>
20013cbc:	fea42623          	sw	a0,-20(s0)
C:/Users/nandg/Desktop/FE310-G003/sifive_hifive1_revb_sifive_welcome/freedom-metal/src/drivers/riscv_cpu.c:659

    if (intc) {
20013cc0:	fec42783          	lw	a5,-20(s0)
20013cc4:	c78d                	beqz	a5,20013cee <__metal_driver_cpu_mtime_get+0x52>
C:/Users/nandg/Desktop/FE310-G003/sifive_hifive1_revb_sifive_welcome/freedom-metal/src/drivers/riscv_cpu.c:660
        tmr_intc = intc->metal_int_table[METAL_INTERRUPT_ID_TMR].sub_int;
20013cc6:	fec42783          	lw	a5,-20(s0)
20013cca:	13c7a783          	lw	a5,316(a5)
20013cce:	fef42423          	sw	a5,-24(s0)
C:/Users/nandg/Desktop/FE310-G003/sifive_hifive1_revb_sifive_welcome/freedom-metal/src/drivers/riscv_cpu.c:661
        if (tmr_intc) {
20013cd2:	fe842783          	lw	a5,-24(s0)
20013cd6:	cf81                	beqz	a5,20013cee <__metal_driver_cpu_mtime_get+0x52>
C:/Users/nandg/Desktop/FE310-G003/sifive_hifive1_revb_sifive_welcome/freedom-metal/src/drivers/riscv_cpu.c:662
            tmr_intc->vtable->command_request(tmr_intc, METAL_TIMER_MTIME_GET,
20013cd8:	fe842783          	lw	a5,-24(s0)
20013cdc:	439c                	lw	a5,0(a5)
20013cde:	47f8                	lw	a4,76(a5)
20013ce0:	fe040793          	addi	a5,s0,-32
20013ce4:	863e                	mv	a2,a5
20013ce6:	4585                	li	a1,1
20013ce8:	fe842503          	lw	a0,-24(s0)
20013cec:	9702                	jalr	a4
C:/Users/nandg/Desktop/FE310-G003/sifive_hifive1_revb_sifive_welcome/freedom-metal/src/drivers/riscv_cpu.c:666
                                              &time);
        }
    }
    return time;
20013cee:	fe042703          	lw	a4,-32(s0)
20013cf2:	fe442783          	lw	a5,-28(s0)
C:/Users/nandg/Desktop/FE310-G003/sifive_hifive1_revb_sifive_welcome/freedom-metal/src/drivers/riscv_cpu.c:667
}
20013cf6:	853a                	mv	a0,a4
20013cf8:	85be                	mv	a1,a5
20013cfa:	50b2                	lw	ra,44(sp)
20013cfc:	5422                	lw	s0,40(sp)
20013cfe:	6145                	addi	sp,sp,48
20013d00:	8082                	ret

20013d02 <__metal_driver_cpu_mtimecmp_set>:
__metal_driver_cpu_mtimecmp_set():
C:/Users/nandg/Desktop/FE310-G003/sifive_hifive1_revb_sifive_welcome/freedom-metal/src/drivers/riscv_cpu.c:670

int __metal_driver_cpu_mtimecmp_set(struct metal_cpu *cpu,
                                    unsigned long long time) {
20013d02:	7179                	addi	sp,sp,-48
20013d04:	d606                	sw	ra,44(sp)
20013d06:	d422                	sw	s0,40(sp)
20013d08:	d226                	sw	s1,36(sp)
20013d0a:	1800                	addi	s0,sp,48
20013d0c:	fca42e23          	sw	a0,-36(s0)
20013d10:	fcb42823          	sw	a1,-48(s0)
20013d14:	fcc42a23          	sw	a2,-44(s0)
C:/Users/nandg/Desktop/FE310-G003/sifive_hifive1_revb_sifive_welcome/freedom-metal/src/drivers/riscv_cpu.c:671
    int rc = -1;
20013d18:	57fd                	li	a5,-1
20013d1a:	fef42623          	sw	a5,-20(s0)
C:/Users/nandg/Desktop/FE310-G003/sifive_hifive1_revb_sifive_welcome/freedom-metal/src/drivers/riscv_cpu.c:675
    struct metal_interrupt *tmr_intc;
    struct __metal_driver_riscv_cpu_intc *intc =
        (struct __metal_driver_riscv_cpu_intc *)
            __metal_driver_cpu_interrupt_controller(cpu);
20013d1e:	fdc42503          	lw	a0,-36(s0)
20013d22:	8d3fe0ef          	jal	ra,200125f4 <__metal_driver_cpu_interrupt_controller>
20013d26:	fea42423          	sw	a0,-24(s0)
C:/Users/nandg/Desktop/FE310-G003/sifive_hifive1_revb_sifive_welcome/freedom-metal/src/drivers/riscv_cpu.c:677

    if (intc) {
20013d2a:	fe842783          	lw	a5,-24(s0)
20013d2e:	cf8d                	beqz	a5,20013d68 <__metal_driver_cpu_mtimecmp_set+0x66>
C:/Users/nandg/Desktop/FE310-G003/sifive_hifive1_revb_sifive_welcome/freedom-metal/src/drivers/riscv_cpu.c:678
        tmr_intc = intc->metal_int_table[METAL_INTERRUPT_ID_TMR].sub_int;
20013d30:	fe842783          	lw	a5,-24(s0)
20013d34:	13c7a783          	lw	a5,316(a5)
20013d38:	fef42223          	sw	a5,-28(s0)
C:/Users/nandg/Desktop/FE310-G003/sifive_hifive1_revb_sifive_welcome/freedom-metal/src/drivers/riscv_cpu.c:679
        if (tmr_intc) {
20013d3c:	fe442783          	lw	a5,-28(s0)
20013d40:	c785                	beqz	a5,20013d68 <__metal_driver_cpu_mtimecmp_set+0x66>
C:/Users/nandg/Desktop/FE310-G003/sifive_hifive1_revb_sifive_welcome/freedom-metal/src/drivers/riscv_cpu.c:680
            rc = tmr_intc->vtable->mtimecmp_set(
20013d42:	fe442783          	lw	a5,-28(s0)
20013d46:	439c                	lw	a5,0(a5)
20013d48:	4ba4                	lw	s1,80(a5)
20013d4a:	fdc42503          	lw	a0,-36(s0)
20013d4e:	859fe0ef          	jal	ra,200125a6 <__metal_driver_cpu_hartid>
20013d52:	87aa                	mv	a5,a0
20013d54:	fd042603          	lw	a2,-48(s0)
20013d58:	fd442683          	lw	a3,-44(s0)
20013d5c:	85be                	mv	a1,a5
20013d5e:	fe442503          	lw	a0,-28(s0)
20013d62:	9482                	jalr	s1
20013d64:	fea42623          	sw	a0,-20(s0)
C:/Users/nandg/Desktop/FE310-G003/sifive_hifive1_revb_sifive_welcome/freedom-metal/src/drivers/riscv_cpu.c:684
                tmr_intc, __metal_driver_cpu_hartid(cpu), time);
        }
    }
    return rc;
20013d68:	fec42783          	lw	a5,-20(s0)
C:/Users/nandg/Desktop/FE310-G003/sifive_hifive1_revb_sifive_welcome/freedom-metal/src/drivers/riscv_cpu.c:685
}
20013d6c:	853e                	mv	a0,a5
20013d6e:	50b2                	lw	ra,44(sp)
20013d70:	5422                	lw	s0,40(sp)
20013d72:	5492                	lw	s1,36(sp)
20013d74:	6145                	addi	sp,sp,48
20013d76:	8082                	ret

20013d78 <__metal_driver_cpu_timer_controller_interrupt>:
__metal_driver_cpu_timer_controller_interrupt():
C:/Users/nandg/Desktop/FE310-G003/sifive_hifive1_revb_sifive_welcome/freedom-metal/src/drivers/riscv_cpu.c:688

struct metal_interrupt *
__metal_driver_cpu_timer_controller_interrupt(struct metal_cpu *cpu) {
20013d78:	1101                	addi	sp,sp,-32
20013d7a:	ce22                	sw	s0,28(sp)
20013d7c:	1000                	addi	s0,sp,32
20013d7e:	fea42623          	sw	a0,-20(s0)
C:/Users/nandg/Desktop/FE310-G003/sifive_hifive1_revb_sifive_welcome/freedom-metal/src/drivers/riscv_cpu.c:690
#ifdef __METAL_DT_RISCV_CLINT0_HANDLE
    return __METAL_DT_RISCV_CLINT0_HANDLE;
20013d82:	800017b7          	lui	a5,0x80001
20013d86:	aac78793          	addi	a5,a5,-1364 # 80000aac <metal_segment_heap_target_end+0xfffff33c>
C:/Users/nandg/Desktop/FE310-G003/sifive_hifive1_revb_sifive_welcome/freedom-metal/src/drivers/riscv_cpu.c:699
#else
#pragma message("There is no interrupt controller for Timer interrupt")
    return NULL;
#endif
#endif
}
20013d8a:	853e                	mv	a0,a5
20013d8c:	4472                	lw	s0,28(sp)
20013d8e:	6105                	addi	sp,sp,32
20013d90:	8082                	ret

20013d92 <__metal_driver_cpu_get_timer_interrupt_id>:
__metal_driver_cpu_get_timer_interrupt_id():
C:/Users/nandg/Desktop/FE310-G003/sifive_hifive1_revb_sifive_welcome/freedom-metal/src/drivers/riscv_cpu.c:701

int __metal_driver_cpu_get_timer_interrupt_id(struct metal_cpu *cpu) {
20013d92:	1101                	addi	sp,sp,-32
20013d94:	ce22                	sw	s0,28(sp)
20013d96:	1000                	addi	s0,sp,32
20013d98:	fea42623          	sw	a0,-20(s0)
C:/Users/nandg/Desktop/FE310-G003/sifive_hifive1_revb_sifive_welcome/freedom-metal/src/drivers/riscv_cpu.c:702
    return METAL_INTERRUPT_ID_TMR;
20013d9c:	479d                	li	a5,7
C:/Users/nandg/Desktop/FE310-G003/sifive_hifive1_revb_sifive_welcome/freedom-metal/src/drivers/riscv_cpu.c:703
}
20013d9e:	853e                	mv	a0,a5
20013da0:	4472                	lw	s0,28(sp)
20013da2:	6105                	addi	sp,sp,32
20013da4:	8082                	ret

20013da6 <__metal_driver_cpu_sw_controller_interrupt>:
__metal_driver_cpu_sw_controller_interrupt():
C:/Users/nandg/Desktop/FE310-G003/sifive_hifive1_revb_sifive_welcome/freedom-metal/src/drivers/riscv_cpu.c:706

struct metal_interrupt *
__metal_driver_cpu_sw_controller_interrupt(struct metal_cpu *cpu) {
20013da6:	1101                	addi	sp,sp,-32
20013da8:	ce22                	sw	s0,28(sp)
20013daa:	1000                	addi	s0,sp,32
20013dac:	fea42623          	sw	a0,-20(s0)
C:/Users/nandg/Desktop/FE310-G003/sifive_hifive1_revb_sifive_welcome/freedom-metal/src/drivers/riscv_cpu.c:708
#ifdef __METAL_DT_RISCV_CLINT0_HANDLE
    return __METAL_DT_RISCV_CLINT0_HANDLE;
20013db0:	800017b7          	lui	a5,0x80001
20013db4:	aac78793          	addi	a5,a5,-1364 # 80000aac <metal_segment_heap_target_end+0xfffff33c>
C:/Users/nandg/Desktop/FE310-G003/sifive_hifive1_revb_sifive_welcome/freedom-metal/src/drivers/riscv_cpu.c:717
#else
#pragma message("There is no interrupt controller for Software interrupt")
    return NULL;
#endif
#endif
}
20013db8:	853e                	mv	a0,a5
20013dba:	4472                	lw	s0,28(sp)
20013dbc:	6105                	addi	sp,sp,32
20013dbe:	8082                	ret

20013dc0 <__metal_driver_cpu_get_sw_interrupt_id>:
__metal_driver_cpu_get_sw_interrupt_id():
C:/Users/nandg/Desktop/FE310-G003/sifive_hifive1_revb_sifive_welcome/freedom-metal/src/drivers/riscv_cpu.c:719

int __metal_driver_cpu_get_sw_interrupt_id(struct metal_cpu *cpu) {
20013dc0:	1101                	addi	sp,sp,-32
20013dc2:	ce22                	sw	s0,28(sp)
20013dc4:	1000                	addi	s0,sp,32
20013dc6:	fea42623          	sw	a0,-20(s0)
C:/Users/nandg/Desktop/FE310-G003/sifive_hifive1_revb_sifive_welcome/freedom-metal/src/drivers/riscv_cpu.c:720
    return METAL_INTERRUPT_ID_SW;
20013dca:	478d                	li	a5,3
C:/Users/nandg/Desktop/FE310-G003/sifive_hifive1_revb_sifive_welcome/freedom-metal/src/drivers/riscv_cpu.c:721
}
20013dcc:	853e                	mv	a0,a5
20013dce:	4472                	lw	s0,28(sp)
20013dd0:	6105                	addi	sp,sp,32
20013dd2:	8082                	ret

20013dd4 <__metal_driver_cpu_set_sw_ipi>:
__metal_driver_cpu_set_sw_ipi():
C:/Users/nandg/Desktop/FE310-G003/sifive_hifive1_revb_sifive_welcome/freedom-metal/src/drivers/riscv_cpu.c:723

int __metal_driver_cpu_set_sw_ipi(struct metal_cpu *cpu, int hartid) {
20013dd4:	7179                	addi	sp,sp,-48
20013dd6:	d606                	sw	ra,44(sp)
20013dd8:	d422                	sw	s0,40(sp)
20013dda:	1800                	addi	s0,sp,48
20013ddc:	fca42e23          	sw	a0,-36(s0)
20013de0:	fcb42c23          	sw	a1,-40(s0)
C:/Users/nandg/Desktop/FE310-G003/sifive_hifive1_revb_sifive_welcome/freedom-metal/src/drivers/riscv_cpu.c:724
    int rc = -1;
20013de4:	57fd                	li	a5,-1
20013de6:	fef42623          	sw	a5,-20(s0)
C:/Users/nandg/Desktop/FE310-G003/sifive_hifive1_revb_sifive_welcome/freedom-metal/src/drivers/riscv_cpu.c:728
    struct metal_interrupt *sw_intc;
    struct __metal_driver_riscv_cpu_intc *intc =
        (struct __metal_driver_riscv_cpu_intc *)
            __metal_driver_cpu_interrupt_controller(cpu);
20013dea:	fdc42503          	lw	a0,-36(s0)
20013dee:	807fe0ef          	jal	ra,200125f4 <__metal_driver_cpu_interrupt_controller>
20013df2:	fea42423          	sw	a0,-24(s0)
C:/Users/nandg/Desktop/FE310-G003/sifive_hifive1_revb_sifive_welcome/freedom-metal/src/drivers/riscv_cpu.c:730

    if (intc) {
20013df6:	fe842783          	lw	a5,-24(s0)
20013dfa:	c79d                	beqz	a5,20013e28 <__metal_driver_cpu_set_sw_ipi+0x54>
C:/Users/nandg/Desktop/FE310-G003/sifive_hifive1_revb_sifive_welcome/freedom-metal/src/drivers/riscv_cpu.c:731
        sw_intc = intc->metal_int_table[METAL_INTERRUPT_ID_SW].sub_int;
20013dfc:	fe842783          	lw	a5,-24(s0)
20013e00:	0dc7a783          	lw	a5,220(a5)
20013e04:	fef42223          	sw	a5,-28(s0)
C:/Users/nandg/Desktop/FE310-G003/sifive_hifive1_revb_sifive_welcome/freedom-metal/src/drivers/riscv_cpu.c:732
        if (sw_intc) {
20013e08:	fe442783          	lw	a5,-28(s0)
20013e0c:	cf91                	beqz	a5,20013e28 <__metal_driver_cpu_set_sw_ipi+0x54>
C:/Users/nandg/Desktop/FE310-G003/sifive_hifive1_revb_sifive_welcome/freedom-metal/src/drivers/riscv_cpu.c:733
            rc = sw_intc->vtable->command_request(
20013e0e:	fe442783          	lw	a5,-28(s0)
20013e12:	439c                	lw	a5,0(a5)
20013e14:	47f8                	lw	a4,76(a5)
20013e16:	fd840793          	addi	a5,s0,-40
20013e1a:	863e                	mv	a2,a5
20013e1c:	458d                	li	a1,3
20013e1e:	fe442503          	lw	a0,-28(s0)
20013e22:	9702                	jalr	a4
20013e24:	fea42623          	sw	a0,-20(s0)
C:/Users/nandg/Desktop/FE310-G003/sifive_hifive1_revb_sifive_welcome/freedom-metal/src/drivers/riscv_cpu.c:737
                sw_intc, METAL_SOFTWARE_IPI_SET, &hartid);
        }
    }
    return rc;
20013e28:	fec42783          	lw	a5,-20(s0)
C:/Users/nandg/Desktop/FE310-G003/sifive_hifive1_revb_sifive_welcome/freedom-metal/src/drivers/riscv_cpu.c:738
}
20013e2c:	853e                	mv	a0,a5
20013e2e:	50b2                	lw	ra,44(sp)
20013e30:	5422                	lw	s0,40(sp)
20013e32:	6145                	addi	sp,sp,48
20013e34:	8082                	ret

20013e36 <__metal_driver_cpu_clear_sw_ipi>:
__metal_driver_cpu_clear_sw_ipi():
C:/Users/nandg/Desktop/FE310-G003/sifive_hifive1_revb_sifive_welcome/freedom-metal/src/drivers/riscv_cpu.c:740

int __metal_driver_cpu_clear_sw_ipi(struct metal_cpu *cpu, int hartid) {
20013e36:	7179                	addi	sp,sp,-48
20013e38:	d606                	sw	ra,44(sp)
20013e3a:	d422                	sw	s0,40(sp)
20013e3c:	1800                	addi	s0,sp,48
20013e3e:	fca42e23          	sw	a0,-36(s0)
20013e42:	fcb42c23          	sw	a1,-40(s0)
C:/Users/nandg/Desktop/FE310-G003/sifive_hifive1_revb_sifive_welcome/freedom-metal/src/drivers/riscv_cpu.c:741
    int rc = -1;
20013e46:	57fd                	li	a5,-1
20013e48:	fef42623          	sw	a5,-20(s0)
C:/Users/nandg/Desktop/FE310-G003/sifive_hifive1_revb_sifive_welcome/freedom-metal/src/drivers/riscv_cpu.c:745
    struct metal_interrupt *sw_intc;
    struct __metal_driver_riscv_cpu_intc *intc =
        (struct __metal_driver_riscv_cpu_intc *)
            __metal_driver_cpu_interrupt_controller(cpu);
20013e4c:	fdc42503          	lw	a0,-36(s0)
20013e50:	fa4fe0ef          	jal	ra,200125f4 <__metal_driver_cpu_interrupt_controller>
20013e54:	fea42423          	sw	a0,-24(s0)
C:/Users/nandg/Desktop/FE310-G003/sifive_hifive1_revb_sifive_welcome/freedom-metal/src/drivers/riscv_cpu.c:747

    if (intc) {
20013e58:	fe842783          	lw	a5,-24(s0)
20013e5c:	c79d                	beqz	a5,20013e8a <__metal_driver_cpu_clear_sw_ipi+0x54>
C:/Users/nandg/Desktop/FE310-G003/sifive_hifive1_revb_sifive_welcome/freedom-metal/src/drivers/riscv_cpu.c:748
        sw_intc = intc->metal_int_table[METAL_INTERRUPT_ID_SW].sub_int;
20013e5e:	fe842783          	lw	a5,-24(s0)
20013e62:	0dc7a783          	lw	a5,220(a5)
20013e66:	fef42223          	sw	a5,-28(s0)
C:/Users/nandg/Desktop/FE310-G003/sifive_hifive1_revb_sifive_welcome/freedom-metal/src/drivers/riscv_cpu.c:749
        if (sw_intc) {
20013e6a:	fe442783          	lw	a5,-28(s0)
20013e6e:	cf91                	beqz	a5,20013e8a <__metal_driver_cpu_clear_sw_ipi+0x54>
C:/Users/nandg/Desktop/FE310-G003/sifive_hifive1_revb_sifive_welcome/freedom-metal/src/drivers/riscv_cpu.c:750
            rc = sw_intc->vtable->command_request(
20013e70:	fe442783          	lw	a5,-28(s0)
20013e74:	439c                	lw	a5,0(a5)
20013e76:	47f8                	lw	a4,76(a5)
20013e78:	fd840793          	addi	a5,s0,-40
20013e7c:	863e                	mv	a2,a5
20013e7e:	4589                	li	a1,2
20013e80:	fe442503          	lw	a0,-28(s0)
20013e84:	9702                	jalr	a4
20013e86:	fea42623          	sw	a0,-20(s0)
C:/Users/nandg/Desktop/FE310-G003/sifive_hifive1_revb_sifive_welcome/freedom-metal/src/drivers/riscv_cpu.c:754
                sw_intc, METAL_SOFTWARE_IPI_CLEAR, &hartid);
        }
    }
    return rc;
20013e8a:	fec42783          	lw	a5,-20(s0)
C:/Users/nandg/Desktop/FE310-G003/sifive_hifive1_revb_sifive_welcome/freedom-metal/src/drivers/riscv_cpu.c:755
}
20013e8e:	853e                	mv	a0,a5
20013e90:	50b2                	lw	ra,44(sp)
20013e92:	5422                	lw	s0,40(sp)
20013e94:	6145                	addi	sp,sp,48
20013e96:	8082                	ret

20013e98 <__metal_driver_cpu_get_msip>:
__metal_driver_cpu_get_msip():
C:/Users/nandg/Desktop/FE310-G003/sifive_hifive1_revb_sifive_welcome/freedom-metal/src/drivers/riscv_cpu.c:757

int __metal_driver_cpu_get_msip(struct metal_cpu *cpu, int hartid) {
20013e98:	7179                	addi	sp,sp,-48
20013e9a:	d606                	sw	ra,44(sp)
20013e9c:	d422                	sw	s0,40(sp)
20013e9e:	1800                	addi	s0,sp,48
20013ea0:	fca42e23          	sw	a0,-36(s0)
20013ea4:	fcb42c23          	sw	a1,-40(s0)
C:/Users/nandg/Desktop/FE310-G003/sifive_hifive1_revb_sifive_welcome/freedom-metal/src/drivers/riscv_cpu.c:758
    int rc = 0;
20013ea8:	fe042623          	sw	zero,-20(s0)
C:/Users/nandg/Desktop/FE310-G003/sifive_hifive1_revb_sifive_welcome/freedom-metal/src/drivers/riscv_cpu.c:762
    struct metal_interrupt *sw_intc;
    struct __metal_driver_riscv_cpu_intc *intc =
        (struct __metal_driver_riscv_cpu_intc *)
            __metal_driver_cpu_interrupt_controller(cpu);
20013eac:	fdc42503          	lw	a0,-36(s0)
20013eb0:	f44fe0ef          	jal	ra,200125f4 <__metal_driver_cpu_interrupt_controller>
20013eb4:	fea42423          	sw	a0,-24(s0)
C:/Users/nandg/Desktop/FE310-G003/sifive_hifive1_revb_sifive_welcome/freedom-metal/src/drivers/riscv_cpu.c:764

    if (intc) {
20013eb8:	fe842783          	lw	a5,-24(s0)
20013ebc:	c79d                	beqz	a5,20013eea <__metal_driver_cpu_get_msip+0x52>
C:/Users/nandg/Desktop/FE310-G003/sifive_hifive1_revb_sifive_welcome/freedom-metal/src/drivers/riscv_cpu.c:765
        sw_intc = intc->metal_int_table[METAL_INTERRUPT_ID_SW].sub_int;
20013ebe:	fe842783          	lw	a5,-24(s0)
20013ec2:	0dc7a783          	lw	a5,220(a5)
20013ec6:	fef42223          	sw	a5,-28(s0)
C:/Users/nandg/Desktop/FE310-G003/sifive_hifive1_revb_sifive_welcome/freedom-metal/src/drivers/riscv_cpu.c:766
        if (sw_intc) {
20013eca:	fe442783          	lw	a5,-28(s0)
20013ece:	cf91                	beqz	a5,20013eea <__metal_driver_cpu_get_msip+0x52>
C:/Users/nandg/Desktop/FE310-G003/sifive_hifive1_revb_sifive_welcome/freedom-metal/src/drivers/riscv_cpu.c:767
            rc = sw_intc->vtable->command_request(
20013ed0:	fe442783          	lw	a5,-28(s0)
20013ed4:	439c                	lw	a5,0(a5)
20013ed6:	47f8                	lw	a4,76(a5)
20013ed8:	fd840793          	addi	a5,s0,-40
20013edc:	863e                	mv	a2,a5
20013ede:	4591                	li	a1,4
20013ee0:	fe442503          	lw	a0,-28(s0)
20013ee4:	9702                	jalr	a4
20013ee6:	fea42623          	sw	a0,-20(s0)
C:/Users/nandg/Desktop/FE310-G003/sifive_hifive1_revb_sifive_welcome/freedom-metal/src/drivers/riscv_cpu.c:771
                sw_intc, METAL_SOFTWARE_MSIP_GET, &hartid);
        }
    }
    return rc;
20013eea:	fec42783          	lw	a5,-20(s0)
C:/Users/nandg/Desktop/FE310-G003/sifive_hifive1_revb_sifive_welcome/freedom-metal/src/drivers/riscv_cpu.c:772
}
20013eee:	853e                	mv	a0,a5
20013ef0:	50b2                	lw	ra,44(sp)
20013ef2:	5422                	lw	s0,40(sp)
20013ef4:	6145                	addi	sp,sp,48
20013ef6:	8082                	ret

20013ef8 <__metal_driver_cpu_controller_interrupt>:
__metal_driver_cpu_controller_interrupt():
C:/Users/nandg/Desktop/FE310-G003/sifive_hifive1_revb_sifive_welcome/freedom-metal/src/drivers/riscv_cpu.c:775

struct metal_interrupt *
__metal_driver_cpu_controller_interrupt(struct metal_cpu *cpu) {
20013ef8:	1101                	addi	sp,sp,-32
20013efa:	ce06                	sw	ra,28(sp)
20013efc:	cc22                	sw	s0,24(sp)
20013efe:	1000                	addi	s0,sp,32
20013f00:	fea42623          	sw	a0,-20(s0)
C:/Users/nandg/Desktop/FE310-G003/sifive_hifive1_revb_sifive_welcome/freedom-metal/src/drivers/riscv_cpu.c:776
    return __metal_driver_cpu_interrupt_controller(cpu);
20013f04:	fec42503          	lw	a0,-20(s0)
20013f08:	eecfe0ef          	jal	ra,200125f4 <__metal_driver_cpu_interrupt_controller>
20013f0c:	87aa                	mv	a5,a0
C:/Users/nandg/Desktop/FE310-G003/sifive_hifive1_revb_sifive_welcome/freedom-metal/src/drivers/riscv_cpu.c:777
}
20013f0e:	853e                	mv	a0,a5
20013f10:	40f2                	lw	ra,28(sp)
20013f12:	4462                	lw	s0,24(sp)
20013f14:	6105                	addi	sp,sp,32
20013f16:	8082                	ret

20013f18 <__metal_driver_cpu_exception_register>:
__metal_driver_cpu_exception_register():
C:/Users/nandg/Desktop/FE310-G003/sifive_hifive1_revb_sifive_welcome/freedom-metal/src/drivers/riscv_cpu.c:798
    }
    return -1;
}

int __metal_driver_cpu_exception_register(struct metal_cpu *cpu, int ecode,
                                          metal_exception_handler_t isr) {
20013f18:	7179                	addi	sp,sp,-48
20013f1a:	d606                	sw	ra,44(sp)
20013f1c:	d422                	sw	s0,40(sp)
20013f1e:	1800                	addi	s0,sp,48
20013f20:	fca42e23          	sw	a0,-36(s0)
20013f24:	fcb42c23          	sw	a1,-40(s0)
20013f28:	fcc42a23          	sw	a2,-44(s0)
C:/Users/nandg/Desktop/FE310-G003/sifive_hifive1_revb_sifive_welcome/freedom-metal/src/drivers/riscv_cpu.c:801
    struct __metal_driver_riscv_cpu_intc *intc =
        (struct __metal_driver_riscv_cpu_intc *)
            __metal_driver_cpu_interrupt_controller(cpu);
20013f2c:	fdc42503          	lw	a0,-36(s0)
20013f30:	ec4fe0ef          	jal	ra,200125f4 <__metal_driver_cpu_interrupt_controller>
20013f34:	fea42623          	sw	a0,-20(s0)
C:/Users/nandg/Desktop/FE310-G003/sifive_hifive1_revb_sifive_welcome/freedom-metal/src/drivers/riscv_cpu.c:803

    if (intc) {
20013f38:	fec42783          	lw	a5,-20(s0)
20013f3c:	cb99                	beqz	a5,20013f52 <__metal_driver_cpu_exception_register+0x3a>
C:/Users/nandg/Desktop/FE310-G003/sifive_hifive1_revb_sifive_welcome/freedom-metal/src/drivers/riscv_cpu.c:804
        return __metal_exception_register((struct metal_interrupt *)intc, ecode,
20013f3e:	fd442603          	lw	a2,-44(s0)
20013f42:	fd842583          	lw	a1,-40(s0)
20013f46:	fec42503          	lw	a0,-20(s0)
20013f4a:	8adff0ef          	jal	ra,200137f6 <__metal_exception_register>
20013f4e:	87aa                	mv	a5,a0
20013f50:	a011                	j	20013f54 <__metal_driver_cpu_exception_register+0x3c>
C:/Users/nandg/Desktop/FE310-G003/sifive_hifive1_revb_sifive_welcome/freedom-metal/src/drivers/riscv_cpu.c:807
                                          isr);
    }
    return -1;
20013f52:	57fd                	li	a5,-1
C:/Users/nandg/Desktop/FE310-G003/sifive_hifive1_revb_sifive_welcome/freedom-metal/src/drivers/riscv_cpu.c:808
}
20013f54:	853e                	mv	a0,a5
20013f56:	50b2                	lw	ra,44(sp)
20013f58:	5422                	lw	s0,40(sp)
20013f5a:	6145                	addi	sp,sp,48
20013f5c:	8082                	ret

20013f5e <__metal_driver_cpu_get_instruction_length>:
__metal_driver_cpu_get_instruction_length():
C:/Users/nandg/Desktop/FE310-G003/sifive_hifive1_revb_sifive_welcome/freedom-metal/src/drivers/riscv_cpu.c:811

int __metal_driver_cpu_get_instruction_length(struct metal_cpu *cpu,
                                              uintptr_t epc) {
20013f5e:	1101                	addi	sp,sp,-32
20013f60:	ce22                	sw	s0,28(sp)
20013f62:	1000                	addi	s0,sp,32
20013f64:	fea42623          	sw	a0,-20(s0)
20013f68:	feb42423          	sw	a1,-24(s0)
C:/Users/nandg/Desktop/FE310-G003/sifive_hifive1_revb_sifive_welcome/freedom-metal/src/drivers/riscv_cpu.c:817
    /**
     * Per ISA compressed instruction has last two bits of opcode set.
     * The encoding '00' '01' '10' are used for compressed instruction.
     * Only enconding '11' isn't regarded as compressed instruction (>16b).
     */
    return ((*(unsigned short *)epc & METAL_INSN_LENGTH_MASK) ==
20013f6c:	fe842783          	lw	a5,-24(s0)
20013f70:	0007d783          	lhu	a5,0(a5)
20013f74:	0037f713          	andi	a4,a5,3
C:/Users/nandg/Desktop/FE310-G003/sifive_hifive1_revb_sifive_welcome/freedom-metal/src/drivers/riscv_cpu.c:820
            METAL_INSN_NOT_COMPRESSED)
               ? 4
               : 2;
20013f78:	478d                	li	a5,3
20013f7a:	00f71463          	bne	a4,a5,20013f82 <__metal_driver_cpu_get_instruction_length+0x24>
C:/Users/nandg/Desktop/FE310-G003/sifive_hifive1_revb_sifive_welcome/freedom-metal/src/drivers/riscv_cpu.c:820 (discriminator 1)
20013f7e:	4791                	li	a5,4
20013f80:	a011                	j	20013f84 <__metal_driver_cpu_get_instruction_length+0x26>
C:/Users/nandg/Desktop/FE310-G003/sifive_hifive1_revb_sifive_welcome/freedom-metal/src/drivers/riscv_cpu.c:820 (discriminator 2)
20013f82:	4789                	li	a5,2
C:/Users/nandg/Desktop/FE310-G003/sifive_hifive1_revb_sifive_welcome/freedom-metal/src/drivers/riscv_cpu.c:821 (discriminator 5)
}
20013f84:	853e                	mv	a0,a5
20013f86:	4472                	lw	s0,28(sp)
20013f88:	6105                	addi	sp,sp,32
20013f8a:	8082                	ret

20013f8c <__metal_driver_cpu_get_exception_pc>:
__metal_driver_cpu_get_exception_pc():
C:/Users/nandg/Desktop/FE310-G003/sifive_hifive1_revb_sifive_welcome/freedom-metal/src/drivers/riscv_cpu.c:823

uintptr_t __metal_driver_cpu_get_exception_pc(struct metal_cpu *cpu) {
20013f8c:	7179                	addi	sp,sp,-48
20013f8e:	d622                	sw	s0,44(sp)
20013f90:	1800                	addi	s0,sp,48
20013f92:	fca42e23          	sw	a0,-36(s0)
C:/Users/nandg/Desktop/FE310-G003/sifive_hifive1_revb_sifive_welcome/freedom-metal/src/drivers/riscv_cpu.c:825
    uintptr_t mepc;
    __asm__ volatile("csrr %0, mepc" : "=r"(mepc));
20013f96:	341027f3          	csrr	a5,mepc
20013f9a:	fef42623          	sw	a5,-20(s0)
C:/Users/nandg/Desktop/FE310-G003/sifive_hifive1_revb_sifive_welcome/freedom-metal/src/drivers/riscv_cpu.c:826
    return mepc;
20013f9e:	fec42783          	lw	a5,-20(s0)
C:/Users/nandg/Desktop/FE310-G003/sifive_hifive1_revb_sifive_welcome/freedom-metal/src/drivers/riscv_cpu.c:827
}
20013fa2:	853e                	mv	a0,a5
20013fa4:	5432                	lw	s0,44(sp)
20013fa6:	6145                	addi	sp,sp,48
20013fa8:	8082                	ret

20013faa <__metal_driver_cpu_set_exception_pc>:
__metal_driver_cpu_set_exception_pc():
C:/Users/nandg/Desktop/FE310-G003/sifive_hifive1_revb_sifive_welcome/freedom-metal/src/drivers/riscv_cpu.c:829

int __metal_driver_cpu_set_exception_pc(struct metal_cpu *cpu, uintptr_t mepc) {
20013faa:	1101                	addi	sp,sp,-32
20013fac:	ce22                	sw	s0,28(sp)
20013fae:	1000                	addi	s0,sp,32
20013fb0:	fea42623          	sw	a0,-20(s0)
20013fb4:	feb42423          	sw	a1,-24(s0)
C:/Users/nandg/Desktop/FE310-G003/sifive_hifive1_revb_sifive_welcome/freedom-metal/src/drivers/riscv_cpu.c:830
    __asm__ volatile("csrw mepc, %0" ::"r"(mepc));
20013fb8:	fe842783          	lw	a5,-24(s0)
20013fbc:	34179073          	csrw	mepc,a5
C:/Users/nandg/Desktop/FE310-G003/sifive_hifive1_revb_sifive_welcome/freedom-metal/src/drivers/riscv_cpu.c:831
    return 0;
20013fc0:	4781                	li	a5,0
C:/Users/nandg/Desktop/FE310-G003/sifive_hifive1_revb_sifive_welcome/freedom-metal/src/drivers/riscv_cpu.c:832
}
20013fc2:	853e                	mv	a0,a5
20013fc4:	4472                	lw	s0,28(sp)
20013fc6:	6105                	addi	sp,sp,32
20013fc8:	8082                	ret

20013fca <__metal_driver_cpu_get_buserror>:
__metal_driver_cpu_get_buserror():
C:/Users/nandg/Desktop/FE310-G003/sifive_hifive1_revb_sifive_welcome/freedom-metal/src/drivers/riscv_cpu.c:834

struct metal_buserror *__metal_driver_cpu_get_buserror(struct metal_cpu *cpu) {
20013fca:	1101                	addi	sp,sp,-32
20013fcc:	ce06                	sw	ra,28(sp)
20013fce:	cc22                	sw	s0,24(sp)
20013fd0:	1000                	addi	s0,sp,32
20013fd2:	fea42623          	sw	a0,-20(s0)
C:/Users/nandg/Desktop/FE310-G003/sifive_hifive1_revb_sifive_welcome/freedom-metal/src/drivers/riscv_cpu.c:835
    return __metal_driver_cpu_buserror(cpu);
20013fd6:	fec42503          	lw	a0,-20(s0)
20013fda:	e44fe0ef          	jal	ra,2001261e <__metal_driver_cpu_buserror>
20013fde:	87aa                	mv	a5,a0
C:/Users/nandg/Desktop/FE310-G003/sifive_hifive1_revb_sifive_welcome/freedom-metal/src/drivers/riscv_cpu.c:836
}
20013fe0:	853e                	mv	a0,a5
20013fe2:	40f2                	lw	ra,28(sp)
20013fe4:	4462                	lw	s0,24(sp)
20013fe6:	6105                	addi	sp,sp,32
20013fe8:	8082                	ret

20013fea <__metal_driver_sifive_plic0_control_base>:
__metal_driver_sifive_plic0_control_base():
C:\Users\nandg\Desktop\FE310-G003\sifive_hifive1_revb_sifive_welcome\bsp\build\debug/./metal/machine.h:345



/* --------------------- sifive_plic0 ------------ */
static __inline__ unsigned long __metal_driver_sifive_plic0_control_base(struct metal_interrupt *controller)
{
20013fea:	1101                	addi	sp,sp,-32
20013fec:	ce22                	sw	s0,28(sp)
20013fee:	1000                	addi	s0,sp,32
20013ff0:	fea42623          	sw	a0,-20(s0)
C:\Users\nandg\Desktop\FE310-G003\sifive_hifive1_revb_sifive_welcome\bsp\build\debug/./metal/machine.h:346
	if ((uintptr_t)controller == (uintptr_t)&__metal_dt_interrupt_controller_c000000) {
20013ff4:	fec42703          	lw	a4,-20(s0)
20013ff8:	800007b7          	lui	a5,0x80000
20013ffc:	46078793          	addi	a5,a5,1120 # 80000460 <metal_segment_heap_target_end+0xffffecf0>
20014000:	00f71563          	bne	a4,a5,2001400a <__metal_driver_sifive_plic0_control_base+0x20>
C:\Users\nandg\Desktop\FE310-G003\sifive_hifive1_revb_sifive_welcome\bsp\build\debug/./metal/machine.h:347
		return METAL_RISCV_PLIC0_C000000_BASE_ADDRESS;
20014004:	0c0007b7          	lui	a5,0xc000
20014008:	a011                	j	2001400c <__metal_driver_sifive_plic0_control_base+0x22>
C:\Users\nandg\Desktop\FE310-G003\sifive_hifive1_revb_sifive_welcome\bsp\build\debug/./metal/machine.h:350
	}
	else {
		return 0;
2001400a:	4781                	li	a5,0
C:\Users\nandg\Desktop\FE310-G003\sifive_hifive1_revb_sifive_welcome\bsp\build\debug/./metal/machine.h:352
	}
}
2001400c:	853e                	mv	a0,a5
2001400e:	4472                	lw	s0,28(sp)
20014010:	6105                	addi	sp,sp,32
20014012:	8082                	ret

20014014 <__metal_driver_sifive_plic0_num_interrupts>:
__metal_driver_sifive_plic0_num_interrupts():
C:\Users\nandg\Desktop\FE310-G003\sifive_hifive1_revb_sifive_welcome\bsp\build\debug/./metal/machine.h:365
		return 0;
	}
}

static __inline__ int __metal_driver_sifive_plic0_num_interrupts(struct metal_interrupt *controller)
{
20014014:	1101                	addi	sp,sp,-32
20014016:	ce22                	sw	s0,28(sp)
20014018:	1000                	addi	s0,sp,32
2001401a:	fea42623          	sw	a0,-20(s0)
C:\Users\nandg\Desktop\FE310-G003\sifive_hifive1_revb_sifive_welcome\bsp\build\debug/./metal/machine.h:366
	if ((uintptr_t)controller == (uintptr_t)&__metal_dt_interrupt_controller_c000000) {
2001401e:	fec42703          	lw	a4,-20(s0)
20014022:	800007b7          	lui	a5,0x80000
20014026:	46078793          	addi	a5,a5,1120 # 80000460 <metal_segment_heap_target_end+0xffffecf0>
2001402a:	00f71563          	bne	a4,a5,20014034 <__metal_driver_sifive_plic0_num_interrupts+0x20>
C:\Users\nandg\Desktop\FE310-G003\sifive_hifive1_revb_sifive_welcome\bsp\build\debug/./metal/machine.h:367
		return METAL_RISCV_PLIC0_C000000_RISCV_NDEV;
2001402e:	03500793          	li	a5,53
20014032:	a011                	j	20014036 <__metal_driver_sifive_plic0_num_interrupts+0x22>
C:\Users\nandg\Desktop\FE310-G003\sifive_hifive1_revb_sifive_welcome\bsp\build\debug/./metal/machine.h:370
	}
	else {
		return 0;
20014034:	4781                	li	a5,0
C:\Users\nandg\Desktop\FE310-G003\sifive_hifive1_revb_sifive_welcome\bsp\build\debug/./metal/machine.h:372
	}
}
20014036:	853e                	mv	a0,a5
20014038:	4472                	lw	s0,28(sp)
2001403a:	6105                	addi	sp,sp,32
2001403c:	8082                	ret

2001403e <__metal_driver_sifive_plic0_max_priority>:
__metal_driver_sifive_plic0_max_priority():
C:\Users\nandg\Desktop\FE310-G003\sifive_hifive1_revb_sifive_welcome\bsp\build\debug/./metal/machine.h:375

static __inline__ int __metal_driver_sifive_plic0_max_priority(struct metal_interrupt *controller)
{
2001403e:	1101                	addi	sp,sp,-32
20014040:	ce22                	sw	s0,28(sp)
20014042:	1000                	addi	s0,sp,32
20014044:	fea42623          	sw	a0,-20(s0)
C:\Users\nandg\Desktop\FE310-G003\sifive_hifive1_revb_sifive_welcome\bsp\build\debug/./metal/machine.h:376
	if ((uintptr_t)controller == (uintptr_t)&__metal_dt_interrupt_controller_c000000) {
20014048:	fec42703          	lw	a4,-20(s0)
2001404c:	800007b7          	lui	a5,0x80000
20014050:	46078793          	addi	a5,a5,1120 # 80000460 <metal_segment_heap_target_end+0xffffecf0>
20014054:	00f71463          	bne	a4,a5,2001405c <__metal_driver_sifive_plic0_max_priority+0x1e>
C:\Users\nandg\Desktop\FE310-G003\sifive_hifive1_revb_sifive_welcome\bsp\build\debug/./metal/machine.h:377
		return METAL_RISCV_PLIC0_C000000_RISCV_MAX_PRIORITY;
20014058:	479d                	li	a5,7
2001405a:	a011                	j	2001405e <__metal_driver_sifive_plic0_max_priority+0x20>
C:\Users\nandg\Desktop\FE310-G003\sifive_hifive1_revb_sifive_welcome\bsp\build\debug/./metal/machine.h:380
	}
	else {
		return 0;
2001405c:	4781                	li	a5,0
C:\Users\nandg\Desktop\FE310-G003\sifive_hifive1_revb_sifive_welcome\bsp\build\debug/./metal/machine.h:382
	}
}
2001405e:	853e                	mv	a0,a5
20014060:	4472                	lw	s0,28(sp)
20014062:	6105                	addi	sp,sp,32
20014064:	8082                	ret

20014066 <__metal_driver_sifive_plic0_interrupt_parents>:
__metal_driver_sifive_plic0_interrupt_parents():
C:\Users\nandg\Desktop\FE310-G003\sifive_hifive1_revb_sifive_welcome\bsp\build\debug/./metal/machine.h:385

static __inline__ struct metal_interrupt * __metal_driver_sifive_plic0_interrupt_parents(struct metal_interrupt *controller, int idx)
{
20014066:	1101                	addi	sp,sp,-32
20014068:	ce22                	sw	s0,28(sp)
2001406a:	1000                	addi	s0,sp,32
2001406c:	fea42623          	sw	a0,-20(s0)
20014070:	feb42423          	sw	a1,-24(s0)
C:\Users\nandg\Desktop\FE310-G003\sifive_hifive1_revb_sifive_welcome\bsp\build\debug/./metal/machine.h:386
	if (idx == 0) {
20014074:	fe842783          	lw	a5,-24(s0)
20014078:	e791                	bnez	a5,20014084 <__metal_driver_sifive_plic0_interrupt_parents+0x1e>
C:\Users\nandg\Desktop\FE310-G003\sifive_hifive1_revb_sifive_welcome\bsp\build\debug/./metal/machine.h:387
		return (struct metal_interrupt *)&__metal_dt_cpu_0_interrupt_controller.controller;
2001407a:	800007b7          	lui	a5,0x80000
2001407e:	09078793          	addi	a5,a5,144 # 80000090 <metal_segment_heap_target_end+0xffffe920>
20014082:	a011                	j	20014086 <__metal_driver_sifive_plic0_interrupt_parents+0x20>
C:\Users\nandg\Desktop\FE310-G003\sifive_hifive1_revb_sifive_welcome\bsp\build\debug/./metal/machine.h:390
	}
	else {
		return NULL;
20014084:	4781                	li	a5,0
C:\Users\nandg\Desktop\FE310-G003\sifive_hifive1_revb_sifive_welcome\bsp\build\debug/./metal/machine.h:392
	}
}
20014086:	853e                	mv	a0,a5
20014088:	4472                	lw	s0,28(sp)
2001408a:	6105                	addi	sp,sp,32
2001408c:	8082                	ret

2001408e <__metal_driver_sifive_plic0_interrupt_lines>:
__metal_driver_sifive_plic0_interrupt_lines():
C:\Users\nandg\Desktop\FE310-G003\sifive_hifive1_revb_sifive_welcome\bsp\build\debug/./metal/machine.h:395

static __inline__ int __metal_driver_sifive_plic0_interrupt_lines(struct metal_interrupt *controller, int idx)
{
2001408e:	1101                	addi	sp,sp,-32
20014090:	ce22                	sw	s0,28(sp)
20014092:	1000                	addi	s0,sp,32
20014094:	fea42623          	sw	a0,-20(s0)
20014098:	feb42423          	sw	a1,-24(s0)
C:\Users\nandg\Desktop\FE310-G003\sifive_hifive1_revb_sifive_welcome\bsp\build\debug/./metal/machine.h:396
	if (idx == 0) {
2001409c:	fe842783          	lw	a5,-24(s0)
200140a0:	e399                	bnez	a5,200140a6 <__metal_driver_sifive_plic0_interrupt_lines+0x18>
C:\Users\nandg\Desktop\FE310-G003\sifive_hifive1_revb_sifive_welcome\bsp\build\debug/./metal/machine.h:397
		return 11;
200140a2:	47ad                	li	a5,11
200140a4:	a011                	j	200140a8 <__metal_driver_sifive_plic0_interrupt_lines+0x1a>
C:\Users\nandg\Desktop\FE310-G003\sifive_hifive1_revb_sifive_welcome\bsp\build\debug/./metal/machine.h:400
	}
	else {
		return 0;
200140a6:	4781                	li	a5,0
C:\Users\nandg\Desktop\FE310-G003\sifive_hifive1_revb_sifive_welcome\bsp\build\debug/./metal/machine.h:402
	}
}
200140a8:	853e                	mv	a0,a5
200140aa:	4472                	lw	s0,28(sp)
200140ac:	6105                	addi	sp,sp,32
200140ae:	8082                	ret

200140b0 <__metal_driver_sifive_plic0_context_ids>:
__metal_driver_sifive_plic0_context_ids():
C:\Users\nandg\Desktop\FE310-G003\sifive_hifive1_revb_sifive_welcome\bsp\build\debug/./metal/machine.h:405

static __inline__ int __metal_driver_sifive_plic0_context_ids(int hartid)
{
200140b0:	1101                	addi	sp,sp,-32
200140b2:	ce22                	sw	s0,28(sp)
200140b4:	1000                	addi	s0,sp,32
200140b6:	fea42623          	sw	a0,-20(s0)
C:\Users\nandg\Desktop\FE310-G003\sifive_hifive1_revb_sifive_welcome\bsp\build\debug/./metal/machine.h:406
	if (hartid == 0) {
200140ba:	fec42783          	lw	a5,-20(s0)
200140be:	e399                	bnez	a5,200140c4 <__metal_driver_sifive_plic0_context_ids+0x14>
C:\Users\nandg\Desktop\FE310-G003\sifive_hifive1_revb_sifive_welcome\bsp\build\debug/./metal/machine.h:407
		return 0;
200140c0:	4781                	li	a5,0
200140c2:	a011                	j	200140c6 <__metal_driver_sifive_plic0_context_ids+0x16>
C:\Users\nandg\Desktop\FE310-G003\sifive_hifive1_revb_sifive_welcome\bsp\build\debug/./metal/machine.h:410
	}
	else {
		return -1;
200140c4:	57fd                	li	a5,-1
C:\Users\nandg\Desktop\FE310-G003\sifive_hifive1_revb_sifive_welcome\bsp\build\debug/./metal/machine.h:412
	}
}
200140c6:	853e                	mv	a0,a5
200140c8:	4472                	lw	s0,28(sp)
200140ca:	6105                	addi	sp,sp,32
200140cc:	8082                	ret

200140ce <__metal_plic0_claim_interrupt>:
__metal_plic0_claim_interrupt():
C:/Users/nandg/Desktop/FE310-G003/sifive_hifive1_revb_sifive_welcome/freedom-metal/src/drivers/riscv_plic0.c:18
#include <metal/machine.h>
#include <metal/shutdown.h>

unsigned int
__metal_plic0_claim_interrupt(struct __metal_driver_riscv_plic0 *plic,
                              int context_id) {
200140ce:	7179                	addi	sp,sp,-48
200140d0:	d606                	sw	ra,44(sp)
200140d2:	d422                	sw	s0,40(sp)
200140d4:	1800                	addi	s0,sp,48
200140d6:	fca42e23          	sw	a0,-36(s0)
200140da:	fcb42c23          	sw	a1,-40(s0)
C:/Users/nandg/Desktop/FE310-G003/sifive_hifive1_revb_sifive_welcome/freedom-metal/src/drivers/riscv_plic0.c:19
    unsigned long control_base = __metal_driver_sifive_plic0_control_base(
200140de:	fdc42503          	lw	a0,-36(s0)
200140e2:	3721                	jal	20013fea <__metal_driver_sifive_plic0_control_base>
200140e4:	fea42623          	sw	a0,-20(s0)
C:/Users/nandg/Desktop/FE310-G003/sifive_hifive1_revb_sifive_welcome/freedom-metal/src/drivers/riscv_plic0.c:21
        (struct metal_interrupt *)plic);
    return __METAL_ACCESS_ONCE(
200140e8:	fd842783          	lw	a5,-40(s0)
200140ec:	00c79713          	slli	a4,a5,0xc
200140f0:	fec42783          	lw	a5,-20(s0)
200140f4:	973e                	add	a4,a4,a5
200140f6:	002007b7          	lui	a5,0x200
200140fa:	0791                	addi	a5,a5,4
200140fc:	97ba                	add	a5,a5,a4
200140fe:	439c                	lw	a5,0(a5)
C:/Users/nandg/Desktop/FE310-G003/sifive_hifive1_revb_sifive_welcome/freedom-metal/src/drivers/riscv_plic0.c:25
        (__metal_io_u32 *)(control_base + METAL_RISCV_PLIC0_CONTEXT_BASE +
                           (context_id * METAL_RISCV_PLIC0_CONTEXT_PER_HART) +
                           METAL_RISCV_PLIC0_CONTEXT_CLAIM));
}
20014100:	853e                	mv	a0,a5
20014102:	50b2                	lw	ra,44(sp)
20014104:	5422                	lw	s0,40(sp)
20014106:	6145                	addi	sp,sp,48
20014108:	8082                	ret

2001410a <__metal_plic0_complete_interrupt>:
__metal_plic0_complete_interrupt():
C:/Users/nandg/Desktop/FE310-G003/sifive_hifive1_revb_sifive_welcome/freedom-metal/src/drivers/riscv_plic0.c:28

void __metal_plic0_complete_interrupt(struct __metal_driver_riscv_plic0 *plic,
                                      int context_id, unsigned int id) {
2001410a:	7179                	addi	sp,sp,-48
2001410c:	d606                	sw	ra,44(sp)
2001410e:	d422                	sw	s0,40(sp)
20014110:	1800                	addi	s0,sp,48
20014112:	fca42e23          	sw	a0,-36(s0)
20014116:	fcb42c23          	sw	a1,-40(s0)
2001411a:	fcc42a23          	sw	a2,-44(s0)
C:/Users/nandg/Desktop/FE310-G003/sifive_hifive1_revb_sifive_welcome/freedom-metal/src/drivers/riscv_plic0.c:29
    unsigned long control_base = __metal_driver_sifive_plic0_control_base(
2001411e:	fdc42503          	lw	a0,-36(s0)
20014122:	35e1                	jal	20013fea <__metal_driver_sifive_plic0_control_base>
20014124:	fea42623          	sw	a0,-20(s0)
C:/Users/nandg/Desktop/FE310-G003/sifive_hifive1_revb_sifive_welcome/freedom-metal/src/drivers/riscv_plic0.c:31
        (struct metal_interrupt *)plic);
    __METAL_ACCESS_ONCE(
20014128:	fd842783          	lw	a5,-40(s0)
2001412c:	00c79713          	slli	a4,a5,0xc
20014130:	fec42783          	lw	a5,-20(s0)
20014134:	973e                	add	a4,a4,a5
20014136:	002007b7          	lui	a5,0x200
2001413a:	0791                	addi	a5,a5,4
2001413c:	97ba                	add	a5,a5,a4
2001413e:	873e                	mv	a4,a5
C:/Users/nandg/Desktop/FE310-G003/sifive_hifive1_revb_sifive_welcome/freedom-metal/src/drivers/riscv_plic0.c:34
        (__metal_io_u32 *)(control_base + METAL_RISCV_PLIC0_CONTEXT_BASE +
                           (context_id * METAL_RISCV_PLIC0_CONTEXT_PER_HART) +
                           METAL_RISCV_PLIC0_CONTEXT_CLAIM)) = id;
20014140:	fd442783          	lw	a5,-44(s0)
20014144:	c31c                	sw	a5,0(a4)
C:/Users/nandg/Desktop/FE310-G003/sifive_hifive1_revb_sifive_welcome/freedom-metal/src/drivers/riscv_plic0.c:35
}
20014146:	0001                	nop
20014148:	50b2                	lw	ra,44(sp)
2001414a:	5422                	lw	s0,40(sp)
2001414c:	6145                	addi	sp,sp,48
2001414e:	8082                	ret

20014150 <__metal_plic0_set_threshold>:
__metal_plic0_set_threshold():
C:/Users/nandg/Desktop/FE310-G003/sifive_hifive1_revb_sifive_welcome/freedom-metal/src/drivers/riscv_plic0.c:38

int __metal_plic0_set_threshold(struct metal_interrupt *controller,
                                int context_id, unsigned int threshold) {
20014150:	7179                	addi	sp,sp,-48
20014152:	d606                	sw	ra,44(sp)
20014154:	d422                	sw	s0,40(sp)
20014156:	1800                	addi	s0,sp,48
20014158:	fca42e23          	sw	a0,-36(s0)
2001415c:	fcb42c23          	sw	a1,-40(s0)
20014160:	fcc42a23          	sw	a2,-44(s0)
C:/Users/nandg/Desktop/FE310-G003/sifive_hifive1_revb_sifive_welcome/freedom-metal/src/drivers/riscv_plic0.c:40
    unsigned long control_base =
        __metal_driver_sifive_plic0_control_base(controller);
20014164:	fdc42503          	lw	a0,-36(s0)
20014168:	3549                	jal	20013fea <__metal_driver_sifive_plic0_control_base>
2001416a:	fea42623          	sw	a0,-20(s0)
C:/Users/nandg/Desktop/FE310-G003/sifive_hifive1_revb_sifive_welcome/freedom-metal/src/drivers/riscv_plic0.c:41
    __METAL_ACCESS_ONCE(
2001416e:	fd842783          	lw	a5,-40(s0)
20014172:	00c79713          	slli	a4,a5,0xc
20014176:	fec42783          	lw	a5,-20(s0)
2001417a:	973e                	add	a4,a4,a5
2001417c:	002007b7          	lui	a5,0x200
20014180:	97ba                	add	a5,a5,a4
20014182:	873e                	mv	a4,a5
C:/Users/nandg/Desktop/FE310-G003/sifive_hifive1_revb_sifive_welcome/freedom-metal/src/drivers/riscv_plic0.c:44
        (__metal_io_u32 *)(control_base + METAL_RISCV_PLIC0_CONTEXT_BASE +
                           (context_id * METAL_RISCV_PLIC0_CONTEXT_PER_HART) +
                           METAL_RISCV_PLIC0_CONTEXT_THRESHOLD)) = threshold;
20014184:	fd442783          	lw	a5,-44(s0)
20014188:	c31c                	sw	a5,0(a4)
C:/Users/nandg/Desktop/FE310-G003/sifive_hifive1_revb_sifive_welcome/freedom-metal/src/drivers/riscv_plic0.c:45
    return 0;
2001418a:	4781                	li	a5,0
C:/Users/nandg/Desktop/FE310-G003/sifive_hifive1_revb_sifive_welcome/freedom-metal/src/drivers/riscv_plic0.c:46
}
2001418c:	853e                	mv	a0,a5
2001418e:	50b2                	lw	ra,44(sp)
20014190:	5422                	lw	s0,40(sp)
20014192:	6145                	addi	sp,sp,48
20014194:	8082                	ret

20014196 <__metal_plic0_get_threshold>:
__metal_plic0_get_threshold():
C:/Users/nandg/Desktop/FE310-G003/sifive_hifive1_revb_sifive_welcome/freedom-metal/src/drivers/riscv_plic0.c:49

unsigned int __metal_plic0_get_threshold(struct metal_interrupt *controller,
                                         int context_id) {
20014196:	7179                	addi	sp,sp,-48
20014198:	d606                	sw	ra,44(sp)
2001419a:	d422                	sw	s0,40(sp)
2001419c:	1800                	addi	s0,sp,48
2001419e:	fca42e23          	sw	a0,-36(s0)
200141a2:	fcb42c23          	sw	a1,-40(s0)
C:/Users/nandg/Desktop/FE310-G003/sifive_hifive1_revb_sifive_welcome/freedom-metal/src/drivers/riscv_plic0.c:51
    unsigned long control_base =
        __metal_driver_sifive_plic0_control_base(controller);
200141a6:	fdc42503          	lw	a0,-36(s0)
200141aa:	3581                	jal	20013fea <__metal_driver_sifive_plic0_control_base>
200141ac:	fea42623          	sw	a0,-20(s0)
C:/Users/nandg/Desktop/FE310-G003/sifive_hifive1_revb_sifive_welcome/freedom-metal/src/drivers/riscv_plic0.c:52
    return __METAL_ACCESS_ONCE(
200141b0:	fd842783          	lw	a5,-40(s0)
200141b4:	00c79713          	slli	a4,a5,0xc
200141b8:	fec42783          	lw	a5,-20(s0)
200141bc:	973e                	add	a4,a4,a5
200141be:	002007b7          	lui	a5,0x200
200141c2:	97ba                	add	a5,a5,a4
200141c4:	439c                	lw	a5,0(a5)
C:/Users/nandg/Desktop/FE310-G003/sifive_hifive1_revb_sifive_welcome/freedom-metal/src/drivers/riscv_plic0.c:56
        (__metal_io_u32 *)(control_base + METAL_RISCV_PLIC0_CONTEXT_BASE +
                           (context_id * METAL_RISCV_PLIC0_CONTEXT_PER_HART) +
                           METAL_RISCV_PLIC0_CONTEXT_THRESHOLD));
}
200141c6:	853e                	mv	a0,a5
200141c8:	50b2                	lw	ra,44(sp)
200141ca:	5422                	lw	s0,40(sp)
200141cc:	6145                	addi	sp,sp,48
200141ce:	8082                	ret

200141d0 <__metal_driver_riscv_plic0_set_priority>:
__metal_driver_riscv_plic0_set_priority():
C:/Users/nandg/Desktop/FE310-G003/sifive_hifive1_revb_sifive_welcome/freedom-metal/src/drivers/riscv_plic0.c:59

int __metal_driver_riscv_plic0_set_priority(struct metal_interrupt *controller,
                                            int id, unsigned int priority) {
200141d0:	7179                	addi	sp,sp,-48
200141d2:	d606                	sw	ra,44(sp)
200141d4:	d422                	sw	s0,40(sp)
200141d6:	1800                	addi	s0,sp,48
200141d8:	fca42e23          	sw	a0,-36(s0)
200141dc:	fcb42c23          	sw	a1,-40(s0)
200141e0:	fcc42a23          	sw	a2,-44(s0)
C:/Users/nandg/Desktop/FE310-G003/sifive_hifive1_revb_sifive_welcome/freedom-metal/src/drivers/riscv_plic0.c:60
    unsigned long control_base = __metal_driver_sifive_plic0_control_base(
200141e4:	fdc42503          	lw	a0,-36(s0)
200141e8:	3509                	jal	20013fea <__metal_driver_sifive_plic0_control_base>
200141ea:	fea42623          	sw	a0,-20(s0)
C:/Users/nandg/Desktop/FE310-G003/sifive_hifive1_revb_sifive_welcome/freedom-metal/src/drivers/riscv_plic0.c:62
        (struct metal_interrupt *)controller);
    unsigned int max_priority = __metal_driver_sifive_plic0_max_priority(
200141ee:	fdc42503          	lw	a0,-36(s0)
200141f2:	35b1                	jal	2001403e <__metal_driver_sifive_plic0_max_priority>
200141f4:	87aa                	mv	a5,a0
200141f6:	fef42423          	sw	a5,-24(s0)
C:/Users/nandg/Desktop/FE310-G003/sifive_hifive1_revb_sifive_welcome/freedom-metal/src/drivers/riscv_plic0.c:64
        (struct metal_interrupt *)controller);
    if ((max_priority) && (priority < max_priority)) {
200141fa:	fe842783          	lw	a5,-24(s0)
200141fe:	c785                	beqz	a5,20014226 <__metal_driver_riscv_plic0_set_priority+0x56>
C:/Users/nandg/Desktop/FE310-G003/sifive_hifive1_revb_sifive_welcome/freedom-metal/src/drivers/riscv_plic0.c:64 (discriminator 1)
20014200:	fd442703          	lw	a4,-44(s0)
20014204:	fe842783          	lw	a5,-24(s0)
20014208:	00f77f63          	bgeu	a4,a5,20014226 <__metal_driver_riscv_plic0_set_priority+0x56>
C:/Users/nandg/Desktop/FE310-G003/sifive_hifive1_revb_sifive_welcome/freedom-metal/src/drivers/riscv_plic0.c:65
        __METAL_ACCESS_ONCE(
2001420c:	fd842783          	lw	a5,-40(s0)
20014210:	078a                	slli	a5,a5,0x2
20014212:	873e                	mv	a4,a5
20014214:	fec42783          	lw	a5,-20(s0)
20014218:	97ba                	add	a5,a5,a4
2001421a:	873e                	mv	a4,a5
C:/Users/nandg/Desktop/FE310-G003/sifive_hifive1_revb_sifive_welcome/freedom-metal/src/drivers/riscv_plic0.c:67
            (__metal_io_u32 *)(control_base + METAL_RISCV_PLIC0_PRIORITY_BASE +
                               (id << METAL_PLIC_SOURCE_PRIORITY_SHIFT))) =
2001421c:	fd442783          	lw	a5,-44(s0)
20014220:	c31c                	sw	a5,0(a4)
C:/Users/nandg/Desktop/FE310-G003/sifive_hifive1_revb_sifive_welcome/freedom-metal/src/drivers/riscv_plic0.c:69
            priority;
        return 0;
20014222:	4781                	li	a5,0
20014224:	a011                	j	20014228 <__metal_driver_riscv_plic0_set_priority+0x58>
C:/Users/nandg/Desktop/FE310-G003/sifive_hifive1_revb_sifive_welcome/freedom-metal/src/drivers/riscv_plic0.c:71
    }
    return -1;
20014226:	57fd                	li	a5,-1
C:/Users/nandg/Desktop/FE310-G003/sifive_hifive1_revb_sifive_welcome/freedom-metal/src/drivers/riscv_plic0.c:72
}
20014228:	853e                	mv	a0,a5
2001422a:	50b2                	lw	ra,44(sp)
2001422c:	5422                	lw	s0,40(sp)
2001422e:	6145                	addi	sp,sp,48
20014230:	8082                	ret

20014232 <__metal_driver_riscv_plic0_get_priority>:
__metal_driver_riscv_plic0_get_priority():
C:/Users/nandg/Desktop/FE310-G003/sifive_hifive1_revb_sifive_welcome/freedom-metal/src/drivers/riscv_plic0.c:76

unsigned int
__metal_driver_riscv_plic0_get_priority(struct metal_interrupt *controller,
                                        int id) {
20014232:	7179                	addi	sp,sp,-48
20014234:	d606                	sw	ra,44(sp)
20014236:	d422                	sw	s0,40(sp)
20014238:	1800                	addi	s0,sp,48
2001423a:	fca42e23          	sw	a0,-36(s0)
2001423e:	fcb42c23          	sw	a1,-40(s0)
C:/Users/nandg/Desktop/FE310-G003/sifive_hifive1_revb_sifive_welcome/freedom-metal/src/drivers/riscv_plic0.c:78
    unsigned long control_base =
        __metal_driver_sifive_plic0_control_base(controller);
20014242:	fdc42503          	lw	a0,-36(s0)
20014246:	3355                	jal	20013fea <__metal_driver_sifive_plic0_control_base>
20014248:	fea42623          	sw	a0,-20(s0)
C:/Users/nandg/Desktop/FE310-G003/sifive_hifive1_revb_sifive_welcome/freedom-metal/src/drivers/riscv_plic0.c:80

    return __METAL_ACCESS_ONCE(
2001424c:	fd842783          	lw	a5,-40(s0)
20014250:	078a                	slli	a5,a5,0x2
20014252:	873e                	mv	a4,a5
20014254:	fec42783          	lw	a5,-20(s0)
20014258:	97ba                	add	a5,a5,a4
2001425a:	439c                	lw	a5,0(a5)
C:/Users/nandg/Desktop/FE310-G003/sifive_hifive1_revb_sifive_welcome/freedom-metal/src/drivers/riscv_plic0.c:83
        (__metal_io_u32 *)(control_base + METAL_RISCV_PLIC0_PRIORITY_BASE +
                           (id << METAL_PLIC_SOURCE_PRIORITY_SHIFT)));
}
2001425c:	853e                	mv	a0,a5
2001425e:	50b2                	lw	ra,44(sp)
20014260:	5422                	lw	s0,40(sp)
20014262:	6145                	addi	sp,sp,48
20014264:	8082                	ret

20014266 <__metal_plic0_enable>:
__metal_plic0_enable():
C:/Users/nandg/Desktop/FE310-G003/sifive_hifive1_revb_sifive_welcome/freedom-metal/src/drivers/riscv_plic0.c:86

int __metal_plic0_enable(struct __metal_driver_riscv_plic0 *plic,
                         int context_id, int id, int enable) {
20014266:	7179                	addi	sp,sp,-48
20014268:	d606                	sw	ra,44(sp)
2001426a:	d422                	sw	s0,40(sp)
2001426c:	1800                	addi	s0,sp,48
2001426e:	fca42e23          	sw	a0,-36(s0)
20014272:	fcb42c23          	sw	a1,-40(s0)
20014276:	fcc42a23          	sw	a2,-44(s0)
2001427a:	fcd42823          	sw	a3,-48(s0)
C:/Users/nandg/Desktop/FE310-G003/sifive_hifive1_revb_sifive_welcome/freedom-metal/src/drivers/riscv_plic0.c:88
    unsigned int current;
    unsigned long control_base = __metal_driver_sifive_plic0_control_base(
2001427e:	fdc42503          	lw	a0,-36(s0)
20014282:	33a5                	jal	20013fea <__metal_driver_sifive_plic0_control_base>
20014284:	fea42623          	sw	a0,-20(s0)
C:/Users/nandg/Desktop/FE310-G003/sifive_hifive1_revb_sifive_welcome/freedom-metal/src/drivers/riscv_plic0.c:91
        (struct metal_interrupt *)plic);

    current = __METAL_ACCESS_ONCE(
20014288:	fd842783          	lw	a5,-40(s0)
2001428c:	00779713          	slli	a4,a5,0x7
20014290:	fec42783          	lw	a5,-20(s0)
20014294:	97ba                	add	a5,a5,a4
20014296:	fd442703          	lw	a4,-44(s0)
2001429a:	8715                	srai	a4,a4,0x5
2001429c:	070a                	slli	a4,a4,0x2
2001429e:	973e                	add	a4,a4,a5
200142a0:	6789                	lui	a5,0x2
200142a2:	97ba                	add	a5,a5,a4
200142a4:	439c                	lw	a5,0(a5)
200142a6:	fef42423          	sw	a5,-24(s0)
C:/Users/nandg/Desktop/FE310-G003/sifive_hifive1_revb_sifive_welcome/freedom-metal/src/drivers/riscv_plic0.c:100
    __METAL_ACCESS_ONCE(
        (__metal_io_u32 *)(control_base + METAL_RISCV_PLIC0_ENABLE_BASE +
                           (context_id * METAL_RISCV_PLIC0_ENABLE_PER_HART) +
                           ((id >> METAL_PLIC_SOURCE_SHIFT) * 4))) =
        enable ? (current | (1 << (id & METAL_PLIC_SOURCE_MASK)))
               : (current & ~(1 << (id & METAL_PLIC_SOURCE_MASK)));
200142aa:	fd042783          	lw	a5,-48(s0)
200142ae:	cf81                	beqz	a5,200142c6 <__metal_plic0_enable+0x60>
C:/Users/nandg/Desktop/FE310-G003/sifive_hifive1_revb_sifive_welcome/freedom-metal/src/drivers/riscv_plic0.c:99 (discriminator 1)
        enable ? (current | (1 << (id & METAL_PLIC_SOURCE_MASK)))
200142b0:	fd442783          	lw	a5,-44(s0)
200142b4:	8bfd                	andi	a5,a5,31
200142b6:	4705                	li	a4,1
200142b8:	00f717b3          	sll	a5,a4,a5
200142bc:	873e                	mv	a4,a5
C:/Users/nandg/Desktop/FE310-G003/sifive_hifive1_revb_sifive_welcome/freedom-metal/src/drivers/riscv_plic0.c:100 (discriminator 1)
               : (current & ~(1 << (id & METAL_PLIC_SOURCE_MASK)));
200142be:	fe842783          	lw	a5,-24(s0)
200142c2:	8fd9                	or	a5,a5,a4
200142c4:	a829                	j	200142de <__metal_plic0_enable+0x78>
C:/Users/nandg/Desktop/FE310-G003/sifive_hifive1_revb_sifive_welcome/freedom-metal/src/drivers/riscv_plic0.c:100 (discriminator 2)
200142c6:	fd442783          	lw	a5,-44(s0)
200142ca:	8bfd                	andi	a5,a5,31
200142cc:	4705                	li	a4,1
200142ce:	00f717b3          	sll	a5,a4,a5
200142d2:	fff7c793          	not	a5,a5
200142d6:	873e                	mv	a4,a5
200142d8:	fe842783          	lw	a5,-24(s0)
200142dc:	8ff9                	and	a5,a5,a4
C:/Users/nandg/Desktop/FE310-G003/sifive_hifive1_revb_sifive_welcome/freedom-metal/src/drivers/riscv_plic0.c:95
    __METAL_ACCESS_ONCE(
200142de:	fd842703          	lw	a4,-40(s0)
200142e2:	00771693          	slli	a3,a4,0x7
200142e6:	fec42703          	lw	a4,-20(s0)
200142ea:	9736                	add	a4,a4,a3
200142ec:	fd442683          	lw	a3,-44(s0)
200142f0:	8695                	srai	a3,a3,0x5
200142f2:	068a                	slli	a3,a3,0x2
200142f4:	96ba                	add	a3,a3,a4
200142f6:	6709                	lui	a4,0x2
200142f8:	9736                	add	a4,a4,a3
C:/Users/nandg/Desktop/FE310-G003/sifive_hifive1_revb_sifive_welcome/freedom-metal/src/drivers/riscv_plic0.c:98
                           ((id >> METAL_PLIC_SOURCE_SHIFT) * 4))) =
200142fa:	c31c                	sw	a5,0(a4)
C:/Users/nandg/Desktop/FE310-G003/sifive_hifive1_revb_sifive_welcome/freedom-metal/src/drivers/riscv_plic0.c:102

    return 0;
200142fc:	4781                	li	a5,0
C:/Users/nandg/Desktop/FE310-G003/sifive_hifive1_revb_sifive_welcome/freedom-metal/src/drivers/riscv_plic0.c:103
}
200142fe:	853e                	mv	a0,a5
20014300:	50b2                	lw	ra,44(sp)
20014302:	5422                	lw	s0,40(sp)
20014304:	6145                	addi	sp,sp,48
20014306:	8082                	ret

20014308 <__metal_plic0_default_handler>:
__metal_plic0_default_handler():
C:/Users/nandg/Desktop/FE310-G003/sifive_hifive1_revb_sifive_welcome/freedom-metal/src/drivers/riscv_plic0.c:105

void __metal_plic0_default_handler(int id, void *priv) { metal_shutdown(300); }
20014308:	1101                	addi	sp,sp,-32
2001430a:	ce06                	sw	ra,28(sp)
2001430c:	cc22                	sw	s0,24(sp)
2001430e:	1000                	addi	s0,sp,32
20014310:	fea42623          	sw	a0,-20(s0)
20014314:	feb42423          	sw	a1,-24(s0)
20014318:	12c00513          	li	a0,300
2001431c:	294020ef          	jal	ra,200165b0 <metal_shutdown>

20014320 <__metal_plic0_handler>:
__metal_plic0_handler():
C:/Users/nandg/Desktop/FE310-G003/sifive_hifive1_revb_sifive_welcome/freedom-metal/src/drivers/riscv_plic0.c:107

void __metal_plic0_handler(int id, void *priv) {
20014320:	7179                	addi	sp,sp,-48
20014322:	d606                	sw	ra,44(sp)
20014324:	d422                	sw	s0,40(sp)
20014326:	1800                	addi	s0,sp,48
20014328:	fca42e23          	sw	a0,-36(s0)
2001432c:	fcb42c23          	sw	a1,-40(s0)
C:/Users/nandg/Desktop/FE310-G003/sifive_hifive1_revb_sifive_welcome/freedom-metal/src/drivers/riscv_plic0.c:108
    struct __metal_driver_riscv_plic0 *plic = priv;
20014330:	fd842783          	lw	a5,-40(s0)
20014334:	fef42623          	sw	a5,-20(s0)
C:/Users/nandg/Desktop/FE310-G003/sifive_hifive1_revb_sifive_welcome/freedom-metal/src/drivers/riscv_plic0.c:110
    int contextid =
        __metal_driver_sifive_plic0_context_ids(__metal_myhart_id());
20014338:	b3afe0ef          	jal	ra,20012672 <__metal_myhart_id>
2001433c:	87aa                	mv	a5,a0
2001433e:	853e                	mv	a0,a5
20014340:	3b85                	jal	200140b0 <__metal_driver_sifive_plic0_context_ids>
20014342:	fea42423          	sw	a0,-24(s0)
C:/Users/nandg/Desktop/FE310-G003/sifive_hifive1_revb_sifive_welcome/freedom-metal/src/drivers/riscv_plic0.c:111
    unsigned int idx = __metal_plic0_claim_interrupt(plic, contextid);
20014346:	fe842583          	lw	a1,-24(s0)
2001434a:	fec42503          	lw	a0,-20(s0)
2001434e:	3341                	jal	200140ce <__metal_plic0_claim_interrupt>
20014350:	fea42223          	sw	a0,-28(s0)
C:/Users/nandg/Desktop/FE310-G003/sifive_hifive1_revb_sifive_welcome/freedom-metal/src/drivers/riscv_plic0.c:112
    unsigned int num_interrupts = __metal_driver_sifive_plic0_num_interrupts(
20014354:	fec42503          	lw	a0,-20(s0)
20014358:	3975                	jal	20014014 <__metal_driver_sifive_plic0_num_interrupts>
2001435a:	87aa                	mv	a5,a0
2001435c:	fef42023          	sw	a5,-32(s0)
C:/Users/nandg/Desktop/FE310-G003/sifive_hifive1_revb_sifive_welcome/freedom-metal/src/drivers/riscv_plic0.c:115
        (struct metal_interrupt *)plic);

    if ((idx < num_interrupts) && (plic->metal_exint_table[idx])) {
20014360:	fe442703          	lw	a4,-28(s0)
20014364:	fe042783          	lw	a5,-32(s0)
20014368:	04f77263          	bgeu	a4,a5,200143ac <__metal_plic0_handler+0x8c>
C:/Users/nandg/Desktop/FE310-G003/sifive_hifive1_revb_sifive_welcome/freedom-metal/src/drivers/riscv_plic0.c:115 (discriminator 1)
2001436c:	fec42703          	lw	a4,-20(s0)
20014370:	fe442783          	lw	a5,-28(s0)
20014374:	078a                	slli	a5,a5,0x2
20014376:	97ba                	add	a5,a5,a4
20014378:	479c                	lw	a5,8(a5)
2001437a:	cb8d                	beqz	a5,200143ac <__metal_plic0_handler+0x8c>
C:/Users/nandg/Desktop/FE310-G003/sifive_hifive1_revb_sifive_welcome/freedom-metal/src/drivers/riscv_plic0.c:116
        plic->metal_exint_table[idx](idx,
2001437c:	fec42703          	lw	a4,-20(s0)
20014380:	fe442783          	lw	a5,-28(s0)
20014384:	078a                	slli	a5,a5,0x2
20014386:	97ba                	add	a5,a5,a4
20014388:	0087a803          	lw	a6,8(a5) # 2008 <__heap_size+0x1808>
2001438c:	fe442603          	lw	a2,-28(s0)
20014390:	fec42683          	lw	a3,-20(s0)
20014394:	fe442703          	lw	a4,-28(s0)
20014398:	87ba                	mv	a5,a4
2001439a:	0786                	slli	a5,a5,0x1
2001439c:	97ba                	add	a5,a5,a4
2001439e:	078e                	slli	a5,a5,0x3
200143a0:	97b6                	add	a5,a5,a3
200143a2:	0f07a783          	lw	a5,240(a5)
200143a6:	85be                	mv	a1,a5
200143a8:	8532                	mv	a0,a2
200143aa:	9802                	jalr	a6
C:/Users/nandg/Desktop/FE310-G003/sifive_hifive1_revb_sifive_welcome/freedom-metal/src/drivers/riscv_plic0.c:120
                                     plic->metal_exdata_table[idx].exint_data);
    }

    __metal_plic0_complete_interrupt(plic, contextid, idx);
200143ac:	fe442603          	lw	a2,-28(s0)
200143b0:	fe842583          	lw	a1,-24(s0)
200143b4:	fec42503          	lw	a0,-20(s0)
200143b8:	3b89                	jal	2001410a <__metal_plic0_complete_interrupt>
C:/Users/nandg/Desktop/FE310-G003/sifive_hifive1_revb_sifive_welcome/freedom-metal/src/drivers/riscv_plic0.c:121
}
200143ba:	0001                	nop
200143bc:	50b2                	lw	ra,44(sp)
200143be:	5422                	lw	s0,40(sp)
200143c0:	6145                	addi	sp,sp,48
200143c2:	8082                	ret

200143c4 <__metal_driver_riscv_plic0_init>:
__metal_driver_riscv_plic0_init():
C:/Users/nandg/Desktop/FE310-G003/sifive_hifive1_revb_sifive_welcome/freedom-metal/src/drivers/riscv_plic0.c:123

void __metal_driver_riscv_plic0_init(struct metal_interrupt *controller) {
200143c4:	7139                	addi	sp,sp,-64
200143c6:	de06                	sw	ra,60(sp)
200143c8:	dc22                	sw	s0,56(sp)
200143ca:	0080                	addi	s0,sp,64
200143cc:	fca42623          	sw	a0,-52(s0)
C:/Users/nandg/Desktop/FE310-G003/sifive_hifive1_revb_sifive_welcome/freedom-metal/src/drivers/riscv_plic0.c:124
    struct __metal_driver_riscv_plic0 *plic = (void *)(controller);
200143d0:	fcc42783          	lw	a5,-52(s0)
200143d4:	fef42223          	sw	a5,-28(s0)
C:/Users/nandg/Desktop/FE310-G003/sifive_hifive1_revb_sifive_welcome/freedom-metal/src/drivers/riscv_plic0.c:126

    if (!plic->init_done) {
200143d8:	fe442783          	lw	a5,-28(s0)
200143dc:	43dc                	lw	a5,4(a5)
200143de:	12079763          	bnez	a5,2001450c <__metal_driver_riscv_plic0_init+0x148>
C:/Users/nandg/Desktop/FE310-G003/sifive_hifive1_revb_sifive_welcome/freedom-metal/src/drivers/riscv_plic0.c:130
        int num_interrupts, line;
        struct metal_interrupt *intc;

        for (int parent = 0; parent < __METAL_PLIC_NUM_PARENTS; parent++) {
200143e2:	fe042623          	sw	zero,-20(s0)
200143e6:	aa19                	j	200144fc <__metal_driver_riscv_plic0_init+0x138>
C:/Users/nandg/Desktop/FE310-G003/sifive_hifive1_revb_sifive_welcome/freedom-metal/src/drivers/riscv_plic0.c:132
            num_interrupts =
                __metal_driver_sifive_plic0_num_interrupts(controller);
200143e8:	fcc42503          	lw	a0,-52(s0)
200143ec:	c29ff0ef          	jal	ra,20014014 <__metal_driver_sifive_plic0_num_interrupts>
200143f0:	fea42023          	sw	a0,-32(s0)
C:/Users/nandg/Desktop/FE310-G003/sifive_hifive1_revb_sifive_welcome/freedom-metal/src/drivers/riscv_plic0.c:133
            intc = __metal_driver_sifive_plic0_interrupt_parents(controller,
200143f4:	fec42583          	lw	a1,-20(s0)
200143f8:	fcc42503          	lw	a0,-52(s0)
200143fc:	31ad                	jal	20014066 <__metal_driver_sifive_plic0_interrupt_parents>
200143fe:	fca42e23          	sw	a0,-36(s0)
C:/Users/nandg/Desktop/FE310-G003/sifive_hifive1_revb_sifive_welcome/freedom-metal/src/drivers/riscv_plic0.c:136
                                                                 parent);
            line =
                __metal_driver_sifive_plic0_interrupt_lines(controller, parent);
20014402:	fec42583          	lw	a1,-20(s0)
20014406:	fcc42503          	lw	a0,-52(s0)
2001440a:	3151                	jal	2001408e <__metal_driver_sifive_plic0_interrupt_lines>
2001440c:	fca42c23          	sw	a0,-40(s0)
C:/Users/nandg/Desktop/FE310-G003/sifive_hifive1_revb_sifive_welcome/freedom-metal/src/drivers/riscv_plic0.c:139

            /* Initialize ist parent controller, aka cpu_intc. */
            intc->vtable->interrupt_init(intc);
20014410:	fdc42783          	lw	a5,-36(s0)
20014414:	439c                	lw	a5,0(a5)
20014416:	439c                	lw	a5,0(a5)
20014418:	fdc42503          	lw	a0,-36(s0)
2001441c:	9782                	jalr	a5
C:/Users/nandg/Desktop/FE310-G003/sifive_hifive1_revb_sifive_welcome/freedom-metal/src/drivers/riscv_plic0.c:141

            for (int i = 0; i < PLIC0_MAX_INTERRUPTS; i++) {
2001441e:	fe042423          	sw	zero,-24(s0)
20014422:	a885                	j	20014492 <__metal_driver_riscv_plic0_init+0xce>
C:/Users/nandg/Desktop/FE310-G003/sifive_hifive1_revb_sifive_welcome/freedom-metal/src/drivers/riscv_plic0.c:142
                __metal_plic0_enable(plic, parent, i, METAL_DISABLE);
20014424:	4681                	li	a3,0
20014426:	fe842603          	lw	a2,-24(s0)
2001442a:	fec42583          	lw	a1,-20(s0)
2001442e:	fe442503          	lw	a0,-28(s0)
20014432:	3d15                	jal	20014266 <__metal_plic0_enable>
C:/Users/nandg/Desktop/FE310-G003/sifive_hifive1_revb_sifive_welcome/freedom-metal/src/drivers/riscv_plic0.c:143
                if (i < num_interrupts) {
20014434:	fe842703          	lw	a4,-24(s0)
20014438:	fe042783          	lw	a5,-32(s0)
2001443c:	04f75663          	bge	a4,a5,20014488 <__metal_driver_riscv_plic0_init+0xc4>
C:/Users/nandg/Desktop/FE310-G003/sifive_hifive1_revb_sifive_welcome/freedom-metal/src/drivers/riscv_plic0.c:144
                    __metal_driver_riscv_plic0_set_priority(controller, i, 0);
20014440:	4601                	li	a2,0
20014442:	fe842583          	lw	a1,-24(s0)
20014446:	fcc42503          	lw	a0,-52(s0)
2001444a:	3359                	jal	200141d0 <__metal_driver_riscv_plic0_set_priority>
C:/Users/nandg/Desktop/FE310-G003/sifive_hifive1_revb_sifive_welcome/freedom-metal/src/drivers/riscv_plic0.c:145
                    plic->metal_exint_table[i] = NULL;
2001444c:	fe442703          	lw	a4,-28(s0)
20014450:	fe842783          	lw	a5,-24(s0)
20014454:	078a                	slli	a5,a5,0x2
20014456:	97ba                	add	a5,a5,a4
20014458:	0007a423          	sw	zero,8(a5)
C:/Users/nandg/Desktop/FE310-G003/sifive_hifive1_revb_sifive_welcome/freedom-metal/src/drivers/riscv_plic0.c:146
                    plic->metal_exdata_table[i].sub_int = NULL;
2001445c:	fe442683          	lw	a3,-28(s0)
20014460:	fe842703          	lw	a4,-24(s0)
20014464:	87ba                	mv	a5,a4
20014466:	0786                	slli	a5,a5,0x1
20014468:	97ba                	add	a5,a5,a4
2001446a:	078e                	slli	a5,a5,0x3
2001446c:	97b6                	add	a5,a5,a3
2001446e:	0e07a623          	sw	zero,236(a5)
C:/Users/nandg/Desktop/FE310-G003/sifive_hifive1_revb_sifive_welcome/freedom-metal/src/drivers/riscv_plic0.c:147
                    plic->metal_exdata_table[i].exint_data = NULL;
20014472:	fe442683          	lw	a3,-28(s0)
20014476:	fe842703          	lw	a4,-24(s0)
2001447a:	87ba                	mv	a5,a4
2001447c:	0786                	slli	a5,a5,0x1
2001447e:	97ba                	add	a5,a5,a4
20014480:	078e                	slli	a5,a5,0x3
20014482:	97b6                	add	a5,a5,a3
20014484:	0e07a823          	sw	zero,240(a5)
C:/Users/nandg/Desktop/FE310-G003/sifive_hifive1_revb_sifive_welcome/freedom-metal/src/drivers/riscv_plic0.c:141 (discriminator 2)
            for (int i = 0; i < PLIC0_MAX_INTERRUPTS; i++) {
20014488:	fe842783          	lw	a5,-24(s0)
2001448c:	0785                	addi	a5,a5,1
2001448e:	fef42423          	sw	a5,-24(s0)
C:/Users/nandg/Desktop/FE310-G003/sifive_hifive1_revb_sifive_welcome/freedom-metal/src/drivers/riscv_plic0.c:141 (discriminator 1)
20014492:	fe842703          	lw	a4,-24(s0)
20014496:	3ff00793          	li	a5,1023
2001449a:	f8e7d5e3          	bge	a5,a4,20014424 <__metal_driver_riscv_plic0_init+0x60>
C:/Users/nandg/Desktop/FE310-G003/sifive_hifive1_revb_sifive_welcome/freedom-metal/src/drivers/riscv_plic0.c:151 (discriminator 2)
                }
            }

            __metal_plic0_set_threshold(controller, parent, 0);
2001449e:	4601                	li	a2,0
200144a0:	fec42583          	lw	a1,-20(s0)
200144a4:	fcc42503          	lw	a0,-52(s0)
200144a8:	3165                	jal	20014150 <__metal_plic0_set_threshold>
C:/Users/nandg/Desktop/FE310-G003/sifive_hifive1_revb_sifive_welcome/freedom-metal/src/drivers/riscv_plic0.c:154 (discriminator 2)

            /* Register plic (ext) interrupt with with parent controller */
            intc->vtable->interrupt_register(intc, line, NULL, plic);
200144aa:	fdc42783          	lw	a5,-36(s0)
200144ae:	439c                	lw	a5,0(a5)
200144b0:	4fdc                	lw	a5,28(a5)
200144b2:	fe442683          	lw	a3,-28(s0)
200144b6:	4601                	li	a2,0
200144b8:	fd842583          	lw	a1,-40(s0)
200144bc:	fdc42503          	lw	a0,-36(s0)
200144c0:	9782                	jalr	a5
C:/Users/nandg/Desktop/FE310-G003/sifive_hifive1_revb_sifive_welcome/freedom-metal/src/drivers/riscv_plic0.c:156 (discriminator 2)
            /* Register plic handler for dispatching its device interrupts */
            intc->vtable->interrupt_register(intc, line, __metal_plic0_handler,
200144c2:	fdc42783          	lw	a5,-36(s0)
200144c6:	439c                	lw	a5,0(a5)
200144c8:	4fd8                	lw	a4,28(a5)
200144ca:	fe442683          	lw	a3,-28(s0)
200144ce:	200147b7          	lui	a5,0x20014
200144d2:	32078613          	addi	a2,a5,800 # 20014320 <__metal_plic0_handler>
200144d6:	fd842583          	lw	a1,-40(s0)
200144da:	fdc42503          	lw	a0,-36(s0)
200144de:	9702                	jalr	a4
C:/Users/nandg/Desktop/FE310-G003/sifive_hifive1_revb_sifive_welcome/freedom-metal/src/drivers/riscv_plic0.c:159 (discriminator 2)
                                             plic);
            /* Enable plic (ext) interrupt with with parent controller */
            intc->vtable->interrupt_enable(intc, line);
200144e0:	fdc42783          	lw	a5,-36(s0)
200144e4:	439c                	lw	a5,0(a5)
200144e6:	53dc                	lw	a5,36(a5)
200144e8:	fd842583          	lw	a1,-40(s0)
200144ec:	fdc42503          	lw	a0,-36(s0)
200144f0:	9782                	jalr	a5
C:/Users/nandg/Desktop/FE310-G003/sifive_hifive1_revb_sifive_welcome/freedom-metal/src/drivers/riscv_plic0.c:130 (discriminator 2)
        for (int parent = 0; parent < __METAL_PLIC_NUM_PARENTS; parent++) {
200144f2:	fec42783          	lw	a5,-20(s0)
200144f6:	0785                	addi	a5,a5,1
200144f8:	fef42623          	sw	a5,-20(s0)
C:/Users/nandg/Desktop/FE310-G003/sifive_hifive1_revb_sifive_welcome/freedom-metal/src/drivers/riscv_plic0.c:130 (discriminator 1)
200144fc:	fec42783          	lw	a5,-20(s0)
20014500:	eef054e3          	blez	a5,200143e8 <__metal_driver_riscv_plic0_init+0x24>
C:/Users/nandg/Desktop/FE310-G003/sifive_hifive1_revb_sifive_welcome/freedom-metal/src/drivers/riscv_plic0.c:161
        }
        plic->init_done = 1;
20014504:	fe442783          	lw	a5,-28(s0)
20014508:	4705                	li	a4,1
2001450a:	c3d8                	sw	a4,4(a5)
C:/Users/nandg/Desktop/FE310-G003/sifive_hifive1_revb_sifive_welcome/freedom-metal/src/drivers/riscv_plic0.c:163
    }
}
2001450c:	0001                	nop
2001450e:	50f2                	lw	ra,60(sp)
20014510:	5462                	lw	s0,56(sp)
20014512:	6121                	addi	sp,sp,64
20014514:	8082                	ret

20014516 <__metal_driver_riscv_plic0_register>:
__metal_driver_riscv_plic0_register():
C:/Users/nandg/Desktop/FE310-G003/sifive_hifive1_revb_sifive_welcome/freedom-metal/src/drivers/riscv_plic0.c:167

int __metal_driver_riscv_plic0_register(struct metal_interrupt *controller,
                                        int id, metal_interrupt_handler_t isr,
                                        void *priv) {
20014516:	7179                	addi	sp,sp,-48
20014518:	d606                	sw	ra,44(sp)
2001451a:	d422                	sw	s0,40(sp)
2001451c:	1800                	addi	s0,sp,48
2001451e:	fca42e23          	sw	a0,-36(s0)
20014522:	fcb42c23          	sw	a1,-40(s0)
20014526:	fcc42a23          	sw	a2,-44(s0)
2001452a:	fcd42823          	sw	a3,-48(s0)
C:/Users/nandg/Desktop/FE310-G003/sifive_hifive1_revb_sifive_welcome/freedom-metal/src/drivers/riscv_plic0.c:168
    struct __metal_driver_riscv_plic0 *plic = (void *)(controller);
2001452e:	fdc42783          	lw	a5,-36(s0)
20014532:	fef42623          	sw	a5,-20(s0)
C:/Users/nandg/Desktop/FE310-G003/sifive_hifive1_revb_sifive_welcome/freedom-metal/src/drivers/riscv_plic0.c:170

    if (id >= __metal_driver_sifive_plic0_num_interrupts(controller)) {
20014536:	fdc42503          	lw	a0,-36(s0)
2001453a:	adbff0ef          	jal	ra,20014014 <__metal_driver_sifive_plic0_num_interrupts>
2001453e:	872a                	mv	a4,a0
20014540:	fd842783          	lw	a5,-40(s0)
20014544:	00e7c463          	blt	a5,a4,2001454c <__metal_driver_riscv_plic0_register+0x36>
C:/Users/nandg/Desktop/FE310-G003/sifive_hifive1_revb_sifive_welcome/freedom-metal/src/drivers/riscv_plic0.c:171
        return -1;
20014548:	57fd                	li	a5,-1
2001454a:	a051                	j	200145ce <__metal_driver_riscv_plic0_register+0xb8>
C:/Users/nandg/Desktop/FE310-G003/sifive_hifive1_revb_sifive_welcome/freedom-metal/src/drivers/riscv_plic0.c:174
    }

    if (isr) {
2001454c:	fd442783          	lw	a5,-44(s0)
20014550:	cf9d                	beqz	a5,2001458e <__metal_driver_riscv_plic0_register+0x78>
C:/Users/nandg/Desktop/FE310-G003/sifive_hifive1_revb_sifive_welcome/freedom-metal/src/drivers/riscv_plic0.c:175
        __metal_driver_riscv_plic0_set_priority(controller, id, 2);
20014552:	4609                	li	a2,2
20014554:	fd842583          	lw	a1,-40(s0)
20014558:	fdc42503          	lw	a0,-36(s0)
2001455c:	c75ff0ef          	jal	ra,200141d0 <__metal_driver_riscv_plic0_set_priority>
C:/Users/nandg/Desktop/FE310-G003/sifive_hifive1_revb_sifive_welcome/freedom-metal/src/drivers/riscv_plic0.c:176
        plic->metal_exint_table[id] = isr;
20014560:	fec42703          	lw	a4,-20(s0)
20014564:	fd842783          	lw	a5,-40(s0)
20014568:	078a                	slli	a5,a5,0x2
2001456a:	97ba                	add	a5,a5,a4
2001456c:	fd442703          	lw	a4,-44(s0)
20014570:	c798                	sw	a4,8(a5)
C:/Users/nandg/Desktop/FE310-G003/sifive_hifive1_revb_sifive_welcome/freedom-metal/src/drivers/riscv_plic0.c:177
        plic->metal_exdata_table[id].exint_data = priv;
20014572:	fec42683          	lw	a3,-20(s0)
20014576:	fd842703          	lw	a4,-40(s0)
2001457a:	87ba                	mv	a5,a4
2001457c:	0786                	slli	a5,a5,0x1
2001457e:	97ba                	add	a5,a5,a4
20014580:	078e                	slli	a5,a5,0x3
20014582:	97b6                	add	a5,a5,a3
20014584:	fd042703          	lw	a4,-48(s0)
20014588:	0ee7a823          	sw	a4,240(a5)
2001458c:	a081                	j	200145cc <__metal_driver_riscv_plic0_register+0xb6>
C:/Users/nandg/Desktop/FE310-G003/sifive_hifive1_revb_sifive_welcome/freedom-metal/src/drivers/riscv_plic0.c:179
    } else {
        __metal_driver_riscv_plic0_set_priority(controller, id, 1);
2001458e:	4605                	li	a2,1
20014590:	fd842583          	lw	a1,-40(s0)
20014594:	fdc42503          	lw	a0,-36(s0)
20014598:	c39ff0ef          	jal	ra,200141d0 <__metal_driver_riscv_plic0_set_priority>
C:/Users/nandg/Desktop/FE310-G003/sifive_hifive1_revb_sifive_welcome/freedom-metal/src/drivers/riscv_plic0.c:180
        plic->metal_exint_table[id] = __metal_plic0_default_handler;
2001459c:	fec42703          	lw	a4,-20(s0)
200145a0:	fd842783          	lw	a5,-40(s0)
200145a4:	078a                	slli	a5,a5,0x2
200145a6:	97ba                	add	a5,a5,a4
200145a8:	20014737          	lui	a4,0x20014
200145ac:	30870713          	addi	a4,a4,776 # 20014308 <__metal_plic0_default_handler>
200145b0:	c798                	sw	a4,8(a5)
C:/Users/nandg/Desktop/FE310-G003/sifive_hifive1_revb_sifive_welcome/freedom-metal/src/drivers/riscv_plic0.c:181
        plic->metal_exdata_table[id].sub_int = priv;
200145b2:	fec42683          	lw	a3,-20(s0)
200145b6:	fd842703          	lw	a4,-40(s0)
200145ba:	87ba                	mv	a5,a4
200145bc:	0786                	slli	a5,a5,0x1
200145be:	97ba                	add	a5,a5,a4
200145c0:	078e                	slli	a5,a5,0x3
200145c2:	97b6                	add	a5,a5,a3
200145c4:	fd042703          	lw	a4,-48(s0)
200145c8:	0ee7a623          	sw	a4,236(a5)
C:/Users/nandg/Desktop/FE310-G003/sifive_hifive1_revb_sifive_welcome/freedom-metal/src/drivers/riscv_plic0.c:184
    }

    return 0;
200145cc:	4781                	li	a5,0
C:/Users/nandg/Desktop/FE310-G003/sifive_hifive1_revb_sifive_welcome/freedom-metal/src/drivers/riscv_plic0.c:185
}
200145ce:	853e                	mv	a0,a5
200145d0:	50b2                	lw	ra,44(sp)
200145d2:	5422                	lw	s0,40(sp)
200145d4:	6145                	addi	sp,sp,48
200145d6:	8082                	ret

200145d8 <__metal_driver_riscv_plic0_enable>:
__metal_driver_riscv_plic0_enable():
C:/Users/nandg/Desktop/FE310-G003/sifive_hifive1_revb_sifive_welcome/freedom-metal/src/drivers/riscv_plic0.c:188

int __metal_driver_riscv_plic0_enable(struct metal_interrupt *controller,
                                      int id) {
200145d8:	7179                	addi	sp,sp,-48
200145da:	d606                	sw	ra,44(sp)
200145dc:	d422                	sw	s0,40(sp)
200145de:	1800                	addi	s0,sp,48
200145e0:	fca42e23          	sw	a0,-36(s0)
200145e4:	fcb42c23          	sw	a1,-40(s0)
C:/Users/nandg/Desktop/FE310-G003/sifive_hifive1_revb_sifive_welcome/freedom-metal/src/drivers/riscv_plic0.c:189
    struct __metal_driver_riscv_plic0 *plic = (void *)(controller);
200145e8:	fdc42783          	lw	a5,-36(s0)
200145ec:	fef42623          	sw	a5,-20(s0)
C:/Users/nandg/Desktop/FE310-G003/sifive_hifive1_revb_sifive_welcome/freedom-metal/src/drivers/riscv_plic0.c:191

    if (id >= __metal_driver_sifive_plic0_num_interrupts(controller)) {
200145f0:	fdc42503          	lw	a0,-36(s0)
200145f4:	a21ff0ef          	jal	ra,20014014 <__metal_driver_sifive_plic0_num_interrupts>
200145f8:	872a                	mv	a4,a0
200145fa:	fd842783          	lw	a5,-40(s0)
200145fe:	00e7c463          	blt	a5,a4,20014606 <__metal_driver_riscv_plic0_enable+0x2e>
C:/Users/nandg/Desktop/FE310-G003/sifive_hifive1_revb_sifive_welcome/freedom-metal/src/drivers/riscv_plic0.c:192
        return -1;
20014602:	57fd                	li	a5,-1
20014604:	a829                	j	2001461e <__metal_driver_riscv_plic0_enable+0x46>
C:/Users/nandg/Desktop/FE310-G003/sifive_hifive1_revb_sifive_welcome/freedom-metal/src/drivers/riscv_plic0.c:195
    }

    __metal_plic0_enable(plic, __metal_myhart_id(), id, METAL_ENABLE);
20014606:	86cfe0ef          	jal	ra,20012672 <__metal_myhart_id>
2001460a:	87aa                	mv	a5,a0
2001460c:	4685                	li	a3,1
2001460e:	fd842603          	lw	a2,-40(s0)
20014612:	85be                	mv	a1,a5
20014614:	fec42503          	lw	a0,-20(s0)
20014618:	c4fff0ef          	jal	ra,20014266 <__metal_plic0_enable>
C:/Users/nandg/Desktop/FE310-G003/sifive_hifive1_revb_sifive_welcome/freedom-metal/src/drivers/riscv_plic0.c:196
    return 0;
2001461c:	4781                	li	a5,0
C:/Users/nandg/Desktop/FE310-G003/sifive_hifive1_revb_sifive_welcome/freedom-metal/src/drivers/riscv_plic0.c:197
}
2001461e:	853e                	mv	a0,a5
20014620:	50b2                	lw	ra,44(sp)
20014622:	5422                	lw	s0,40(sp)
20014624:	6145                	addi	sp,sp,48
20014626:	8082                	ret

20014628 <__metal_driver_riscv_plic0_disable>:
__metal_driver_riscv_plic0_disable():
C:/Users/nandg/Desktop/FE310-G003/sifive_hifive1_revb_sifive_welcome/freedom-metal/src/drivers/riscv_plic0.c:200

int __metal_driver_riscv_plic0_disable(struct metal_interrupt *controller,
                                       int id) {
20014628:	7179                	addi	sp,sp,-48
2001462a:	d606                	sw	ra,44(sp)
2001462c:	d422                	sw	s0,40(sp)
2001462e:	1800                	addi	s0,sp,48
20014630:	fca42e23          	sw	a0,-36(s0)
20014634:	fcb42c23          	sw	a1,-40(s0)
C:/Users/nandg/Desktop/FE310-G003/sifive_hifive1_revb_sifive_welcome/freedom-metal/src/drivers/riscv_plic0.c:201
    struct __metal_driver_riscv_plic0 *plic = (void *)(controller);
20014638:	fdc42783          	lw	a5,-36(s0)
2001463c:	fef42623          	sw	a5,-20(s0)
C:/Users/nandg/Desktop/FE310-G003/sifive_hifive1_revb_sifive_welcome/freedom-metal/src/drivers/riscv_plic0.c:203

    if (id >= __metal_driver_sifive_plic0_num_interrupts(controller)) {
20014640:	fdc42503          	lw	a0,-36(s0)
20014644:	9d1ff0ef          	jal	ra,20014014 <__metal_driver_sifive_plic0_num_interrupts>
20014648:	872a                	mv	a4,a0
2001464a:	fd842783          	lw	a5,-40(s0)
2001464e:	00e7c463          	blt	a5,a4,20014656 <__metal_driver_riscv_plic0_disable+0x2e>
C:/Users/nandg/Desktop/FE310-G003/sifive_hifive1_revb_sifive_welcome/freedom-metal/src/drivers/riscv_plic0.c:204
        return -1;
20014652:	57fd                	li	a5,-1
20014654:	a829                	j	2001466e <__metal_driver_riscv_plic0_disable+0x46>
C:/Users/nandg/Desktop/FE310-G003/sifive_hifive1_revb_sifive_welcome/freedom-metal/src/drivers/riscv_plic0.c:206
    }
    __metal_plic0_enable(plic, __metal_myhart_id(), id, METAL_DISABLE);
20014656:	81cfe0ef          	jal	ra,20012672 <__metal_myhart_id>
2001465a:	87aa                	mv	a5,a0
2001465c:	4681                	li	a3,0
2001465e:	fd842603          	lw	a2,-40(s0)
20014662:	85be                	mv	a1,a5
20014664:	fec42503          	lw	a0,-20(s0)
20014668:	bffff0ef          	jal	ra,20014266 <__metal_plic0_enable>
C:/Users/nandg/Desktop/FE310-G003/sifive_hifive1_revb_sifive_welcome/freedom-metal/src/drivers/riscv_plic0.c:207
    return 0;
2001466c:	4781                	li	a5,0
C:/Users/nandg/Desktop/FE310-G003/sifive_hifive1_revb_sifive_welcome/freedom-metal/src/drivers/riscv_plic0.c:208
}
2001466e:	853e                	mv	a0,a5
20014670:	50b2                	lw	ra,44(sp)
20014672:	5422                	lw	s0,40(sp)
20014674:	6145                	addi	sp,sp,48
20014676:	8082                	ret

20014678 <__metal_driver_riscv_plic0_set_threshold>:
__metal_driver_riscv_plic0_set_threshold():
C:/Users/nandg/Desktop/FE310-G003/sifive_hifive1_revb_sifive_welcome/freedom-metal/src/drivers/riscv_plic0.c:211

int __metal_driver_riscv_plic0_set_threshold(struct metal_interrupt *controller,
                                             unsigned int threshold) {
20014678:	1101                	addi	sp,sp,-32
2001467a:	ce06                	sw	ra,28(sp)
2001467c:	cc22                	sw	s0,24(sp)
2001467e:	1000                	addi	s0,sp,32
20014680:	fea42623          	sw	a0,-20(s0)
20014684:	feb42423          	sw	a1,-24(s0)
C:/Users/nandg/Desktop/FE310-G003/sifive_hifive1_revb_sifive_welcome/freedom-metal/src/drivers/riscv_plic0.c:212
    return __metal_plic0_set_threshold(controller, __metal_myhart_id(),
20014688:	febfd0ef          	jal	ra,20012672 <__metal_myhart_id>
2001468c:	87aa                	mv	a5,a0
2001468e:	fe842603          	lw	a2,-24(s0)
20014692:	85be                	mv	a1,a5
20014694:	fec42503          	lw	a0,-20(s0)
20014698:	ab9ff0ef          	jal	ra,20014150 <__metal_plic0_set_threshold>
2001469c:	87aa                	mv	a5,a0
C:/Users/nandg/Desktop/FE310-G003/sifive_hifive1_revb_sifive_welcome/freedom-metal/src/drivers/riscv_plic0.c:214
                                       threshold);
}
2001469e:	853e                	mv	a0,a5
200146a0:	40f2                	lw	ra,28(sp)
200146a2:	4462                	lw	s0,24(sp)
200146a4:	6105                	addi	sp,sp,32
200146a6:	8082                	ret

200146a8 <__metal_driver_riscv_plic0_get_threshold>:
__metal_driver_riscv_plic0_get_threshold():
C:/Users/nandg/Desktop/FE310-G003/sifive_hifive1_revb_sifive_welcome/freedom-metal/src/drivers/riscv_plic0.c:217

unsigned int
__metal_driver_riscv_plic0_get_threshold(struct metal_interrupt *controller) {
200146a8:	1101                	addi	sp,sp,-32
200146aa:	ce06                	sw	ra,28(sp)
200146ac:	cc22                	sw	s0,24(sp)
200146ae:	1000                	addi	s0,sp,32
200146b0:	fea42623          	sw	a0,-20(s0)
C:/Users/nandg/Desktop/FE310-G003/sifive_hifive1_revb_sifive_welcome/freedom-metal/src/drivers/riscv_plic0.c:218
    return __metal_plic0_get_threshold(controller, __metal_myhart_id());
200146b4:	fbffd0ef          	jal	ra,20012672 <__metal_myhart_id>
200146b8:	87aa                	mv	a5,a0
200146ba:	85be                	mv	a1,a5
200146bc:	fec42503          	lw	a0,-20(s0)
200146c0:	ad7ff0ef          	jal	ra,20014196 <__metal_plic0_get_threshold>
200146c4:	87aa                	mv	a5,a0
C:/Users/nandg/Desktop/FE310-G003/sifive_hifive1_revb_sifive_welcome/freedom-metal/src/drivers/riscv_plic0.c:219
}
200146c6:	853e                	mv	a0,a5
200146c8:	40f2                	lw	ra,28(sp)
200146ca:	4462                	lw	s0,24(sp)
200146cc:	6105                	addi	sp,sp,32
200146ce:	8082                	ret

200146d0 <__metal_driver_riscv_plic0_affinity_enable>:
__metal_driver_riscv_plic0_affinity_enable():
C:/Users/nandg/Desktop/FE310-G003/sifive_hifive1_revb_sifive_welcome/freedom-metal/src/drivers/riscv_plic0.c:223

metal_affinity
__metal_driver_riscv_plic0_affinity_enable(struct metal_interrupt *controller,
                                           metal_affinity bitmask, int id) {
200146d0:	7179                	addi	sp,sp,-48
200146d2:	d606                	sw	ra,44(sp)
200146d4:	d422                	sw	s0,40(sp)
200146d6:	1800                	addi	s0,sp,48
200146d8:	fca42e23          	sw	a0,-36(s0)
200146dc:	fcb42c23          	sw	a1,-40(s0)
200146e0:	fcc42a23          	sw	a2,-44(s0)
C:/Users/nandg/Desktop/FE310-G003/sifive_hifive1_revb_sifive_welcome/freedom-metal/src/drivers/riscv_plic0.c:224
    metal_affinity ret = {0};
200146e4:	fe042223          	sw	zero,-28(s0)
C:/Users/nandg/Desktop/FE310-G003/sifive_hifive1_revb_sifive_welcome/freedom-metal/src/drivers/riscv_plic0.c:227
    int context;

    struct __metal_driver_riscv_plic0 *plic = (void *)(controller);
200146e8:	fdc42783          	lw	a5,-36(s0)
200146ec:	fef42423          	sw	a5,-24(s0)
C:/Users/nandg/Desktop/FE310-G003/sifive_hifive1_revb_sifive_welcome/freedom-metal/src/drivers/riscv_plic0.c:229

    if (id >= __metal_driver_sifive_plic0_num_interrupts(controller)) {
200146f0:	fdc42503          	lw	a0,-36(s0)
200146f4:	921ff0ef          	jal	ra,20014014 <__metal_driver_sifive_plic0_num_interrupts>
200146f8:	872a                	mv	a4,a0
200146fa:	fd442783          	lw	a5,-44(s0)
200146fe:	00e7c863          	blt	a5,a4,2001470e <__metal_driver_riscv_plic0_affinity_enable+0x3e>
C:/Users/nandg/Desktop/FE310-G003/sifive_hifive1_revb_sifive_welcome/freedom-metal/src/drivers/riscv_plic0.c:230
        metal_affinity_set_val(ret, -1);
20014702:	57fd                	li	a5,-1
20014704:	fef42223          	sw	a5,-28(s0)
C:/Users/nandg/Desktop/FE310-G003/sifive_hifive1_revb_sifive_welcome/freedom-metal/src/drivers/riscv_plic0.c:231
        return ret;
20014708:	fe442783          	lw	a5,-28(s0)
2001470c:	a899                	j	20014762 <__metal_driver_riscv_plic0_affinity_enable+0x92>
C:/Users/nandg/Desktop/FE310-G003/sifive_hifive1_revb_sifive_welcome/freedom-metal/src/drivers/riscv_plic0.c:234
    }

    for_each_metal_affinity(context, bitmask) {
2001470e:	fe042623          	sw	zero,-20(s0)
20014712:	a099                	j	20014758 <__metal_driver_riscv_plic0_affinity_enable+0x88>
C:/Users/nandg/Desktop/FE310-G003/sifive_hifive1_revb_sifive_welcome/freedom-metal/src/drivers/riscv_plic0.c:235
        if (context != 0)
20014714:	fec42783          	lw	a5,-20(s0)
20014718:	c795                	beqz	a5,20014744 <__metal_driver_riscv_plic0_affinity_enable+0x74>
C:/Users/nandg/Desktop/FE310-G003/sifive_hifive1_revb_sifive_welcome/freedom-metal/src/drivers/riscv_plic0.c:236
            metal_affinity_set_bit(
2001471a:	4685                	li	a3,1
2001471c:	fd442603          	lw	a2,-44(s0)
20014720:	fec42583          	lw	a1,-20(s0)
20014724:	fe842503          	lw	a0,-24(s0)
20014728:	b3fff0ef          	jal	ra,20014266 <__metal_plic0_enable>
2001472c:	87aa                	mv	a5,a0
2001472e:	0017f713          	andi	a4,a5,1
20014732:	fec42783          	lw	a5,-20(s0)
20014736:	00f71733          	sll	a4,a4,a5
2001473a:	fe442783          	lw	a5,-28(s0)
2001473e:	8fd9                	or	a5,a5,a4
20014740:	fef42223          	sw	a5,-28(s0)
C:/Users/nandg/Desktop/FE310-G003/sifive_hifive1_revb_sifive_welcome/freedom-metal/src/drivers/riscv_plic0.c:234 (discriminator 2)
    for_each_metal_affinity(context, bitmask) {
20014744:	fec42783          	lw	a5,-20(s0)
20014748:	0785                	addi	a5,a5,1
2001474a:	fef42623          	sw	a5,-20(s0)
2001474e:	fd842783          	lw	a5,-40(s0)
20014752:	8385                	srli	a5,a5,0x1
20014754:	fcf42c23          	sw	a5,-40(s0)
C:/Users/nandg/Desktop/FE310-G003/sifive_hifive1_revb_sifive_welcome/freedom-metal/src/drivers/riscv_plic0.c:234 (discriminator 1)
20014758:	fd842783          	lw	a5,-40(s0)
2001475c:	ffc5                	bnez	a5,20014714 <__metal_driver_riscv_plic0_affinity_enable+0x44>
C:/Users/nandg/Desktop/FE310-G003/sifive_hifive1_revb_sifive_welcome/freedom-metal/src/drivers/riscv_plic0.c:241
                ret, context,
                __metal_plic0_enable(plic, context, id, METAL_ENABLE));
    }

    return ret;
2001475e:	fe442783          	lw	a5,-28(s0)
C:/Users/nandg/Desktop/FE310-G003/sifive_hifive1_revb_sifive_welcome/freedom-metal/src/drivers/riscv_plic0.c:242 (discriminator 1)
}
20014762:	853e                	mv	a0,a5
20014764:	50b2                	lw	ra,44(sp)
20014766:	5422                	lw	s0,40(sp)
20014768:	6145                	addi	sp,sp,48
2001476a:	8082                	ret

2001476c <__metal_driver_riscv_plic0_affinity_disable>:
__metal_driver_riscv_plic0_affinity_disable():
C:/Users/nandg/Desktop/FE310-G003/sifive_hifive1_revb_sifive_welcome/freedom-metal/src/drivers/riscv_plic0.c:246

metal_affinity
__metal_driver_riscv_plic0_affinity_disable(struct metal_interrupt *controller,
                                            metal_affinity bitmask, int id) {
2001476c:	7179                	addi	sp,sp,-48
2001476e:	d606                	sw	ra,44(sp)
20014770:	d422                	sw	s0,40(sp)
20014772:	1800                	addi	s0,sp,48
20014774:	fca42e23          	sw	a0,-36(s0)
20014778:	fcb42c23          	sw	a1,-40(s0)
2001477c:	fcc42a23          	sw	a2,-44(s0)
C:/Users/nandg/Desktop/FE310-G003/sifive_hifive1_revb_sifive_welcome/freedom-metal/src/drivers/riscv_plic0.c:247
    metal_affinity ret = {0};
20014780:	fe042223          	sw	zero,-28(s0)
C:/Users/nandg/Desktop/FE310-G003/sifive_hifive1_revb_sifive_welcome/freedom-metal/src/drivers/riscv_plic0.c:250
    int context;

    struct __metal_driver_riscv_plic0 *plic = (void *)(controller);
20014784:	fdc42783          	lw	a5,-36(s0)
20014788:	fef42423          	sw	a5,-24(s0)
C:/Users/nandg/Desktop/FE310-G003/sifive_hifive1_revb_sifive_welcome/freedom-metal/src/drivers/riscv_plic0.c:252

    if (id >= __metal_driver_sifive_plic0_num_interrupts(controller)) {
2001478c:	fdc42503          	lw	a0,-36(s0)
20014790:	885ff0ef          	jal	ra,20014014 <__metal_driver_sifive_plic0_num_interrupts>
20014794:	872a                	mv	a4,a0
20014796:	fd442783          	lw	a5,-44(s0)
2001479a:	00e7c863          	blt	a5,a4,200147aa <__metal_driver_riscv_plic0_affinity_disable+0x3e>
C:/Users/nandg/Desktop/FE310-G003/sifive_hifive1_revb_sifive_welcome/freedom-metal/src/drivers/riscv_plic0.c:253
        metal_affinity_set_val(ret, -1);
2001479e:	57fd                	li	a5,-1
200147a0:	fef42223          	sw	a5,-28(s0)
C:/Users/nandg/Desktop/FE310-G003/sifive_hifive1_revb_sifive_welcome/freedom-metal/src/drivers/riscv_plic0.c:254
        return ret;
200147a4:	fe442783          	lw	a5,-28(s0)
200147a8:	a899                	j	200147fe <__metal_driver_riscv_plic0_affinity_disable+0x92>
C:/Users/nandg/Desktop/FE310-G003/sifive_hifive1_revb_sifive_welcome/freedom-metal/src/drivers/riscv_plic0.c:257
    }

    for_each_metal_affinity(context, bitmask) {
200147aa:	fe042623          	sw	zero,-20(s0)
200147ae:	a099                	j	200147f4 <__metal_driver_riscv_plic0_affinity_disable+0x88>
C:/Users/nandg/Desktop/FE310-G003/sifive_hifive1_revb_sifive_welcome/freedom-metal/src/drivers/riscv_plic0.c:258
        if (context != 0)
200147b0:	fec42783          	lw	a5,-20(s0)
200147b4:	c795                	beqz	a5,200147e0 <__metal_driver_riscv_plic0_affinity_disable+0x74>
C:/Users/nandg/Desktop/FE310-G003/sifive_hifive1_revb_sifive_welcome/freedom-metal/src/drivers/riscv_plic0.c:259
            metal_affinity_set_bit(
200147b6:	4681                	li	a3,0
200147b8:	fd442603          	lw	a2,-44(s0)
200147bc:	fec42583          	lw	a1,-20(s0)
200147c0:	fe842503          	lw	a0,-24(s0)
200147c4:	aa3ff0ef          	jal	ra,20014266 <__metal_plic0_enable>
200147c8:	87aa                	mv	a5,a0
200147ca:	0017f713          	andi	a4,a5,1
200147ce:	fec42783          	lw	a5,-20(s0)
200147d2:	00f71733          	sll	a4,a4,a5
200147d6:	fe442783          	lw	a5,-28(s0)
200147da:	8fd9                	or	a5,a5,a4
200147dc:	fef42223          	sw	a5,-28(s0)
C:/Users/nandg/Desktop/FE310-G003/sifive_hifive1_revb_sifive_welcome/freedom-metal/src/drivers/riscv_plic0.c:257 (discriminator 2)
    for_each_metal_affinity(context, bitmask) {
200147e0:	fec42783          	lw	a5,-20(s0)
200147e4:	0785                	addi	a5,a5,1
200147e6:	fef42623          	sw	a5,-20(s0)
200147ea:	fd842783          	lw	a5,-40(s0)
200147ee:	8385                	srli	a5,a5,0x1
200147f0:	fcf42c23          	sw	a5,-40(s0)
C:/Users/nandg/Desktop/FE310-G003/sifive_hifive1_revb_sifive_welcome/freedom-metal/src/drivers/riscv_plic0.c:257 (discriminator 1)
200147f4:	fd842783          	lw	a5,-40(s0)
200147f8:	ffc5                	bnez	a5,200147b0 <__metal_driver_riscv_plic0_affinity_disable+0x44>
C:/Users/nandg/Desktop/FE310-G003/sifive_hifive1_revb_sifive_welcome/freedom-metal/src/drivers/riscv_plic0.c:264
                ret, context,
                __metal_plic0_enable(plic, context, id, METAL_DISABLE));
    }

    return ret;
200147fa:	fe442783          	lw	a5,-28(s0)
C:/Users/nandg/Desktop/FE310-G003/sifive_hifive1_revb_sifive_welcome/freedom-metal/src/drivers/riscv_plic0.c:265 (discriminator 1)
}
200147fe:	853e                	mv	a0,a5
20014800:	50b2                	lw	ra,44(sp)
20014802:	5422                	lw	s0,40(sp)
20014804:	6145                	addi	sp,sp,48
20014806:	8082                	ret

20014808 <__metal_driver_riscv_plic0_affinity_set_threshold>:
__metal_driver_riscv_plic0_affinity_set_threshold():
C:/Users/nandg/Desktop/FE310-G003/sifive_hifive1_revb_sifive_welcome/freedom-metal/src/drivers/riscv_plic0.c:269

metal_affinity __metal_driver_riscv_plic0_affinity_set_threshold(
    struct metal_interrupt *controller, metal_affinity bitmask,
    unsigned int threshold) {
20014808:	7179                	addi	sp,sp,-48
2001480a:	d606                	sw	ra,44(sp)
2001480c:	d422                	sw	s0,40(sp)
2001480e:	1800                	addi	s0,sp,48
20014810:	fca42e23          	sw	a0,-36(s0)
20014814:	fcb42c23          	sw	a1,-40(s0)
20014818:	fcc42a23          	sw	a2,-44(s0)
C:/Users/nandg/Desktop/FE310-G003/sifive_hifive1_revb_sifive_welcome/freedom-metal/src/drivers/riscv_plic0.c:270
    metal_affinity ret = {0};
2001481c:	fe042423          	sw	zero,-24(s0)
C:/Users/nandg/Desktop/FE310-G003/sifive_hifive1_revb_sifive_welcome/freedom-metal/src/drivers/riscv_plic0.c:273
    int context;

    for_each_metal_affinity(context, bitmask) {
20014820:	fe042623          	sw	zero,-20(s0)
20014824:	a091                	j	20014868 <__metal_driver_riscv_plic0_affinity_set_threshold+0x60>
C:/Users/nandg/Desktop/FE310-G003/sifive_hifive1_revb_sifive_welcome/freedom-metal/src/drivers/riscv_plic0.c:274
        if (context != 0)
20014826:	fec42783          	lw	a5,-20(s0)
2001482a:	c78d                	beqz	a5,20014854 <__metal_driver_riscv_plic0_affinity_set_threshold+0x4c>
C:/Users/nandg/Desktop/FE310-G003/sifive_hifive1_revb_sifive_welcome/freedom-metal/src/drivers/riscv_plic0.c:275
            metal_affinity_set_bit(
2001482c:	fd442603          	lw	a2,-44(s0)
20014830:	fec42583          	lw	a1,-20(s0)
20014834:	fdc42503          	lw	a0,-36(s0)
20014838:	919ff0ef          	jal	ra,20014150 <__metal_plic0_set_threshold>
2001483c:	87aa                	mv	a5,a0
2001483e:	0017f713          	andi	a4,a5,1
20014842:	fec42783          	lw	a5,-20(s0)
20014846:	00f71733          	sll	a4,a4,a5
2001484a:	fe842783          	lw	a5,-24(s0)
2001484e:	8fd9                	or	a5,a5,a4
20014850:	fef42423          	sw	a5,-24(s0)
C:/Users/nandg/Desktop/FE310-G003/sifive_hifive1_revb_sifive_welcome/freedom-metal/src/drivers/riscv_plic0.c:273 (discriminator 2)
    for_each_metal_affinity(context, bitmask) {
20014854:	fec42783          	lw	a5,-20(s0)
20014858:	0785                	addi	a5,a5,1
2001485a:	fef42623          	sw	a5,-20(s0)
2001485e:	fd842783          	lw	a5,-40(s0)
20014862:	8385                	srli	a5,a5,0x1
20014864:	fcf42c23          	sw	a5,-40(s0)
C:/Users/nandg/Desktop/FE310-G003/sifive_hifive1_revb_sifive_welcome/freedom-metal/src/drivers/riscv_plic0.c:273 (discriminator 1)
20014868:	fd842783          	lw	a5,-40(s0)
2001486c:	ffcd                	bnez	a5,20014826 <__metal_driver_riscv_plic0_affinity_set_threshold+0x1e>
C:/Users/nandg/Desktop/FE310-G003/sifive_hifive1_revb_sifive_welcome/freedom-metal/src/drivers/riscv_plic0.c:280
                ret, context,
                __metal_plic0_set_threshold(controller, context, threshold));
    }

    return ret;
2001486e:	fe842783          	lw	a5,-24(s0)
C:/Users/nandg/Desktop/FE310-G003/sifive_hifive1_revb_sifive_welcome/freedom-metal/src/drivers/riscv_plic0.c:281
}
20014872:	853e                	mv	a0,a5
20014874:	50b2                	lw	ra,44(sp)
20014876:	5422                	lw	s0,40(sp)
20014878:	6145                	addi	sp,sp,48
2001487a:	8082                	ret

2001487c <__metal_driver_riscv_plic0_affinity_get_threshold>:
__metal_driver_riscv_plic0_affinity_get_threshold():
C:/Users/nandg/Desktop/FE310-G003/sifive_hifive1_revb_sifive_welcome/freedom-metal/src/drivers/riscv_plic0.c:284

unsigned int __metal_driver_riscv_plic0_affinity_get_threshold(
    struct metal_interrupt *controller, int context_id) {
2001487c:	1101                	addi	sp,sp,-32
2001487e:	ce06                	sw	ra,28(sp)
20014880:	cc22                	sw	s0,24(sp)
20014882:	1000                	addi	s0,sp,32
20014884:	fea42623          	sw	a0,-20(s0)
20014888:	feb42423          	sw	a1,-24(s0)
C:/Users/nandg/Desktop/FE310-G003/sifive_hifive1_revb_sifive_welcome/freedom-metal/src/drivers/riscv_plic0.c:285
    __metal_plic0_get_threshold(controller, context_id);
2001488c:	fe842583          	lw	a1,-24(s0)
20014890:	fec42503          	lw	a0,-20(s0)
20014894:	903ff0ef          	jal	ra,20014196 <__metal_plic0_get_threshold>
C:/Users/nandg/Desktop/FE310-G003/sifive_hifive1_revb_sifive_welcome/freedom-metal/src/drivers/riscv_plic0.c:286
    return 0;
20014898:	4781                	li	a5,0
C:/Users/nandg/Desktop/FE310-G003/sifive_hifive1_revb_sifive_welcome/freedom-metal/src/drivers/riscv_plic0.c:287
}
2001489a:	853e                	mv	a0,a5
2001489c:	40f2                	lw	ra,28(sp)
2001489e:	4462                	lw	s0,24(sp)
200148a0:	6105                	addi	sp,sp,32
200148a2:	8082                	ret

200148a4 <__metal_driver_sifive_fe310_g000_hfrosc_ref>:
__metal_driver_sifive_fe310_g000_hfrosc_ref():
C:\Users\nandg\Desktop\FE310-G003\sifive_hifive1_revb_sifive_welcome\bsp\build\debug/./metal/machine.h:1242



/* --------------------- sifive_fe310_g000_hfrosc ------------ */
static __inline__ struct metal_clock * __metal_driver_sifive_fe310_g000_hfrosc_ref(const struct metal_clock *clock)
{
200148a4:	1101                	addi	sp,sp,-32
200148a6:	ce22                	sw	s0,28(sp)
200148a8:	1000                	addi	s0,sp,32
200148aa:	fea42623          	sw	a0,-20(s0)
C:\Users\nandg\Desktop\FE310-G003\sifive_hifive1_revb_sifive_welcome\bsp\build\debug/./metal/machine.h:1243
		return (struct metal_clock *)&__metal_dt_clock_2.clock;
200148ae:	800007b7          	lui	a5,0x80000
200148b2:	06c78793          	addi	a5,a5,108 # 8000006c <metal_segment_heap_target_end+0xffffe8fc>
C:\Users\nandg\Desktop\FE310-G003\sifive_hifive1_revb_sifive_welcome\bsp\build\debug/./metal/machine.h:1244
}
200148b6:	853e                	mv	a0,a5
200148b8:	4472                	lw	s0,28(sp)
200148ba:	6105                	addi	sp,sp,32
200148bc:	8082                	ret

200148be <__metal_driver_sifive_fe310_g000_hfrosc_config_base>:
__metal_driver_sifive_fe310_g000_hfrosc_config_base():
C:\Users\nandg\Desktop\FE310-G003\sifive_hifive1_revb_sifive_welcome\bsp\build\debug/./metal/machine.h:1247

static __inline__ struct __metal_driver_sifive_fe310_g000_prci * __metal_driver_sifive_fe310_g000_hfrosc_config_base(const struct metal_clock *clock)
{
200148be:	1101                	addi	sp,sp,-32
200148c0:	ce22                	sw	s0,28(sp)
200148c2:	1000                	addi	s0,sp,32
200148c4:	fea42623          	sw	a0,-20(s0)
C:\Users\nandg\Desktop\FE310-G003\sifive_hifive1_revb_sifive_welcome\bsp\build\debug/./metal/machine.h:1248
		return (struct __metal_driver_sifive_fe310_g000_prci *)&__metal_dt_prci_10008000;
200148c8:	82018793          	addi	a5,gp,-2016 # 80000ac0 <__metal_dt_prci_10008000>
C:\Users\nandg\Desktop\FE310-G003\sifive_hifive1_revb_sifive_welcome\bsp\build\debug/./metal/machine.h:1249
}
200148cc:	853e                	mv	a0,a5
200148ce:	4472                	lw	s0,28(sp)
200148d0:	6105                	addi	sp,sp,32
200148d2:	8082                	ret

200148d4 <__metal_driver_sifive_fe310_g000_hfrosc_config_offset>:
__metal_driver_sifive_fe310_g000_hfrosc_config_offset():
C:\Users\nandg\Desktop\FE310-G003\sifive_hifive1_revb_sifive_welcome\bsp\build\debug/./metal/machine.h:1257
{
		return &__metal_driver_vtable_sifive_fe310_g000_prci;
}

static __inline__ long __metal_driver_sifive_fe310_g000_hfrosc_config_offset(const struct metal_clock *clock)
{
200148d4:	1101                	addi	sp,sp,-32
200148d6:	ce22                	sw	s0,28(sp)
200148d8:	1000                	addi	s0,sp,32
200148da:	fea42623          	sw	a0,-20(s0)
C:\Users\nandg\Desktop\FE310-G003\sifive_hifive1_revb_sifive_welcome\bsp\build\debug/./metal/machine.h:1258
		return METAL_SIFIVE_FE310_G000_PRCI_HFROSCCFG;
200148de:	4781                	li	a5,0
C:\Users\nandg\Desktop\FE310-G003\sifive_hifive1_revb_sifive_welcome\bsp\build\debug/./metal/machine.h:1259
}
200148e0:	853e                	mv	a0,a5
200148e2:	4472                	lw	s0,28(sp)
200148e4:	6105                	addi	sp,sp,32
200148e6:	8082                	ret

200148e8 <__metal_driver_sifive_fe310_g000_prci_vtable>:
__metal_driver_sifive_fe310_g000_prci_vtable():
C:\Users\nandg\Desktop\FE310-G003\sifive_hifive1_revb_sifive_welcome\bsp\build\debug/./metal/machine.h:1374
{
		return METAL_SIFIVE_FE310_G000_PRCI_10008000_SIZE;
}

static __inline__ const struct __metal_driver_vtable_sifive_fe310_g000_prci * __metal_driver_sifive_fe310_g000_prci_vtable( )
{
200148e8:	1141                	addi	sp,sp,-16
200148ea:	c622                	sw	s0,12(sp)
200148ec:	0800                	addi	s0,sp,16
C:\Users\nandg\Desktop\FE310-G003\sifive_hifive1_revb_sifive_welcome\bsp\build\debug/./metal/machine.h:1375
		return &__metal_driver_vtable_sifive_fe310_g000_prci;
200148ee:	200117b7          	lui	a5,0x20011
200148f2:	05c78793          	addi	a5,a5,92 # 2001105c <__metal_driver_vtable_sifive_fe310_g000_prci>
C:\Users\nandg\Desktop\FE310-G003\sifive_hifive1_revb_sifive_welcome\bsp\build\debug/./metal/machine.h:1376
}
200148f6:	853e                	mv	a0,a5
200148f8:	4432                	lw	s0,12(sp)
200148fa:	0141                	addi	sp,sp,16
200148fc:	8082                	ret

200148fe <__metal_driver_sifive_fe310_g000_hfrosc_get_rate_hz>:
__metal_driver_sifive_fe310_g000_hfrosc_get_rate_hz():
C:/Users/nandg/Desktop/FE310-G003/sifive_hifive1_revb_sifive_welcome/freedom-metal/src/drivers/sifive_fe310-g000_hfrosc.c:17
#define CONFIG_TRIM 0x001F0000UL
#define CONFIG_ENABLE 0x40000000UL
#define CONFIG_READY 0x80000000UL

long __metal_driver_sifive_fe310_g000_hfrosc_get_rate_hz(
    const struct metal_clock *clock) {
200148fe:	7139                	addi	sp,sp,-64
20014900:	de06                	sw	ra,60(sp)
20014902:	dc22                	sw	s0,56(sp)
20014904:	0080                	addi	s0,sp,64
20014906:	fca42623          	sw	a0,-52(s0)
C:/Users/nandg/Desktop/FE310-G003/sifive_hifive1_revb_sifive_welcome/freedom-metal/src/drivers/sifive_fe310-g000_hfrosc.c:19
    struct metal_clock *ref =
        __metal_driver_sifive_fe310_g000_hfrosc_ref(clock);
2001490a:	fcc42503          	lw	a0,-52(s0)
2001490e:	3f59                	jal	200148a4 <__metal_driver_sifive_fe310_g000_hfrosc_ref>
20014910:	fea42623          	sw	a0,-20(s0)
C:/Users/nandg/Desktop/FE310-G003/sifive_hifive1_revb_sifive_welcome/freedom-metal/src/drivers/sifive_fe310-g000_hfrosc.c:21
    long config_offset =
        __metal_driver_sifive_fe310_g000_hfrosc_config_offset(clock);
20014914:	fcc42503          	lw	a0,-52(s0)
20014918:	3f75                	jal	200148d4 <__metal_driver_sifive_fe310_g000_hfrosc_config_offset>
2001491a:	fea42423          	sw	a0,-24(s0)
C:/Users/nandg/Desktop/FE310-G003/sifive_hifive1_revb_sifive_welcome/freedom-metal/src/drivers/sifive_fe310-g000_hfrosc.c:23
    struct __metal_driver_sifive_fe310_g000_prci *config_base =
        __metal_driver_sifive_fe310_g000_hfrosc_config_base(clock);
2001491e:	fcc42503          	lw	a0,-52(s0)
20014922:	3f71                	jal	200148be <__metal_driver_sifive_fe310_g000_hfrosc_config_base>
20014924:	fea42223          	sw	a0,-28(s0)
C:/Users/nandg/Desktop/FE310-G003/sifive_hifive1_revb_sifive_welcome/freedom-metal/src/drivers/sifive_fe310-g000_hfrosc.c:25
    const struct __metal_driver_vtable_sifive_fe310_g000_prci *vtable =
        __metal_driver_sifive_fe310_g000_prci_vtable();
20014928:	37c1                	jal	200148e8 <__metal_driver_sifive_fe310_g000_prci_vtable>
2001492a:	fea42023          	sw	a0,-32(s0)
C:/Users/nandg/Desktop/FE310-G003/sifive_hifive1_revb_sifive_welcome/freedom-metal/src/drivers/sifive_fe310-g000_hfrosc.c:26
    long cfg = vtable->get_reg(config_base, config_offset);
2001492e:	fe042783          	lw	a5,-32(s0)
20014932:	439c                	lw	a5,0(a5)
20014934:	fe842583          	lw	a1,-24(s0)
20014938:	fe442503          	lw	a0,-28(s0)
2001493c:	9782                	jalr	a5
2001493e:	fca42e23          	sw	a0,-36(s0)
C:/Users/nandg/Desktop/FE310-G003/sifive_hifive1_revb_sifive_welcome/freedom-metal/src/drivers/sifive_fe310-g000_hfrosc.c:28

    if ((cfg & CONFIG_ENABLE) == 0)
20014942:	fdc42703          	lw	a4,-36(s0)
20014946:	400007b7          	lui	a5,0x40000
2001494a:	8ff9                	and	a5,a5,a4
2001494c:	e399                	bnez	a5,20014952 <__metal_driver_sifive_fe310_g000_hfrosc_get_rate_hz+0x54>
C:/Users/nandg/Desktop/FE310-G003/sifive_hifive1_revb_sifive_welcome/freedom-metal/src/drivers/sifive_fe310-g000_hfrosc.c:29
        return -1;
2001494e:	57fd                	li	a5,-1
20014950:	a025                	j	20014978 <__metal_driver_sifive_fe310_g000_hfrosc_get_rate_hz+0x7a>
C:/Users/nandg/Desktop/FE310-G003/sifive_hifive1_revb_sifive_welcome/freedom-metal/src/drivers/sifive_fe310-g000_hfrosc.c:30
    if ((cfg & CONFIG_READY) == 0)
20014952:	fdc42783          	lw	a5,-36(s0)
20014956:	0007c463          	bltz	a5,2001495e <__metal_driver_sifive_fe310_g000_hfrosc_get_rate_hz+0x60>
C:/Users/nandg/Desktop/FE310-G003/sifive_hifive1_revb_sifive_welcome/freedom-metal/src/drivers/sifive_fe310-g000_hfrosc.c:31
        return -1;
2001495a:	57fd                	li	a5,-1
2001495c:	a831                	j	20014978 <__metal_driver_sifive_fe310_g000_hfrosc_get_rate_hz+0x7a>
C:/Users/nandg/Desktop/FE310-G003/sifive_hifive1_revb_sifive_welcome/freedom-metal/src/drivers/sifive_fe310-g000_hfrosc.c:32
    return metal_clock_get_rate_hz(ref) / ((cfg & CONFIG_DIVIDER) + 1);
2001495e:	fec42503          	lw	a0,-20(s0)
20014962:	2bd010ef          	jal	ra,2001641e <metal_clock_get_rate_hz>
20014966:	87aa                	mv	a5,a0
20014968:	873e                	mv	a4,a5
2001496a:	fdc42783          	lw	a5,-36(s0)
2001496e:	03f7f793          	andi	a5,a5,63
20014972:	0785                	addi	a5,a5,1
20014974:	02f757b3          	divu	a5,a4,a5
C:/Users/nandg/Desktop/FE310-G003/sifive_hifive1_revb_sifive_welcome/freedom-metal/src/drivers/sifive_fe310-g000_hfrosc.c:33
}
20014978:	853e                	mv	a0,a5
2001497a:	50f2                	lw	ra,60(sp)
2001497c:	5462                	lw	s0,56(sp)
2001497e:	6121                	addi	sp,sp,64
20014980:	8082                	ret

20014982 <__metal_driver_sifive_fe310_g000_hfrosc_set_rate_hz>:
__metal_driver_sifive_fe310_g000_hfrosc_set_rate_hz():
C:/Users/nandg/Desktop/FE310-G003/sifive_hifive1_revb_sifive_welcome/freedom-metal/src/drivers/sifive_fe310-g000_hfrosc.c:36

long __metal_driver_sifive_fe310_g000_hfrosc_set_rate_hz(
    struct metal_clock *clock, long rate) {
20014982:	1101                	addi	sp,sp,-32
20014984:	ce06                	sw	ra,28(sp)
20014986:	cc22                	sw	s0,24(sp)
20014988:	1000                	addi	s0,sp,32
2001498a:	fea42623          	sw	a0,-20(s0)
2001498e:	feb42423          	sw	a1,-24(s0)
C:/Users/nandg/Desktop/FE310-G003/sifive_hifive1_revb_sifive_welcome/freedom-metal/src/drivers/sifive_fe310-g000_hfrosc.c:37
    return __metal_driver_sifive_fe310_g000_hfrosc_get_rate_hz(clock);
20014992:	fec42503          	lw	a0,-20(s0)
20014996:	37a5                	jal	200148fe <__metal_driver_sifive_fe310_g000_hfrosc_get_rate_hz>
20014998:	87aa                	mv	a5,a0
C:/Users/nandg/Desktop/FE310-G003/sifive_hifive1_revb_sifive_welcome/freedom-metal/src/drivers/sifive_fe310-g000_hfrosc.c:38
}
2001499a:	853e                	mv	a0,a5
2001499c:	40f2                	lw	ra,28(sp)
2001499e:	4462                	lw	s0,24(sp)
200149a0:	6105                	addi	sp,sp,32
200149a2:	8082                	ret

200149a4 <__metal_driver_sifive_fe310_g000_hfxosc_ref>:
__metal_driver_sifive_fe310_g000_hfxosc_ref():
C:\Users\nandg\Desktop\FE310-G003\sifive_hifive1_revb_sifive_welcome\bsp\build\debug/./metal/machine.h:1265
{
200149a4:	1101                	addi	sp,sp,-32
200149a6:	ce22                	sw	s0,28(sp)
200149a8:	1000                	addi	s0,sp,32
200149aa:	fea42623          	sw	a0,-20(s0)
C:\Users\nandg\Desktop\FE310-G003\sifive_hifive1_revb_sifive_welcome\bsp\build\debug/./metal/machine.h:1266
		return (struct metal_clock *)&__metal_dt_clock_0.clock;
200149ae:	800007b7          	lui	a5,0x80000
200149b2:	06078793          	addi	a5,a5,96 # 80000060 <metal_segment_heap_target_end+0xffffe8f0>
C:\Users\nandg\Desktop\FE310-G003\sifive_hifive1_revb_sifive_welcome\bsp\build\debug/./metal/machine.h:1267
}
200149b6:	853e                	mv	a0,a5
200149b8:	4472                	lw	s0,28(sp)
200149ba:	6105                	addi	sp,sp,32
200149bc:	8082                	ret

200149be <__metal_driver_sifive_fe310_g000_hfxosc_config_base>:
__metal_driver_sifive_fe310_g000_hfxosc_config_base():
C:\Users\nandg\Desktop\FE310-G003\sifive_hifive1_revb_sifive_welcome\bsp\build\debug/./metal/machine.h:1270
{
200149be:	1101                	addi	sp,sp,-32
200149c0:	ce22                	sw	s0,28(sp)
200149c2:	1000                	addi	s0,sp,32
200149c4:	fea42623          	sw	a0,-20(s0)
C:\Users\nandg\Desktop\FE310-G003\sifive_hifive1_revb_sifive_welcome\bsp\build\debug/./metal/machine.h:1271
		return (struct __metal_driver_sifive_fe310_g000_prci *)&__metal_dt_prci_10008000;
200149c8:	82018793          	addi	a5,gp,-2016 # 80000ac0 <__metal_dt_prci_10008000>
C:\Users\nandg\Desktop\FE310-G003\sifive_hifive1_revb_sifive_welcome\bsp\build\debug/./metal/machine.h:1272
}
200149cc:	853e                	mv	a0,a5
200149ce:	4472                	lw	s0,28(sp)
200149d0:	6105                	addi	sp,sp,32
200149d2:	8082                	ret

200149d4 <__metal_driver_sifive_fe310_g000_hfxosc_config_offset>:
__metal_driver_sifive_fe310_g000_hfxosc_config_offset():
C:\Users\nandg\Desktop\FE310-G003\sifive_hifive1_revb_sifive_welcome\bsp\build\debug/./metal/machine.h:1275
{
200149d4:	1101                	addi	sp,sp,-32
200149d6:	ce22                	sw	s0,28(sp)
200149d8:	1000                	addi	s0,sp,32
200149da:	fea42623          	sw	a0,-20(s0)
C:\Users\nandg\Desktop\FE310-G003\sifive_hifive1_revb_sifive_welcome\bsp\build\debug/./metal/machine.h:1276
		return METAL_SIFIVE_FE310_G000_PRCI_HFXOSCCFG;
200149de:	4791                	li	a5,4
C:\Users\nandg\Desktop\FE310-G003\sifive_hifive1_revb_sifive_welcome\bsp\build\debug/./metal/machine.h:1277
}
200149e0:	853e                	mv	a0,a5
200149e2:	4472                	lw	s0,28(sp)
200149e4:	6105                	addi	sp,sp,32
200149e6:	8082                	ret

200149e8 <__metal_driver_sifive_fe310_g000_prci_vtable>:
__metal_driver_sifive_fe310_g000_prci_vtable():
C:\Users\nandg\Desktop\FE310-G003\sifive_hifive1_revb_sifive_welcome\bsp\build\debug/./metal/machine.h:1374
{
200149e8:	1141                	addi	sp,sp,-16
200149ea:	c622                	sw	s0,12(sp)
200149ec:	0800                	addi	s0,sp,16
C:\Users\nandg\Desktop\FE310-G003\sifive_hifive1_revb_sifive_welcome\bsp\build\debug/./metal/machine.h:1375
		return &__metal_driver_vtable_sifive_fe310_g000_prci;
200149ee:	200117b7          	lui	a5,0x20011
200149f2:	05c78793          	addi	a5,a5,92 # 2001105c <__metal_driver_vtable_sifive_fe310_g000_prci>
C:\Users\nandg\Desktop\FE310-G003\sifive_hifive1_revb_sifive_welcome\bsp\build\debug/./metal/machine.h:1376
}
200149f6:	853e                	mv	a0,a5
200149f8:	4432                	lw	s0,12(sp)
200149fa:	0141                	addi	sp,sp,16
200149fc:	8082                	ret

200149fe <__metal_driver_sifive_fe310_g000_hfxosc_get_rate_hz>:
__metal_driver_sifive_fe310_g000_hfxosc_get_rate_hz():
C:/Users/nandg/Desktop/FE310-G003/sifive_hifive1_revb_sifive_welcome/freedom-metal/src/drivers/sifive_fe310-g000_hfxosc.c:15

#define CONFIG_ENABLE 0x40000000UL
#define CONFIG_READY 0x80000000UL

long __metal_driver_sifive_fe310_g000_hfxosc_get_rate_hz(
    const struct metal_clock *clock) {
200149fe:	7139                	addi	sp,sp,-64
20014a00:	de06                	sw	ra,60(sp)
20014a02:	dc22                	sw	s0,56(sp)
20014a04:	0080                	addi	s0,sp,64
20014a06:	fca42623          	sw	a0,-52(s0)
C:/Users/nandg/Desktop/FE310-G003/sifive_hifive1_revb_sifive_welcome/freedom-metal/src/drivers/sifive_fe310-g000_hfxosc.c:17
    struct metal_clock *ref =
        __metal_driver_sifive_fe310_g000_hfxosc_ref(clock);
20014a0a:	fcc42503          	lw	a0,-52(s0)
20014a0e:	3f59                	jal	200149a4 <__metal_driver_sifive_fe310_g000_hfxosc_ref>
20014a10:	fea42623          	sw	a0,-20(s0)
C:/Users/nandg/Desktop/FE310-G003/sifive_hifive1_revb_sifive_welcome/freedom-metal/src/drivers/sifive_fe310-g000_hfxosc.c:19
    long config_offset =
        __metal_driver_sifive_fe310_g000_hfxosc_config_offset(clock);
20014a14:	fcc42503          	lw	a0,-52(s0)
20014a18:	3f75                	jal	200149d4 <__metal_driver_sifive_fe310_g000_hfxosc_config_offset>
20014a1a:	fea42423          	sw	a0,-24(s0)
C:/Users/nandg/Desktop/FE310-G003/sifive_hifive1_revb_sifive_welcome/freedom-metal/src/drivers/sifive_fe310-g000_hfxosc.c:21
    struct __metal_driver_sifive_fe310_g000_prci *config_base =
        __metal_driver_sifive_fe310_g000_hfxosc_config_base(clock);
20014a1e:	fcc42503          	lw	a0,-52(s0)
20014a22:	3f71                	jal	200149be <__metal_driver_sifive_fe310_g000_hfxosc_config_base>
20014a24:	fea42223          	sw	a0,-28(s0)
C:/Users/nandg/Desktop/FE310-G003/sifive_hifive1_revb_sifive_welcome/freedom-metal/src/drivers/sifive_fe310-g000_hfxosc.c:23
    const struct __metal_driver_vtable_sifive_fe310_g000_prci *vtable =
        __metal_driver_sifive_fe310_g000_prci_vtable();
20014a28:	37c1                	jal	200149e8 <__metal_driver_sifive_fe310_g000_prci_vtable>
20014a2a:	fea42023          	sw	a0,-32(s0)
C:/Users/nandg/Desktop/FE310-G003/sifive_hifive1_revb_sifive_welcome/freedom-metal/src/drivers/sifive_fe310-g000_hfxosc.c:24
    long cfg = vtable->get_reg(config_base, config_offset);
20014a2e:	fe042783          	lw	a5,-32(s0)
20014a32:	439c                	lw	a5,0(a5)
20014a34:	fe842583          	lw	a1,-24(s0)
20014a38:	fe442503          	lw	a0,-28(s0)
20014a3c:	9782                	jalr	a5
20014a3e:	fca42e23          	sw	a0,-36(s0)
C:/Users/nandg/Desktop/FE310-G003/sifive_hifive1_revb_sifive_welcome/freedom-metal/src/drivers/sifive_fe310-g000_hfxosc.c:26

    if ((cfg & CONFIG_ENABLE) == 0)
20014a42:	fdc42703          	lw	a4,-36(s0)
20014a46:	400007b7          	lui	a5,0x40000
20014a4a:	8ff9                	and	a5,a5,a4
20014a4c:	e399                	bnez	a5,20014a52 <__metal_driver_sifive_fe310_g000_hfxosc_get_rate_hz+0x54>
C:/Users/nandg/Desktop/FE310-G003/sifive_hifive1_revb_sifive_welcome/freedom-metal/src/drivers/sifive_fe310-g000_hfxosc.c:27
        return -1;
20014a4e:	57fd                	li	a5,-1
20014a50:	a821                	j	20014a68 <__metal_driver_sifive_fe310_g000_hfxosc_get_rate_hz+0x6a>
C:/Users/nandg/Desktop/FE310-G003/sifive_hifive1_revb_sifive_welcome/freedom-metal/src/drivers/sifive_fe310-g000_hfxosc.c:28
    if ((cfg & CONFIG_READY) == 0)
20014a52:	fdc42783          	lw	a5,-36(s0)
20014a56:	0007c463          	bltz	a5,20014a5e <__metal_driver_sifive_fe310_g000_hfxosc_get_rate_hz+0x60>
C:/Users/nandg/Desktop/FE310-G003/sifive_hifive1_revb_sifive_welcome/freedom-metal/src/drivers/sifive_fe310-g000_hfxosc.c:29
        return -1;
20014a5a:	57fd                	li	a5,-1
20014a5c:	a031                	j	20014a68 <__metal_driver_sifive_fe310_g000_hfxosc_get_rate_hz+0x6a>
C:/Users/nandg/Desktop/FE310-G003/sifive_hifive1_revb_sifive_welcome/freedom-metal/src/drivers/sifive_fe310-g000_hfxosc.c:30
    return metal_clock_get_rate_hz(ref);
20014a5e:	fec42503          	lw	a0,-20(s0)
20014a62:	1bd010ef          	jal	ra,2001641e <metal_clock_get_rate_hz>
20014a66:	87aa                	mv	a5,a0
C:/Users/nandg/Desktop/FE310-G003/sifive_hifive1_revb_sifive_welcome/freedom-metal/src/drivers/sifive_fe310-g000_hfxosc.c:31
}
20014a68:	853e                	mv	a0,a5
20014a6a:	50f2                	lw	ra,60(sp)
20014a6c:	5462                	lw	s0,56(sp)
20014a6e:	6121                	addi	sp,sp,64
20014a70:	8082                	ret

20014a72 <__metal_driver_sifive_fe310_g000_hfxosc_set_rate_hz>:
__metal_driver_sifive_fe310_g000_hfxosc_set_rate_hz():
C:/Users/nandg/Desktop/FE310-G003/sifive_hifive1_revb_sifive_welcome/freedom-metal/src/drivers/sifive_fe310-g000_hfxosc.c:34

long __metal_driver_sifive_fe310_g000_hfxosc_set_rate_hz(
    struct metal_clock *clock, long rate) {
20014a72:	1101                	addi	sp,sp,-32
20014a74:	ce06                	sw	ra,28(sp)
20014a76:	cc22                	sw	s0,24(sp)
20014a78:	1000                	addi	s0,sp,32
20014a7a:	fea42623          	sw	a0,-20(s0)
20014a7e:	feb42423          	sw	a1,-24(s0)
C:/Users/nandg/Desktop/FE310-G003/sifive_hifive1_revb_sifive_welcome/freedom-metal/src/drivers/sifive_fe310-g000_hfxosc.c:35
    return __metal_driver_sifive_fe310_g000_hfxosc_get_rate_hz(clock);
20014a82:	fec42503          	lw	a0,-20(s0)
20014a86:	3fa5                	jal	200149fe <__metal_driver_sifive_fe310_g000_hfxosc_get_rate_hz>
20014a88:	87aa                	mv	a5,a0
C:/Users/nandg/Desktop/FE310-G003/sifive_hifive1_revb_sifive_welcome/freedom-metal/src/drivers/sifive_fe310-g000_hfxosc.c:36
}
20014a8a:	853e                	mv	a0,a5
20014a8c:	40f2                	lw	ra,28(sp)
20014a8e:	4462                	lw	s0,24(sp)
20014a90:	6105                	addi	sp,sp,32
20014a92:	8082                	ret

20014a94 <__metal_driver_sifive_fe310_g000_pll_pllsel0>:
__metal_driver_sifive_fe310_g000_pll_pllsel0():
C:\Users\nandg\Desktop\FE310-G003\sifive_hifive1_revb_sifive_welcome\bsp\build\debug/./metal/machine.h:1326
{
20014a94:	1101                	addi	sp,sp,-32
20014a96:	ce22                	sw	s0,28(sp)
20014a98:	1000                	addi	s0,sp,32
20014a9a:	fea42623          	sw	a0,-20(s0)
C:\Users\nandg\Desktop\FE310-G003\sifive_hifive1_revb_sifive_welcome\bsp\build\debug/./metal/machine.h:1327
		return (struct metal_clock *)&__metal_dt_clock_3.clock;
20014a9e:	800017b7          	lui	a5,0x80001
20014aa2:	a7878793          	addi	a5,a5,-1416 # 80000a78 <metal_segment_heap_target_end+0xfffff308>
C:\Users\nandg\Desktop\FE310-G003\sifive_hifive1_revb_sifive_welcome\bsp\build\debug/./metal/machine.h:1328
}
20014aa6:	853e                	mv	a0,a5
20014aa8:	4472                	lw	s0,28(sp)
20014aaa:	6105                	addi	sp,sp,32
20014aac:	8082                	ret

20014aae <__metal_driver_sifive_fe310_g000_pll_pllref>:
__metal_driver_sifive_fe310_g000_pll_pllref():
C:\Users\nandg\Desktop\FE310-G003\sifive_hifive1_revb_sifive_welcome\bsp\build\debug/./metal/machine.h:1331
{
20014aae:	1101                	addi	sp,sp,-32
20014ab0:	ce22                	sw	s0,28(sp)
20014ab2:	1000                	addi	s0,sp,32
20014ab4:	fea42623          	sw	a0,-20(s0)
C:\Users\nandg\Desktop\FE310-G003\sifive_hifive1_revb_sifive_welcome\bsp\build\debug/./metal/machine.h:1332
		return (struct metal_clock *)&__metal_dt_clock_1.clock;
20014ab8:	800017b7          	lui	a5,0x80001
20014abc:	a8478793          	addi	a5,a5,-1404 # 80000a84 <metal_segment_heap_target_end+0xfffff314>
C:\Users\nandg\Desktop\FE310-G003\sifive_hifive1_revb_sifive_welcome\bsp\build\debug/./metal/machine.h:1333
}
20014ac0:	853e                	mv	a0,a5
20014ac2:	4472                	lw	s0,28(sp)
20014ac4:	6105                	addi	sp,sp,32
20014ac6:	8082                	ret

20014ac8 <__metal_driver_sifive_fe310_g000_pll_divider_base>:
__metal_driver_sifive_fe310_g000_pll_divider_base():
C:\Users\nandg\Desktop\FE310-G003\sifive_hifive1_revb_sifive_welcome\bsp\build\debug/./metal/machine.h:1336
{
20014ac8:	1101                	addi	sp,sp,-32
20014aca:	ce22                	sw	s0,28(sp)
20014acc:	1000                	addi	s0,sp,32
20014ace:	fea42623          	sw	a0,-20(s0)
C:\Users\nandg\Desktop\FE310-G003\sifive_hifive1_revb_sifive_welcome\bsp\build\debug/./metal/machine.h:1337
		return (struct __metal_driver_sifive_fe310_g000_prci *)&__metal_dt_prci_10008000;
20014ad2:	82018793          	addi	a5,gp,-2016 # 80000ac0 <__metal_dt_prci_10008000>
C:\Users\nandg\Desktop\FE310-G003\sifive_hifive1_revb_sifive_welcome\bsp\build\debug/./metal/machine.h:1338
}
20014ad6:	853e                	mv	a0,a5
20014ad8:	4472                	lw	s0,28(sp)
20014ada:	6105                	addi	sp,sp,32
20014adc:	8082                	ret

20014ade <__metal_driver_sifive_fe310_g000_pll_divider_offset>:
__metal_driver_sifive_fe310_g000_pll_divider_offset():
C:\Users\nandg\Desktop\FE310-G003\sifive_hifive1_revb_sifive_welcome\bsp\build\debug/./metal/machine.h:1341
{
20014ade:	1101                	addi	sp,sp,-32
20014ae0:	ce22                	sw	s0,28(sp)
20014ae2:	1000                	addi	s0,sp,32
20014ae4:	fea42623          	sw	a0,-20(s0)
C:\Users\nandg\Desktop\FE310-G003\sifive_hifive1_revb_sifive_welcome\bsp\build\debug/./metal/machine.h:1342
		return METAL_SIFIVE_FE310_G000_PRCI_PLLOUTDIV;
20014ae8:	47b1                	li	a5,12
C:\Users\nandg\Desktop\FE310-G003\sifive_hifive1_revb_sifive_welcome\bsp\build\debug/./metal/machine.h:1343
}
20014aea:	853e                	mv	a0,a5
20014aec:	4472                	lw	s0,28(sp)
20014aee:	6105                	addi	sp,sp,32
20014af0:	8082                	ret

20014af2 <__metal_driver_sifive_fe310_g000_pll_config_base>:
__metal_driver_sifive_fe310_g000_pll_config_base():
C:\Users\nandg\Desktop\FE310-G003\sifive_hifive1_revb_sifive_welcome\bsp\build\debug/./metal/machine.h:1346
{
20014af2:	1141                	addi	sp,sp,-16
20014af4:	c622                	sw	s0,12(sp)
20014af6:	0800                	addi	s0,sp,16
C:\Users\nandg\Desktop\FE310-G003\sifive_hifive1_revb_sifive_welcome\bsp\build\debug/./metal/machine.h:1347
		return (struct __metal_driver_sifive_fe310_g000_prci *)&__metal_dt_prci_10008000;
20014af8:	82018793          	addi	a5,gp,-2016 # 80000ac0 <__metal_dt_prci_10008000>
C:\Users\nandg\Desktop\FE310-G003\sifive_hifive1_revb_sifive_welcome\bsp\build\debug/./metal/machine.h:1348
}
20014afc:	853e                	mv	a0,a5
20014afe:	4432                	lw	s0,12(sp)
20014b00:	0141                	addi	sp,sp,16
20014b02:	8082                	ret

20014b04 <__metal_driver_sifive_fe310_g000_pll_config_offset>:
__metal_driver_sifive_fe310_g000_pll_config_offset():
C:\Users\nandg\Desktop\FE310-G003\sifive_hifive1_revb_sifive_welcome\bsp\build\debug/./metal/machine.h:1351
{
20014b04:	1141                	addi	sp,sp,-16
20014b06:	c622                	sw	s0,12(sp)
20014b08:	0800                	addi	s0,sp,16
C:\Users\nandg\Desktop\FE310-G003\sifive_hifive1_revb_sifive_welcome\bsp\build\debug/./metal/machine.h:1352
		return METAL_SIFIVE_FE310_G000_PRCI_PLLCFG;
20014b0a:	47a1                	li	a5,8
C:\Users\nandg\Desktop\FE310-G003\sifive_hifive1_revb_sifive_welcome\bsp\build\debug/./metal/machine.h:1353
}
20014b0c:	853e                	mv	a0,a5
20014b0e:	4432                	lw	s0,12(sp)
20014b10:	0141                	addi	sp,sp,16
20014b12:	8082                	ret

20014b14 <__metal_driver_sifive_fe310_g000_pll_init_rate>:
__metal_driver_sifive_fe310_g000_pll_init_rate():
C:\Users\nandg\Desktop\FE310-G003\sifive_hifive1_revb_sifive_welcome\bsp\build\debug/./metal/machine.h:1356
{
20014b14:	1141                	addi	sp,sp,-16
20014b16:	c622                	sw	s0,12(sp)
20014b18:	0800                	addi	s0,sp,16
C:\Users\nandg\Desktop\FE310-G003\sifive_hifive1_revb_sifive_welcome\bsp\build\debug/./metal/machine.h:1357
		return 16000000;
20014b1a:	00f427b7          	lui	a5,0xf42
20014b1e:	40078793          	addi	a5,a5,1024 # f42400 <__heap_size+0xf41c00>
C:\Users\nandg\Desktop\FE310-G003\sifive_hifive1_revb_sifive_welcome\bsp\build\debug/./metal/machine.h:1358
}
20014b22:	853e                	mv	a0,a5
20014b24:	4432                	lw	s0,12(sp)
20014b26:	0141                	addi	sp,sp,16
20014b28:	8082                	ret

20014b2a <__metal_driver_sifive_fe310_g000_prci_base>:
__metal_driver_sifive_fe310_g000_prci_base():
C:\Users\nandg\Desktop\FE310-G003\sifive_hifive1_revb_sifive_welcome\bsp\build\debug/./metal/machine.h:1364
{
20014b2a:	1141                	addi	sp,sp,-16
20014b2c:	c622                	sw	s0,12(sp)
20014b2e:	0800                	addi	s0,sp,16
C:\Users\nandg\Desktop\FE310-G003\sifive_hifive1_revb_sifive_welcome\bsp\build\debug/./metal/machine.h:1365
		return METAL_SIFIVE_FE310_G000_PRCI_10008000_BASE_ADDRESS;
20014b30:	100087b7          	lui	a5,0x10008
C:\Users\nandg\Desktop\FE310-G003\sifive_hifive1_revb_sifive_welcome\bsp\build\debug/./metal/machine.h:1366
}
20014b34:	853e                	mv	a0,a5
20014b36:	4432                	lw	s0,12(sp)
20014b38:	0141                	addi	sp,sp,16
20014b3a:	8082                	ret

20014b3c <__metal_driver_sifive_fe310_g000_prci_vtable>:
__metal_driver_sifive_fe310_g000_prci_vtable():
C:\Users\nandg\Desktop\FE310-G003\sifive_hifive1_revb_sifive_welcome\bsp\build\debug/./metal/machine.h:1374
{
20014b3c:	1141                	addi	sp,sp,-16
20014b3e:	c622                	sw	s0,12(sp)
20014b40:	0800                	addi	s0,sp,16
C:\Users\nandg\Desktop\FE310-G003\sifive_hifive1_revb_sifive_welcome\bsp\build\debug/./metal/machine.h:1375
		return &__metal_driver_vtable_sifive_fe310_g000_prci;
20014b42:	200117b7          	lui	a5,0x20011
20014b46:	05c78793          	addi	a5,a5,92 # 2001105c <__metal_driver_vtable_sifive_fe310_g000_prci>
C:\Users\nandg\Desktop\FE310-G003\sifive_hifive1_revb_sifive_welcome\bsp\build\debug/./metal/machine.h:1376
}
20014b4a:	853e                	mv	a0,a5
20014b4c:	4432                	lw	s0,12(sp)
20014b4e:	0141                	addi	sp,sp,16
20014b50:	8082                	ret

20014b52 <get_pll_config_freq>:
get_pll_config_freq():
C:/Users/nandg/Desktop/FE310-G003/sifive_hifive1_revb_sifive_welcome/freedom-metal/src/drivers/sifive_fe310-g000_pll.c:141
                                const struct pll_config_t *config) {
20014b52:	1101                	addi	sp,sp,-32
20014b54:	ce22                	sw	s0,28(sp)
20014b56:	1000                	addi	s0,sp,32
20014b58:	fea42623          	sw	a0,-20(s0)
20014b5c:	feb42423          	sw	a1,-24(s0)
C:/Users/nandg/Desktop/FE310-G003/sifive_hifive1_revb_sifive_welcome/freedom-metal/src/drivers/sifive_fe310-g000_pll.c:142
    if (pll_input_rate < config->min_input_rate ||
20014b60:	fe842783          	lw	a5,-24(s0)
20014b64:	479c                	lw	a5,8(a5)
20014b66:	fec42703          	lw	a4,-20(s0)
20014b6a:	00f76963          	bltu	a4,a5,20014b7c <get_pll_config_freq+0x2a>
C:/Users/nandg/Desktop/FE310-G003/sifive_hifive1_revb_sifive_welcome/freedom-metal/src/drivers/sifive_fe310-g000_pll.c:143 (discriminator 1)
        pll_input_rate > config->max_input_rate)
20014b6e:	fe842783          	lw	a5,-24(s0)
20014b72:	47dc                	lw	a5,12(a5)
C:/Users/nandg/Desktop/FE310-G003/sifive_hifive1_revb_sifive_welcome/freedom-metal/src/drivers/sifive_fe310-g000_pll.c:142 (discriminator 1)
    if (pll_input_rate < config->min_input_rate ||
20014b74:	fec42703          	lw	a4,-20(s0)
20014b78:	00e7f463          	bgeu	a5,a4,20014b80 <get_pll_config_freq+0x2e>
C:/Users/nandg/Desktop/FE310-G003/sifive_hifive1_revb_sifive_welcome/freedom-metal/src/drivers/sifive_fe310-g000_pll.c:144
        return PLL_CONFIG_NOT_VALID;
20014b7c:	57fd                	li	a5,-1
20014b7e:	a829                	j	20014b98 <get_pll_config_freq+0x46>
C:/Users/nandg/Desktop/FE310-G003/sifive_hifive1_revb_sifive_welcome/freedom-metal/src/drivers/sifive_fe310-g000_pll.c:146
    return pll_input_rate * config->multiplier / config->divisor;
20014b80:	fe842783          	lw	a5,-24(s0)
20014b84:	4398                	lw	a4,0(a5)
20014b86:	fec42783          	lw	a5,-20(s0)
20014b8a:	02f70733          	mul	a4,a4,a5
20014b8e:	fe842783          	lw	a5,-24(s0)
20014b92:	43dc                	lw	a5,4(a5)
20014b94:	02f757b3          	divu	a5,a4,a5
C:/Users/nandg/Desktop/FE310-G003/sifive_hifive1_revb_sifive_welcome/freedom-metal/src/drivers/sifive_fe310-g000_pll.c:147
}
20014b98:	853e                	mv	a0,a5
20014b9a:	4472                	lw	s0,28(sp)
20014b9c:	6105                	addi	sp,sp,32
20014b9e:	8082                	ret

20014ba0 <__metal_driver_sifive_fe310_g000_pll_init>:
__metal_driver_sifive_fe310_g000_pll_init():
C:/Users/nandg/Desktop/FE310-G003/sifive_hifive1_revb_sifive_welcome/freedom-metal/src/drivers/sifive_fe310-g000_pll.c:162
    struct __metal_driver_sifive_fe310_g000_pll *pll) {
20014ba0:	7139                	addi	sp,sp,-64
20014ba2:	de06                	sw	ra,60(sp)
20014ba4:	dc22                	sw	s0,56(sp)
20014ba6:	0080                	addi	s0,sp,64
20014ba8:	fca42623          	sw	a0,-52(s0)
C:/Users/nandg/Desktop/FE310-G003/sifive_hifive1_revb_sifive_welcome/freedom-metal/src/drivers/sifive_fe310-g000_pll.c:164
        __metal_driver_sifive_fe310_g000_pll_pllref(&(pll->clock));
20014bac:	fcc42783          	lw	a5,-52(s0)
20014bb0:	853e                	mv	a0,a5
20014bb2:	3df5                	jal	20014aae <__metal_driver_sifive_fe310_g000_pll_pllref>
20014bb4:	fea42623          	sw	a0,-20(s0)
C:/Users/nandg/Desktop/FE310-G003/sifive_hifive1_revb_sifive_welcome/freedom-metal/src/drivers/sifive_fe310-g000_pll.c:165
    long init_rate = __metal_driver_sifive_fe310_g000_pll_init_rate();
20014bb8:	3fb1                	jal	20014b14 <__metal_driver_sifive_fe310_g000_pll_init_rate>
20014bba:	fea42423          	sw	a0,-24(s0)
C:/Users/nandg/Desktop/FE310-G003/sifive_hifive1_revb_sifive_welcome/freedom-metal/src/drivers/sifive_fe310-g000_pll.c:166
    long config_offset = __metal_driver_sifive_fe310_g000_pll_config_offset();
20014bbe:	3799                	jal	20014b04 <__metal_driver_sifive_fe310_g000_pll_config_offset>
20014bc0:	fea42223          	sw	a0,-28(s0)
C:/Users/nandg/Desktop/FE310-G003/sifive_hifive1_revb_sifive_welcome/freedom-metal/src/drivers/sifive_fe310-g000_pll.c:167
    long base = __metal_driver_sifive_fe310_g000_prci_base();
20014bc4:	379d                	jal	20014b2a <__metal_driver_sifive_fe310_g000_prci_base>
20014bc6:	fea42023          	sw	a0,-32(s0)
C:/Users/nandg/Desktop/FE310-G003/sifive_hifive1_revb_sifive_welcome/freedom-metal/src/drivers/sifive_fe310-g000_pll.c:169
    __metal_io_u32 *pllcfg = (__metal_io_u32 *)(base + config_offset);
20014bca:	fe042703          	lw	a4,-32(s0)
20014bce:	fe442783          	lw	a5,-28(s0)
20014bd2:	97ba                	add	a5,a5,a4
20014bd4:	fcf42e23          	sw	a5,-36(s0)
C:/Users/nandg/Desktop/FE310-G003/sifive_hifive1_revb_sifive_welcome/freedom-metal/src/drivers/sifive_fe310-g000_pll.c:173
    _metal_clock_call_all_callbacks(pll->clock._pre_rate_change_callback);
20014bd8:	fcc42783          	lw	a5,-52(s0)
20014bdc:	43dc                	lw	a5,4(a5)
20014bde:	853e                	mv	a0,a5
20014be0:	7a8010ef          	jal	ra,20016388 <_metal_clock_call_all_callbacks>
C:/Users/nandg/Desktop/FE310-G003/sifive_hifive1_revb_sifive_welcome/freedom-metal/src/drivers/sifive_fe310-g000_pll.c:177
    if ((__METAL_ACCESS_ONCE(pllcfg) & PLL_SEL) != 0)
20014be4:	fdc42783          	lw	a5,-36(s0)
20014be8:	4398                	lw	a4,0(a5)
20014bea:	67c1                	lui	a5,0x10
20014bec:	8ff9                	and	a5,a5,a4
20014bee:	cb91                	beqz	a5,20014c02 <__metal_driver_sifive_fe310_g000_pll_init+0x62>
C:/Users/nandg/Desktop/FE310-G003/sifive_hifive1_revb_sifive_welcome/freedom-metal/src/drivers/sifive_fe310-g000_pll.c:178
        __METAL_ACCESS_ONCE(pllcfg) &= ~(PLL_SEL);
20014bf0:	fdc42783          	lw	a5,-36(s0)
20014bf4:	4398                	lw	a4,0(a5)
20014bf6:	77c1                	lui	a5,0xffff0
20014bf8:	17fd                	addi	a5,a5,-1
20014bfa:	8f7d                	and	a4,a4,a5
20014bfc:	fdc42783          	lw	a5,-36(s0)
20014c00:	c398                	sw	a4,0(a5)
C:/Users/nandg/Desktop/FE310-G003/sifive_hifive1_revb_sifive_welcome/freedom-metal/src/drivers/sifive_fe310-g000_pll.c:181
    if (pllref != NULL)
20014c02:	fec42783          	lw	a5,-20(s0)
20014c06:	cb91                	beqz	a5,20014c1a <__metal_driver_sifive_fe310_g000_pll_init+0x7a>
C:/Users/nandg/Desktop/FE310-G003/sifive_hifive1_revb_sifive_welcome/freedom-metal/src/drivers/sifive_fe310-g000_pll.c:182
        __METAL_ACCESS_ONCE(pllcfg) |= PLL_REFSEL;
20014c08:	fdc42783          	lw	a5,-36(s0)
20014c0c:	4398                	lw	a4,0(a5)
20014c0e:	000207b7          	lui	a5,0x20
20014c12:	8f5d                	or	a4,a4,a5
20014c14:	fdc42783          	lw	a5,-36(s0)
20014c18:	c398                	sw	a4,0(a5)
C:/Users/nandg/Desktop/FE310-G003/sifive_hifive1_revb_sifive_welcome/freedom-metal/src/drivers/sifive_fe310-g000_pll.c:187
    pll->clock.vtable->set_rate_hz(&(pll->clock), init_rate);
20014c1a:	fcc42783          	lw	a5,-52(s0)
20014c1e:	439c                	lw	a5,0(a5)
20014c20:	43d8                	lw	a4,4(a5)
20014c22:	fcc42783          	lw	a5,-52(s0)
20014c26:	fe842583          	lw	a1,-24(s0)
20014c2a:	853e                	mv	a0,a5
20014c2c:	9702                	jalr	a4
C:/Users/nandg/Desktop/FE310-G003/sifive_hifive1_revb_sifive_welcome/freedom-metal/src/drivers/sifive_fe310-g000_pll.c:190
    _metal_clock_call_all_callbacks(pll->clock._post_rate_change_callback);
20014c2e:	fcc42783          	lw	a5,-52(s0)
20014c32:	479c                	lw	a5,8(a5)
20014c34:	853e                	mv	a0,a5
20014c36:	752010ef          	jal	ra,20016388 <_metal_clock_call_all_callbacks>
C:/Users/nandg/Desktop/FE310-G003/sifive_hifive1_revb_sifive_welcome/freedom-metal/src/drivers/sifive_fe310-g000_pll.c:191
}
20014c3a:	0001                	nop
20014c3c:	50f2                	lw	ra,60(sp)
20014c3e:	5462                	lw	s0,56(sp)
20014c40:	6121                	addi	sp,sp,64
20014c42:	8082                	ret

20014c44 <__metal_driver_sifive_fe310_g000_pll_get_rate_hz>:
__metal_driver_sifive_fe310_g000_pll_get_rate_hz():
C:/Users/nandg/Desktop/FE310-G003/sifive_hifive1_revb_sifive_welcome/freedom-metal/src/drivers/sifive_fe310-g000_pll.c:194
    const struct metal_clock *clock) {
20014c44:	711d                	addi	sp,sp,-96
20014c46:	ce86                	sw	ra,92(sp)
20014c48:	cca2                	sw	s0,88(sp)
20014c4a:	1080                	addi	s0,sp,96
20014c4c:	faa42623          	sw	a0,-84(s0)
C:/Users/nandg/Desktop/FE310-G003/sifive_hifive1_revb_sifive_welcome/freedom-metal/src/drivers/sifive_fe310-g000_pll.c:196
        __metal_driver_sifive_fe310_g000_pll_pllref(clock);
20014c50:	fac42503          	lw	a0,-84(s0)
20014c54:	3da9                	jal	20014aae <__metal_driver_sifive_fe310_g000_pll_pllref>
20014c56:	fea42623          	sw	a0,-20(s0)
C:/Users/nandg/Desktop/FE310-G003/sifive_hifive1_revb_sifive_welcome/freedom-metal/src/drivers/sifive_fe310-g000_pll.c:198
        __metal_driver_sifive_fe310_g000_pll_pllsel0(clock);
20014c5a:	fac42503          	lw	a0,-84(s0)
20014c5e:	3d1d                	jal	20014a94 <__metal_driver_sifive_fe310_g000_pll_pllsel0>
20014c60:	fea42423          	sw	a0,-24(s0)
C:/Users/nandg/Desktop/FE310-G003/sifive_hifive1_revb_sifive_welcome/freedom-metal/src/drivers/sifive_fe310-g000_pll.c:200
        __metal_driver_sifive_fe310_g000_pll_config_offset(clock);
20014c64:	fac42503          	lw	a0,-84(s0)
20014c68:	3d71                	jal	20014b04 <__metal_driver_sifive_fe310_g000_pll_config_offset>
20014c6a:	fea42223          	sw	a0,-28(s0)
C:/Users/nandg/Desktop/FE310-G003/sifive_hifive1_revb_sifive_welcome/freedom-metal/src/drivers/sifive_fe310-g000_pll.c:202
        __metal_driver_sifive_fe310_g000_pll_config_base(clock);
20014c6e:	fac42503          	lw	a0,-84(s0)
20014c72:	3541                	jal	20014af2 <__metal_driver_sifive_fe310_g000_pll_config_base>
20014c74:	fea42023          	sw	a0,-32(s0)
C:/Users/nandg/Desktop/FE310-G003/sifive_hifive1_revb_sifive_welcome/freedom-metal/src/drivers/sifive_fe310-g000_pll.c:204
        __metal_driver_sifive_fe310_g000_pll_divider_offset(clock);
20014c78:	fac42503          	lw	a0,-84(s0)
20014c7c:	358d                	jal	20014ade <__metal_driver_sifive_fe310_g000_pll_divider_offset>
20014c7e:	fca42e23          	sw	a0,-36(s0)
C:/Users/nandg/Desktop/FE310-G003/sifive_hifive1_revb_sifive_welcome/freedom-metal/src/drivers/sifive_fe310-g000_pll.c:206
        __metal_driver_sifive_fe310_g000_pll_divider_base(clock);
20014c82:	fac42503          	lw	a0,-84(s0)
20014c86:	3589                	jal	20014ac8 <__metal_driver_sifive_fe310_g000_pll_divider_base>
20014c88:	fca42c23          	sw	a0,-40(s0)
C:/Users/nandg/Desktop/FE310-G003/sifive_hifive1_revb_sifive_welcome/freedom-metal/src/drivers/sifive_fe310-g000_pll.c:208
        __metal_driver_sifive_fe310_g000_prci_vtable();
20014c8c:	3d45                	jal	20014b3c <__metal_driver_sifive_fe310_g000_prci_vtable>
20014c8e:	fca42a23          	sw	a0,-44(s0)
C:/Users/nandg/Desktop/FE310-G003/sifive_hifive1_revb_sifive_welcome/freedom-metal/src/drivers/sifive_fe310-g000_pll.c:210
    long cfg = vtable->get_reg(config_base, config_offset);
20014c92:	fd442783          	lw	a5,-44(s0)
20014c96:	439c                	lw	a5,0(a5)
20014c98:	fe442583          	lw	a1,-28(s0)
20014c9c:	fe042503          	lw	a0,-32(s0)
20014ca0:	9782                	jalr	a5
20014ca2:	fca42823          	sw	a0,-48(s0)
C:/Users/nandg/Desktop/FE310-G003/sifive_hifive1_revb_sifive_welcome/freedom-metal/src/drivers/sifive_fe310-g000_pll.c:211
    long div = vtable->get_reg(divider_base, divider_offset);
20014ca6:	fd442783          	lw	a5,-44(s0)
20014caa:	439c                	lw	a5,0(a5)
20014cac:	fdc42583          	lw	a1,-36(s0)
20014cb0:	fd842503          	lw	a0,-40(s0)
20014cb4:	9782                	jalr	a5
20014cb6:	fca42623          	sw	a0,-52(s0)
C:/Users/nandg/Desktop/FE310-G003/sifive_hifive1_revb_sifive_welcome/freedom-metal/src/drivers/sifive_fe310-g000_pll.c:215
    if (__METAL_GET_FIELD(cfg, PLL_SEL) == 0)
20014cba:	fd042703          	lw	a4,-48(s0)
20014cbe:	67c1                	lui	a5,0x10
20014cc0:	8f7d                	and	a4,a4,a5
20014cc2:	67c1                	lui	a5,0x10
20014cc4:	00f77863          	bgeu	a4,a5,20014cd4 <__metal_driver_sifive_fe310_g000_pll_get_rate_hz+0x90>
C:/Users/nandg/Desktop/FE310-G003/sifive_hifive1_revb_sifive_welcome/freedom-metal/src/drivers/sifive_fe310-g000_pll.c:216
        return metal_clock_get_rate_hz(pllsel0);
20014cc8:	fe842503          	lw	a0,-24(s0)
20014ccc:	752010ef          	jal	ra,2001641e <metal_clock_get_rate_hz>
20014cd0:	87aa                	mv	a5,a0
20014cd2:	a8e1                	j	20014daa <__metal_driver_sifive_fe310_g000_pll_get_rate_hz+0x166>
C:/Users/nandg/Desktop/FE310-G003/sifive_hifive1_revb_sifive_welcome/freedom-metal/src/drivers/sifive_fe310-g000_pll.c:221
        __METAL_GET_FIELD(cfg, PLL_REFSEL) ? pllref : pllsel0);
20014cd4:	fd042703          	lw	a4,-48(s0)
20014cd8:	000207b7          	lui	a5,0x20
20014cdc:	8f7d                	and	a4,a4,a5
C:/Users/nandg/Desktop/FE310-G003/sifive_hifive1_revb_sifive_welcome/freedom-metal/src/drivers/sifive_fe310-g000_pll.c:220
    long ref_hz = metal_clock_get_rate_hz(
20014cde:	000207b7          	lui	a5,0x20
20014ce2:	00f76563          	bltu	a4,a5,20014cec <__metal_driver_sifive_fe310_g000_pll_get_rate_hz+0xa8>
C:/Users/nandg/Desktop/FE310-G003/sifive_hifive1_revb_sifive_welcome/freedom-metal/src/drivers/sifive_fe310-g000_pll.c:220 (discriminator 1)
20014ce6:	fec42783          	lw	a5,-20(s0)
20014cea:	a019                	j	20014cf0 <__metal_driver_sifive_fe310_g000_pll_get_rate_hz+0xac>
C:/Users/nandg/Desktop/FE310-G003/sifive_hifive1_revb_sifive_welcome/freedom-metal/src/drivers/sifive_fe310-g000_pll.c:220 (discriminator 2)
20014cec:	fe842783          	lw	a5,-24(s0)
C:/Users/nandg/Desktop/FE310-G003/sifive_hifive1_revb_sifive_welcome/freedom-metal/src/drivers/sifive_fe310-g000_pll.c:220 (discriminator 4)
20014cf0:	853e                	mv	a0,a5
20014cf2:	72c010ef          	jal	ra,2001641e <metal_clock_get_rate_hz>
20014cf6:	fca42423          	sw	a0,-56(s0)
C:/Users/nandg/Desktop/FE310-G003/sifive_hifive1_revb_sifive_welcome/freedom-metal/src/drivers/sifive_fe310-g000_pll.c:225 (discriminator 4)
    if (__METAL_GET_FIELD(cfg, PLL_BYPASS))
20014cfa:	fd042703          	lw	a4,-48(s0)
20014cfe:	000407b7          	lui	a5,0x40
20014d02:	8f7d                	and	a4,a4,a5
20014d04:	000407b7          	lui	a5,0x40
20014d08:	00f76563          	bltu	a4,a5,20014d12 <__metal_driver_sifive_fe310_g000_pll_get_rate_hz+0xce>
C:/Users/nandg/Desktop/FE310-G003/sifive_hifive1_revb_sifive_welcome/freedom-metal/src/drivers/sifive_fe310-g000_pll.c:226
        return ref_hz;
20014d0c:	fc842783          	lw	a5,-56(s0)
20014d10:	a869                	j	20014daa <__metal_driver_sifive_fe310_g000_pll_get_rate_hz+0x166>
C:/Users/nandg/Desktop/FE310-G003/sifive_hifive1_revb_sifive_welcome/freedom-metal/src/drivers/sifive_fe310-g000_pll.c:229
    long div_r = __METAL_GET_FIELD(cfg, PLL_R) + 1;
20014d12:	fd042783          	lw	a5,-48(s0)
20014d16:	8b9d                	andi	a5,a5,7
20014d18:	0785                	addi	a5,a5,1
20014d1a:	fcf42223          	sw	a5,-60(s0)
C:/Users/nandg/Desktop/FE310-G003/sifive_hifive1_revb_sifive_welcome/freedom-metal/src/drivers/sifive_fe310-g000_pll.c:230
    long mul_f = 2 * (__METAL_GET_FIELD(cfg, PLL_F) + 1);
20014d1e:	fd042783          	lw	a5,-48(s0)
20014d22:	3f07f793          	andi	a5,a5,1008
20014d26:	8391                	srli	a5,a5,0x4
20014d28:	0785                	addi	a5,a5,1
20014d2a:	0786                	slli	a5,a5,0x1
20014d2c:	fcf42023          	sw	a5,-64(s0)
C:/Users/nandg/Desktop/FE310-G003/sifive_hifive1_revb_sifive_welcome/freedom-metal/src/drivers/sifive_fe310-g000_pll.c:231
    if (__METAL_GET_FIELD(cfg, PLL_Q) == 0)
20014d30:	fd042703          	lw	a4,-48(s0)
20014d34:	6785                	lui	a5,0x1
20014d36:	c0078793          	addi	a5,a5,-1024 # c00 <__heap_size+0x400>
20014d3a:	8f7d                	and	a4,a4,a5
20014d3c:	3ff00793          	li	a5,1023
20014d40:	00e7e463          	bltu	a5,a4,20014d48 <__metal_driver_sifive_fe310_g000_pll_get_rate_hz+0x104>
C:/Users/nandg/Desktop/FE310-G003/sifive_hifive1_revb_sifive_welcome/freedom-metal/src/drivers/sifive_fe310-g000_pll.c:232
        return -1;
20014d44:	57fd                	li	a5,-1
20014d46:	a095                	j	20014daa <__metal_driver_sifive_fe310_g000_pll_get_rate_hz+0x166>
C:/Users/nandg/Desktop/FE310-G003/sifive_hifive1_revb_sifive_welcome/freedom-metal/src/drivers/sifive_fe310-g000_pll.c:233
    long div_q = 1 << __METAL_GET_FIELD(cfg, PLL_Q);
20014d48:	fd042703          	lw	a4,-48(s0)
20014d4c:	6785                	lui	a5,0x1
20014d4e:	c0078793          	addi	a5,a5,-1024 # c00 <__heap_size+0x400>
20014d52:	8ff9                	and	a5,a5,a4
20014d54:	83a9                	srli	a5,a5,0xa
20014d56:	4705                	li	a4,1
20014d58:	00f717b3          	sll	a5,a4,a5
20014d5c:	faf42e23          	sw	a5,-68(s0)
C:/Users/nandg/Desktop/FE310-G003/sifive_hifive1_revb_sifive_welcome/freedom-metal/src/drivers/sifive_fe310-g000_pll.c:238
    long pllout = (((ref_hz / div_r) * mul_f) / div_q);
20014d60:	fc842703          	lw	a4,-56(s0)
20014d64:	fc442783          	lw	a5,-60(s0)
20014d68:	02f74733          	div	a4,a4,a5
20014d6c:	fc042783          	lw	a5,-64(s0)
20014d70:	02f70733          	mul	a4,a4,a5
20014d74:	fbc42783          	lw	a5,-68(s0)
20014d78:	02f747b3          	div	a5,a4,a5
20014d7c:	faf42c23          	sw	a5,-72(s0)
C:/Users/nandg/Desktop/FE310-G003/sifive_hifive1_revb_sifive_welcome/freedom-metal/src/drivers/sifive_fe310-g000_pll.c:239
    if (__METAL_GET_FIELD(div, DIV_1))
20014d80:	fcc42783          	lw	a5,-52(s0)
20014d84:	1007f713          	andi	a4,a5,256
20014d88:	0ff00793          	li	a5,255
20014d8c:	00e7f563          	bgeu	a5,a4,20014d96 <__metal_driver_sifive_fe310_g000_pll_get_rate_hz+0x152>
C:/Users/nandg/Desktop/FE310-G003/sifive_hifive1_revb_sifive_welcome/freedom-metal/src/drivers/sifive_fe310-g000_pll.c:240
        return pllout;
20014d90:	fb842783          	lw	a5,-72(s0)
20014d94:	a819                	j	20014daa <__metal_driver_sifive_fe310_g000_pll_get_rate_hz+0x166>
C:/Users/nandg/Desktop/FE310-G003/sifive_hifive1_revb_sifive_welcome/freedom-metal/src/drivers/sifive_fe310-g000_pll.c:242
    return pllout / (2 * (__METAL_GET_FIELD(div, DIV_DIV) + 1));
20014d96:	fb842703          	lw	a4,-72(s0)
20014d9a:	fcc42783          	lw	a5,-52(s0)
20014d9e:	03f7f793          	andi	a5,a5,63
20014da2:	0785                	addi	a5,a5,1
20014da4:	0786                	slli	a5,a5,0x1
20014da6:	02f757b3          	divu	a5,a4,a5
C:/Users/nandg/Desktop/FE310-G003/sifive_hifive1_revb_sifive_welcome/freedom-metal/src/drivers/sifive_fe310-g000_pll.c:243
}
20014daa:	853e                	mv	a0,a5
20014dac:	40f6                	lw	ra,92(sp)
20014dae:	4466                	lw	s0,88(sp)
20014db0:	6125                	addi	sp,sp,96
20014db2:	8082                	ret

20014db4 <find_closest_config>:
find_closest_config():
C:/Users/nandg/Desktop/FE310-G003/sifive_hifive1_revb_sifive_welcome/freedom-metal/src/drivers/sifive_fe310-g000_pll.c:253
static int find_closest_config(long ref_hz, long rate) {
20014db4:	7139                	addi	sp,sp,-64
20014db6:	de06                	sw	ra,60(sp)
20014db8:	dc22                	sw	s0,56(sp)
20014dba:	0080                	addi	s0,sp,64
20014dbc:	fca42623          	sw	a0,-52(s0)
20014dc0:	fcb42423          	sw	a1,-56(s0)
C:/Users/nandg/Desktop/FE310-G003/sifive_hifive1_revb_sifive_welcome/freedom-metal/src/drivers/sifive_fe310-g000_pll.c:254
    int closest_index = -1;
20014dc4:	57fd                	li	a5,-1
20014dc6:	fef42623          	sw	a5,-20(s0)
C:/Users/nandg/Desktop/FE310-G003/sifive_hifive1_revb_sifive_welcome/freedom-metal/src/drivers/sifive_fe310-g000_pll.c:255
    long closest_diff = LONG_MAX;
20014dca:	800007b7          	lui	a5,0x80000
20014dce:	fff7c793          	not	a5,a5
20014dd2:	fef42423          	sw	a5,-24(s0)
C:/Users/nandg/Desktop/FE310-G003/sifive_hifive1_revb_sifive_welcome/freedom-metal/src/drivers/sifive_fe310-g000_pll.c:259
    for (int i = (sizeof(pll_configs) / sizeof(pll_configs[0])) - 1; i >= 0;
20014dd6:	04300793          	li	a5,67
20014dda:	fef42223          	sw	a5,-28(s0)
20014dde:	a0b5                	j	20014e4a <find_closest_config+0x96>
C:/Users/nandg/Desktop/FE310-G003/sifive_hifive1_revb_sifive_welcome/freedom-metal/src/drivers/sifive_fe310-g000_pll.c:261
        long config_freq = get_pll_config_freq(ref_hz, &(pll_configs[i]));
20014de0:	fcc42683          	lw	a3,-52(s0)
20014de4:	fe442783          	lw	a5,-28(s0)
20014de8:	00579713          	slli	a4,a5,0x5
20014dec:	200107b7          	lui	a5,0x20010
20014df0:	5e878793          	addi	a5,a5,1512 # 200105e8 <pll_configs>
20014df4:	97ba                	add	a5,a5,a4
20014df6:	85be                	mv	a1,a5
20014df8:	8536                	mv	a0,a3
20014dfa:	d59ff0ef          	jal	ra,20014b52 <get_pll_config_freq>
20014dfe:	fea42023          	sw	a0,-32(s0)
C:/Users/nandg/Desktop/FE310-G003/sifive_hifive1_revb_sifive_welcome/freedom-metal/src/drivers/sifive_fe310-g000_pll.c:262
        if (config_freq != PLL_CONFIG_NOT_VALID) {
20014e02:	fe042703          	lw	a4,-32(s0)
20014e06:	57fd                	li	a5,-1
20014e08:	02f70c63          	beq	a4,a5,20014e40 <find_closest_config+0x8c>
C:/Users/nandg/Desktop/FE310-G003/sifive_hifive1_revb_sifive_welcome/freedom-metal/src/drivers/sifive_fe310-g000_pll.c:263
            long freq_diff = labs(config_freq - rate);
20014e0c:	fe042703          	lw	a4,-32(s0)
20014e10:	fc842783          	lw	a5,-56(s0)
20014e14:	8f1d                	sub	a4,a4,a5
20014e16:	41f75793          	srai	a5,a4,0x1f
20014e1a:	8f3d                	xor	a4,a4,a5
20014e1c:	40f707b3          	sub	a5,a4,a5
20014e20:	fcf42e23          	sw	a5,-36(s0)
C:/Users/nandg/Desktop/FE310-G003/sifive_hifive1_revb_sifive_welcome/freedom-metal/src/drivers/sifive_fe310-g000_pll.c:265
            if (freq_diff < closest_diff) {
20014e24:	fdc42703          	lw	a4,-36(s0)
20014e28:	fe842783          	lw	a5,-24(s0)
20014e2c:	00f75a63          	bge	a4,a5,20014e40 <find_closest_config+0x8c>
C:/Users/nandg/Desktop/FE310-G003/sifive_hifive1_revb_sifive_welcome/freedom-metal/src/drivers/sifive_fe310-g000_pll.c:266
                closest_index = i;
20014e30:	fe442783          	lw	a5,-28(s0)
20014e34:	fef42623          	sw	a5,-20(s0)
C:/Users/nandg/Desktop/FE310-G003/sifive_hifive1_revb_sifive_welcome/freedom-metal/src/drivers/sifive_fe310-g000_pll.c:267
                closest_diff = freq_diff;
20014e38:	fdc42783          	lw	a5,-36(s0)
20014e3c:	fef42423          	sw	a5,-24(s0)
C:/Users/nandg/Desktop/FE310-G003/sifive_hifive1_revb_sifive_welcome/freedom-metal/src/drivers/sifive_fe310-g000_pll.c:260
         i--) {
20014e40:	fe442783          	lw	a5,-28(s0)
20014e44:	17fd                	addi	a5,a5,-1
20014e46:	fef42223          	sw	a5,-28(s0)
C:/Users/nandg/Desktop/FE310-G003/sifive_hifive1_revb_sifive_welcome/freedom-metal/src/drivers/sifive_fe310-g000_pll.c:259 (discriminator 1)
    for (int i = (sizeof(pll_configs) / sizeof(pll_configs[0])) - 1; i >= 0;
20014e4a:	fe442783          	lw	a5,-28(s0)
20014e4e:	f807d9e3          	bgez	a5,20014de0 <find_closest_config+0x2c>
C:/Users/nandg/Desktop/FE310-G003/sifive_hifive1_revb_sifive_welcome/freedom-metal/src/drivers/sifive_fe310-g000_pll.c:272
    return closest_index;
20014e52:	fec42783          	lw	a5,-20(s0)
C:/Users/nandg/Desktop/FE310-G003/sifive_hifive1_revb_sifive_welcome/freedom-metal/src/drivers/sifive_fe310-g000_pll.c:273
}
20014e56:	853e                	mv	a0,a5
20014e58:	50f2                	lw	ra,60(sp)
20014e5a:	5462                	lw	s0,56(sp)
20014e5c:	6121                	addi	sp,sp,64
20014e5e:	8082                	ret

20014e60 <configure_pll>:
configure_pll():
C:/Users/nandg/Desktop/FE310-G003/sifive_hifive1_revb_sifive_welcome/freedom-metal/src/drivers/sifive_fe310-g000_pll.c:290
                          const struct pll_config_t *config) {
20014e60:	7179                	addi	sp,sp,-48
20014e62:	d606                	sw	ra,44(sp)
20014e64:	d422                	sw	s0,40(sp)
20014e66:	1800                	addi	s0,sp,48
20014e68:	fca42e23          	sw	a0,-36(s0)
20014e6c:	fcb42c23          	sw	a1,-40(s0)
20014e70:	fcc42a23          	sw	a2,-44(s0)
C:/Users/nandg/Desktop/FE310-G003/sifive_hifive1_revb_sifive_welcome/freedom-metal/src/drivers/sifive_fe310-g000_pll.c:291
    __METAL_ACCESS_ONCE(pllcfg) &= ~(PLL_R);
20014e74:	fdc42783          	lw	a5,-36(s0)
20014e78:	439c                	lw	a5,0(a5)
20014e7a:	ff87f713          	andi	a4,a5,-8
20014e7e:	fdc42783          	lw	a5,-36(s0)
20014e82:	c398                	sw	a4,0(a5)
C:/Users/nandg/Desktop/FE310-G003/sifive_hifive1_revb_sifive_welcome/freedom-metal/src/drivers/sifive_fe310-g000_pll.c:292
    __METAL_ACCESS_ONCE(pllcfg) |= PLL_R_SHIFT(config->r);
20014e84:	fdc42783          	lw	a5,-36(s0)
20014e88:	4398                	lw	a4,0(a5)
20014e8a:	fd442783          	lw	a5,-44(s0)
20014e8e:	4b9c                	lw	a5,16(a5)
20014e90:	8b9d                	andi	a5,a5,7
20014e92:	8f5d                	or	a4,a4,a5
20014e94:	fdc42783          	lw	a5,-36(s0)
20014e98:	c398                	sw	a4,0(a5)
C:/Users/nandg/Desktop/FE310-G003/sifive_hifive1_revb_sifive_welcome/freedom-metal/src/drivers/sifive_fe310-g000_pll.c:294
    __METAL_ACCESS_ONCE(pllcfg) &= ~(PLL_F);
20014e9a:	fdc42783          	lw	a5,-36(s0)
20014e9e:	439c                	lw	a5,0(a5)
20014ea0:	c0f7f713          	andi	a4,a5,-1009
20014ea4:	fdc42783          	lw	a5,-36(s0)
20014ea8:	c398                	sw	a4,0(a5)
C:/Users/nandg/Desktop/FE310-G003/sifive_hifive1_revb_sifive_welcome/freedom-metal/src/drivers/sifive_fe310-g000_pll.c:295
    __METAL_ACCESS_ONCE(pllcfg) |= PLL_F_SHIFT(config->f);
20014eaa:	fdc42783          	lw	a5,-36(s0)
20014eae:	4398                	lw	a4,0(a5)
20014eb0:	fd442783          	lw	a5,-44(s0)
20014eb4:	4bdc                	lw	a5,20(a5)
20014eb6:	0792                	slli	a5,a5,0x4
20014eb8:	3f07f793          	andi	a5,a5,1008
20014ebc:	8f5d                	or	a4,a4,a5
20014ebe:	fdc42783          	lw	a5,-36(s0)
20014ec2:	c398                	sw	a4,0(a5)
C:/Users/nandg/Desktop/FE310-G003/sifive_hifive1_revb_sifive_welcome/freedom-metal/src/drivers/sifive_fe310-g000_pll.c:297
    __METAL_ACCESS_ONCE(pllcfg) &= ~(PLL_Q);
20014ec4:	fdc42783          	lw	a5,-36(s0)
20014ec8:	4398                	lw	a4,0(a5)
20014eca:	77fd                	lui	a5,0xfffff
20014ecc:	3ff78793          	addi	a5,a5,1023 # fffff3ff <metal_segment_heap_target_end+0x7fffdc8f>
20014ed0:	8f7d                	and	a4,a4,a5
20014ed2:	fdc42783          	lw	a5,-36(s0)
20014ed6:	c398                	sw	a4,0(a5)
C:/Users/nandg/Desktop/FE310-G003/sifive_hifive1_revb_sifive_welcome/freedom-metal/src/drivers/sifive_fe310-g000_pll.c:298
    __METAL_ACCESS_ONCE(pllcfg) |= PLL_Q_SHIFT(config->q);
20014ed8:	fdc42783          	lw	a5,-36(s0)
20014edc:	4398                	lw	a4,0(a5)
20014ede:	fd442783          	lw	a5,-44(s0)
20014ee2:	4f9c                	lw	a5,24(a5)
20014ee4:	00a79693          	slli	a3,a5,0xa
20014ee8:	6785                	lui	a5,0x1
20014eea:	c0078793          	addi	a5,a5,-1024 # c00 <__heap_size+0x400>
20014eee:	8ff5                	and	a5,a5,a3
20014ef0:	8f5d                	or	a4,a4,a5
20014ef2:	fdc42783          	lw	a5,-36(s0)
20014ef6:	c398                	sw	a4,0(a5)
C:/Users/nandg/Desktop/FE310-G003/sifive_hifive1_revb_sifive_welcome/freedom-metal/src/drivers/sifive_fe310-g000_pll.c:300
    if (config->d < 0) {
20014ef8:	fd442783          	lw	a5,-44(s0)
20014efc:	4fdc                	lw	a5,28(a5)
20014efe:	0207db63          	bgez	a5,20014f34 <configure_pll+0xd4>
C:/Users/nandg/Desktop/FE310-G003/sifive_hifive1_revb_sifive_welcome/freedom-metal/src/drivers/sifive_fe310-g000_pll.c:302
        __METAL_ACCESS_ONCE(plloutdiv) |= DIV_1;
20014f02:	fd842783          	lw	a5,-40(s0)
20014f06:	439c                	lw	a5,0(a5)
20014f08:	1007e713          	ori	a4,a5,256
20014f0c:	fd842783          	lw	a5,-40(s0)
20014f10:	c398                	sw	a4,0(a5)
C:/Users/nandg/Desktop/FE310-G003/sifive_hifive1_revb_sifive_welcome/freedom-metal/src/drivers/sifive_fe310-g000_pll.c:304
        __METAL_ACCESS_ONCE(plloutdiv) &= ~(DIV_DIV);
20014f12:	fd842783          	lw	a5,-40(s0)
20014f16:	439c                	lw	a5,0(a5)
20014f18:	fc07f713          	andi	a4,a5,-64
20014f1c:	fd842783          	lw	a5,-40(s0)
20014f20:	c398                	sw	a4,0(a5)
C:/Users/nandg/Desktop/FE310-G003/sifive_hifive1_revb_sifive_welcome/freedom-metal/src/drivers/sifive_fe310-g000_pll.c:305
        __METAL_ACCESS_ONCE(plloutdiv) |= PLL_DIV_SHIFT(1);
20014f22:	fd842783          	lw	a5,-40(s0)
20014f26:	439c                	lw	a5,0(a5)
20014f28:	0017e713          	ori	a4,a5,1
20014f2c:	fd842783          	lw	a5,-40(s0)
20014f30:	c398                	sw	a4,0(a5)
20014f32:	a82d                	j	20014f6c <configure_pll+0x10c>
C:/Users/nandg/Desktop/FE310-G003/sifive_hifive1_revb_sifive_welcome/freedom-metal/src/drivers/sifive_fe310-g000_pll.c:307
        __METAL_ACCESS_ONCE(plloutdiv) &= ~(DIV_1);
20014f34:	fd842783          	lw	a5,-40(s0)
20014f38:	439c                	lw	a5,0(a5)
20014f3a:	eff7f713          	andi	a4,a5,-257
20014f3e:	fd842783          	lw	a5,-40(s0)
20014f42:	c398                	sw	a4,0(a5)
C:/Users/nandg/Desktop/FE310-G003/sifive_hifive1_revb_sifive_welcome/freedom-metal/src/drivers/sifive_fe310-g000_pll.c:309
        __METAL_ACCESS_ONCE(plloutdiv) &= ~(DIV_DIV);
20014f44:	fd842783          	lw	a5,-40(s0)
20014f48:	439c                	lw	a5,0(a5)
20014f4a:	fc07f713          	andi	a4,a5,-64
20014f4e:	fd842783          	lw	a5,-40(s0)
20014f52:	c398                	sw	a4,0(a5)
C:/Users/nandg/Desktop/FE310-G003/sifive_hifive1_revb_sifive_welcome/freedom-metal/src/drivers/sifive_fe310-g000_pll.c:310
        __METAL_ACCESS_ONCE(plloutdiv) |= PLL_DIV_SHIFT(config->d);
20014f54:	fd842783          	lw	a5,-40(s0)
20014f58:	4398                	lw	a4,0(a5)
20014f5a:	fd442783          	lw	a5,-44(s0)
20014f5e:	4fdc                	lw	a5,28(a5)
20014f60:	03f7f793          	andi	a5,a5,63
20014f64:	8f5d                	or	a4,a4,a5
20014f66:	fd842783          	lw	a5,-40(s0)
20014f6a:	c398                	sw	a4,0(a5)
C:/Users/nandg/Desktop/FE310-G003/sifive_hifive1_revb_sifive_welcome/freedom-metal/src/drivers/sifive_fe310-g000_pll.c:313
    __METAL_ACCESS_ONCE(pllcfg) &= ~(PLL_BYPASS);
20014f6c:	fdc42783          	lw	a5,-36(s0)
20014f70:	4398                	lw	a4,0(a5)
20014f72:	fffc07b7          	lui	a5,0xfffc0
20014f76:	17fd                	addi	a5,a5,-1
20014f78:	8f7d                	and	a4,a4,a5
20014f7a:	fdc42783          	lw	a5,-36(s0)
20014f7e:	c398                	sw	a4,0(a5)
C:/Users/nandg/Desktop/FE310-G003/sifive_hifive1_revb_sifive_welcome/freedom-metal/src/drivers/sifive_fe310-g000_pll.c:318
    __metal_driver_riscv_clint0_command_request(__METAL_DT_RISCV_CLINT0_HANDLE,
20014f80:	fe040793          	addi	a5,s0,-32
20014f84:	863e                	mv	a2,a5
20014f86:	4585                	li	a1,1
20014f88:	800017b7          	lui	a5,0x80001
20014f8c:	aac78513          	addi	a0,a5,-1364 # 80000aac <metal_segment_heap_target_end+0xfffff33c>
20014f90:	c70fd0ef          	jal	ra,20012400 <__metal_driver_riscv_clint0_command_request>
C:/Users/nandg/Desktop/FE310-G003/sifive_hifive1_revb_sifive_welcome/freedom-metal/src/drivers/sifive_fe310-g000_pll.c:320
    mtime_end = mtime + PLL_LOCK_WAIT_TICKS;
20014f94:	fe042603          	lw	a2,-32(s0)
20014f98:	fe442683          	lw	a3,-28(s0)
20014f9c:	4511                	li	a0,4
20014f9e:	4581                	li	a1,0
20014fa0:	00a60733          	add	a4,a2,a0
20014fa4:	883a                	mv	a6,a4
20014fa6:	00c83833          	sltu	a6,a6,a2
20014faa:	00b687b3          	add	a5,a3,a1
20014fae:	00f806b3          	add	a3,a6,a5
20014fb2:	87b6                	mv	a5,a3
20014fb4:	fee42423          	sw	a4,-24(s0)
20014fb8:	fef42623          	sw	a5,-20(s0)
C:/Users/nandg/Desktop/FE310-G003/sifive_hifive1_revb_sifive_welcome/freedom-metal/src/drivers/sifive_fe310-g000_pll.c:321
    while (mtime <= mtime_end) {
20014fbc:	a819                	j	20014fd2 <configure_pll+0x172>
C:/Users/nandg/Desktop/FE310-G003/sifive_hifive1_revb_sifive_welcome/freedom-metal/src/drivers/sifive_fe310-g000_pll.c:322
        __metal_driver_riscv_clint0_command_request(
20014fbe:	fe040793          	addi	a5,s0,-32
20014fc2:	863e                	mv	a2,a5
20014fc4:	4585                	li	a1,1
20014fc6:	800017b7          	lui	a5,0x80001
20014fca:	aac78513          	addi	a0,a5,-1364 # 80000aac <metal_segment_heap_target_end+0xfffff33c>
20014fce:	c32fd0ef          	jal	ra,20012400 <__metal_driver_riscv_clint0_command_request>
C:/Users/nandg/Desktop/FE310-G003/sifive_hifive1_revb_sifive_welcome/freedom-metal/src/drivers/sifive_fe310-g000_pll.c:321
    while (mtime <= mtime_end) {
20014fd2:	fe042703          	lw	a4,-32(s0)
20014fd6:	fe442783          	lw	a5,-28(s0)
20014fda:	fec42683          	lw	a3,-20(s0)
20014fde:	863e                	mv	a2,a5
20014fe0:	00c6ec63          	bltu	a3,a2,20014ff8 <configure_pll+0x198>
20014fe4:	fec42683          	lw	a3,-20(s0)
20014fe8:	863e                	mv	a2,a5
20014fea:	fcc69ae3          	bne	a3,a2,20014fbe <configure_pll+0x15e>
20014fee:	fe842683          	lw	a3,-24(s0)
20014ff2:	87ba                	mv	a5,a4
20014ff4:	fcf6f5e3          	bgeu	a3,a5,20014fbe <configure_pll+0x15e>
C:/Users/nandg/Desktop/FE310-G003/sifive_hifive1_revb_sifive_welcome/freedom-metal/src/drivers/sifive_fe310-g000_pll.c:340
    while ((__METAL_ACCESS_ONCE(pllcfg) & PLL_LOCK) == 0)
20014ff8:	0001                	nop
C:/Users/nandg/Desktop/FE310-G003/sifive_hifive1_revb_sifive_welcome/freedom-metal/src/drivers/sifive_fe310-g000_pll.c:340 (discriminator 1)
20014ffa:	fdc42783          	lw	a5,-36(s0)
20014ffe:	439c                	lw	a5,0(a5)
20015000:	fe07dde3          	bgez	a5,20014ffa <configure_pll+0x19a>
C:/Users/nandg/Desktop/FE310-G003/sifive_hifive1_revb_sifive_welcome/freedom-metal/src/drivers/sifive_fe310-g000_pll.c:342
}
20015004:	0001                	nop
20015006:	0001                	nop
20015008:	50b2                	lw	ra,44(sp)
2001500a:	5422                	lw	s0,40(sp)
2001500c:	6145                	addi	sp,sp,48
2001500e:	8082                	ret

20015010 <__metal_driver_sifive_fe310_g000_pll_set_rate_hz>:
__metal_driver_sifive_fe310_g000_pll_set_rate_hz():
C:/Users/nandg/Desktop/FE310-G003/sifive_hifive1_revb_sifive_welcome/freedom-metal/src/drivers/sifive_fe310-g000_pll.c:345
                                                      long rate) {
20015010:	715d                	addi	sp,sp,-80
20015012:	c686                	sw	ra,76(sp)
20015014:	c4a2                	sw	s0,72(sp)
20015016:	0880                	addi	s0,sp,80
20015018:	faa42e23          	sw	a0,-68(s0)
2001501c:	fab42c23          	sw	a1,-72(s0)
C:/Users/nandg/Desktop/FE310-G003/sifive_hifive1_revb_sifive_welcome/freedom-metal/src/drivers/sifive_fe310-g000_pll.c:347
        __metal_driver_sifive_fe310_g000_pll_pllref(clock);
20015020:	fbc42503          	lw	a0,-68(s0)
20015024:	a8bff0ef          	jal	ra,20014aae <__metal_driver_sifive_fe310_g000_pll_pllref>
20015028:	fea42623          	sw	a0,-20(s0)
C:/Users/nandg/Desktop/FE310-G003/sifive_hifive1_revb_sifive_welcome/freedom-metal/src/drivers/sifive_fe310-g000_pll.c:349
        __metal_driver_sifive_fe310_g000_pll_pllsel0(clock);
2001502c:	fbc42503          	lw	a0,-68(s0)
20015030:	a65ff0ef          	jal	ra,20014a94 <__metal_driver_sifive_fe310_g000_pll_pllsel0>
20015034:	fea42423          	sw	a0,-24(s0)
C:/Users/nandg/Desktop/FE310-G003/sifive_hifive1_revb_sifive_welcome/freedom-metal/src/drivers/sifive_fe310-g000_pll.c:351
        __metal_driver_sifive_fe310_g000_pll_config_offset(clock);
20015038:	fbc42503          	lw	a0,-68(s0)
2001503c:	ac9ff0ef          	jal	ra,20014b04 <__metal_driver_sifive_fe310_g000_pll_config_offset>
20015040:	fea42223          	sw	a0,-28(s0)
C:/Users/nandg/Desktop/FE310-G003/sifive_hifive1_revb_sifive_welcome/freedom-metal/src/drivers/sifive_fe310-g000_pll.c:353
        __metal_driver_sifive_fe310_g000_pll_divider_offset(clock);
20015044:	fbc42503          	lw	a0,-68(s0)
20015048:	a97ff0ef          	jal	ra,20014ade <__metal_driver_sifive_fe310_g000_pll_divider_offset>
2001504c:	fea42023          	sw	a0,-32(s0)
C:/Users/nandg/Desktop/FE310-G003/sifive_hifive1_revb_sifive_welcome/freedom-metal/src/drivers/sifive_fe310-g000_pll.c:354
    long base = __metal_driver_sifive_fe310_g000_prci_base();
20015050:	adbff0ef          	jal	ra,20014b2a <__metal_driver_sifive_fe310_g000_prci_base>
20015054:	fca42e23          	sw	a0,-36(s0)
C:/Users/nandg/Desktop/FE310-G003/sifive_hifive1_revb_sifive_welcome/freedom-metal/src/drivers/sifive_fe310-g000_pll.c:356
    __metal_io_u32 *pllcfg = (__metal_io_u32 *)(base + config_offset);
20015058:	fdc42703          	lw	a4,-36(s0)
2001505c:	fe442783          	lw	a5,-28(s0)
20015060:	97ba                	add	a5,a5,a4
20015062:	fcf42c23          	sw	a5,-40(s0)
C:/Users/nandg/Desktop/FE310-G003/sifive_hifive1_revb_sifive_welcome/freedom-metal/src/drivers/sifive_fe310-g000_pll.c:357
    __metal_io_u32 *plloutdiv = (__metal_io_u32 *)(base + divider_offset);
20015066:	fdc42703          	lw	a4,-36(s0)
2001506a:	fe042783          	lw	a5,-32(s0)
2001506e:	97ba                	add	a5,a5,a4
20015070:	fcf42a23          	sw	a5,-44(s0)
C:/Users/nandg/Desktop/FE310-G003/sifive_hifive1_revb_sifive_welcome/freedom-metal/src/drivers/sifive_fe310-g000_pll.c:360
    if (__METAL_ACCESS_ONCE(pllcfg) & PLL_SEL)
20015074:	fd842783          	lw	a5,-40(s0)
20015078:	4398                	lw	a4,0(a5)
2001507a:	67c1                	lui	a5,0x10
2001507c:	8ff9                	and	a5,a5,a4
2001507e:	cb91                	beqz	a5,20015092 <__metal_driver_sifive_fe310_g000_pll_set_rate_hz+0x82>
C:/Users/nandg/Desktop/FE310-G003/sifive_hifive1_revb_sifive_welcome/freedom-metal/src/drivers/sifive_fe310-g000_pll.c:361
        __METAL_ACCESS_ONCE(pllcfg) &= ~(PLL_SEL);
20015080:	fd842783          	lw	a5,-40(s0)
20015084:	4398                	lw	a4,0(a5)
20015086:	77c1                	lui	a5,0xffff0
20015088:	17fd                	addi	a5,a5,-1
2001508a:	8f7d                	and	a4,a4,a5
2001508c:	fd842783          	lw	a5,-40(s0)
20015090:	c398                	sw	a4,0(a5)
C:/Users/nandg/Desktop/FE310-G003/sifive_hifive1_revb_sifive_welcome/freedom-metal/src/drivers/sifive_fe310-g000_pll.c:366
        __METAL_ACCESS_ONCE(pllcfg) & PLL_REFSEL ? pllref : pllsel0);
20015092:	fd842783          	lw	a5,-40(s0)
20015096:	4398                	lw	a4,0(a5)
20015098:	000207b7          	lui	a5,0x20
2001509c:	8ff9                	and	a5,a5,a4
C:/Users/nandg/Desktop/FE310-G003/sifive_hifive1_revb_sifive_welcome/freedom-metal/src/drivers/sifive_fe310-g000_pll.c:365
    long ref_hz = metal_clock_get_rate_hz(
2001509e:	c781                	beqz	a5,200150a6 <__metal_driver_sifive_fe310_g000_pll_set_rate_hz+0x96>
C:/Users/nandg/Desktop/FE310-G003/sifive_hifive1_revb_sifive_welcome/freedom-metal/src/drivers/sifive_fe310-g000_pll.c:365 (discriminator 1)
200150a0:	fec42783          	lw	a5,-20(s0)
200150a4:	a019                	j	200150aa <__metal_driver_sifive_fe310_g000_pll_set_rate_hz+0x9a>
C:/Users/nandg/Desktop/FE310-G003/sifive_hifive1_revb_sifive_welcome/freedom-metal/src/drivers/sifive_fe310-g000_pll.c:365 (discriminator 2)
200150a6:	fe842783          	lw	a5,-24(s0)
C:/Users/nandg/Desktop/FE310-G003/sifive_hifive1_revb_sifive_welcome/freedom-metal/src/drivers/sifive_fe310-g000_pll.c:365 (discriminator 4)
200150aa:	853e                	mv	a0,a5
200150ac:	372010ef          	jal	ra,2001641e <metal_clock_get_rate_hz>
200150b0:	fca42823          	sw	a0,-48(s0)
C:/Users/nandg/Desktop/FE310-G003/sifive_hifive1_revb_sifive_welcome/freedom-metal/src/drivers/sifive_fe310-g000_pll.c:370 (discriminator 4)
    if ((ref_hz * 3 / 4) <= rate && (ref_hz * 5 / 4) >= rate) {
200150b4:	fd042703          	lw	a4,-48(s0)
200150b8:	87ba                	mv	a5,a4
200150ba:	0786                	slli	a5,a5,0x1
200150bc:	97ba                	add	a5,a5,a4
200150be:	41f7d713          	srai	a4,a5,0x1f
200150c2:	8b0d                	andi	a4,a4,3
200150c4:	97ba                	add	a5,a5,a4
200150c6:	8789                	srai	a5,a5,0x2
200150c8:	873e                	mv	a4,a5
200150ca:	fb842783          	lw	a5,-72(s0)
200150ce:	02e7cb63          	blt	a5,a4,20015104 <__metal_driver_sifive_fe310_g000_pll_set_rate_hz+0xf4>
C:/Users/nandg/Desktop/FE310-G003/sifive_hifive1_revb_sifive_welcome/freedom-metal/src/drivers/sifive_fe310-g000_pll.c:370 (discriminator 1)
200150d2:	fd042703          	lw	a4,-48(s0)
200150d6:	87ba                	mv	a5,a4
200150d8:	078a                	slli	a5,a5,0x2
200150da:	97ba                	add	a5,a5,a4
200150dc:	41f7d713          	srai	a4,a5,0x1f
200150e0:	8b0d                	andi	a4,a4,3
200150e2:	97ba                	add	a5,a5,a4
200150e4:	8789                	srai	a5,a5,0x2
200150e6:	873e                	mv	a4,a5
200150e8:	fb842783          	lw	a5,-72(s0)
200150ec:	00f74c63          	blt	a4,a5,20015104 <__metal_driver_sifive_fe310_g000_pll_set_rate_hz+0xf4>
C:/Users/nandg/Desktop/FE310-G003/sifive_hifive1_revb_sifive_welcome/freedom-metal/src/drivers/sifive_fe310-g000_pll.c:371
        __METAL_ACCESS_ONCE(pllcfg) |= PLL_BYPASS;
200150f0:	fd842783          	lw	a5,-40(s0)
200150f4:	4398                	lw	a4,0(a5)
200150f6:	000407b7          	lui	a5,0x40
200150fa:	8f5d                	or	a4,a4,a5
200150fc:	fd842783          	lw	a5,-40(s0)
20015100:	c398                	sw	a4,0(a5)
20015102:	a881                	j	20015152 <__metal_driver_sifive_fe310_g000_pll_set_rate_hz+0x142>
C:/Users/nandg/Desktop/FE310-G003/sifive_hifive1_revb_sifive_welcome/freedom-metal/src/drivers/sifive_fe310-g000_pll.c:373
        int config_index = find_closest_config(ref_hz, rate);
20015104:	fb842583          	lw	a1,-72(s0)
20015108:	fd042503          	lw	a0,-48(s0)
2001510c:	ca9ff0ef          	jal	ra,20014db4 <find_closest_config>
20015110:	fca42623          	sw	a0,-52(s0)
C:/Users/nandg/Desktop/FE310-G003/sifive_hifive1_revb_sifive_welcome/freedom-metal/src/drivers/sifive_fe310-g000_pll.c:374
        if (config_index != -1) {
20015114:	fcc42703          	lw	a4,-52(s0)
20015118:	57fd                	li	a5,-1
2001511a:	02f70363          	beq	a4,a5,20015140 <__metal_driver_sifive_fe310_g000_pll_set_rate_hz+0x130>
C:/Users/nandg/Desktop/FE310-G003/sifive_hifive1_revb_sifive_welcome/freedom-metal/src/drivers/sifive_fe310-g000_pll.c:375
            configure_pll(pllcfg, plloutdiv, &(pll_configs[config_index]));
2001511e:	fcc42783          	lw	a5,-52(s0)
20015122:	00579713          	slli	a4,a5,0x5
20015126:	200107b7          	lui	a5,0x20010
2001512a:	5e878793          	addi	a5,a5,1512 # 200105e8 <pll_configs>
2001512e:	97ba                	add	a5,a5,a4
20015130:	863e                	mv	a2,a5
20015132:	fd442583          	lw	a1,-44(s0)
20015136:	fd842503          	lw	a0,-40(s0)
2001513a:	d27ff0ef          	jal	ra,20014e60 <configure_pll>
2001513e:	a811                	j	20015152 <__metal_driver_sifive_fe310_g000_pll_set_rate_hz+0x142>
C:/Users/nandg/Desktop/FE310-G003/sifive_hifive1_revb_sifive_welcome/freedom-metal/src/drivers/sifive_fe310-g000_pll.c:378
            __METAL_ACCESS_ONCE(pllcfg) |= PLL_BYPASS;
20015140:	fd842783          	lw	a5,-40(s0)
20015144:	4398                	lw	a4,0(a5)
20015146:	000407b7          	lui	a5,0x40
2001514a:	8f5d                	or	a4,a4,a5
2001514c:	fd842783          	lw	a5,-40(s0)
20015150:	c398                	sw	a4,0(a5)
C:/Users/nandg/Desktop/FE310-G003/sifive_hifive1_revb_sifive_welcome/freedom-metal/src/drivers/sifive_fe310-g000_pll.c:383
    __METAL_ACCESS_ONCE(pllcfg) |= PLL_SEL;
20015152:	fd842783          	lw	a5,-40(s0)
20015156:	4398                	lw	a4,0(a5)
20015158:	67c1                	lui	a5,0x10
2001515a:	8f5d                	or	a4,a4,a5
2001515c:	fd842783          	lw	a5,-40(s0)
20015160:	c398                	sw	a4,0(a5)
C:/Users/nandg/Desktop/FE310-G003/sifive_hifive1_revb_sifive_welcome/freedom-metal/src/drivers/sifive_fe310-g000_pll.c:385
    return __metal_driver_sifive_fe310_g000_pll_get_rate_hz(clock);
20015162:	fbc42503          	lw	a0,-68(s0)
20015166:	adfff0ef          	jal	ra,20014c44 <__metal_driver_sifive_fe310_g000_pll_get_rate_hz>
2001516a:	87aa                	mv	a5,a0
C:/Users/nandg/Desktop/FE310-G003/sifive_hifive1_revb_sifive_welcome/freedom-metal/src/drivers/sifive_fe310-g000_pll.c:386
}
2001516c:	853e                	mv	a0,a5
2001516e:	40b6                	lw	ra,76(sp)
20015170:	4426                	lw	s0,72(sp)
20015172:	6161                	addi	sp,sp,80
20015174:	8082                	ret

20015176 <__metal_driver_sifive_fe310_g000_prci_base>:
__metal_driver_sifive_fe310_g000_prci_base():
C:\Users\nandg\Desktop\FE310-G003\sifive_hifive1_revb_sifive_welcome\bsp\build\debug/./metal/machine.h:1364
{
20015176:	1141                	addi	sp,sp,-16
20015178:	c622                	sw	s0,12(sp)
2001517a:	0800                	addi	s0,sp,16
C:\Users\nandg\Desktop\FE310-G003\sifive_hifive1_revb_sifive_welcome\bsp\build\debug/./metal/machine.h:1365
		return METAL_SIFIVE_FE310_G000_PRCI_10008000_BASE_ADDRESS;
2001517c:	100087b7          	lui	a5,0x10008
C:\Users\nandg\Desktop\FE310-G003\sifive_hifive1_revb_sifive_welcome\bsp\build\debug/./metal/machine.h:1366
}
20015180:	853e                	mv	a0,a5
20015182:	4432                	lw	s0,12(sp)
20015184:	0141                	addi	sp,sp,16
20015186:	8082                	ret

20015188 <__metal_driver_sifive_fe310_g000_prci_get_reg>:
__metal_driver_sifive_fe310_g000_prci_get_reg():
C:/Users/nandg/Desktop/FE310-G003/sifive_hifive1_revb_sifive_welcome/freedom-metal/src/drivers/sifive_fe310-g000_prci.c:12

#include <metal/drivers/sifive_fe310-g000_prci.h>
#include <metal/machine.h>

long __metal_driver_sifive_fe310_g000_prci_get_reg(
    const struct __metal_driver_sifive_fe310_g000_prci *prci, long offset) {
20015188:	7179                	addi	sp,sp,-48
2001518a:	d606                	sw	ra,44(sp)
2001518c:	d422                	sw	s0,40(sp)
2001518e:	1800                	addi	s0,sp,48
20015190:	fca42e23          	sw	a0,-36(s0)
20015194:	fcb42c23          	sw	a1,-40(s0)
C:/Users/nandg/Desktop/FE310-G003/sifive_hifive1_revb_sifive_welcome/freedom-metal/src/drivers/sifive_fe310-g000_prci.c:13
    unsigned long base = __metal_driver_sifive_fe310_g000_prci_base();
20015198:	3ff9                	jal	20015176 <__metal_driver_sifive_fe310_g000_prci_base>
2001519a:	87aa                	mv	a5,a0
2001519c:	fef42623          	sw	a5,-20(s0)
C:/Users/nandg/Desktop/FE310-G003/sifive_hifive1_revb_sifive_welcome/freedom-metal/src/drivers/sifive_fe310-g000_prci.c:14
    return __METAL_ACCESS_ONCE((__metal_io_u32 *)(base + offset));
200151a0:	fd842703          	lw	a4,-40(s0)
200151a4:	fec42783          	lw	a5,-20(s0)
200151a8:	97ba                	add	a5,a5,a4
200151aa:	439c                	lw	a5,0(a5)
C:/Users/nandg/Desktop/FE310-G003/sifive_hifive1_revb_sifive_welcome/freedom-metal/src/drivers/sifive_fe310-g000_prci.c:15
}
200151ac:	853e                	mv	a0,a5
200151ae:	50b2                	lw	ra,44(sp)
200151b0:	5422                	lw	s0,40(sp)
200151b2:	6145                	addi	sp,sp,48
200151b4:	8082                	ret

200151b6 <__metal_driver_sifive_fe310_g000_prci_set_reg>:
__metal_driver_sifive_fe310_g000_prci_set_reg():
C:/Users/nandg/Desktop/FE310-G003/sifive_hifive1_revb_sifive_welcome/freedom-metal/src/drivers/sifive_fe310-g000_prci.c:19

long __metal_driver_sifive_fe310_g000_prci_set_reg(
    const struct __metal_driver_sifive_fe310_g000_prci *prci, long offset,
    long value) {
200151b6:	7179                	addi	sp,sp,-48
200151b8:	d606                	sw	ra,44(sp)
200151ba:	d422                	sw	s0,40(sp)
200151bc:	1800                	addi	s0,sp,48
200151be:	fca42e23          	sw	a0,-36(s0)
200151c2:	fcb42c23          	sw	a1,-40(s0)
200151c6:	fcc42a23          	sw	a2,-44(s0)
C:/Users/nandg/Desktop/FE310-G003/sifive_hifive1_revb_sifive_welcome/freedom-metal/src/drivers/sifive_fe310-g000_prci.c:20
    unsigned long base = __metal_driver_sifive_fe310_g000_prci_base();
200151ca:	3775                	jal	20015176 <__metal_driver_sifive_fe310_g000_prci_base>
200151cc:	87aa                	mv	a5,a0
200151ce:	fef42623          	sw	a5,-20(s0)
C:/Users/nandg/Desktop/FE310-G003/sifive_hifive1_revb_sifive_welcome/freedom-metal/src/drivers/sifive_fe310-g000_prci.c:21
    return __METAL_ACCESS_ONCE((__metal_io_u32 *)(base + offset)) = value;
200151d2:	fd842703          	lw	a4,-40(s0)
200151d6:	fec42783          	lw	a5,-20(s0)
200151da:	97ba                	add	a5,a5,a4
200151dc:	873e                	mv	a4,a5
200151de:	fd442783          	lw	a5,-44(s0)
200151e2:	c31c                	sw	a5,0(a4)
C:/Users/nandg/Desktop/FE310-G003/sifive_hifive1_revb_sifive_welcome/freedom-metal/src/drivers/sifive_fe310-g000_prci.c:22
}
200151e4:	853e                	mv	a0,a5
200151e6:	50b2                	lw	ra,44(sp)
200151e8:	5422                	lw	s0,40(sp)
200151ea:	6145                	addi	sp,sp,48
200151ec:	8082                	ret

200151ee <__metal_driver_sifive_gpio0_base>:
__metal_driver_sifive_gpio0_base():
C:\Users\nandg\Desktop\FE310-G003\sifive_hifive1_revb_sifive_welcome\bsp\build\debug/./metal/machine.h:430
{
200151ee:	1101                	addi	sp,sp,-32
200151f0:	ce22                	sw	s0,28(sp)
200151f2:	1000                	addi	s0,sp,32
200151f4:	fea42623          	sw	a0,-20(s0)
C:\Users\nandg\Desktop\FE310-G003\sifive_hifive1_revb_sifive_welcome\bsp\build\debug/./metal/machine.h:431
	if ((uintptr_t)gpio == (uintptr_t)&__metal_dt_gpio_10012000) {
200151f8:	fec42703          	lw	a4,-20(s0)
200151fc:	81c18793          	addi	a5,gp,-2020 # 80000abc <__metal_dt_gpio_10012000>
20015200:	00f71563          	bne	a4,a5,2001520a <__metal_driver_sifive_gpio0_base+0x1c>
C:\Users\nandg\Desktop\FE310-G003\sifive_hifive1_revb_sifive_welcome\bsp\build\debug/./metal/machine.h:432
		return METAL_SIFIVE_GPIO0_10012000_BASE_ADDRESS;
20015204:	100127b7          	lui	a5,0x10012
20015208:	a011                	j	2001520c <__metal_driver_sifive_gpio0_base+0x1e>
C:\Users\nandg\Desktop\FE310-G003\sifive_hifive1_revb_sifive_welcome\bsp\build\debug/./metal/machine.h:435
		return 0;
2001520a:	4781                	li	a5,0
C:\Users\nandg\Desktop\FE310-G003\sifive_hifive1_revb_sifive_welcome\bsp\build\debug/./metal/machine.h:437
}
2001520c:	853e                	mv	a0,a5
2001520e:	4472                	lw	s0,28(sp)
20015210:	6105                	addi	sp,sp,32
20015212:	8082                	ret

20015214 <__metal_driver_sifive_gpio0_interrupt_parent>:
__metal_driver_sifive_gpio0_interrupt_parent():
C:\Users\nandg\Desktop\FE310-G003\sifive_hifive1_revb_sifive_welcome\bsp\build\debug/./metal/machine.h:460
{
20015214:	1101                	addi	sp,sp,-32
20015216:	ce22                	sw	s0,28(sp)
20015218:	1000                	addi	s0,sp,32
2001521a:	fea42623          	sw	a0,-20(s0)
C:\Users\nandg\Desktop\FE310-G003\sifive_hifive1_revb_sifive_welcome\bsp\build\debug/./metal/machine.h:461
	if ((uintptr_t)gpio == (uintptr_t)&__metal_dt_gpio_10012000) {
2001521e:	fec42703          	lw	a4,-20(s0)
20015222:	81c18793          	addi	a5,gp,-2020 # 80000abc <__metal_dt_gpio_10012000>
20015226:	00f71763          	bne	a4,a5,20015234 <__metal_driver_sifive_gpio0_interrupt_parent+0x20>
C:\Users\nandg\Desktop\FE310-G003\sifive_hifive1_revb_sifive_welcome\bsp\build\debug/./metal/machine.h:462
		return (struct metal_interrupt *)&__metal_dt_interrupt_controller_c000000.controller;
2001522a:	800007b7          	lui	a5,0x80000
2001522e:	46078793          	addi	a5,a5,1120 # 80000460 <metal_segment_heap_target_end+0xffffecf0>
20015232:	a011                	j	20015236 <__metal_driver_sifive_gpio0_interrupt_parent+0x22>
C:\Users\nandg\Desktop\FE310-G003\sifive_hifive1_revb_sifive_welcome\bsp\build\debug/./metal/machine.h:465
		return 0;
20015234:	4781                	li	a5,0
C:\Users\nandg\Desktop\FE310-G003\sifive_hifive1_revb_sifive_welcome\bsp\build\debug/./metal/machine.h:467
}
20015236:	853e                	mv	a0,a5
20015238:	4472                	lw	s0,28(sp)
2001523a:	6105                	addi	sp,sp,32
2001523c:	8082                	ret

2001523e <__metal_driver_sifive_gpio0_interrupt_lines>:
__metal_driver_sifive_gpio0_interrupt_lines():
C:\Users\nandg\Desktop\FE310-G003\sifive_hifive1_revb_sifive_welcome\bsp\build\debug/./metal/machine.h:470
{
2001523e:	1101                	addi	sp,sp,-32
20015240:	ce22                	sw	s0,28(sp)
20015242:	1000                	addi	s0,sp,32
20015244:	fea42623          	sw	a0,-20(s0)
20015248:	feb42423          	sw	a1,-24(s0)
C:\Users\nandg\Desktop\FE310-G003\sifive_hifive1_revb_sifive_welcome\bsp\build\debug/./metal/machine.h:471
	if (((uintptr_t)gpio == (uintptr_t)&__metal_dt_gpio_10012000) && (idx == 0)) {
2001524c:	fec42703          	lw	a4,-20(s0)
20015250:	81c18793          	addi	a5,gp,-2020 # 80000abc <__metal_dt_gpio_10012000>
20015254:	00f71763          	bne	a4,a5,20015262 <__metal_driver_sifive_gpio0_interrupt_lines+0x24>
C:\Users\nandg\Desktop\FE310-G003\sifive_hifive1_revb_sifive_welcome\bsp\build\debug/./metal/machine.h:471 (discriminator 1)
20015258:	fe842783          	lw	a5,-24(s0)
2001525c:	e399                	bnez	a5,20015262 <__metal_driver_sifive_gpio0_interrupt_lines+0x24>
C:\Users\nandg\Desktop\FE310-G003\sifive_hifive1_revb_sifive_welcome\bsp\build\debug/./metal/machine.h:472
		return 8;
2001525e:	47a1                	li	a5,8
20015260:	ae15                	j	20015594 <__metal_driver_sifive_gpio0_interrupt_lines+0x356>
C:\Users\nandg\Desktop\FE310-G003\sifive_hifive1_revb_sifive_welcome\bsp\build\debug/./metal/machine.h:474
	else if ((((uintptr_t)gpio == (uintptr_t)&__metal_dt_gpio_10012000) && (idx == 1))) {
20015262:	fec42703          	lw	a4,-20(s0)
20015266:	81c18793          	addi	a5,gp,-2020 # 80000abc <__metal_dt_gpio_10012000>
2001526a:	00f71963          	bne	a4,a5,2001527c <__metal_driver_sifive_gpio0_interrupt_lines+0x3e>
C:\Users\nandg\Desktop\FE310-G003\sifive_hifive1_revb_sifive_welcome\bsp\build\debug/./metal/machine.h:474 (discriminator 1)
2001526e:	fe842703          	lw	a4,-24(s0)
20015272:	4785                	li	a5,1
20015274:	00f71463          	bne	a4,a5,2001527c <__metal_driver_sifive_gpio0_interrupt_lines+0x3e>
C:\Users\nandg\Desktop\FE310-G003\sifive_hifive1_revb_sifive_welcome\bsp\build\debug/./metal/machine.h:475
		return 9;
20015278:	47a5                	li	a5,9
2001527a:	ae29                	j	20015594 <__metal_driver_sifive_gpio0_interrupt_lines+0x356>
C:\Users\nandg\Desktop\FE310-G003\sifive_hifive1_revb_sifive_welcome\bsp\build\debug/./metal/machine.h:477
	else if ((((uintptr_t)gpio == (uintptr_t)&__metal_dt_gpio_10012000) && (idx == 2))) {
2001527c:	fec42703          	lw	a4,-20(s0)
20015280:	81c18793          	addi	a5,gp,-2020 # 80000abc <__metal_dt_gpio_10012000>
20015284:	00f71963          	bne	a4,a5,20015296 <__metal_driver_sifive_gpio0_interrupt_lines+0x58>
C:\Users\nandg\Desktop\FE310-G003\sifive_hifive1_revb_sifive_welcome\bsp\build\debug/./metal/machine.h:477 (discriminator 1)
20015288:	fe842703          	lw	a4,-24(s0)
2001528c:	4789                	li	a5,2
2001528e:	00f71463          	bne	a4,a5,20015296 <__metal_driver_sifive_gpio0_interrupt_lines+0x58>
C:\Users\nandg\Desktop\FE310-G003\sifive_hifive1_revb_sifive_welcome\bsp\build\debug/./metal/machine.h:478
		return 10;
20015292:	47a9                	li	a5,10
20015294:	a601                	j	20015594 <__metal_driver_sifive_gpio0_interrupt_lines+0x356>
C:\Users\nandg\Desktop\FE310-G003\sifive_hifive1_revb_sifive_welcome\bsp\build\debug/./metal/machine.h:480
	else if ((((uintptr_t)gpio == (uintptr_t)&__metal_dt_gpio_10012000) && (idx == 3))) {
20015296:	fec42703          	lw	a4,-20(s0)
2001529a:	81c18793          	addi	a5,gp,-2020 # 80000abc <__metal_dt_gpio_10012000>
2001529e:	00f71963          	bne	a4,a5,200152b0 <__metal_driver_sifive_gpio0_interrupt_lines+0x72>
C:\Users\nandg\Desktop\FE310-G003\sifive_hifive1_revb_sifive_welcome\bsp\build\debug/./metal/machine.h:480 (discriminator 1)
200152a2:	fe842703          	lw	a4,-24(s0)
200152a6:	478d                	li	a5,3
200152a8:	00f71463          	bne	a4,a5,200152b0 <__metal_driver_sifive_gpio0_interrupt_lines+0x72>
C:\Users\nandg\Desktop\FE310-G003\sifive_hifive1_revb_sifive_welcome\bsp\build\debug/./metal/machine.h:481
		return 11;
200152ac:	47ad                	li	a5,11
200152ae:	a4dd                	j	20015594 <__metal_driver_sifive_gpio0_interrupt_lines+0x356>
C:\Users\nandg\Desktop\FE310-G003\sifive_hifive1_revb_sifive_welcome\bsp\build\debug/./metal/machine.h:483
	else if ((((uintptr_t)gpio == (uintptr_t)&__metal_dt_gpio_10012000) && (idx == 4))) {
200152b0:	fec42703          	lw	a4,-20(s0)
200152b4:	81c18793          	addi	a5,gp,-2020 # 80000abc <__metal_dt_gpio_10012000>
200152b8:	00f71963          	bne	a4,a5,200152ca <__metal_driver_sifive_gpio0_interrupt_lines+0x8c>
C:\Users\nandg\Desktop\FE310-G003\sifive_hifive1_revb_sifive_welcome\bsp\build\debug/./metal/machine.h:483 (discriminator 1)
200152bc:	fe842703          	lw	a4,-24(s0)
200152c0:	4791                	li	a5,4
200152c2:	00f71463          	bne	a4,a5,200152ca <__metal_driver_sifive_gpio0_interrupt_lines+0x8c>
C:\Users\nandg\Desktop\FE310-G003\sifive_hifive1_revb_sifive_welcome\bsp\build\debug/./metal/machine.h:484
		return 12;
200152c6:	47b1                	li	a5,12
200152c8:	a4f1                	j	20015594 <__metal_driver_sifive_gpio0_interrupt_lines+0x356>
C:\Users\nandg\Desktop\FE310-G003\sifive_hifive1_revb_sifive_welcome\bsp\build\debug/./metal/machine.h:486
	else if ((((uintptr_t)gpio == (uintptr_t)&__metal_dt_gpio_10012000) && (idx == 5))) {
200152ca:	fec42703          	lw	a4,-20(s0)
200152ce:	81c18793          	addi	a5,gp,-2020 # 80000abc <__metal_dt_gpio_10012000>
200152d2:	00f71963          	bne	a4,a5,200152e4 <__metal_driver_sifive_gpio0_interrupt_lines+0xa6>
C:\Users\nandg\Desktop\FE310-G003\sifive_hifive1_revb_sifive_welcome\bsp\build\debug/./metal/machine.h:486 (discriminator 1)
200152d6:	fe842703          	lw	a4,-24(s0)
200152da:	4795                	li	a5,5
200152dc:	00f71463          	bne	a4,a5,200152e4 <__metal_driver_sifive_gpio0_interrupt_lines+0xa6>
C:\Users\nandg\Desktop\FE310-G003\sifive_hifive1_revb_sifive_welcome\bsp\build\debug/./metal/machine.h:487
		return 13;
200152e0:	47b5                	li	a5,13
200152e2:	ac4d                	j	20015594 <__metal_driver_sifive_gpio0_interrupt_lines+0x356>
C:\Users\nandg\Desktop\FE310-G003\sifive_hifive1_revb_sifive_welcome\bsp\build\debug/./metal/machine.h:489
	else if ((((uintptr_t)gpio == (uintptr_t)&__metal_dt_gpio_10012000) && (idx == 6))) {
200152e4:	fec42703          	lw	a4,-20(s0)
200152e8:	81c18793          	addi	a5,gp,-2020 # 80000abc <__metal_dt_gpio_10012000>
200152ec:	00f71963          	bne	a4,a5,200152fe <__metal_driver_sifive_gpio0_interrupt_lines+0xc0>
C:\Users\nandg\Desktop\FE310-G003\sifive_hifive1_revb_sifive_welcome\bsp\build\debug/./metal/machine.h:489 (discriminator 1)
200152f0:	fe842703          	lw	a4,-24(s0)
200152f4:	4799                	li	a5,6
200152f6:	00f71463          	bne	a4,a5,200152fe <__metal_driver_sifive_gpio0_interrupt_lines+0xc0>
C:\Users\nandg\Desktop\FE310-G003\sifive_hifive1_revb_sifive_welcome\bsp\build\debug/./metal/machine.h:490
		return 14;
200152fa:	47b9                	li	a5,14
200152fc:	ac61                	j	20015594 <__metal_driver_sifive_gpio0_interrupt_lines+0x356>
C:\Users\nandg\Desktop\FE310-G003\sifive_hifive1_revb_sifive_welcome\bsp\build\debug/./metal/machine.h:492
	else if ((((uintptr_t)gpio == (uintptr_t)&__metal_dt_gpio_10012000) && (idx == 7))) {
200152fe:	fec42703          	lw	a4,-20(s0)
20015302:	81c18793          	addi	a5,gp,-2020 # 80000abc <__metal_dt_gpio_10012000>
20015306:	00f71963          	bne	a4,a5,20015318 <__metal_driver_sifive_gpio0_interrupt_lines+0xda>
C:\Users\nandg\Desktop\FE310-G003\sifive_hifive1_revb_sifive_welcome\bsp\build\debug/./metal/machine.h:492 (discriminator 1)
2001530a:	fe842703          	lw	a4,-24(s0)
2001530e:	479d                	li	a5,7
20015310:	00f71463          	bne	a4,a5,20015318 <__metal_driver_sifive_gpio0_interrupt_lines+0xda>
C:\Users\nandg\Desktop\FE310-G003\sifive_hifive1_revb_sifive_welcome\bsp\build\debug/./metal/machine.h:493
		return 15;
20015314:	47bd                	li	a5,15
20015316:	acbd                	j	20015594 <__metal_driver_sifive_gpio0_interrupt_lines+0x356>
C:\Users\nandg\Desktop\FE310-G003\sifive_hifive1_revb_sifive_welcome\bsp\build\debug/./metal/machine.h:495
	else if ((((uintptr_t)gpio == (uintptr_t)&__metal_dt_gpio_10012000) && (idx == 8))) {
20015318:	fec42703          	lw	a4,-20(s0)
2001531c:	81c18793          	addi	a5,gp,-2020 # 80000abc <__metal_dt_gpio_10012000>
20015320:	00f71963          	bne	a4,a5,20015332 <__metal_driver_sifive_gpio0_interrupt_lines+0xf4>
C:\Users\nandg\Desktop\FE310-G003\sifive_hifive1_revb_sifive_welcome\bsp\build\debug/./metal/machine.h:495 (discriminator 1)
20015324:	fe842703          	lw	a4,-24(s0)
20015328:	47a1                	li	a5,8
2001532a:	00f71463          	bne	a4,a5,20015332 <__metal_driver_sifive_gpio0_interrupt_lines+0xf4>
C:\Users\nandg\Desktop\FE310-G003\sifive_hifive1_revb_sifive_welcome\bsp\build\debug/./metal/machine.h:496
		return 16;
2001532e:	47c1                	li	a5,16
20015330:	a495                	j	20015594 <__metal_driver_sifive_gpio0_interrupt_lines+0x356>
C:\Users\nandg\Desktop\FE310-G003\sifive_hifive1_revb_sifive_welcome\bsp\build\debug/./metal/machine.h:498
	else if ((((uintptr_t)gpio == (uintptr_t)&__metal_dt_gpio_10012000) && (idx == 9))) {
20015332:	fec42703          	lw	a4,-20(s0)
20015336:	81c18793          	addi	a5,gp,-2020 # 80000abc <__metal_dt_gpio_10012000>
2001533a:	00f71963          	bne	a4,a5,2001534c <__metal_driver_sifive_gpio0_interrupt_lines+0x10e>
C:\Users\nandg\Desktop\FE310-G003\sifive_hifive1_revb_sifive_welcome\bsp\build\debug/./metal/machine.h:498 (discriminator 1)
2001533e:	fe842703          	lw	a4,-24(s0)
20015342:	47a5                	li	a5,9
20015344:	00f71463          	bne	a4,a5,2001534c <__metal_driver_sifive_gpio0_interrupt_lines+0x10e>
C:\Users\nandg\Desktop\FE310-G003\sifive_hifive1_revb_sifive_welcome\bsp\build\debug/./metal/machine.h:499
		return 17;
20015348:	47c5                	li	a5,17
2001534a:	a4a9                	j	20015594 <__metal_driver_sifive_gpio0_interrupt_lines+0x356>
C:\Users\nandg\Desktop\FE310-G003\sifive_hifive1_revb_sifive_welcome\bsp\build\debug/./metal/machine.h:501
	else if ((((uintptr_t)gpio == (uintptr_t)&__metal_dt_gpio_10012000) && (idx == 10))) {
2001534c:	fec42703          	lw	a4,-20(s0)
20015350:	81c18793          	addi	a5,gp,-2020 # 80000abc <__metal_dt_gpio_10012000>
20015354:	00f71963          	bne	a4,a5,20015366 <__metal_driver_sifive_gpio0_interrupt_lines+0x128>
C:\Users\nandg\Desktop\FE310-G003\sifive_hifive1_revb_sifive_welcome\bsp\build\debug/./metal/machine.h:501 (discriminator 1)
20015358:	fe842703          	lw	a4,-24(s0)
2001535c:	47a9                	li	a5,10
2001535e:	00f71463          	bne	a4,a5,20015366 <__metal_driver_sifive_gpio0_interrupt_lines+0x128>
C:\Users\nandg\Desktop\FE310-G003\sifive_hifive1_revb_sifive_welcome\bsp\build\debug/./metal/machine.h:502
		return 18;
20015362:	47c9                	li	a5,18
20015364:	ac05                	j	20015594 <__metal_driver_sifive_gpio0_interrupt_lines+0x356>
C:\Users\nandg\Desktop\FE310-G003\sifive_hifive1_revb_sifive_welcome\bsp\build\debug/./metal/machine.h:504
	else if ((((uintptr_t)gpio == (uintptr_t)&__metal_dt_gpio_10012000) && (idx == 11))) {
20015366:	fec42703          	lw	a4,-20(s0)
2001536a:	81c18793          	addi	a5,gp,-2020 # 80000abc <__metal_dt_gpio_10012000>
2001536e:	00f71963          	bne	a4,a5,20015380 <__metal_driver_sifive_gpio0_interrupt_lines+0x142>
C:\Users\nandg\Desktop\FE310-G003\sifive_hifive1_revb_sifive_welcome\bsp\build\debug/./metal/machine.h:504 (discriminator 1)
20015372:	fe842703          	lw	a4,-24(s0)
20015376:	47ad                	li	a5,11
20015378:	00f71463          	bne	a4,a5,20015380 <__metal_driver_sifive_gpio0_interrupt_lines+0x142>
C:\Users\nandg\Desktop\FE310-G003\sifive_hifive1_revb_sifive_welcome\bsp\build\debug/./metal/machine.h:505
		return 19;
2001537c:	47cd                	li	a5,19
2001537e:	ac19                	j	20015594 <__metal_driver_sifive_gpio0_interrupt_lines+0x356>
C:\Users\nandg\Desktop\FE310-G003\sifive_hifive1_revb_sifive_welcome\bsp\build\debug/./metal/machine.h:507
	else if ((((uintptr_t)gpio == (uintptr_t)&__metal_dt_gpio_10012000) && (idx == 12))) {
20015380:	fec42703          	lw	a4,-20(s0)
20015384:	81c18793          	addi	a5,gp,-2020 # 80000abc <__metal_dt_gpio_10012000>
20015388:	00f71963          	bne	a4,a5,2001539a <__metal_driver_sifive_gpio0_interrupt_lines+0x15c>
C:\Users\nandg\Desktop\FE310-G003\sifive_hifive1_revb_sifive_welcome\bsp\build\debug/./metal/machine.h:507 (discriminator 1)
2001538c:	fe842703          	lw	a4,-24(s0)
20015390:	47b1                	li	a5,12
20015392:	00f71463          	bne	a4,a5,2001539a <__metal_driver_sifive_gpio0_interrupt_lines+0x15c>
C:\Users\nandg\Desktop\FE310-G003\sifive_hifive1_revb_sifive_welcome\bsp\build\debug/./metal/machine.h:508
		return 20;
20015396:	47d1                	li	a5,20
20015398:	aaf5                	j	20015594 <__metal_driver_sifive_gpio0_interrupt_lines+0x356>
C:\Users\nandg\Desktop\FE310-G003\sifive_hifive1_revb_sifive_welcome\bsp\build\debug/./metal/machine.h:510
	else if ((((uintptr_t)gpio == (uintptr_t)&__metal_dt_gpio_10012000) && (idx == 13))) {
2001539a:	fec42703          	lw	a4,-20(s0)
2001539e:	81c18793          	addi	a5,gp,-2020 # 80000abc <__metal_dt_gpio_10012000>
200153a2:	00f71963          	bne	a4,a5,200153b4 <__metal_driver_sifive_gpio0_interrupt_lines+0x176>
C:\Users\nandg\Desktop\FE310-G003\sifive_hifive1_revb_sifive_welcome\bsp\build\debug/./metal/machine.h:510 (discriminator 1)
200153a6:	fe842703          	lw	a4,-24(s0)
200153aa:	47b5                	li	a5,13
200153ac:	00f71463          	bne	a4,a5,200153b4 <__metal_driver_sifive_gpio0_interrupt_lines+0x176>
C:\Users\nandg\Desktop\FE310-G003\sifive_hifive1_revb_sifive_welcome\bsp\build\debug/./metal/machine.h:511
		return 21;
200153b0:	47d5                	li	a5,21
200153b2:	a2cd                	j	20015594 <__metal_driver_sifive_gpio0_interrupt_lines+0x356>
C:\Users\nandg\Desktop\FE310-G003\sifive_hifive1_revb_sifive_welcome\bsp\build\debug/./metal/machine.h:513
	else if ((((uintptr_t)gpio == (uintptr_t)&__metal_dt_gpio_10012000) && (idx == 14))) {
200153b4:	fec42703          	lw	a4,-20(s0)
200153b8:	81c18793          	addi	a5,gp,-2020 # 80000abc <__metal_dt_gpio_10012000>
200153bc:	00f71963          	bne	a4,a5,200153ce <__metal_driver_sifive_gpio0_interrupt_lines+0x190>
C:\Users\nandg\Desktop\FE310-G003\sifive_hifive1_revb_sifive_welcome\bsp\build\debug/./metal/machine.h:513 (discriminator 1)
200153c0:	fe842703          	lw	a4,-24(s0)
200153c4:	47b9                	li	a5,14
200153c6:	00f71463          	bne	a4,a5,200153ce <__metal_driver_sifive_gpio0_interrupt_lines+0x190>
C:\Users\nandg\Desktop\FE310-G003\sifive_hifive1_revb_sifive_welcome\bsp\build\debug/./metal/machine.h:514
		return 22;
200153ca:	47d9                	li	a5,22
200153cc:	a2e1                	j	20015594 <__metal_driver_sifive_gpio0_interrupt_lines+0x356>
C:\Users\nandg\Desktop\FE310-G003\sifive_hifive1_revb_sifive_welcome\bsp\build\debug/./metal/machine.h:516
	else if ((((uintptr_t)gpio == (uintptr_t)&__metal_dt_gpio_10012000) && (idx == 15))) {
200153ce:	fec42703          	lw	a4,-20(s0)
200153d2:	81c18793          	addi	a5,gp,-2020 # 80000abc <__metal_dt_gpio_10012000>
200153d6:	00f71963          	bne	a4,a5,200153e8 <__metal_driver_sifive_gpio0_interrupt_lines+0x1aa>
C:\Users\nandg\Desktop\FE310-G003\sifive_hifive1_revb_sifive_welcome\bsp\build\debug/./metal/machine.h:516 (discriminator 1)
200153da:	fe842703          	lw	a4,-24(s0)
200153de:	47bd                	li	a5,15
200153e0:	00f71463          	bne	a4,a5,200153e8 <__metal_driver_sifive_gpio0_interrupt_lines+0x1aa>
C:\Users\nandg\Desktop\FE310-G003\sifive_hifive1_revb_sifive_welcome\bsp\build\debug/./metal/machine.h:517
		return 23;
200153e4:	47dd                	li	a5,23
200153e6:	a27d                	j	20015594 <__metal_driver_sifive_gpio0_interrupt_lines+0x356>
C:\Users\nandg\Desktop\FE310-G003\sifive_hifive1_revb_sifive_welcome\bsp\build\debug/./metal/machine.h:519
	else if ((((uintptr_t)gpio == (uintptr_t)&__metal_dt_gpio_10012000) && (idx == 16))) {
200153e8:	fec42703          	lw	a4,-20(s0)
200153ec:	81c18793          	addi	a5,gp,-2020 # 80000abc <__metal_dt_gpio_10012000>
200153f0:	00f71963          	bne	a4,a5,20015402 <__metal_driver_sifive_gpio0_interrupt_lines+0x1c4>
C:\Users\nandg\Desktop\FE310-G003\sifive_hifive1_revb_sifive_welcome\bsp\build\debug/./metal/machine.h:519 (discriminator 1)
200153f4:	fe842703          	lw	a4,-24(s0)
200153f8:	47c1                	li	a5,16
200153fa:	00f71463          	bne	a4,a5,20015402 <__metal_driver_sifive_gpio0_interrupt_lines+0x1c4>
C:\Users\nandg\Desktop\FE310-G003\sifive_hifive1_revb_sifive_welcome\bsp\build\debug/./metal/machine.h:520
		return 24;
200153fe:	47e1                	li	a5,24
20015400:	aa51                	j	20015594 <__metal_driver_sifive_gpio0_interrupt_lines+0x356>
C:\Users\nandg\Desktop\FE310-G003\sifive_hifive1_revb_sifive_welcome\bsp\build\debug/./metal/machine.h:522
	else if ((((uintptr_t)gpio == (uintptr_t)&__metal_dt_gpio_10012000) && (idx == 17))) {
20015402:	fec42703          	lw	a4,-20(s0)
20015406:	81c18793          	addi	a5,gp,-2020 # 80000abc <__metal_dt_gpio_10012000>
2001540a:	00f71963          	bne	a4,a5,2001541c <__metal_driver_sifive_gpio0_interrupt_lines+0x1de>
C:\Users\nandg\Desktop\FE310-G003\sifive_hifive1_revb_sifive_welcome\bsp\build\debug/./metal/machine.h:522 (discriminator 1)
2001540e:	fe842703          	lw	a4,-24(s0)
20015412:	47c5                	li	a5,17
20015414:	00f71463          	bne	a4,a5,2001541c <__metal_driver_sifive_gpio0_interrupt_lines+0x1de>
C:\Users\nandg\Desktop\FE310-G003\sifive_hifive1_revb_sifive_welcome\bsp\build\debug/./metal/machine.h:523
		return 25;
20015418:	47e5                	li	a5,25
2001541a:	aaad                	j	20015594 <__metal_driver_sifive_gpio0_interrupt_lines+0x356>
C:\Users\nandg\Desktop\FE310-G003\sifive_hifive1_revb_sifive_welcome\bsp\build\debug/./metal/machine.h:525
	else if ((((uintptr_t)gpio == (uintptr_t)&__metal_dt_gpio_10012000) && (idx == 18))) {
2001541c:	fec42703          	lw	a4,-20(s0)
20015420:	81c18793          	addi	a5,gp,-2020 # 80000abc <__metal_dt_gpio_10012000>
20015424:	00f71963          	bne	a4,a5,20015436 <__metal_driver_sifive_gpio0_interrupt_lines+0x1f8>
C:\Users\nandg\Desktop\FE310-G003\sifive_hifive1_revb_sifive_welcome\bsp\build\debug/./metal/machine.h:525 (discriminator 1)
20015428:	fe842703          	lw	a4,-24(s0)
2001542c:	47c9                	li	a5,18
2001542e:	00f71463          	bne	a4,a5,20015436 <__metal_driver_sifive_gpio0_interrupt_lines+0x1f8>
C:\Users\nandg\Desktop\FE310-G003\sifive_hifive1_revb_sifive_welcome\bsp\build\debug/./metal/machine.h:526
		return 26;
20015432:	47e9                	li	a5,26
20015434:	a285                	j	20015594 <__metal_driver_sifive_gpio0_interrupt_lines+0x356>
C:\Users\nandg\Desktop\FE310-G003\sifive_hifive1_revb_sifive_welcome\bsp\build\debug/./metal/machine.h:528
	else if ((((uintptr_t)gpio == (uintptr_t)&__metal_dt_gpio_10012000) && (idx == 19))) {
20015436:	fec42703          	lw	a4,-20(s0)
2001543a:	81c18793          	addi	a5,gp,-2020 # 80000abc <__metal_dt_gpio_10012000>
2001543e:	00f71963          	bne	a4,a5,20015450 <__metal_driver_sifive_gpio0_interrupt_lines+0x212>
C:\Users\nandg\Desktop\FE310-G003\sifive_hifive1_revb_sifive_welcome\bsp\build\debug/./metal/machine.h:528 (discriminator 1)
20015442:	fe842703          	lw	a4,-24(s0)
20015446:	47cd                	li	a5,19
20015448:	00f71463          	bne	a4,a5,20015450 <__metal_driver_sifive_gpio0_interrupt_lines+0x212>
C:\Users\nandg\Desktop\FE310-G003\sifive_hifive1_revb_sifive_welcome\bsp\build\debug/./metal/machine.h:529
		return 27;
2001544c:	47ed                	li	a5,27
2001544e:	a299                	j	20015594 <__metal_driver_sifive_gpio0_interrupt_lines+0x356>
C:\Users\nandg\Desktop\FE310-G003\sifive_hifive1_revb_sifive_welcome\bsp\build\debug/./metal/machine.h:531
	else if ((((uintptr_t)gpio == (uintptr_t)&__metal_dt_gpio_10012000) && (idx == 20))) {
20015450:	fec42703          	lw	a4,-20(s0)
20015454:	81c18793          	addi	a5,gp,-2020 # 80000abc <__metal_dt_gpio_10012000>
20015458:	00f71963          	bne	a4,a5,2001546a <__metal_driver_sifive_gpio0_interrupt_lines+0x22c>
C:\Users\nandg\Desktop\FE310-G003\sifive_hifive1_revb_sifive_welcome\bsp\build\debug/./metal/machine.h:531 (discriminator 1)
2001545c:	fe842703          	lw	a4,-24(s0)
20015460:	47d1                	li	a5,20
20015462:	00f71463          	bne	a4,a5,2001546a <__metal_driver_sifive_gpio0_interrupt_lines+0x22c>
C:\Users\nandg\Desktop\FE310-G003\sifive_hifive1_revb_sifive_welcome\bsp\build\debug/./metal/machine.h:532
		return 28;
20015466:	47f1                	li	a5,28
20015468:	a235                	j	20015594 <__metal_driver_sifive_gpio0_interrupt_lines+0x356>
C:\Users\nandg\Desktop\FE310-G003\sifive_hifive1_revb_sifive_welcome\bsp\build\debug/./metal/machine.h:534
	else if ((((uintptr_t)gpio == (uintptr_t)&__metal_dt_gpio_10012000) && (idx == 21))) {
2001546a:	fec42703          	lw	a4,-20(s0)
2001546e:	81c18793          	addi	a5,gp,-2020 # 80000abc <__metal_dt_gpio_10012000>
20015472:	00f71963          	bne	a4,a5,20015484 <__metal_driver_sifive_gpio0_interrupt_lines+0x246>
C:\Users\nandg\Desktop\FE310-G003\sifive_hifive1_revb_sifive_welcome\bsp\build\debug/./metal/machine.h:534 (discriminator 1)
20015476:	fe842703          	lw	a4,-24(s0)
2001547a:	47d5                	li	a5,21
2001547c:	00f71463          	bne	a4,a5,20015484 <__metal_driver_sifive_gpio0_interrupt_lines+0x246>
C:\Users\nandg\Desktop\FE310-G003\sifive_hifive1_revb_sifive_welcome\bsp\build\debug/./metal/machine.h:535
		return 29;
20015480:	47f5                	li	a5,29
20015482:	aa09                	j	20015594 <__metal_driver_sifive_gpio0_interrupt_lines+0x356>
C:\Users\nandg\Desktop\FE310-G003\sifive_hifive1_revb_sifive_welcome\bsp\build\debug/./metal/machine.h:537
	else if ((((uintptr_t)gpio == (uintptr_t)&__metal_dt_gpio_10012000) && (idx == 22))) {
20015484:	fec42703          	lw	a4,-20(s0)
20015488:	81c18793          	addi	a5,gp,-2020 # 80000abc <__metal_dt_gpio_10012000>
2001548c:	00f71963          	bne	a4,a5,2001549e <__metal_driver_sifive_gpio0_interrupt_lines+0x260>
C:\Users\nandg\Desktop\FE310-G003\sifive_hifive1_revb_sifive_welcome\bsp\build\debug/./metal/machine.h:537 (discriminator 1)
20015490:	fe842703          	lw	a4,-24(s0)
20015494:	47d9                	li	a5,22
20015496:	00f71463          	bne	a4,a5,2001549e <__metal_driver_sifive_gpio0_interrupt_lines+0x260>
C:\Users\nandg\Desktop\FE310-G003\sifive_hifive1_revb_sifive_welcome\bsp\build\debug/./metal/machine.h:538
		return 30;
2001549a:	47f9                	li	a5,30
2001549c:	a8e5                	j	20015594 <__metal_driver_sifive_gpio0_interrupt_lines+0x356>
C:\Users\nandg\Desktop\FE310-G003\sifive_hifive1_revb_sifive_welcome\bsp\build\debug/./metal/machine.h:540
	else if ((((uintptr_t)gpio == (uintptr_t)&__metal_dt_gpio_10012000) && (idx == 23))) {
2001549e:	fec42703          	lw	a4,-20(s0)
200154a2:	81c18793          	addi	a5,gp,-2020 # 80000abc <__metal_dt_gpio_10012000>
200154a6:	00f71963          	bne	a4,a5,200154b8 <__metal_driver_sifive_gpio0_interrupt_lines+0x27a>
C:\Users\nandg\Desktop\FE310-G003\sifive_hifive1_revb_sifive_welcome\bsp\build\debug/./metal/machine.h:540 (discriminator 1)
200154aa:	fe842703          	lw	a4,-24(s0)
200154ae:	47dd                	li	a5,23
200154b0:	00f71463          	bne	a4,a5,200154b8 <__metal_driver_sifive_gpio0_interrupt_lines+0x27a>
C:\Users\nandg\Desktop\FE310-G003\sifive_hifive1_revb_sifive_welcome\bsp\build\debug/./metal/machine.h:541
		return 31;
200154b4:	47fd                	li	a5,31
200154b6:	a8f9                	j	20015594 <__metal_driver_sifive_gpio0_interrupt_lines+0x356>
C:\Users\nandg\Desktop\FE310-G003\sifive_hifive1_revb_sifive_welcome\bsp\build\debug/./metal/machine.h:543
	else if ((((uintptr_t)gpio == (uintptr_t)&__metal_dt_gpio_10012000) && (idx == 24))) {
200154b8:	fec42703          	lw	a4,-20(s0)
200154bc:	81c18793          	addi	a5,gp,-2020 # 80000abc <__metal_dt_gpio_10012000>
200154c0:	00f71a63          	bne	a4,a5,200154d4 <__metal_driver_sifive_gpio0_interrupt_lines+0x296>
C:\Users\nandg\Desktop\FE310-G003\sifive_hifive1_revb_sifive_welcome\bsp\build\debug/./metal/machine.h:543 (discriminator 1)
200154c4:	fe842703          	lw	a4,-24(s0)
200154c8:	47e1                	li	a5,24
200154ca:	00f71563          	bne	a4,a5,200154d4 <__metal_driver_sifive_gpio0_interrupt_lines+0x296>
C:\Users\nandg\Desktop\FE310-G003\sifive_hifive1_revb_sifive_welcome\bsp\build\debug/./metal/machine.h:544
		return 32;
200154ce:	02000793          	li	a5,32
200154d2:	a0c9                	j	20015594 <__metal_driver_sifive_gpio0_interrupt_lines+0x356>
C:\Users\nandg\Desktop\FE310-G003\sifive_hifive1_revb_sifive_welcome\bsp\build\debug/./metal/machine.h:546
	else if ((((uintptr_t)gpio == (uintptr_t)&__metal_dt_gpio_10012000) && (idx == 25))) {
200154d4:	fec42703          	lw	a4,-20(s0)
200154d8:	81c18793          	addi	a5,gp,-2020 # 80000abc <__metal_dt_gpio_10012000>
200154dc:	00f71a63          	bne	a4,a5,200154f0 <__metal_driver_sifive_gpio0_interrupt_lines+0x2b2>
C:\Users\nandg\Desktop\FE310-G003\sifive_hifive1_revb_sifive_welcome\bsp\build\debug/./metal/machine.h:546 (discriminator 1)
200154e0:	fe842703          	lw	a4,-24(s0)
200154e4:	47e5                	li	a5,25
200154e6:	00f71563          	bne	a4,a5,200154f0 <__metal_driver_sifive_gpio0_interrupt_lines+0x2b2>
C:\Users\nandg\Desktop\FE310-G003\sifive_hifive1_revb_sifive_welcome\bsp\build\debug/./metal/machine.h:547
		return 33;
200154ea:	02100793          	li	a5,33
200154ee:	a05d                	j	20015594 <__metal_driver_sifive_gpio0_interrupt_lines+0x356>
C:\Users\nandg\Desktop\FE310-G003\sifive_hifive1_revb_sifive_welcome\bsp\build\debug/./metal/machine.h:549
	else if ((((uintptr_t)gpio == (uintptr_t)&__metal_dt_gpio_10012000) && (idx == 26))) {
200154f0:	fec42703          	lw	a4,-20(s0)
200154f4:	81c18793          	addi	a5,gp,-2020 # 80000abc <__metal_dt_gpio_10012000>
200154f8:	00f71a63          	bne	a4,a5,2001550c <__metal_driver_sifive_gpio0_interrupt_lines+0x2ce>
C:\Users\nandg\Desktop\FE310-G003\sifive_hifive1_revb_sifive_welcome\bsp\build\debug/./metal/machine.h:549 (discriminator 1)
200154fc:	fe842703          	lw	a4,-24(s0)
20015500:	47e9                	li	a5,26
20015502:	00f71563          	bne	a4,a5,2001550c <__metal_driver_sifive_gpio0_interrupt_lines+0x2ce>
C:\Users\nandg\Desktop\FE310-G003\sifive_hifive1_revb_sifive_welcome\bsp\build\debug/./metal/machine.h:550
		return 34;
20015506:	02200793          	li	a5,34
2001550a:	a069                	j	20015594 <__metal_driver_sifive_gpio0_interrupt_lines+0x356>
C:\Users\nandg\Desktop\FE310-G003\sifive_hifive1_revb_sifive_welcome\bsp\build\debug/./metal/machine.h:552
	else if ((((uintptr_t)gpio == (uintptr_t)&__metal_dt_gpio_10012000) && (idx == 27))) {
2001550c:	fec42703          	lw	a4,-20(s0)
20015510:	81c18793          	addi	a5,gp,-2020 # 80000abc <__metal_dt_gpio_10012000>
20015514:	00f71a63          	bne	a4,a5,20015528 <__metal_driver_sifive_gpio0_interrupt_lines+0x2ea>
C:\Users\nandg\Desktop\FE310-G003\sifive_hifive1_revb_sifive_welcome\bsp\build\debug/./metal/machine.h:552 (discriminator 1)
20015518:	fe842703          	lw	a4,-24(s0)
2001551c:	47ed                	li	a5,27
2001551e:	00f71563          	bne	a4,a5,20015528 <__metal_driver_sifive_gpio0_interrupt_lines+0x2ea>
C:\Users\nandg\Desktop\FE310-G003\sifive_hifive1_revb_sifive_welcome\bsp\build\debug/./metal/machine.h:553
		return 35;
20015522:	02300793          	li	a5,35
20015526:	a0bd                	j	20015594 <__metal_driver_sifive_gpio0_interrupt_lines+0x356>
C:\Users\nandg\Desktop\FE310-G003\sifive_hifive1_revb_sifive_welcome\bsp\build\debug/./metal/machine.h:555
	else if ((((uintptr_t)gpio == (uintptr_t)&__metal_dt_gpio_10012000) && (idx == 28))) {
20015528:	fec42703          	lw	a4,-20(s0)
2001552c:	81c18793          	addi	a5,gp,-2020 # 80000abc <__metal_dt_gpio_10012000>
20015530:	00f71a63          	bne	a4,a5,20015544 <__metal_driver_sifive_gpio0_interrupt_lines+0x306>
C:\Users\nandg\Desktop\FE310-G003\sifive_hifive1_revb_sifive_welcome\bsp\build\debug/./metal/machine.h:555 (discriminator 1)
20015534:	fe842703          	lw	a4,-24(s0)
20015538:	47f1                	li	a5,28
2001553a:	00f71563          	bne	a4,a5,20015544 <__metal_driver_sifive_gpio0_interrupt_lines+0x306>
C:\Users\nandg\Desktop\FE310-G003\sifive_hifive1_revb_sifive_welcome\bsp\build\debug/./metal/machine.h:556
		return 36;
2001553e:	02400793          	li	a5,36
20015542:	a889                	j	20015594 <__metal_driver_sifive_gpio0_interrupt_lines+0x356>
C:\Users\nandg\Desktop\FE310-G003\sifive_hifive1_revb_sifive_welcome\bsp\build\debug/./metal/machine.h:558
	else if ((((uintptr_t)gpio == (uintptr_t)&__metal_dt_gpio_10012000) && (idx == 29))) {
20015544:	fec42703          	lw	a4,-20(s0)
20015548:	81c18793          	addi	a5,gp,-2020 # 80000abc <__metal_dt_gpio_10012000>
2001554c:	00f71963          	bne	a4,a5,2001555e <__metal_driver_sifive_gpio0_interrupt_lines+0x320>
C:\Users\nandg\Desktop\FE310-G003\sifive_hifive1_revb_sifive_welcome\bsp\build\debug/./metal/machine.h:558 (discriminator 1)
20015550:	fe842703          	lw	a4,-24(s0)
20015554:	47f5                	li	a5,29
20015556:	00f71463          	bne	a4,a5,2001555e <__metal_driver_sifive_gpio0_interrupt_lines+0x320>
C:\Users\nandg\Desktop\FE310-G003\sifive_hifive1_revb_sifive_welcome\bsp\build\debug/./metal/machine.h:559
		return 27;
2001555a:	47ed                	li	a5,27
2001555c:	a825                	j	20015594 <__metal_driver_sifive_gpio0_interrupt_lines+0x356>
C:\Users\nandg\Desktop\FE310-G003\sifive_hifive1_revb_sifive_welcome\bsp\build\debug/./metal/machine.h:561
	else if ((((uintptr_t)gpio == (uintptr_t)&__metal_dt_gpio_10012000) && (idx == 30))) {
2001555e:	fec42703          	lw	a4,-20(s0)
20015562:	81c18793          	addi	a5,gp,-2020 # 80000abc <__metal_dt_gpio_10012000>
20015566:	00f71963          	bne	a4,a5,20015578 <__metal_driver_sifive_gpio0_interrupt_lines+0x33a>
C:\Users\nandg\Desktop\FE310-G003\sifive_hifive1_revb_sifive_welcome\bsp\build\debug/./metal/machine.h:561 (discriminator 1)
2001556a:	fe842703          	lw	a4,-24(s0)
2001556e:	47f9                	li	a5,30
20015570:	00f71463          	bne	a4,a5,20015578 <__metal_driver_sifive_gpio0_interrupt_lines+0x33a>
C:\Users\nandg\Desktop\FE310-G003\sifive_hifive1_revb_sifive_welcome\bsp\build\debug/./metal/machine.h:562
		return 28;
20015574:	47f1                	li	a5,28
20015576:	a839                	j	20015594 <__metal_driver_sifive_gpio0_interrupt_lines+0x356>
C:\Users\nandg\Desktop\FE310-G003\sifive_hifive1_revb_sifive_welcome\bsp\build\debug/./metal/machine.h:564
	else if ((((uintptr_t)gpio == (uintptr_t)&__metal_dt_gpio_10012000) && (idx == 31))) {
20015578:	fec42703          	lw	a4,-20(s0)
2001557c:	81c18793          	addi	a5,gp,-2020 # 80000abc <__metal_dt_gpio_10012000>
20015580:	00f71963          	bne	a4,a5,20015592 <__metal_driver_sifive_gpio0_interrupt_lines+0x354>
C:\Users\nandg\Desktop\FE310-G003\sifive_hifive1_revb_sifive_welcome\bsp\build\debug/./metal/machine.h:564 (discriminator 1)
20015584:	fe842703          	lw	a4,-24(s0)
20015588:	47fd                	li	a5,31
2001558a:	00f71463          	bne	a4,a5,20015592 <__metal_driver_sifive_gpio0_interrupt_lines+0x354>
C:\Users\nandg\Desktop\FE310-G003\sifive_hifive1_revb_sifive_welcome\bsp\build\debug/./metal/machine.h:565
		return 29;
2001558e:	47f5                	li	a5,29
20015590:	a011                	j	20015594 <__metal_driver_sifive_gpio0_interrupt_lines+0x356>
C:\Users\nandg\Desktop\FE310-G003\sifive_hifive1_revb_sifive_welcome\bsp\build\debug/./metal/machine.h:568
		return 0;
20015592:	4781                	li	a5,0
C:\Users\nandg\Desktop\FE310-G003\sifive_hifive1_revb_sifive_welcome\bsp\build\debug/./metal/machine.h:570
}
20015594:	853e                	mv	a0,a5
20015596:	4472                	lw	s0,28(sp)
20015598:	6105                	addi	sp,sp,32
2001559a:	8082                	ret

2001559c <__metal_driver_sifive_gpio0_enable_input>:
__metal_driver_sifive_gpio0_enable_input():
C:/Users/nandg/Desktop/FE310-G003/sifive_hifive1_revb_sifive_welcome/freedom-metal/src/drivers/sifive_gpio0.c:13
#include <metal/drivers/sifive_gpio0.h>
#include <metal/io.h>
#include <metal/machine.h>

int __metal_driver_sifive_gpio0_enable_input(struct metal_gpio *ggpio,
                                             long source) {
2001559c:	7179                	addi	sp,sp,-48
2001559e:	d606                	sw	ra,44(sp)
200155a0:	d422                	sw	s0,40(sp)
200155a2:	1800                	addi	s0,sp,48
200155a4:	fca42e23          	sw	a0,-36(s0)
200155a8:	fcb42c23          	sw	a1,-40(s0)
C:/Users/nandg/Desktop/FE310-G003/sifive_hifive1_revb_sifive_welcome/freedom-metal/src/drivers/sifive_gpio0.c:14
    long base = __metal_driver_sifive_gpio0_base(ggpio);
200155ac:	fdc42503          	lw	a0,-36(s0)
200155b0:	c3fff0ef          	jal	ra,200151ee <__metal_driver_sifive_gpio0_base>
200155b4:	87aa                	mv	a5,a0
200155b6:	fef42623          	sw	a5,-20(s0)
C:/Users/nandg/Desktop/FE310-G003/sifive_hifive1_revb_sifive_welcome/freedom-metal/src/drivers/sifive_gpio0.c:17

    __METAL_ACCESS_ONCE(
        (__metal_io_u32 *)(base + METAL_SIFIVE_GPIO0_INPUT_EN)) |= source;
200155ba:	fec42783          	lw	a5,-20(s0)
200155be:	0791                	addi	a5,a5,4
200155c0:	4398                	lw	a4,0(a5)
200155c2:	fd842783          	lw	a5,-40(s0)
200155c6:	fec42683          	lw	a3,-20(s0)
200155ca:	0691                	addi	a3,a3,4
200155cc:	8fd9                	or	a5,a5,a4
200155ce:	c29c                	sw	a5,0(a3)
C:/Users/nandg/Desktop/FE310-G003/sifive_hifive1_revb_sifive_welcome/freedom-metal/src/drivers/sifive_gpio0.c:19

    return 0;
200155d0:	4781                	li	a5,0
C:/Users/nandg/Desktop/FE310-G003/sifive_hifive1_revb_sifive_welcome/freedom-metal/src/drivers/sifive_gpio0.c:20
}
200155d2:	853e                	mv	a0,a5
200155d4:	50b2                	lw	ra,44(sp)
200155d6:	5422                	lw	s0,40(sp)
200155d8:	6145                	addi	sp,sp,48
200155da:	8082                	ret

200155dc <__metal_driver_sifive_gpio0_disable_input>:
__metal_driver_sifive_gpio0_disable_input():
C:/Users/nandg/Desktop/FE310-G003/sifive_hifive1_revb_sifive_welcome/freedom-metal/src/drivers/sifive_gpio0.c:23

int __metal_driver_sifive_gpio0_disable_input(struct metal_gpio *ggpio,
                                              long source) {
200155dc:	7179                	addi	sp,sp,-48
200155de:	d606                	sw	ra,44(sp)
200155e0:	d422                	sw	s0,40(sp)
200155e2:	1800                	addi	s0,sp,48
200155e4:	fca42e23          	sw	a0,-36(s0)
200155e8:	fcb42c23          	sw	a1,-40(s0)
C:/Users/nandg/Desktop/FE310-G003/sifive_hifive1_revb_sifive_welcome/freedom-metal/src/drivers/sifive_gpio0.c:24
    long base = __metal_driver_sifive_gpio0_base(ggpio);
200155ec:	fdc42503          	lw	a0,-36(s0)
200155f0:	bffff0ef          	jal	ra,200151ee <__metal_driver_sifive_gpio0_base>
200155f4:	87aa                	mv	a5,a0
200155f6:	fef42623          	sw	a5,-20(s0)
C:/Users/nandg/Desktop/FE310-G003/sifive_hifive1_revb_sifive_welcome/freedom-metal/src/drivers/sifive_gpio0.c:27

    __METAL_ACCESS_ONCE(
        (__metal_io_u32 *)(base + METAL_SIFIVE_GPIO0_INPUT_EN)) &= ~source;
200155fa:	fec42783          	lw	a5,-20(s0)
200155fe:	0791                	addi	a5,a5,4
20015600:	439c                	lw	a5,0(a5)
20015602:	fd842703          	lw	a4,-40(s0)
20015606:	fff74713          	not	a4,a4
2001560a:	86ba                	mv	a3,a4
2001560c:	fec42703          	lw	a4,-20(s0)
20015610:	0711                	addi	a4,a4,4
20015612:	8ff5                	and	a5,a5,a3
20015614:	c31c                	sw	a5,0(a4)
C:/Users/nandg/Desktop/FE310-G003/sifive_hifive1_revb_sifive_welcome/freedom-metal/src/drivers/sifive_gpio0.c:29

    return 0;
20015616:	4781                	li	a5,0
C:/Users/nandg/Desktop/FE310-G003/sifive_hifive1_revb_sifive_welcome/freedom-metal/src/drivers/sifive_gpio0.c:30
}
20015618:	853e                	mv	a0,a5
2001561a:	50b2                	lw	ra,44(sp)
2001561c:	5422                	lw	s0,40(sp)
2001561e:	6145                	addi	sp,sp,48
20015620:	8082                	ret

20015622 <__metal_driver_sifive_gpio0_input>:
__metal_driver_sifive_gpio0_input():
C:/Users/nandg/Desktop/FE310-G003/sifive_hifive1_revb_sifive_welcome/freedom-metal/src/drivers/sifive_gpio0.c:32

long __metal_driver_sifive_gpio0_input(struct metal_gpio *ggpio) {
20015622:	7179                	addi	sp,sp,-48
20015624:	d606                	sw	ra,44(sp)
20015626:	d422                	sw	s0,40(sp)
20015628:	1800                	addi	s0,sp,48
2001562a:	fca42e23          	sw	a0,-36(s0)
C:/Users/nandg/Desktop/FE310-G003/sifive_hifive1_revb_sifive_welcome/freedom-metal/src/drivers/sifive_gpio0.c:33
    long base = __metal_driver_sifive_gpio0_base(ggpio);
2001562e:	fdc42503          	lw	a0,-36(s0)
20015632:	bbdff0ef          	jal	ra,200151ee <__metal_driver_sifive_gpio0_base>
20015636:	87aa                	mv	a5,a0
20015638:	fef42623          	sw	a5,-20(s0)
C:/Users/nandg/Desktop/FE310-G003/sifive_hifive1_revb_sifive_welcome/freedom-metal/src/drivers/sifive_gpio0.c:35

    return __METAL_ACCESS_ONCE(
2001563c:	fec42783          	lw	a5,-20(s0)
20015640:	439c                	lw	a5,0(a5)
C:/Users/nandg/Desktop/FE310-G003/sifive_hifive1_revb_sifive_welcome/freedom-metal/src/drivers/sifive_gpio0.c:37
        (__metal_io_u32 *)(base + METAL_SIFIVE_GPIO0_VALUE));
}
20015642:	853e                	mv	a0,a5
20015644:	50b2                	lw	ra,44(sp)
20015646:	5422                	lw	s0,40(sp)
20015648:	6145                	addi	sp,sp,48
2001564a:	8082                	ret

2001564c <__metal_driver_sifive_gpio0_output>:
__metal_driver_sifive_gpio0_output():
C:/Users/nandg/Desktop/FE310-G003/sifive_hifive1_revb_sifive_welcome/freedom-metal/src/drivers/sifive_gpio0.c:39

long __metal_driver_sifive_gpio0_output(struct metal_gpio *ggpio) {
2001564c:	7179                	addi	sp,sp,-48
2001564e:	d606                	sw	ra,44(sp)
20015650:	d422                	sw	s0,40(sp)
20015652:	1800                	addi	s0,sp,48
20015654:	fca42e23          	sw	a0,-36(s0)
C:/Users/nandg/Desktop/FE310-G003/sifive_hifive1_revb_sifive_welcome/freedom-metal/src/drivers/sifive_gpio0.c:40
    long base = __metal_driver_sifive_gpio0_base(ggpio);
20015658:	fdc42503          	lw	a0,-36(s0)
2001565c:	b93ff0ef          	jal	ra,200151ee <__metal_driver_sifive_gpio0_base>
20015660:	87aa                	mv	a5,a0
20015662:	fef42623          	sw	a5,-20(s0)
C:/Users/nandg/Desktop/FE310-G003/sifive_hifive1_revb_sifive_welcome/freedom-metal/src/drivers/sifive_gpio0.c:42

    return __METAL_ACCESS_ONCE(
20015666:	fec42783          	lw	a5,-20(s0)
2001566a:	07b1                	addi	a5,a5,12
2001566c:	439c                	lw	a5,0(a5)
C:/Users/nandg/Desktop/FE310-G003/sifive_hifive1_revb_sifive_welcome/freedom-metal/src/drivers/sifive_gpio0.c:44
        (__metal_io_u32 *)(base + METAL_SIFIVE_GPIO0_PORT));
}
2001566e:	853e                	mv	a0,a5
20015670:	50b2                	lw	ra,44(sp)
20015672:	5422                	lw	s0,40(sp)
20015674:	6145                	addi	sp,sp,48
20015676:	8082                	ret

20015678 <__metal_driver_sifive_gpio0_disable_output>:
__metal_driver_sifive_gpio0_disable_output():
C:/Users/nandg/Desktop/FE310-G003/sifive_hifive1_revb_sifive_welcome/freedom-metal/src/drivers/sifive_gpio0.c:47

int __metal_driver_sifive_gpio0_disable_output(struct metal_gpio *ggpio,
                                               long source) {
20015678:	7179                	addi	sp,sp,-48
2001567a:	d606                	sw	ra,44(sp)
2001567c:	d422                	sw	s0,40(sp)
2001567e:	1800                	addi	s0,sp,48
20015680:	fca42e23          	sw	a0,-36(s0)
20015684:	fcb42c23          	sw	a1,-40(s0)
C:/Users/nandg/Desktop/FE310-G003/sifive_hifive1_revb_sifive_welcome/freedom-metal/src/drivers/sifive_gpio0.c:48
    long base = __metal_driver_sifive_gpio0_base(ggpio);
20015688:	fdc42503          	lw	a0,-36(s0)
2001568c:	b63ff0ef          	jal	ra,200151ee <__metal_driver_sifive_gpio0_base>
20015690:	87aa                	mv	a5,a0
20015692:	fef42623          	sw	a5,-20(s0)
C:/Users/nandg/Desktop/FE310-G003/sifive_hifive1_revb_sifive_welcome/freedom-metal/src/drivers/sifive_gpio0.c:51

    __METAL_ACCESS_ONCE(
        (__metal_io_u32 *)(base + METAL_SIFIVE_GPIO0_OUTPUT_EN)) &= ~source;
20015696:	fec42783          	lw	a5,-20(s0)
2001569a:	07a1                	addi	a5,a5,8
2001569c:	439c                	lw	a5,0(a5)
2001569e:	fd842703          	lw	a4,-40(s0)
200156a2:	fff74713          	not	a4,a4
200156a6:	86ba                	mv	a3,a4
200156a8:	fec42703          	lw	a4,-20(s0)
200156ac:	0721                	addi	a4,a4,8
200156ae:	8ff5                	and	a5,a5,a3
200156b0:	c31c                	sw	a5,0(a4)
C:/Users/nandg/Desktop/FE310-G003/sifive_hifive1_revb_sifive_welcome/freedom-metal/src/drivers/sifive_gpio0.c:53

    return 0;
200156b2:	4781                	li	a5,0
C:/Users/nandg/Desktop/FE310-G003/sifive_hifive1_revb_sifive_welcome/freedom-metal/src/drivers/sifive_gpio0.c:54
}
200156b4:	853e                	mv	a0,a5
200156b6:	50b2                	lw	ra,44(sp)
200156b8:	5422                	lw	s0,40(sp)
200156ba:	6145                	addi	sp,sp,48
200156bc:	8082                	ret

200156be <__metal_driver_sifive_gpio0_enable_output>:
__metal_driver_sifive_gpio0_enable_output():
C:/Users/nandg/Desktop/FE310-G003/sifive_hifive1_revb_sifive_welcome/freedom-metal/src/drivers/sifive_gpio0.c:57

int __metal_driver_sifive_gpio0_enable_output(struct metal_gpio *ggpio,
                                              long source) {
200156be:	7179                	addi	sp,sp,-48
200156c0:	d606                	sw	ra,44(sp)
200156c2:	d422                	sw	s0,40(sp)
200156c4:	1800                	addi	s0,sp,48
200156c6:	fca42e23          	sw	a0,-36(s0)
200156ca:	fcb42c23          	sw	a1,-40(s0)
C:/Users/nandg/Desktop/FE310-G003/sifive_hifive1_revb_sifive_welcome/freedom-metal/src/drivers/sifive_gpio0.c:58
    long base = __metal_driver_sifive_gpio0_base(ggpio);
200156ce:	fdc42503          	lw	a0,-36(s0)
200156d2:	b1dff0ef          	jal	ra,200151ee <__metal_driver_sifive_gpio0_base>
200156d6:	87aa                	mv	a5,a0
200156d8:	fef42623          	sw	a5,-20(s0)
C:/Users/nandg/Desktop/FE310-G003/sifive_hifive1_revb_sifive_welcome/freedom-metal/src/drivers/sifive_gpio0.c:61

    __METAL_ACCESS_ONCE(
        (__metal_io_u32 *)(base + METAL_SIFIVE_GPIO0_OUTPUT_EN)) |= source;
200156dc:	fec42783          	lw	a5,-20(s0)
200156e0:	07a1                	addi	a5,a5,8
200156e2:	4398                	lw	a4,0(a5)
200156e4:	fd842783          	lw	a5,-40(s0)
200156e8:	fec42683          	lw	a3,-20(s0)
200156ec:	06a1                	addi	a3,a3,8
200156ee:	8fd9                	or	a5,a5,a4
200156f0:	c29c                	sw	a5,0(a3)
C:/Users/nandg/Desktop/FE310-G003/sifive_hifive1_revb_sifive_welcome/freedom-metal/src/drivers/sifive_gpio0.c:63

    return 0;
200156f2:	4781                	li	a5,0
C:/Users/nandg/Desktop/FE310-G003/sifive_hifive1_revb_sifive_welcome/freedom-metal/src/drivers/sifive_gpio0.c:64
}
200156f4:	853e                	mv	a0,a5
200156f6:	50b2                	lw	ra,44(sp)
200156f8:	5422                	lw	s0,40(sp)
200156fa:	6145                	addi	sp,sp,48
200156fc:	8082                	ret

200156fe <__metal_driver_sifive_gpio0_output_set>:
__metal_driver_sifive_gpio0_output_set():
C:/Users/nandg/Desktop/FE310-G003/sifive_hifive1_revb_sifive_welcome/freedom-metal/src/drivers/sifive_gpio0.c:67

int __metal_driver_sifive_gpio0_output_set(struct metal_gpio *ggpio,
                                           long value) {
200156fe:	7179                	addi	sp,sp,-48
20015700:	d606                	sw	ra,44(sp)
20015702:	d422                	sw	s0,40(sp)
20015704:	1800                	addi	s0,sp,48
20015706:	fca42e23          	sw	a0,-36(s0)
2001570a:	fcb42c23          	sw	a1,-40(s0)
C:/Users/nandg/Desktop/FE310-G003/sifive_hifive1_revb_sifive_welcome/freedom-metal/src/drivers/sifive_gpio0.c:68
    long base = __metal_driver_sifive_gpio0_base(ggpio);
2001570e:	fdc42503          	lw	a0,-36(s0)
20015712:	addff0ef          	jal	ra,200151ee <__metal_driver_sifive_gpio0_base>
20015716:	87aa                	mv	a5,a0
20015718:	fef42623          	sw	a5,-20(s0)
C:/Users/nandg/Desktop/FE310-G003/sifive_hifive1_revb_sifive_welcome/freedom-metal/src/drivers/sifive_gpio0.c:70

    __METAL_ACCESS_ONCE((__metal_io_u32 *)(base + METAL_SIFIVE_GPIO0_PORT)) |=
2001571c:	fec42783          	lw	a5,-20(s0)
20015720:	07b1                	addi	a5,a5,12
20015722:	4398                	lw	a4,0(a5)
20015724:	fd842783          	lw	a5,-40(s0)
20015728:	fec42683          	lw	a3,-20(s0)
2001572c:	06b1                	addi	a3,a3,12
2001572e:	8fd9                	or	a5,a5,a4
20015730:	c29c                	sw	a5,0(a3)
C:/Users/nandg/Desktop/FE310-G003/sifive_hifive1_revb_sifive_welcome/freedom-metal/src/drivers/sifive_gpio0.c:73
        value;

    return 0;
20015732:	4781                	li	a5,0
C:/Users/nandg/Desktop/FE310-G003/sifive_hifive1_revb_sifive_welcome/freedom-metal/src/drivers/sifive_gpio0.c:74
}
20015734:	853e                	mv	a0,a5
20015736:	50b2                	lw	ra,44(sp)
20015738:	5422                	lw	s0,40(sp)
2001573a:	6145                	addi	sp,sp,48
2001573c:	8082                	ret

2001573e <__metal_driver_sifive_gpio0_output_clear>:
__metal_driver_sifive_gpio0_output_clear():
C:/Users/nandg/Desktop/FE310-G003/sifive_hifive1_revb_sifive_welcome/freedom-metal/src/drivers/sifive_gpio0.c:77

int __metal_driver_sifive_gpio0_output_clear(struct metal_gpio *ggpio,
                                             long value) {
2001573e:	7179                	addi	sp,sp,-48
20015740:	d606                	sw	ra,44(sp)
20015742:	d422                	sw	s0,40(sp)
20015744:	1800                	addi	s0,sp,48
20015746:	fca42e23          	sw	a0,-36(s0)
2001574a:	fcb42c23          	sw	a1,-40(s0)
C:/Users/nandg/Desktop/FE310-G003/sifive_hifive1_revb_sifive_welcome/freedom-metal/src/drivers/sifive_gpio0.c:78
    long base = __metal_driver_sifive_gpio0_base(ggpio);
2001574e:	fdc42503          	lw	a0,-36(s0)
20015752:	a9dff0ef          	jal	ra,200151ee <__metal_driver_sifive_gpio0_base>
20015756:	87aa                	mv	a5,a0
20015758:	fef42623          	sw	a5,-20(s0)
C:/Users/nandg/Desktop/FE310-G003/sifive_hifive1_revb_sifive_welcome/freedom-metal/src/drivers/sifive_gpio0.c:80

    __METAL_ACCESS_ONCE((__metal_io_u32 *)(base + METAL_SIFIVE_GPIO0_PORT)) &=
2001575c:	fec42783          	lw	a5,-20(s0)
20015760:	07b1                	addi	a5,a5,12
20015762:	439c                	lw	a5,0(a5)
C:/Users/nandg/Desktop/FE310-G003/sifive_hifive1_revb_sifive_welcome/freedom-metal/src/drivers/sifive_gpio0.c:81
        ~value;
20015764:	fd842703          	lw	a4,-40(s0)
20015768:	fff74713          	not	a4,a4
2001576c:	86ba                	mv	a3,a4
C:/Users/nandg/Desktop/FE310-G003/sifive_hifive1_revb_sifive_welcome/freedom-metal/src/drivers/sifive_gpio0.c:80
    __METAL_ACCESS_ONCE((__metal_io_u32 *)(base + METAL_SIFIVE_GPIO0_PORT)) &=
2001576e:	fec42703          	lw	a4,-20(s0)
20015772:	0731                	addi	a4,a4,12
20015774:	8ff5                	and	a5,a5,a3
20015776:	c31c                	sw	a5,0(a4)
C:/Users/nandg/Desktop/FE310-G003/sifive_hifive1_revb_sifive_welcome/freedom-metal/src/drivers/sifive_gpio0.c:83

    return 0;
20015778:	4781                	li	a5,0
C:/Users/nandg/Desktop/FE310-G003/sifive_hifive1_revb_sifive_welcome/freedom-metal/src/drivers/sifive_gpio0.c:84
}
2001577a:	853e                	mv	a0,a5
2001577c:	50b2                	lw	ra,44(sp)
2001577e:	5422                	lw	s0,40(sp)
20015780:	6145                	addi	sp,sp,48
20015782:	8082                	ret

20015784 <__metal_driver_sifive_gpio0_output_toggle>:
__metal_driver_sifive_gpio0_output_toggle():
C:/Users/nandg/Desktop/FE310-G003/sifive_hifive1_revb_sifive_welcome/freedom-metal/src/drivers/sifive_gpio0.c:87

int __metal_driver_sifive_gpio0_output_toggle(struct metal_gpio *ggpio,
                                              long value) {
20015784:	7179                	addi	sp,sp,-48
20015786:	d606                	sw	ra,44(sp)
20015788:	d422                	sw	s0,40(sp)
2001578a:	1800                	addi	s0,sp,48
2001578c:	fca42e23          	sw	a0,-36(s0)
20015790:	fcb42c23          	sw	a1,-40(s0)
C:/Users/nandg/Desktop/FE310-G003/sifive_hifive1_revb_sifive_welcome/freedom-metal/src/drivers/sifive_gpio0.c:88
    long base = __metal_driver_sifive_gpio0_base(ggpio);
20015794:	fdc42503          	lw	a0,-36(s0)
20015798:	a57ff0ef          	jal	ra,200151ee <__metal_driver_sifive_gpio0_base>
2001579c:	87aa                	mv	a5,a0
2001579e:	fef42623          	sw	a5,-20(s0)
C:/Users/nandg/Desktop/FE310-G003/sifive_hifive1_revb_sifive_welcome/freedom-metal/src/drivers/sifive_gpio0.c:91

    __METAL_ACCESS_ONCE((__metal_io_u32 *)(base + METAL_SIFIVE_GPIO0_PORT)) =
        __METAL_ACCESS_ONCE(
200157a2:	fec42783          	lw	a5,-20(s0)
200157a6:	07b1                	addi	a5,a5,12
200157a8:	4398                	lw	a4,0(a5)
C:/Users/nandg/Desktop/FE310-G003/sifive_hifive1_revb_sifive_welcome/freedom-metal/src/drivers/sifive_gpio0.c:92
            (__metal_io_u32 *)(base + METAL_SIFIVE_GPIO0_PORT)) ^
200157aa:	fd842783          	lw	a5,-40(s0)
C:/Users/nandg/Desktop/FE310-G003/sifive_hifive1_revb_sifive_welcome/freedom-metal/src/drivers/sifive_gpio0.c:90
    __METAL_ACCESS_ONCE((__metal_io_u32 *)(base + METAL_SIFIVE_GPIO0_PORT)) =
200157ae:	fec42683          	lw	a3,-20(s0)
200157b2:	06b1                	addi	a3,a3,12
C:/Users/nandg/Desktop/FE310-G003/sifive_hifive1_revb_sifive_welcome/freedom-metal/src/drivers/sifive_gpio0.c:92
            (__metal_io_u32 *)(base + METAL_SIFIVE_GPIO0_PORT)) ^
200157b4:	8fb9                	xor	a5,a5,a4
C:/Users/nandg/Desktop/FE310-G003/sifive_hifive1_revb_sifive_welcome/freedom-metal/src/drivers/sifive_gpio0.c:90
    __METAL_ACCESS_ONCE((__metal_io_u32 *)(base + METAL_SIFIVE_GPIO0_PORT)) =
200157b6:	c29c                	sw	a5,0(a3)
C:/Users/nandg/Desktop/FE310-G003/sifive_hifive1_revb_sifive_welcome/freedom-metal/src/drivers/sifive_gpio0.c:95
        value;

    return 0;
200157b8:	4781                	li	a5,0
C:/Users/nandg/Desktop/FE310-G003/sifive_hifive1_revb_sifive_welcome/freedom-metal/src/drivers/sifive_gpio0.c:96
}
200157ba:	853e                	mv	a0,a5
200157bc:	50b2                	lw	ra,44(sp)
200157be:	5422                	lw	s0,40(sp)
200157c0:	6145                	addi	sp,sp,48
200157c2:	8082                	ret

200157c4 <__metal_driver_sifive_gpio0_enable_io>:
__metal_driver_sifive_gpio0_enable_io():
C:/Users/nandg/Desktop/FE310-G003/sifive_hifive1_revb_sifive_welcome/freedom-metal/src/drivers/sifive_gpio0.c:99

int __metal_driver_sifive_gpio0_enable_io(struct metal_gpio *ggpio, long source,
                                          long dest) {
200157c4:	7179                	addi	sp,sp,-48
200157c6:	d606                	sw	ra,44(sp)
200157c8:	d422                	sw	s0,40(sp)
200157ca:	1800                	addi	s0,sp,48
200157cc:	fca42e23          	sw	a0,-36(s0)
200157d0:	fcb42c23          	sw	a1,-40(s0)
200157d4:	fcc42a23          	sw	a2,-44(s0)
C:/Users/nandg/Desktop/FE310-G003/sifive_hifive1_revb_sifive_welcome/freedom-metal/src/drivers/sifive_gpio0.c:100
    long base = __metal_driver_sifive_gpio0_base(ggpio);
200157d8:	fdc42503          	lw	a0,-36(s0)
200157dc:	a13ff0ef          	jal	ra,200151ee <__metal_driver_sifive_gpio0_base>
200157e0:	87aa                	mv	a5,a0
200157e2:	fef42623          	sw	a5,-20(s0)
C:/Users/nandg/Desktop/FE310-G003/sifive_hifive1_revb_sifive_welcome/freedom-metal/src/drivers/sifive_gpio0.c:103

    __METAL_ACCESS_ONCE(
        (__metal_io_u32 *)(base + METAL_SIFIVE_GPIO0_IOF_SEL)) |= source;
200157e6:	fec42783          	lw	a5,-20(s0)
200157ea:	03c78793          	addi	a5,a5,60
200157ee:	4398                	lw	a4,0(a5)
200157f0:	fd842783          	lw	a5,-40(s0)
200157f4:	fec42683          	lw	a3,-20(s0)
200157f8:	03c68693          	addi	a3,a3,60
200157fc:	8fd9                	or	a5,a5,a4
200157fe:	c29c                	sw	a5,0(a3)
C:/Users/nandg/Desktop/FE310-G003/sifive_hifive1_revb_sifive_welcome/freedom-metal/src/drivers/sifive_gpio0.c:104
    __METAL_ACCESS_ONCE((__metal_io_u32 *)(base + METAL_SIFIVE_GPIO0_IOF_EN)) |=
20015800:	fec42783          	lw	a5,-20(s0)
20015804:	03878793          	addi	a5,a5,56
20015808:	4398                	lw	a4,0(a5)
2001580a:	fd442783          	lw	a5,-44(s0)
2001580e:	fec42683          	lw	a3,-20(s0)
20015812:	03868693          	addi	a3,a3,56
20015816:	8fd9                	or	a5,a5,a4
20015818:	c29c                	sw	a5,0(a3)
C:/Users/nandg/Desktop/FE310-G003/sifive_hifive1_revb_sifive_welcome/freedom-metal/src/drivers/sifive_gpio0.c:107
        dest;

    return 0;
2001581a:	4781                	li	a5,0
C:/Users/nandg/Desktop/FE310-G003/sifive_hifive1_revb_sifive_welcome/freedom-metal/src/drivers/sifive_gpio0.c:108
}
2001581c:	853e                	mv	a0,a5
2001581e:	50b2                	lw	ra,44(sp)
20015820:	5422                	lw	s0,40(sp)
20015822:	6145                	addi	sp,sp,48
20015824:	8082                	ret

20015826 <__metal_driver_sifive_gpio0_disable_io>:
__metal_driver_sifive_gpio0_disable_io():
C:/Users/nandg/Desktop/FE310-G003/sifive_hifive1_revb_sifive_welcome/freedom-metal/src/drivers/sifive_gpio0.c:111

int __metal_driver_sifive_gpio0_disable_io(struct metal_gpio *ggpio,
                                           long source) {
20015826:	7179                	addi	sp,sp,-48
20015828:	d606                	sw	ra,44(sp)
2001582a:	d422                	sw	s0,40(sp)
2001582c:	1800                	addi	s0,sp,48
2001582e:	fca42e23          	sw	a0,-36(s0)
20015832:	fcb42c23          	sw	a1,-40(s0)
C:/Users/nandg/Desktop/FE310-G003/sifive_hifive1_revb_sifive_welcome/freedom-metal/src/drivers/sifive_gpio0.c:112
    long base = __metal_driver_sifive_gpio0_base(ggpio);
20015836:	fdc42503          	lw	a0,-36(s0)
2001583a:	9b5ff0ef          	jal	ra,200151ee <__metal_driver_sifive_gpio0_base>
2001583e:	87aa                	mv	a5,a0
20015840:	fef42623          	sw	a5,-20(s0)
C:/Users/nandg/Desktop/FE310-G003/sifive_hifive1_revb_sifive_welcome/freedom-metal/src/drivers/sifive_gpio0.c:114

    __METAL_ACCESS_ONCE((__metal_io_u32 *)(base + METAL_SIFIVE_GPIO0_IOF_EN)) &=
20015844:	fec42783          	lw	a5,-20(s0)
20015848:	03878793          	addi	a5,a5,56
2001584c:	439c                	lw	a5,0(a5)
C:/Users/nandg/Desktop/FE310-G003/sifive_hifive1_revb_sifive_welcome/freedom-metal/src/drivers/sifive_gpio0.c:115
        ~source;
2001584e:	fd842703          	lw	a4,-40(s0)
20015852:	fff74713          	not	a4,a4
20015856:	86ba                	mv	a3,a4
C:/Users/nandg/Desktop/FE310-G003/sifive_hifive1_revb_sifive_welcome/freedom-metal/src/drivers/sifive_gpio0.c:114
    __METAL_ACCESS_ONCE((__metal_io_u32 *)(base + METAL_SIFIVE_GPIO0_IOF_EN)) &=
20015858:	fec42703          	lw	a4,-20(s0)
2001585c:	03870713          	addi	a4,a4,56
20015860:	8ff5                	and	a5,a5,a3
20015862:	c31c                	sw	a5,0(a4)
C:/Users/nandg/Desktop/FE310-G003/sifive_hifive1_revb_sifive_welcome/freedom-metal/src/drivers/sifive_gpio0.c:117

    return 0;
20015864:	4781                	li	a5,0
C:/Users/nandg/Desktop/FE310-G003/sifive_hifive1_revb_sifive_welcome/freedom-metal/src/drivers/sifive_gpio0.c:118
}
20015866:	853e                	mv	a0,a5
20015868:	50b2                	lw	ra,44(sp)
2001586a:	5422                	lw	s0,40(sp)
2001586c:	6145                	addi	sp,sp,48
2001586e:	8082                	ret

20015870 <__metal_driver_sifive_gpio0_config_int>:
__metal_driver_sifive_gpio0_config_int():
C:/Users/nandg/Desktop/FE310-G003/sifive_hifive1_revb_sifive_welcome/freedom-metal/src/drivers/sifive_gpio0.c:121

int __metal_driver_sifive_gpio0_config_int(struct metal_gpio *ggpio,
                                           long source, int intr_type) {
20015870:	7179                	addi	sp,sp,-48
20015872:	d606                	sw	ra,44(sp)
20015874:	d422                	sw	s0,40(sp)
20015876:	1800                	addi	s0,sp,48
20015878:	fca42e23          	sw	a0,-36(s0)
2001587c:	fcb42c23          	sw	a1,-40(s0)
20015880:	fcc42a23          	sw	a2,-44(s0)
C:/Users/nandg/Desktop/FE310-G003/sifive_hifive1_revb_sifive_welcome/freedom-metal/src/drivers/sifive_gpio0.c:122
    long base = __metal_driver_sifive_gpio0_base(ggpio);
20015884:	fdc42503          	lw	a0,-36(s0)
20015888:	967ff0ef          	jal	ra,200151ee <__metal_driver_sifive_gpio0_base>
2001588c:	87aa                	mv	a5,a0
2001588e:	fef42623          	sw	a5,-20(s0)
20015892:	fd442703          	lw	a4,-44(s0)
20015896:	479d                	li	a5,7
20015898:	1ce7e963          	bltu	a5,a4,20015a6a <__metal_driver_sifive_gpio0_config_int+0x1fa>
2001589c:	fd442783          	lw	a5,-44(s0)
200158a0:	00279713          	slli	a4,a5,0x2
200158a4:	200117b7          	lui	a5,0x20011
200158a8:	e7478793          	addi	a5,a5,-396 # 20010e74 <__metal_driver_vtable_sifive_fe310_g000_pll+0xc>
200158ac:	97ba                	add	a5,a5,a4
200158ae:	439c                	lw	a5,0(a5)
200158b0:	8782                	jr	a5
C:/Users/nandg/Desktop/FE310-G003/sifive_hifive1_revb_sifive_welcome/freedom-metal/src/drivers/sifive_gpio0.c:127

    switch (intr_type) {
    case METAL_GPIO_INT_DISABLE:
        __METAL_ACCESS_ONCE(
            (__metal_io_u32 *)(base + METAL_SIFIVE_GPIO0_RISE_IE)) &= ~source;
200158b2:	fec42783          	lw	a5,-20(s0)
200158b6:	07e1                	addi	a5,a5,24
200158b8:	439c                	lw	a5,0(a5)
200158ba:	fd842703          	lw	a4,-40(s0)
200158be:	fff74713          	not	a4,a4
200158c2:	86ba                	mv	a3,a4
200158c4:	fec42703          	lw	a4,-20(s0)
200158c8:	0761                	addi	a4,a4,24
200158ca:	8ff5                	and	a5,a5,a3
200158cc:	c31c                	sw	a5,0(a4)
C:/Users/nandg/Desktop/FE310-G003/sifive_hifive1_revb_sifive_welcome/freedom-metal/src/drivers/sifive_gpio0.c:129
        __METAL_ACCESS_ONCE(
            (__metal_io_u32 *)(base + METAL_SIFIVE_GPIO0_FALL_IE)) &= ~source;
200158ce:	fec42783          	lw	a5,-20(s0)
200158d2:	02078793          	addi	a5,a5,32
200158d6:	439c                	lw	a5,0(a5)
200158d8:	fd842703          	lw	a4,-40(s0)
200158dc:	fff74713          	not	a4,a4
200158e0:	86ba                	mv	a3,a4
200158e2:	fec42703          	lw	a4,-20(s0)
200158e6:	02070713          	addi	a4,a4,32
200158ea:	8ff5                	and	a5,a5,a3
200158ec:	c31c                	sw	a5,0(a4)
C:/Users/nandg/Desktop/FE310-G003/sifive_hifive1_revb_sifive_welcome/freedom-metal/src/drivers/sifive_gpio0.c:131
        __METAL_ACCESS_ONCE(
            (__metal_io_u32 *)(base + METAL_SIFIVE_GPIO0_HIGH_IE)) &= ~source;
200158ee:	fec42783          	lw	a5,-20(s0)
200158f2:	02878793          	addi	a5,a5,40
200158f6:	439c                	lw	a5,0(a5)
200158f8:	fd842703          	lw	a4,-40(s0)
200158fc:	fff74713          	not	a4,a4
20015900:	86ba                	mv	a3,a4
20015902:	fec42703          	lw	a4,-20(s0)
20015906:	02870713          	addi	a4,a4,40
2001590a:	8ff5                	and	a5,a5,a3
2001590c:	c31c                	sw	a5,0(a4)
C:/Users/nandg/Desktop/FE310-G003/sifive_hifive1_revb_sifive_welcome/freedom-metal/src/drivers/sifive_gpio0.c:133
        __METAL_ACCESS_ONCE(
            (__metal_io_u32 *)(base + METAL_SIFIVE_GPIO0_LOW_IE)) &= ~source;
2001590e:	fec42783          	lw	a5,-20(s0)
20015912:	03078793          	addi	a5,a5,48
20015916:	439c                	lw	a5,0(a5)
20015918:	fd842703          	lw	a4,-40(s0)
2001591c:	fff74713          	not	a4,a4
20015920:	86ba                	mv	a3,a4
20015922:	fec42703          	lw	a4,-20(s0)
20015926:	03070713          	addi	a4,a4,48
2001592a:	8ff5                	and	a5,a5,a3
2001592c:	c31c                	sw	a5,0(a4)
C:/Users/nandg/Desktop/FE310-G003/sifive_hifive1_revb_sifive_welcome/freedom-metal/src/drivers/sifive_gpio0.c:134
        break;
2001592e:	aa35                	j	20015a6a <__metal_driver_sifive_gpio0_config_int+0x1fa>
C:/Users/nandg/Desktop/FE310-G003/sifive_hifive1_revb_sifive_welcome/freedom-metal/src/drivers/sifive_gpio0.c:137
    case METAL_GPIO_INT_RISING:
        __METAL_ACCESS_ONCE(
            (__metal_io_u32 *)(base + METAL_SIFIVE_GPIO0_RISE_IE)) |= source;
20015930:	fec42783          	lw	a5,-20(s0)
20015934:	07e1                	addi	a5,a5,24
20015936:	4398                	lw	a4,0(a5)
20015938:	fd842783          	lw	a5,-40(s0)
2001593c:	fec42683          	lw	a3,-20(s0)
20015940:	06e1                	addi	a3,a3,24
20015942:	8fd9                	or	a5,a5,a4
20015944:	c29c                	sw	a5,0(a3)
C:/Users/nandg/Desktop/FE310-G003/sifive_hifive1_revb_sifive_welcome/freedom-metal/src/drivers/sifive_gpio0.c:138
        break;
20015946:	a215                	j	20015a6a <__metal_driver_sifive_gpio0_config_int+0x1fa>
C:/Users/nandg/Desktop/FE310-G003/sifive_hifive1_revb_sifive_welcome/freedom-metal/src/drivers/sifive_gpio0.c:141
    case METAL_GPIO_INT_FALLING:
        __METAL_ACCESS_ONCE(
            (__metal_io_u32 *)(base + METAL_SIFIVE_GPIO0_FALL_IE)) |= source;
20015948:	fec42783          	lw	a5,-20(s0)
2001594c:	02078793          	addi	a5,a5,32
20015950:	4398                	lw	a4,0(a5)
20015952:	fd842783          	lw	a5,-40(s0)
20015956:	fec42683          	lw	a3,-20(s0)
2001595a:	02068693          	addi	a3,a3,32
2001595e:	8fd9                	or	a5,a5,a4
20015960:	c29c                	sw	a5,0(a3)
C:/Users/nandg/Desktop/FE310-G003/sifive_hifive1_revb_sifive_welcome/freedom-metal/src/drivers/sifive_gpio0.c:142
        break;
20015962:	a221                	j	20015a6a <__metal_driver_sifive_gpio0_config_int+0x1fa>
C:/Users/nandg/Desktop/FE310-G003/sifive_hifive1_revb_sifive_welcome/freedom-metal/src/drivers/sifive_gpio0.c:145
    case METAL_GPIO_INT_BOTH_EDGE:
        __METAL_ACCESS_ONCE(
            (__metal_io_u32 *)(base + METAL_SIFIVE_GPIO0_RISE_IE)) |= source;
20015964:	fec42783          	lw	a5,-20(s0)
20015968:	07e1                	addi	a5,a5,24
2001596a:	4398                	lw	a4,0(a5)
2001596c:	fd842783          	lw	a5,-40(s0)
20015970:	fec42683          	lw	a3,-20(s0)
20015974:	06e1                	addi	a3,a3,24
20015976:	8fd9                	or	a5,a5,a4
20015978:	c29c                	sw	a5,0(a3)
C:/Users/nandg/Desktop/FE310-G003/sifive_hifive1_revb_sifive_welcome/freedom-metal/src/drivers/sifive_gpio0.c:147
        __METAL_ACCESS_ONCE(
            (__metal_io_u32 *)(base + METAL_SIFIVE_GPIO0_FALL_IE)) |= source;
2001597a:	fec42783          	lw	a5,-20(s0)
2001597e:	02078793          	addi	a5,a5,32
20015982:	4398                	lw	a4,0(a5)
20015984:	fd842783          	lw	a5,-40(s0)
20015988:	fec42683          	lw	a3,-20(s0)
2001598c:	02068693          	addi	a3,a3,32
20015990:	8fd9                	or	a5,a5,a4
20015992:	c29c                	sw	a5,0(a3)
C:/Users/nandg/Desktop/FE310-G003/sifive_hifive1_revb_sifive_welcome/freedom-metal/src/drivers/sifive_gpio0.c:148
        break;
20015994:	a8d9                	j	20015a6a <__metal_driver_sifive_gpio0_config_int+0x1fa>
C:/Users/nandg/Desktop/FE310-G003/sifive_hifive1_revb_sifive_welcome/freedom-metal/src/drivers/sifive_gpio0.c:151
    case METAL_GPIO_INT_HIGH:
        __METAL_ACCESS_ONCE(
            (__metal_io_u32 *)(base + METAL_SIFIVE_GPIO0_HIGH_IE)) |= source;
20015996:	fec42783          	lw	a5,-20(s0)
2001599a:	02878793          	addi	a5,a5,40
2001599e:	4398                	lw	a4,0(a5)
200159a0:	fd842783          	lw	a5,-40(s0)
200159a4:	fec42683          	lw	a3,-20(s0)
200159a8:	02868693          	addi	a3,a3,40
200159ac:	8fd9                	or	a5,a5,a4
200159ae:	c29c                	sw	a5,0(a3)
C:/Users/nandg/Desktop/FE310-G003/sifive_hifive1_revb_sifive_welcome/freedom-metal/src/drivers/sifive_gpio0.c:152
        break;
200159b0:	a86d                	j	20015a6a <__metal_driver_sifive_gpio0_config_int+0x1fa>
C:/Users/nandg/Desktop/FE310-G003/sifive_hifive1_revb_sifive_welcome/freedom-metal/src/drivers/sifive_gpio0.c:155
    case METAL_GPIO_INT_LOW:
        __METAL_ACCESS_ONCE(
            (__metal_io_u32 *)(base + METAL_SIFIVE_GPIO0_LOW_IE)) |= source;
200159b2:	fec42783          	lw	a5,-20(s0)
200159b6:	03078793          	addi	a5,a5,48
200159ba:	4398                	lw	a4,0(a5)
200159bc:	fd842783          	lw	a5,-40(s0)
200159c0:	fec42683          	lw	a3,-20(s0)
200159c4:	03068693          	addi	a3,a3,48
200159c8:	8fd9                	or	a5,a5,a4
200159ca:	c29c                	sw	a5,0(a3)
C:/Users/nandg/Desktop/FE310-G003/sifive_hifive1_revb_sifive_welcome/freedom-metal/src/drivers/sifive_gpio0.c:156
        break;
200159cc:	a879                	j	20015a6a <__metal_driver_sifive_gpio0_config_int+0x1fa>
C:/Users/nandg/Desktop/FE310-G003/sifive_hifive1_revb_sifive_welcome/freedom-metal/src/drivers/sifive_gpio0.c:159
    case METAL_GPIO_INT_BOTH_LEVEL:
        __METAL_ACCESS_ONCE(
            (__metal_io_u32 *)(base + METAL_SIFIVE_GPIO0_HIGH_IE)) |= source;
200159ce:	fec42783          	lw	a5,-20(s0)
200159d2:	02878793          	addi	a5,a5,40
200159d6:	4398                	lw	a4,0(a5)
200159d8:	fd842783          	lw	a5,-40(s0)
200159dc:	fec42683          	lw	a3,-20(s0)
200159e0:	02868693          	addi	a3,a3,40
200159e4:	8fd9                	or	a5,a5,a4
200159e6:	c29c                	sw	a5,0(a3)
C:/Users/nandg/Desktop/FE310-G003/sifive_hifive1_revb_sifive_welcome/freedom-metal/src/drivers/sifive_gpio0.c:161
        __METAL_ACCESS_ONCE(
            (__metal_io_u32 *)(base + METAL_SIFIVE_GPIO0_LOW_IE)) |= source;
200159e8:	fec42783          	lw	a5,-20(s0)
200159ec:	03078793          	addi	a5,a5,48
200159f0:	4398                	lw	a4,0(a5)
200159f2:	fd842783          	lw	a5,-40(s0)
200159f6:	fec42683          	lw	a3,-20(s0)
200159fa:	03068693          	addi	a3,a3,48
200159fe:	8fd9                	or	a5,a5,a4
20015a00:	c29c                	sw	a5,0(a3)
C:/Users/nandg/Desktop/FE310-G003/sifive_hifive1_revb_sifive_welcome/freedom-metal/src/drivers/sifive_gpio0.c:162
        break;
20015a02:	a0a5                	j	20015a6a <__metal_driver_sifive_gpio0_config_int+0x1fa>
C:/Users/nandg/Desktop/FE310-G003/sifive_hifive1_revb_sifive_welcome/freedom-metal/src/drivers/sifive_gpio0.c:165
    case METAL_GPIO_INT_MAX:
        __METAL_ACCESS_ONCE(
            (__metal_io_u32 *)(base + METAL_SIFIVE_GPIO0_RISE_IE)) |= source;
20015a04:	fec42783          	lw	a5,-20(s0)
20015a08:	07e1                	addi	a5,a5,24
20015a0a:	4398                	lw	a4,0(a5)
20015a0c:	fd842783          	lw	a5,-40(s0)
20015a10:	fec42683          	lw	a3,-20(s0)
20015a14:	06e1                	addi	a3,a3,24
20015a16:	8fd9                	or	a5,a5,a4
20015a18:	c29c                	sw	a5,0(a3)
C:/Users/nandg/Desktop/FE310-G003/sifive_hifive1_revb_sifive_welcome/freedom-metal/src/drivers/sifive_gpio0.c:167
        __METAL_ACCESS_ONCE(
            (__metal_io_u32 *)(base + METAL_SIFIVE_GPIO0_FALL_IE)) |= source;
20015a1a:	fec42783          	lw	a5,-20(s0)
20015a1e:	02078793          	addi	a5,a5,32
20015a22:	4398                	lw	a4,0(a5)
20015a24:	fd842783          	lw	a5,-40(s0)
20015a28:	fec42683          	lw	a3,-20(s0)
20015a2c:	02068693          	addi	a3,a3,32
20015a30:	8fd9                	or	a5,a5,a4
20015a32:	c29c                	sw	a5,0(a3)
C:/Users/nandg/Desktop/FE310-G003/sifive_hifive1_revb_sifive_welcome/freedom-metal/src/drivers/sifive_gpio0.c:169
        __METAL_ACCESS_ONCE(
            (__metal_io_u32 *)(base + METAL_SIFIVE_GPIO0_HIGH_IE)) |= source;
20015a34:	fec42783          	lw	a5,-20(s0)
20015a38:	02878793          	addi	a5,a5,40
20015a3c:	4398                	lw	a4,0(a5)
20015a3e:	fd842783          	lw	a5,-40(s0)
20015a42:	fec42683          	lw	a3,-20(s0)
20015a46:	02868693          	addi	a3,a3,40
20015a4a:	8fd9                	or	a5,a5,a4
20015a4c:	c29c                	sw	a5,0(a3)
C:/Users/nandg/Desktop/FE310-G003/sifive_hifive1_revb_sifive_welcome/freedom-metal/src/drivers/sifive_gpio0.c:171
        __METAL_ACCESS_ONCE(
            (__metal_io_u32 *)(base + METAL_SIFIVE_GPIO0_LOW_IE)) |= source;
20015a4e:	fec42783          	lw	a5,-20(s0)
20015a52:	03078793          	addi	a5,a5,48
20015a56:	4398                	lw	a4,0(a5)
20015a58:	fd842783          	lw	a5,-40(s0)
20015a5c:	fec42683          	lw	a3,-20(s0)
20015a60:	03068693          	addi	a3,a3,48
20015a64:	8fd9                	or	a5,a5,a4
20015a66:	c29c                	sw	a5,0(a3)
C:/Users/nandg/Desktop/FE310-G003/sifive_hifive1_revb_sifive_welcome/freedom-metal/src/drivers/sifive_gpio0.c:172
        break;
20015a68:	0001                	nop
C:/Users/nandg/Desktop/FE310-G003/sifive_hifive1_revb_sifive_welcome/freedom-metal/src/drivers/sifive_gpio0.c:174
    }
    return 0;
20015a6a:	4781                	li	a5,0
C:/Users/nandg/Desktop/FE310-G003/sifive_hifive1_revb_sifive_welcome/freedom-metal/src/drivers/sifive_gpio0.c:175
}
20015a6c:	853e                	mv	a0,a5
20015a6e:	50b2                	lw	ra,44(sp)
20015a70:	5422                	lw	s0,40(sp)
20015a72:	6145                	addi	sp,sp,48
20015a74:	8082                	ret

20015a76 <__metal_driver_sifive_gpio0_clear_int>:
__metal_driver_sifive_gpio0_clear_int():
C:/Users/nandg/Desktop/FE310-G003/sifive_hifive1_revb_sifive_welcome/freedom-metal/src/drivers/sifive_gpio0.c:178

int __metal_driver_sifive_gpio0_clear_int(struct metal_gpio *ggpio, long source,
                                          int intr_type) {
20015a76:	7179                	addi	sp,sp,-48
20015a78:	d606                	sw	ra,44(sp)
20015a7a:	d422                	sw	s0,40(sp)
20015a7c:	1800                	addi	s0,sp,48
20015a7e:	fca42e23          	sw	a0,-36(s0)
20015a82:	fcb42c23          	sw	a1,-40(s0)
20015a86:	fcc42a23          	sw	a2,-44(s0)
C:/Users/nandg/Desktop/FE310-G003/sifive_hifive1_revb_sifive_welcome/freedom-metal/src/drivers/sifive_gpio0.c:179
    long base = __metal_driver_sifive_gpio0_base(ggpio);
20015a8a:	fdc42503          	lw	a0,-36(s0)
20015a8e:	f60ff0ef          	jal	ra,200151ee <__metal_driver_sifive_gpio0_base>
20015a92:	87aa                	mv	a5,a0
20015a94:	fef42623          	sw	a5,-20(s0)
20015a98:	fd442703          	lw	a4,-44(s0)
20015a9c:	479d                	li	a5,7
20015a9e:	14e7ea63          	bltu	a5,a4,20015bf2 <__metal_driver_sifive_gpio0_clear_int+0x17c>
20015aa2:	fd442783          	lw	a5,-44(s0)
20015aa6:	00279713          	slli	a4,a5,0x2
20015aaa:	200117b7          	lui	a5,0x20011
20015aae:	e9478793          	addi	a5,a5,-364 # 20010e94 <__metal_driver_vtable_sifive_fe310_g000_pll+0x2c>
20015ab2:	97ba                	add	a5,a5,a4
20015ab4:	439c                	lw	a5,0(a5)
20015ab6:	8782                	jr	a5
C:/Users/nandg/Desktop/FE310-G003/sifive_hifive1_revb_sifive_welcome/freedom-metal/src/drivers/sifive_gpio0.c:184

    switch (intr_type) {
    case METAL_GPIO_INT_RISING:
        __METAL_ACCESS_ONCE(
            (__metal_io_u32 *)(base + METAL_SIFIVE_GPIO0_RISE_IP)) |= source;
20015ab8:	fec42783          	lw	a5,-20(s0)
20015abc:	07f1                	addi	a5,a5,28
20015abe:	4398                	lw	a4,0(a5)
20015ac0:	fd842783          	lw	a5,-40(s0)
20015ac4:	fec42683          	lw	a3,-20(s0)
20015ac8:	06f1                	addi	a3,a3,28
20015aca:	8fd9                	or	a5,a5,a4
20015acc:	c29c                	sw	a5,0(a3)
C:/Users/nandg/Desktop/FE310-G003/sifive_hifive1_revb_sifive_welcome/freedom-metal/src/drivers/sifive_gpio0.c:185
        break;
20015ace:	a215                	j	20015bf2 <__metal_driver_sifive_gpio0_clear_int+0x17c>
C:/Users/nandg/Desktop/FE310-G003/sifive_hifive1_revb_sifive_welcome/freedom-metal/src/drivers/sifive_gpio0.c:188
    case METAL_GPIO_INT_FALLING:
        __METAL_ACCESS_ONCE(
            (__metal_io_u32 *)(base + METAL_SIFIVE_GPIO0_FALL_IP)) |= source;
20015ad0:	fec42783          	lw	a5,-20(s0)
20015ad4:	02478793          	addi	a5,a5,36
20015ad8:	4398                	lw	a4,0(a5)
20015ada:	fd842783          	lw	a5,-40(s0)
20015ade:	fec42683          	lw	a3,-20(s0)
20015ae2:	02468693          	addi	a3,a3,36
20015ae6:	8fd9                	or	a5,a5,a4
20015ae8:	c29c                	sw	a5,0(a3)
C:/Users/nandg/Desktop/FE310-G003/sifive_hifive1_revb_sifive_welcome/freedom-metal/src/drivers/sifive_gpio0.c:189
        break;
20015aea:	a221                	j	20015bf2 <__metal_driver_sifive_gpio0_clear_int+0x17c>
C:/Users/nandg/Desktop/FE310-G003/sifive_hifive1_revb_sifive_welcome/freedom-metal/src/drivers/sifive_gpio0.c:192
    case METAL_GPIO_INT_BOTH_EDGE:
        __METAL_ACCESS_ONCE(
            (__metal_io_u32 *)(base + METAL_SIFIVE_GPIO0_RISE_IP)) |= source;
20015aec:	fec42783          	lw	a5,-20(s0)
20015af0:	07f1                	addi	a5,a5,28
20015af2:	4398                	lw	a4,0(a5)
20015af4:	fd842783          	lw	a5,-40(s0)
20015af8:	fec42683          	lw	a3,-20(s0)
20015afc:	06f1                	addi	a3,a3,28
20015afe:	8fd9                	or	a5,a5,a4
20015b00:	c29c                	sw	a5,0(a3)
C:/Users/nandg/Desktop/FE310-G003/sifive_hifive1_revb_sifive_welcome/freedom-metal/src/drivers/sifive_gpio0.c:194
        __METAL_ACCESS_ONCE(
            (__metal_io_u32 *)(base + METAL_SIFIVE_GPIO0_FALL_IP)) |= source;
20015b02:	fec42783          	lw	a5,-20(s0)
20015b06:	02478793          	addi	a5,a5,36
20015b0a:	4398                	lw	a4,0(a5)
20015b0c:	fd842783          	lw	a5,-40(s0)
20015b10:	fec42683          	lw	a3,-20(s0)
20015b14:	02468693          	addi	a3,a3,36
20015b18:	8fd9                	or	a5,a5,a4
20015b1a:	c29c                	sw	a5,0(a3)
C:/Users/nandg/Desktop/FE310-G003/sifive_hifive1_revb_sifive_welcome/freedom-metal/src/drivers/sifive_gpio0.c:195
        break;
20015b1c:	a8d9                	j	20015bf2 <__metal_driver_sifive_gpio0_clear_int+0x17c>
C:/Users/nandg/Desktop/FE310-G003/sifive_hifive1_revb_sifive_welcome/freedom-metal/src/drivers/sifive_gpio0.c:198
    case METAL_GPIO_INT_HIGH:
        __METAL_ACCESS_ONCE(
            (__metal_io_u32 *)(base + METAL_SIFIVE_GPIO0_HIGH_IP)) |= source;
20015b1e:	fec42783          	lw	a5,-20(s0)
20015b22:	02c78793          	addi	a5,a5,44
20015b26:	4398                	lw	a4,0(a5)
20015b28:	fd842783          	lw	a5,-40(s0)
20015b2c:	fec42683          	lw	a3,-20(s0)
20015b30:	02c68693          	addi	a3,a3,44
20015b34:	8fd9                	or	a5,a5,a4
20015b36:	c29c                	sw	a5,0(a3)
C:/Users/nandg/Desktop/FE310-G003/sifive_hifive1_revb_sifive_welcome/freedom-metal/src/drivers/sifive_gpio0.c:199
        break;
20015b38:	a86d                	j	20015bf2 <__metal_driver_sifive_gpio0_clear_int+0x17c>
C:/Users/nandg/Desktop/FE310-G003/sifive_hifive1_revb_sifive_welcome/freedom-metal/src/drivers/sifive_gpio0.c:202
    case METAL_GPIO_INT_LOW:
        __METAL_ACCESS_ONCE(
            (__metal_io_u32 *)(base + METAL_SIFIVE_GPIO0_LOW_IP)) |= source;
20015b3a:	fec42783          	lw	a5,-20(s0)
20015b3e:	03478793          	addi	a5,a5,52
20015b42:	4398                	lw	a4,0(a5)
20015b44:	fd842783          	lw	a5,-40(s0)
20015b48:	fec42683          	lw	a3,-20(s0)
20015b4c:	03468693          	addi	a3,a3,52
20015b50:	8fd9                	or	a5,a5,a4
20015b52:	c29c                	sw	a5,0(a3)
C:/Users/nandg/Desktop/FE310-G003/sifive_hifive1_revb_sifive_welcome/freedom-metal/src/drivers/sifive_gpio0.c:203
        break;
20015b54:	a879                	j	20015bf2 <__metal_driver_sifive_gpio0_clear_int+0x17c>
C:/Users/nandg/Desktop/FE310-G003/sifive_hifive1_revb_sifive_welcome/freedom-metal/src/drivers/sifive_gpio0.c:206
    case METAL_GPIO_INT_BOTH_LEVEL:
        __METAL_ACCESS_ONCE(
            (__metal_io_u32 *)(base + METAL_SIFIVE_GPIO0_HIGH_IP)) |= source;
20015b56:	fec42783          	lw	a5,-20(s0)
20015b5a:	02c78793          	addi	a5,a5,44
20015b5e:	4398                	lw	a4,0(a5)
20015b60:	fd842783          	lw	a5,-40(s0)
20015b64:	fec42683          	lw	a3,-20(s0)
20015b68:	02c68693          	addi	a3,a3,44
20015b6c:	8fd9                	or	a5,a5,a4
20015b6e:	c29c                	sw	a5,0(a3)
C:/Users/nandg/Desktop/FE310-G003/sifive_hifive1_revb_sifive_welcome/freedom-metal/src/drivers/sifive_gpio0.c:208
        __METAL_ACCESS_ONCE(
            (__metal_io_u32 *)(base + METAL_SIFIVE_GPIO0_LOW_IP)) |= source;
20015b70:	fec42783          	lw	a5,-20(s0)
20015b74:	03478793          	addi	a5,a5,52
20015b78:	4398                	lw	a4,0(a5)
20015b7a:	fd842783          	lw	a5,-40(s0)
20015b7e:	fec42683          	lw	a3,-20(s0)
20015b82:	03468693          	addi	a3,a3,52
20015b86:	8fd9                	or	a5,a5,a4
20015b88:	c29c                	sw	a5,0(a3)
C:/Users/nandg/Desktop/FE310-G003/sifive_hifive1_revb_sifive_welcome/freedom-metal/src/drivers/sifive_gpio0.c:209
        break;
20015b8a:	a0a5                	j	20015bf2 <__metal_driver_sifive_gpio0_clear_int+0x17c>
C:/Users/nandg/Desktop/FE310-G003/sifive_hifive1_revb_sifive_welcome/freedom-metal/src/drivers/sifive_gpio0.c:212
    case METAL_GPIO_INT_MAX:
        __METAL_ACCESS_ONCE(
            (__metal_io_u32 *)(base + METAL_SIFIVE_GPIO0_RISE_IP)) |= source;
20015b8c:	fec42783          	lw	a5,-20(s0)
20015b90:	07f1                	addi	a5,a5,28
20015b92:	4398                	lw	a4,0(a5)
20015b94:	fd842783          	lw	a5,-40(s0)
20015b98:	fec42683          	lw	a3,-20(s0)
20015b9c:	06f1                	addi	a3,a3,28
20015b9e:	8fd9                	or	a5,a5,a4
20015ba0:	c29c                	sw	a5,0(a3)
C:/Users/nandg/Desktop/FE310-G003/sifive_hifive1_revb_sifive_welcome/freedom-metal/src/drivers/sifive_gpio0.c:214
        __METAL_ACCESS_ONCE(
            (__metal_io_u32 *)(base + METAL_SIFIVE_GPIO0_FALL_IP)) |= source;
20015ba2:	fec42783          	lw	a5,-20(s0)
20015ba6:	02478793          	addi	a5,a5,36
20015baa:	4398                	lw	a4,0(a5)
20015bac:	fd842783          	lw	a5,-40(s0)
20015bb0:	fec42683          	lw	a3,-20(s0)
20015bb4:	02468693          	addi	a3,a3,36
20015bb8:	8fd9                	or	a5,a5,a4
20015bba:	c29c                	sw	a5,0(a3)
C:/Users/nandg/Desktop/FE310-G003/sifive_hifive1_revb_sifive_welcome/freedom-metal/src/drivers/sifive_gpio0.c:216
        __METAL_ACCESS_ONCE(
            (__metal_io_u32 *)(base + METAL_SIFIVE_GPIO0_HIGH_IP)) |= source;
20015bbc:	fec42783          	lw	a5,-20(s0)
20015bc0:	02c78793          	addi	a5,a5,44
20015bc4:	4398                	lw	a4,0(a5)
20015bc6:	fd842783          	lw	a5,-40(s0)
20015bca:	fec42683          	lw	a3,-20(s0)
20015bce:	02c68693          	addi	a3,a3,44
20015bd2:	8fd9                	or	a5,a5,a4
20015bd4:	c29c                	sw	a5,0(a3)
C:/Users/nandg/Desktop/FE310-G003/sifive_hifive1_revb_sifive_welcome/freedom-metal/src/drivers/sifive_gpio0.c:218
        __METAL_ACCESS_ONCE(
            (__metal_io_u32 *)(base + METAL_SIFIVE_GPIO0_LOW_IP)) |= source;
20015bd6:	fec42783          	lw	a5,-20(s0)
20015bda:	03478793          	addi	a5,a5,52
20015bde:	4398                	lw	a4,0(a5)
20015be0:	fd842783          	lw	a5,-40(s0)
20015be4:	fec42683          	lw	a3,-20(s0)
20015be8:	03468693          	addi	a3,a3,52
20015bec:	8fd9                	or	a5,a5,a4
20015bee:	c29c                	sw	a5,0(a3)
C:/Users/nandg/Desktop/FE310-G003/sifive_hifive1_revb_sifive_welcome/freedom-metal/src/drivers/sifive_gpio0.c:219
        break;
20015bf0:	0001                	nop
C:/Users/nandg/Desktop/FE310-G003/sifive_hifive1_revb_sifive_welcome/freedom-metal/src/drivers/sifive_gpio0.c:221
    }
    return 0;
20015bf2:	4781                	li	a5,0
C:/Users/nandg/Desktop/FE310-G003/sifive_hifive1_revb_sifive_welcome/freedom-metal/src/drivers/sifive_gpio0.c:222
}
20015bf4:	853e                	mv	a0,a5
20015bf6:	50b2                	lw	ra,44(sp)
20015bf8:	5422                	lw	s0,40(sp)
20015bfa:	6145                	addi	sp,sp,48
20015bfc:	8082                	ret

20015bfe <__metal_driver_gpio_interrupt_controller>:
__metal_driver_gpio_interrupt_controller():
C:/Users/nandg/Desktop/FE310-G003/sifive_hifive1_revb_sifive_welcome/freedom-metal/src/drivers/sifive_gpio0.c:225

struct metal_interrupt *
__metal_driver_gpio_interrupt_controller(struct metal_gpio *gpio) {
20015bfe:	1101                	addi	sp,sp,-32
20015c00:	ce06                	sw	ra,28(sp)
20015c02:	cc22                	sw	s0,24(sp)
20015c04:	1000                	addi	s0,sp,32
20015c06:	fea42623          	sw	a0,-20(s0)
C:/Users/nandg/Desktop/FE310-G003/sifive_hifive1_revb_sifive_welcome/freedom-metal/src/drivers/sifive_gpio0.c:226
    return __metal_driver_sifive_gpio0_interrupt_parent(gpio);
20015c0a:	fec42503          	lw	a0,-20(s0)
20015c0e:	e06ff0ef          	jal	ra,20015214 <__metal_driver_sifive_gpio0_interrupt_parent>
20015c12:	87aa                	mv	a5,a0
C:/Users/nandg/Desktop/FE310-G003/sifive_hifive1_revb_sifive_welcome/freedom-metal/src/drivers/sifive_gpio0.c:227
}
20015c14:	853e                	mv	a0,a5
20015c16:	40f2                	lw	ra,28(sp)
20015c18:	4462                	lw	s0,24(sp)
20015c1a:	6105                	addi	sp,sp,32
20015c1c:	8082                	ret

20015c1e <__metal_driver_gpio_get_interrupt_id>:
__metal_driver_gpio_get_interrupt_id():
C:/Users/nandg/Desktop/FE310-G003/sifive_hifive1_revb_sifive_welcome/freedom-metal/src/drivers/sifive_gpio0.c:229

int __metal_driver_gpio_get_interrupt_id(struct metal_gpio *gpio, int pin) {
20015c1e:	7179                	addi	sp,sp,-48
20015c20:	d606                	sw	ra,44(sp)
20015c22:	d422                	sw	s0,40(sp)
20015c24:	1800                	addi	s0,sp,48
20015c26:	fca42e23          	sw	a0,-36(s0)
20015c2a:	fcb42c23          	sw	a1,-40(s0)
C:/Users/nandg/Desktop/FE310-G003/sifive_hifive1_revb_sifive_welcome/freedom-metal/src/drivers/sifive_gpio0.c:231
    int irq;
    irq = __metal_driver_sifive_gpio0_interrupt_lines(gpio, pin);
20015c2e:	fd842583          	lw	a1,-40(s0)
20015c32:	fdc42503          	lw	a0,-36(s0)
20015c36:	e08ff0ef          	jal	ra,2001523e <__metal_driver_sifive_gpio0_interrupt_lines>
20015c3a:	fea42623          	sw	a0,-20(s0)
C:/Users/nandg/Desktop/FE310-G003/sifive_hifive1_revb_sifive_welcome/freedom-metal/src/drivers/sifive_gpio0.c:232
    return irq;
20015c3e:	fec42783          	lw	a5,-20(s0)
C:/Users/nandg/Desktop/FE310-G003/sifive_hifive1_revb_sifive_welcome/freedom-metal/src/drivers/sifive_gpio0.c:233
}
20015c42:	853e                	mv	a0,a5
20015c44:	50b2                	lw	ra,44(sp)
20015c46:	5422                	lw	s0,40(sp)
20015c48:	6145                	addi	sp,sp,48
20015c4a:	8082                	ret

20015c4c <__metal_driver_sifive_uart0_control_base>:
__metal_driver_sifive_uart0_control_base():
C:\Users\nandg\Desktop\FE310-G003\sifive_hifive1_revb_sifive_welcome\bsp\build\debug/./metal/machine.h:1066
{
20015c4c:	1101                	addi	sp,sp,-32
20015c4e:	ce22                	sw	s0,28(sp)
20015c50:	1000                	addi	s0,sp,32
20015c52:	fea42623          	sw	a0,-20(s0)
C:\Users\nandg\Desktop\FE310-G003\sifive_hifive1_revb_sifive_welcome\bsp\build\debug/./metal/machine.h:1067
	if ((uintptr_t)uart == (uintptr_t)&__metal_dt_serial_10013000) {
20015c56:	fec42703          	lw	a4,-20(s0)
20015c5a:	800017b7          	lui	a5,0x80001
20015c5e:	a3878793          	addi	a5,a5,-1480 # 80000a38 <metal_segment_heap_target_end+0xfffff2c8>
20015c62:	00f71563          	bne	a4,a5,20015c6c <__metal_driver_sifive_uart0_control_base+0x20>
C:\Users\nandg\Desktop\FE310-G003\sifive_hifive1_revb_sifive_welcome\bsp\build\debug/./metal/machine.h:1068
		return METAL_SIFIVE_UART0_10013000_BASE_ADDRESS;
20015c66:	100137b7          	lui	a5,0x10013
20015c6a:	a829                	j	20015c84 <__metal_driver_sifive_uart0_control_base+0x38>
C:\Users\nandg\Desktop\FE310-G003\sifive_hifive1_revb_sifive_welcome\bsp\build\debug/./metal/machine.h:1070
	else if ((uintptr_t)uart == (uintptr_t)&__metal_dt_serial_10023000) {
20015c6c:	fec42703          	lw	a4,-20(s0)
20015c70:	800017b7          	lui	a5,0x80001
20015c74:	a5878793          	addi	a5,a5,-1448 # 80000a58 <metal_segment_heap_target_end+0xfffff2e8>
20015c78:	00f71563          	bne	a4,a5,20015c82 <__metal_driver_sifive_uart0_control_base+0x36>
C:\Users\nandg\Desktop\FE310-G003\sifive_hifive1_revb_sifive_welcome\bsp\build\debug/./metal/machine.h:1071
		return METAL_SIFIVE_UART0_10023000_BASE_ADDRESS;
20015c7c:	100237b7          	lui	a5,0x10023
20015c80:	a011                	j	20015c84 <__metal_driver_sifive_uart0_control_base+0x38>
C:\Users\nandg\Desktop\FE310-G003\sifive_hifive1_revb_sifive_welcome\bsp\build\debug/./metal/machine.h:1074
		return 0;
20015c82:	4781                	li	a5,0
C:\Users\nandg\Desktop\FE310-G003\sifive_hifive1_revb_sifive_welcome\bsp\build\debug/./metal/machine.h:1076
}
20015c84:	853e                	mv	a0,a5
20015c86:	4472                	lw	s0,28(sp)
20015c88:	6105                	addi	sp,sp,32
20015c8a:	8082                	ret

20015c8c <__metal_driver_sifive_uart0_interrupt_parent>:
__metal_driver_sifive_uart0_interrupt_parent():
C:\Users\nandg\Desktop\FE310-G003\sifive_hifive1_revb_sifive_welcome\bsp\build\debug/./metal/machine.h:1105
{
20015c8c:	1101                	addi	sp,sp,-32
20015c8e:	ce22                	sw	s0,28(sp)
20015c90:	1000                	addi	s0,sp,32
20015c92:	fea42623          	sw	a0,-20(s0)
C:\Users\nandg\Desktop\FE310-G003\sifive_hifive1_revb_sifive_welcome\bsp\build\debug/./metal/machine.h:1106
	if ((uintptr_t)uart == (uintptr_t)&__metal_dt_serial_10013000) {
20015c96:	fec42703          	lw	a4,-20(s0)
20015c9a:	800017b7          	lui	a5,0x80001
20015c9e:	a3878793          	addi	a5,a5,-1480 # 80000a38 <metal_segment_heap_target_end+0xfffff2c8>
20015ca2:	00f71763          	bne	a4,a5,20015cb0 <__metal_driver_sifive_uart0_interrupt_parent+0x24>
C:\Users\nandg\Desktop\FE310-G003\sifive_hifive1_revb_sifive_welcome\bsp\build\debug/./metal/machine.h:1107
		return (struct metal_interrupt *)&__metal_dt_interrupt_controller_c000000.controller;
20015ca6:	800007b7          	lui	a5,0x80000
20015caa:	46078793          	addi	a5,a5,1120 # 80000460 <metal_segment_heap_target_end+0xffffecf0>
20015cae:	a839                	j	20015ccc <__metal_driver_sifive_uart0_interrupt_parent+0x40>
C:\Users\nandg\Desktop\FE310-G003\sifive_hifive1_revb_sifive_welcome\bsp\build\debug/./metal/machine.h:1109
	else if ((uintptr_t)uart == (uintptr_t)&__metal_dt_serial_10023000) {
20015cb0:	fec42703          	lw	a4,-20(s0)
20015cb4:	800017b7          	lui	a5,0x80001
20015cb8:	a5878793          	addi	a5,a5,-1448 # 80000a58 <metal_segment_heap_target_end+0xfffff2e8>
20015cbc:	00f71763          	bne	a4,a5,20015cca <__metal_driver_sifive_uart0_interrupt_parent+0x3e>
C:\Users\nandg\Desktop\FE310-G003\sifive_hifive1_revb_sifive_welcome\bsp\build\debug/./metal/machine.h:1110
		return (struct metal_interrupt *)&__metal_dt_interrupt_controller_c000000.controller;
20015cc0:	800007b7          	lui	a5,0x80000
20015cc4:	46078793          	addi	a5,a5,1120 # 80000460 <metal_segment_heap_target_end+0xffffecf0>
20015cc8:	a011                	j	20015ccc <__metal_driver_sifive_uart0_interrupt_parent+0x40>
C:\Users\nandg\Desktop\FE310-G003\sifive_hifive1_revb_sifive_welcome\bsp\build\debug/./metal/machine.h:1113
		return 0;
20015cca:	4781                	li	a5,0
C:\Users\nandg\Desktop\FE310-G003\sifive_hifive1_revb_sifive_welcome\bsp\build\debug/./metal/machine.h:1115
}
20015ccc:	853e                	mv	a0,a5
20015cce:	4472                	lw	s0,28(sp)
20015cd0:	6105                	addi	sp,sp,32
20015cd2:	8082                	ret

20015cd4 <__metal_driver_sifive_uart0_interrupt_line>:
__metal_driver_sifive_uart0_interrupt_line():
C:\Users\nandg\Desktop\FE310-G003\sifive_hifive1_revb_sifive_welcome\bsp\build\debug/./metal/machine.h:1118
{
20015cd4:	1101                	addi	sp,sp,-32
20015cd6:	ce22                	sw	s0,28(sp)
20015cd8:	1000                	addi	s0,sp,32
20015cda:	fea42623          	sw	a0,-20(s0)
C:\Users\nandg\Desktop\FE310-G003\sifive_hifive1_revb_sifive_welcome\bsp\build\debug/./metal/machine.h:1119
	if ((uintptr_t)uart == (uintptr_t)&__metal_dt_serial_10013000) {
20015cde:	fec42703          	lw	a4,-20(s0)
20015ce2:	800017b7          	lui	a5,0x80001
20015ce6:	a3878793          	addi	a5,a5,-1480 # 80000a38 <metal_segment_heap_target_end+0xfffff2c8>
20015cea:	00f71463          	bne	a4,a5,20015cf2 <__metal_driver_sifive_uart0_interrupt_line+0x1e>
C:\Users\nandg\Desktop\FE310-G003\sifive_hifive1_revb_sifive_welcome\bsp\build\debug/./metal/machine.h:1120
		return 3;
20015cee:	478d                	li	a5,3
20015cf0:	a821                	j	20015d08 <__metal_driver_sifive_uart0_interrupt_line+0x34>
C:\Users\nandg\Desktop\FE310-G003\sifive_hifive1_revb_sifive_welcome\bsp\build\debug/./metal/machine.h:1122
	else if ((uintptr_t)uart == (uintptr_t)&__metal_dt_serial_10023000) {
20015cf2:	fec42703          	lw	a4,-20(s0)
20015cf6:	800017b7          	lui	a5,0x80001
20015cfa:	a5878793          	addi	a5,a5,-1448 # 80000a58 <metal_segment_heap_target_end+0xfffff2e8>
20015cfe:	00f71463          	bne	a4,a5,20015d06 <__metal_driver_sifive_uart0_interrupt_line+0x32>
C:\Users\nandg\Desktop\FE310-G003\sifive_hifive1_revb_sifive_welcome\bsp\build\debug/./metal/machine.h:1123
		return 4;
20015d02:	4791                	li	a5,4
20015d04:	a011                	j	20015d08 <__metal_driver_sifive_uart0_interrupt_line+0x34>
C:\Users\nandg\Desktop\FE310-G003\sifive_hifive1_revb_sifive_welcome\bsp\build\debug/./metal/machine.h:1126
		return 0;
20015d06:	4781                	li	a5,0
C:\Users\nandg\Desktop\FE310-G003\sifive_hifive1_revb_sifive_welcome\bsp\build\debug/./metal/machine.h:1128
}
20015d08:	853e                	mv	a0,a5
20015d0a:	4472                	lw	s0,28(sp)
20015d0c:	6105                	addi	sp,sp,32
20015d0e:	8082                	ret

20015d10 <__metal_driver_sifive_uart0_clock>:
__metal_driver_sifive_uart0_clock():
C:\Users\nandg\Desktop\FE310-G003\sifive_hifive1_revb_sifive_welcome\bsp\build\debug/./metal/machine.h:1131
{
20015d10:	1101                	addi	sp,sp,-32
20015d12:	ce22                	sw	s0,28(sp)
20015d14:	1000                	addi	s0,sp,32
20015d16:	fea42623          	sw	a0,-20(s0)
C:\Users\nandg\Desktop\FE310-G003\sifive_hifive1_revb_sifive_welcome\bsp\build\debug/./metal/machine.h:1132
	if ((uintptr_t)uart == (uintptr_t)&__metal_dt_serial_10013000) {
20015d1a:	fec42703          	lw	a4,-20(s0)
20015d1e:	800017b7          	lui	a5,0x80001
20015d22:	a3878793          	addi	a5,a5,-1480 # 80000a38 <metal_segment_heap_target_end+0xfffff2c8>
20015d26:	00f71763          	bne	a4,a5,20015d34 <__metal_driver_sifive_uart0_clock+0x24>
C:\Users\nandg\Desktop\FE310-G003\sifive_hifive1_revb_sifive_welcome\bsp\build\debug/./metal/machine.h:1133
		return (struct metal_clock *)&__metal_dt_clock_4.clock;
20015d2a:	800017b7          	lui	a5,0x80001
20015d2e:	a9078793          	addi	a5,a5,-1392 # 80000a90 <metal_segment_heap_target_end+0xfffff320>
20015d32:	a839                	j	20015d50 <__metal_driver_sifive_uart0_clock+0x40>
C:\Users\nandg\Desktop\FE310-G003\sifive_hifive1_revb_sifive_welcome\bsp\build\debug/./metal/machine.h:1135
	else if ((uintptr_t)uart == (uintptr_t)&__metal_dt_serial_10023000) {
20015d34:	fec42703          	lw	a4,-20(s0)
20015d38:	800017b7          	lui	a5,0x80001
20015d3c:	a5878793          	addi	a5,a5,-1448 # 80000a58 <metal_segment_heap_target_end+0xfffff2e8>
20015d40:	00f71763          	bne	a4,a5,20015d4e <__metal_driver_sifive_uart0_clock+0x3e>
C:\Users\nandg\Desktop\FE310-G003\sifive_hifive1_revb_sifive_welcome\bsp\build\debug/./metal/machine.h:1136
		return (struct metal_clock *)&__metal_dt_clock_4.clock;
20015d44:	800017b7          	lui	a5,0x80001
20015d48:	a9078793          	addi	a5,a5,-1392 # 80000a90 <metal_segment_heap_target_end+0xfffff320>
20015d4c:	a011                	j	20015d50 <__metal_driver_sifive_uart0_clock+0x40>
C:\Users\nandg\Desktop\FE310-G003\sifive_hifive1_revb_sifive_welcome\bsp\build\debug/./metal/machine.h:1139
		return 0;
20015d4e:	4781                	li	a5,0
C:\Users\nandg\Desktop\FE310-G003\sifive_hifive1_revb_sifive_welcome\bsp\build\debug/./metal/machine.h:1141
}
20015d50:	853e                	mv	a0,a5
20015d52:	4472                	lw	s0,28(sp)
20015d54:	6105                	addi	sp,sp,32
20015d56:	8082                	ret

20015d58 <__metal_driver_sifive_uart0_pinmux>:
__metal_driver_sifive_uart0_pinmux():
C:\Users\nandg\Desktop\FE310-G003\sifive_hifive1_revb_sifive_welcome\bsp\build\debug/./metal/machine.h:1144
{
20015d58:	1101                	addi	sp,sp,-32
20015d5a:	ce22                	sw	s0,28(sp)
20015d5c:	1000                	addi	s0,sp,32
20015d5e:	fea42623          	sw	a0,-20(s0)
C:\Users\nandg\Desktop\FE310-G003\sifive_hifive1_revb_sifive_welcome\bsp\build\debug/./metal/machine.h:1145
	if ((uintptr_t)uart == (uintptr_t)&__metal_dt_serial_10013000) {
20015d62:	fec42703          	lw	a4,-20(s0)
20015d66:	800017b7          	lui	a5,0x80001
20015d6a:	a3878793          	addi	a5,a5,-1480 # 80000a38 <metal_segment_heap_target_end+0xfffff2c8>
20015d6e:	00f71563          	bne	a4,a5,20015d78 <__metal_driver_sifive_uart0_pinmux+0x20>
C:\Users\nandg\Desktop\FE310-G003\sifive_hifive1_revb_sifive_welcome\bsp\build\debug/./metal/machine.h:1146
		return (struct __metal_driver_sifive_gpio0 *)&__metal_dt_gpio_10012000;
20015d72:	81c18793          	addi	a5,gp,-2020 # 80000abc <__metal_dt_gpio_10012000>
20015d76:	a829                	j	20015d90 <__metal_driver_sifive_uart0_pinmux+0x38>
C:\Users\nandg\Desktop\FE310-G003\sifive_hifive1_revb_sifive_welcome\bsp\build\debug/./metal/machine.h:1148
	else if ((uintptr_t)uart == (uintptr_t)&__metal_dt_serial_10023000) {
20015d78:	fec42703          	lw	a4,-20(s0)
20015d7c:	800017b7          	lui	a5,0x80001
20015d80:	a5878793          	addi	a5,a5,-1448 # 80000a58 <metal_segment_heap_target_end+0xfffff2e8>
20015d84:	00f71563          	bne	a4,a5,20015d8e <__metal_driver_sifive_uart0_pinmux+0x36>
C:\Users\nandg\Desktop\FE310-G003\sifive_hifive1_revb_sifive_welcome\bsp\build\debug/./metal/machine.h:1149
		return (struct __metal_driver_sifive_gpio0 *)&__metal_dt_gpio_10012000;
20015d88:	81c18793          	addi	a5,gp,-2020 # 80000abc <__metal_dt_gpio_10012000>
20015d8c:	a011                	j	20015d90 <__metal_driver_sifive_uart0_pinmux+0x38>
C:\Users\nandg\Desktop\FE310-G003\sifive_hifive1_revb_sifive_welcome\bsp\build\debug/./metal/machine.h:1152
		return 0;
20015d8e:	4781                	li	a5,0
C:\Users\nandg\Desktop\FE310-G003\sifive_hifive1_revb_sifive_welcome\bsp\build\debug/./metal/machine.h:1154
}
20015d90:	853e                	mv	a0,a5
20015d92:	4472                	lw	s0,28(sp)
20015d94:	6105                	addi	sp,sp,32
20015d96:	8082                	ret

20015d98 <__metal_driver_sifive_uart0_pinmux_output_selector>:
__metal_driver_sifive_uart0_pinmux_output_selector():
C:\Users\nandg\Desktop\FE310-G003\sifive_hifive1_revb_sifive_welcome\bsp\build\debug/./metal/machine.h:1157
{
20015d98:	1101                	addi	sp,sp,-32
20015d9a:	ce22                	sw	s0,28(sp)
20015d9c:	1000                	addi	s0,sp,32
20015d9e:	fea42623          	sw	a0,-20(s0)
C:\Users\nandg\Desktop\FE310-G003\sifive_hifive1_revb_sifive_welcome\bsp\build\debug/./metal/machine.h:1158
	if ((uintptr_t)uart == (uintptr_t)&__metal_dt_serial_10013000) {
20015da2:	fec42703          	lw	a4,-20(s0)
20015da6:	800017b7          	lui	a5,0x80001
20015daa:	a3878793          	addi	a5,a5,-1480 # 80000a38 <metal_segment_heap_target_end+0xfffff2c8>
20015dae:	00f71463          	bne	a4,a5,20015db6 <__metal_driver_sifive_uart0_pinmux_output_selector+0x1e>
C:\Users\nandg\Desktop\FE310-G003\sifive_hifive1_revb_sifive_welcome\bsp\build\debug/./metal/machine.h:1159
		return 0;
20015db2:	4781                	li	a5,0
20015db4:	a821                	j	20015dcc <__metal_driver_sifive_uart0_pinmux_output_selector+0x34>
C:\Users\nandg\Desktop\FE310-G003\sifive_hifive1_revb_sifive_welcome\bsp\build\debug/./metal/machine.h:1161
	else if ((uintptr_t)uart == (uintptr_t)&__metal_dt_serial_10023000) {
20015db6:	fec42703          	lw	a4,-20(s0)
20015dba:	800017b7          	lui	a5,0x80001
20015dbe:	a5878793          	addi	a5,a5,-1448 # 80000a58 <metal_segment_heap_target_end+0xfffff2e8>
20015dc2:	00f71463          	bne	a4,a5,20015dca <__metal_driver_sifive_uart0_pinmux_output_selector+0x32>
C:\Users\nandg\Desktop\FE310-G003\sifive_hifive1_revb_sifive_welcome\bsp\build\debug/./metal/machine.h:1162
		return 0;
20015dc6:	4781                	li	a5,0
20015dc8:	a011                	j	20015dcc <__metal_driver_sifive_uart0_pinmux_output_selector+0x34>
C:\Users\nandg\Desktop\FE310-G003\sifive_hifive1_revb_sifive_welcome\bsp\build\debug/./metal/machine.h:1165
		return 0;
20015dca:	4781                	li	a5,0
C:\Users\nandg\Desktop\FE310-G003\sifive_hifive1_revb_sifive_welcome\bsp\build\debug/./metal/machine.h:1167
}
20015dcc:	853e                	mv	a0,a5
20015dce:	4472                	lw	s0,28(sp)
20015dd0:	6105                	addi	sp,sp,32
20015dd2:	8082                	ret

20015dd4 <__metal_driver_sifive_uart0_pinmux_source_selector>:
__metal_driver_sifive_uart0_pinmux_source_selector():
C:\Users\nandg\Desktop\FE310-G003\sifive_hifive1_revb_sifive_welcome\bsp\build\debug/./metal/machine.h:1170
{
20015dd4:	1101                	addi	sp,sp,-32
20015dd6:	ce22                	sw	s0,28(sp)
20015dd8:	1000                	addi	s0,sp,32
20015dda:	fea42623          	sw	a0,-20(s0)
C:\Users\nandg\Desktop\FE310-G003\sifive_hifive1_revb_sifive_welcome\bsp\build\debug/./metal/machine.h:1171
	if ((uintptr_t)uart == (uintptr_t)&__metal_dt_serial_10013000) {
20015dde:	fec42703          	lw	a4,-20(s0)
20015de2:	800017b7          	lui	a5,0x80001
20015de6:	a3878793          	addi	a5,a5,-1480 # 80000a38 <metal_segment_heap_target_end+0xfffff2c8>
20015dea:	00f71563          	bne	a4,a5,20015df4 <__metal_driver_sifive_uart0_pinmux_source_selector+0x20>
C:\Users\nandg\Desktop\FE310-G003\sifive_hifive1_revb_sifive_welcome\bsp\build\debug/./metal/machine.h:1172
		return 196608;
20015dee:	000307b7          	lui	a5,0x30
20015df2:	a829                	j	20015e0c <__metal_driver_sifive_uart0_pinmux_source_selector+0x38>
C:\Users\nandg\Desktop\FE310-G003\sifive_hifive1_revb_sifive_welcome\bsp\build\debug/./metal/machine.h:1174
	else if ((uintptr_t)uart == (uintptr_t)&__metal_dt_serial_10023000) {
20015df4:	fec42703          	lw	a4,-20(s0)
20015df8:	800017b7          	lui	a5,0x80001
20015dfc:	a5878793          	addi	a5,a5,-1448 # 80000a58 <metal_segment_heap_target_end+0xfffff2e8>
20015e00:	00f71563          	bne	a4,a5,20015e0a <__metal_driver_sifive_uart0_pinmux_source_selector+0x36>
C:\Users\nandg\Desktop\FE310-G003\sifive_hifive1_revb_sifive_welcome\bsp\build\debug/./metal/machine.h:1175
		return 8650752;
20015e04:	008407b7          	lui	a5,0x840
20015e08:	a011                	j	20015e0c <__metal_driver_sifive_uart0_pinmux_source_selector+0x38>
C:\Users\nandg\Desktop\FE310-G003\sifive_hifive1_revb_sifive_welcome\bsp\build\debug/./metal/machine.h:1178
		return 0;
20015e0a:	4781                	li	a5,0
C:\Users\nandg\Desktop\FE310-G003\sifive_hifive1_revb_sifive_welcome\bsp\build\debug/./metal/machine.h:1180
}
20015e0c:	853e                	mv	a0,a5
20015e0e:	4472                	lw	s0,28(sp)
20015e10:	6105                	addi	sp,sp,32
20015e12:	8082                	ret

20015e14 <__metal_driver_sifive_uart0_interrupt_controller>:
__metal_driver_sifive_uart0_interrupt_controller():
C:/Users/nandg/Desktop/FE310-G003/sifive_hifive1_revb_sifive_welcome/freedom-metal/src/drivers/sifive_uart0.c:37
    (__METAL_ACCESS_ONCE((__metal_io_u8 *)UART_REG(offset)))
#define UART_REGW(offset)                                                      \
    (__METAL_ACCESS_ONCE((__metal_io_u32 *)UART_REG(offset)))

struct metal_interrupt *
__metal_driver_sifive_uart0_interrupt_controller(struct metal_uart *uart) {
20015e14:	1101                	addi	sp,sp,-32
20015e16:	ce06                	sw	ra,28(sp)
20015e18:	cc22                	sw	s0,24(sp)
20015e1a:	1000                	addi	s0,sp,32
20015e1c:	fea42623          	sw	a0,-20(s0)
C:/Users/nandg/Desktop/FE310-G003/sifive_hifive1_revb_sifive_welcome/freedom-metal/src/drivers/sifive_uart0.c:38
    return __metal_driver_sifive_uart0_interrupt_parent(uart);
20015e20:	fec42503          	lw	a0,-20(s0)
20015e24:	e69ff0ef          	jal	ra,20015c8c <__metal_driver_sifive_uart0_interrupt_parent>
20015e28:	87aa                	mv	a5,a0
C:/Users/nandg/Desktop/FE310-G003/sifive_hifive1_revb_sifive_welcome/freedom-metal/src/drivers/sifive_uart0.c:39
}
20015e2a:	853e                	mv	a0,a5
20015e2c:	40f2                	lw	ra,28(sp)
20015e2e:	4462                	lw	s0,24(sp)
20015e30:	6105                	addi	sp,sp,32
20015e32:	8082                	ret

20015e34 <__metal_driver_sifive_uart0_get_interrupt_id>:
__metal_driver_sifive_uart0_get_interrupt_id():
C:/Users/nandg/Desktop/FE310-G003/sifive_hifive1_revb_sifive_welcome/freedom-metal/src/drivers/sifive_uart0.c:41

int __metal_driver_sifive_uart0_get_interrupt_id(struct metal_uart *uart) {
20015e34:	1101                	addi	sp,sp,-32
20015e36:	ce06                	sw	ra,28(sp)
20015e38:	cc22                	sw	s0,24(sp)
20015e3a:	1000                	addi	s0,sp,32
20015e3c:	fea42623          	sw	a0,-20(s0)
C:/Users/nandg/Desktop/FE310-G003/sifive_hifive1_revb_sifive_welcome/freedom-metal/src/drivers/sifive_uart0.c:42
    return __metal_driver_sifive_uart0_interrupt_line(uart);
20015e40:	fec42503          	lw	a0,-20(s0)
20015e44:	3d41                	jal	20015cd4 <__metal_driver_sifive_uart0_interrupt_line>
20015e46:	87aa                	mv	a5,a0
C:/Users/nandg/Desktop/FE310-G003/sifive_hifive1_revb_sifive_welcome/freedom-metal/src/drivers/sifive_uart0.c:43
}
20015e48:	853e                	mv	a0,a5
20015e4a:	40f2                	lw	ra,28(sp)
20015e4c:	4462                	lw	s0,24(sp)
20015e4e:	6105                	addi	sp,sp,32
20015e50:	8082                	ret

20015e52 <__metal_driver_sifive_uart0_tx_interrupt_enable>:
__metal_driver_sifive_uart0_tx_interrupt_enable():
C:/Users/nandg/Desktop/FE310-G003/sifive_hifive1_revb_sifive_welcome/freedom-metal/src/drivers/sifive_uart0.c:45

int __metal_driver_sifive_uart0_tx_interrupt_enable(struct metal_uart *uart) {
20015e52:	7179                	addi	sp,sp,-48
20015e54:	d606                	sw	ra,44(sp)
20015e56:	d422                	sw	s0,40(sp)
20015e58:	1800                	addi	s0,sp,48
20015e5a:	fca42e23          	sw	a0,-36(s0)
C:/Users/nandg/Desktop/FE310-G003/sifive_hifive1_revb_sifive_welcome/freedom-metal/src/drivers/sifive_uart0.c:46
    long control_base = __metal_driver_sifive_uart0_control_base(uart);
20015e5e:	fdc42503          	lw	a0,-36(s0)
20015e62:	debff0ef          	jal	ra,20015c4c <__metal_driver_sifive_uart0_control_base>
20015e66:	87aa                	mv	a5,a0
20015e68:	fef42623          	sw	a5,-20(s0)
C:/Users/nandg/Desktop/FE310-G003/sifive_hifive1_revb_sifive_welcome/freedom-metal/src/drivers/sifive_uart0.c:48

    UART_REGW(METAL_SIFIVE_UART0_IE) |= UART_TXWM;
20015e6c:	fec42783          	lw	a5,-20(s0)
20015e70:	07c1                	addi	a5,a5,16
20015e72:	439c                	lw	a5,0(a5)
20015e74:	fec42703          	lw	a4,-20(s0)
20015e78:	0741                	addi	a4,a4,16
20015e7a:	0017e793          	ori	a5,a5,1
20015e7e:	c31c                	sw	a5,0(a4)
C:/Users/nandg/Desktop/FE310-G003/sifive_hifive1_revb_sifive_welcome/freedom-metal/src/drivers/sifive_uart0.c:49
    return 0;
20015e80:	4781                	li	a5,0
C:/Users/nandg/Desktop/FE310-G003/sifive_hifive1_revb_sifive_welcome/freedom-metal/src/drivers/sifive_uart0.c:50
}
20015e82:	853e                	mv	a0,a5
20015e84:	50b2                	lw	ra,44(sp)
20015e86:	5422                	lw	s0,40(sp)
20015e88:	6145                	addi	sp,sp,48
20015e8a:	8082                	ret

20015e8c <__metal_driver_sifive_uart0_tx_interrupt_disable>:
__metal_driver_sifive_uart0_tx_interrupt_disable():
C:/Users/nandg/Desktop/FE310-G003/sifive_hifive1_revb_sifive_welcome/freedom-metal/src/drivers/sifive_uart0.c:52

int __metal_driver_sifive_uart0_tx_interrupt_disable(struct metal_uart *uart) {
20015e8c:	7179                	addi	sp,sp,-48
20015e8e:	d606                	sw	ra,44(sp)
20015e90:	d422                	sw	s0,40(sp)
20015e92:	1800                	addi	s0,sp,48
20015e94:	fca42e23          	sw	a0,-36(s0)
C:/Users/nandg/Desktop/FE310-G003/sifive_hifive1_revb_sifive_welcome/freedom-metal/src/drivers/sifive_uart0.c:53
    long control_base = __metal_driver_sifive_uart0_control_base(uart);
20015e98:	fdc42503          	lw	a0,-36(s0)
20015e9c:	db1ff0ef          	jal	ra,20015c4c <__metal_driver_sifive_uart0_control_base>
20015ea0:	87aa                	mv	a5,a0
20015ea2:	fef42623          	sw	a5,-20(s0)
C:/Users/nandg/Desktop/FE310-G003/sifive_hifive1_revb_sifive_welcome/freedom-metal/src/drivers/sifive_uart0.c:55

    UART_REGW(METAL_SIFIVE_UART0_IE) &= ~UART_TXWM;
20015ea6:	fec42783          	lw	a5,-20(s0)
20015eaa:	07c1                	addi	a5,a5,16
20015eac:	439c                	lw	a5,0(a5)
20015eae:	fec42703          	lw	a4,-20(s0)
20015eb2:	0741                	addi	a4,a4,16
20015eb4:	9bf9                	andi	a5,a5,-2
20015eb6:	c31c                	sw	a5,0(a4)
C:/Users/nandg/Desktop/FE310-G003/sifive_hifive1_revb_sifive_welcome/freedom-metal/src/drivers/sifive_uart0.c:56
    return 0;
20015eb8:	4781                	li	a5,0
C:/Users/nandg/Desktop/FE310-G003/sifive_hifive1_revb_sifive_welcome/freedom-metal/src/drivers/sifive_uart0.c:57
}
20015eba:	853e                	mv	a0,a5
20015ebc:	50b2                	lw	ra,44(sp)
20015ebe:	5422                	lw	s0,40(sp)
20015ec0:	6145                	addi	sp,sp,48
20015ec2:	8082                	ret

20015ec4 <__metal_driver_sifive_uart0_rx_interrupt_enable>:
__metal_driver_sifive_uart0_rx_interrupt_enable():
C:/Users/nandg/Desktop/FE310-G003/sifive_hifive1_revb_sifive_welcome/freedom-metal/src/drivers/sifive_uart0.c:59

int __metal_driver_sifive_uart0_rx_interrupt_enable(struct metal_uart *uart) {
20015ec4:	7179                	addi	sp,sp,-48
20015ec6:	d606                	sw	ra,44(sp)
20015ec8:	d422                	sw	s0,40(sp)
20015eca:	1800                	addi	s0,sp,48
20015ecc:	fca42e23          	sw	a0,-36(s0)
C:/Users/nandg/Desktop/FE310-G003/sifive_hifive1_revb_sifive_welcome/freedom-metal/src/drivers/sifive_uart0.c:60
    long control_base = __metal_driver_sifive_uart0_control_base(uart);
20015ed0:	fdc42503          	lw	a0,-36(s0)
20015ed4:	d79ff0ef          	jal	ra,20015c4c <__metal_driver_sifive_uart0_control_base>
20015ed8:	87aa                	mv	a5,a0
20015eda:	fef42623          	sw	a5,-20(s0)
C:/Users/nandg/Desktop/FE310-G003/sifive_hifive1_revb_sifive_welcome/freedom-metal/src/drivers/sifive_uart0.c:62

    UART_REGW(METAL_SIFIVE_UART0_IE) |= UART_RXWM;
20015ede:	fec42783          	lw	a5,-20(s0)
20015ee2:	07c1                	addi	a5,a5,16
20015ee4:	439c                	lw	a5,0(a5)
20015ee6:	fec42703          	lw	a4,-20(s0)
20015eea:	0741                	addi	a4,a4,16
20015eec:	0027e793          	ori	a5,a5,2
20015ef0:	c31c                	sw	a5,0(a4)
C:/Users/nandg/Desktop/FE310-G003/sifive_hifive1_revb_sifive_welcome/freedom-metal/src/drivers/sifive_uart0.c:63
    return 0;
20015ef2:	4781                	li	a5,0
C:/Users/nandg/Desktop/FE310-G003/sifive_hifive1_revb_sifive_welcome/freedom-metal/src/drivers/sifive_uart0.c:64
}
20015ef4:	853e                	mv	a0,a5
20015ef6:	50b2                	lw	ra,44(sp)
20015ef8:	5422                	lw	s0,40(sp)
20015efa:	6145                	addi	sp,sp,48
20015efc:	8082                	ret

20015efe <__metal_driver_sifive_uart0_rx_interrupt_disable>:
__metal_driver_sifive_uart0_rx_interrupt_disable():
C:/Users/nandg/Desktop/FE310-G003/sifive_hifive1_revb_sifive_welcome/freedom-metal/src/drivers/sifive_uart0.c:66

int __metal_driver_sifive_uart0_rx_interrupt_disable(struct metal_uart *uart) {
20015efe:	7179                	addi	sp,sp,-48
20015f00:	d606                	sw	ra,44(sp)
20015f02:	d422                	sw	s0,40(sp)
20015f04:	1800                	addi	s0,sp,48
20015f06:	fca42e23          	sw	a0,-36(s0)
C:/Users/nandg/Desktop/FE310-G003/sifive_hifive1_revb_sifive_welcome/freedom-metal/src/drivers/sifive_uart0.c:67
    long control_base = __metal_driver_sifive_uart0_control_base(uart);
20015f0a:	fdc42503          	lw	a0,-36(s0)
20015f0e:	d3fff0ef          	jal	ra,20015c4c <__metal_driver_sifive_uart0_control_base>
20015f12:	87aa                	mv	a5,a0
20015f14:	fef42623          	sw	a5,-20(s0)
C:/Users/nandg/Desktop/FE310-G003/sifive_hifive1_revb_sifive_welcome/freedom-metal/src/drivers/sifive_uart0.c:69

    UART_REGW(METAL_SIFIVE_UART0_IE) &= ~UART_RXWM;
20015f18:	fec42783          	lw	a5,-20(s0)
20015f1c:	07c1                	addi	a5,a5,16
20015f1e:	439c                	lw	a5,0(a5)
20015f20:	fec42703          	lw	a4,-20(s0)
20015f24:	0741                	addi	a4,a4,16
20015f26:	9bf5                	andi	a5,a5,-3
20015f28:	c31c                	sw	a5,0(a4)
C:/Users/nandg/Desktop/FE310-G003/sifive_hifive1_revb_sifive_welcome/freedom-metal/src/drivers/sifive_uart0.c:70
    return 0;
20015f2a:	4781                	li	a5,0
C:/Users/nandg/Desktop/FE310-G003/sifive_hifive1_revb_sifive_welcome/freedom-metal/src/drivers/sifive_uart0.c:71
}
20015f2c:	853e                	mv	a0,a5
20015f2e:	50b2                	lw	ra,44(sp)
20015f30:	5422                	lw	s0,40(sp)
20015f32:	6145                	addi	sp,sp,48
20015f34:	8082                	ret

20015f36 <__metal_driver_sifive_uart0_txready>:
__metal_driver_sifive_uart0_txready():
C:/Users/nandg/Desktop/FE310-G003/sifive_hifive1_revb_sifive_welcome/freedom-metal/src/drivers/sifive_uart0.c:73

int __metal_driver_sifive_uart0_txready(struct metal_uart *uart) {
20015f36:	7179                	addi	sp,sp,-48
20015f38:	d606                	sw	ra,44(sp)
20015f3a:	d422                	sw	s0,40(sp)
20015f3c:	1800                	addi	s0,sp,48
20015f3e:	fca42e23          	sw	a0,-36(s0)
C:/Users/nandg/Desktop/FE310-G003/sifive_hifive1_revb_sifive_welcome/freedom-metal/src/drivers/sifive_uart0.c:74
    long control_base = __metal_driver_sifive_uart0_control_base(uart);
20015f42:	fdc42503          	lw	a0,-36(s0)
20015f46:	d07ff0ef          	jal	ra,20015c4c <__metal_driver_sifive_uart0_control_base>
20015f4a:	87aa                	mv	a5,a0
20015f4c:	fef42623          	sw	a5,-20(s0)
C:/Users/nandg/Desktop/FE310-G003/sifive_hifive1_revb_sifive_welcome/freedom-metal/src/drivers/sifive_uart0.c:76

    return !!((UART_REGW(METAL_SIFIVE_UART0_TXDATA) & UART_TXFULL));
20015f50:	fec42783          	lw	a5,-20(s0)
20015f54:	439c                	lw	a5,0(a5)
20015f56:	83fd                	srli	a5,a5,0x1f
20015f58:	0ff7f793          	zext.b	a5,a5
C:/Users/nandg/Desktop/FE310-G003/sifive_hifive1_revb_sifive_welcome/freedom-metal/src/drivers/sifive_uart0.c:77
}
20015f5c:	853e                	mv	a0,a5
20015f5e:	50b2                	lw	ra,44(sp)
20015f60:	5422                	lw	s0,40(sp)
20015f62:	6145                	addi	sp,sp,48
20015f64:	8082                	ret

20015f66 <__metal_driver_sifive_uart0_set_tx_watermark>:
__metal_driver_sifive_uart0_set_tx_watermark():
C:/Users/nandg/Desktop/FE310-G003/sifive_hifive1_revb_sifive_welcome/freedom-metal/src/drivers/sifive_uart0.c:80

int __metal_driver_sifive_uart0_set_tx_watermark(struct metal_uart *uart,
                                                 size_t level) {
20015f66:	7179                	addi	sp,sp,-48
20015f68:	d606                	sw	ra,44(sp)
20015f6a:	d422                	sw	s0,40(sp)
20015f6c:	1800                	addi	s0,sp,48
20015f6e:	fca42e23          	sw	a0,-36(s0)
20015f72:	fcb42c23          	sw	a1,-40(s0)
C:/Users/nandg/Desktop/FE310-G003/sifive_hifive1_revb_sifive_welcome/freedom-metal/src/drivers/sifive_uart0.c:81
    long control_base = __metal_driver_sifive_uart0_control_base(uart);
20015f76:	fdc42503          	lw	a0,-36(s0)
20015f7a:	cd3ff0ef          	jal	ra,20015c4c <__metal_driver_sifive_uart0_control_base>
20015f7e:	87aa                	mv	a5,a0
20015f80:	fef42623          	sw	a5,-20(s0)
C:/Users/nandg/Desktop/FE310-G003/sifive_hifive1_revb_sifive_welcome/freedom-metal/src/drivers/sifive_uart0.c:83

    UART_REGW(METAL_SIFIVE_UART0_TXCTRL) |= UART_TXCNT(level);
20015f84:	fec42783          	lw	a5,-20(s0)
20015f88:	07a1                	addi	a5,a5,8
20015f8a:	4398                	lw	a4,0(a5)
20015f8c:	fd842783          	lw	a5,-40(s0)
20015f90:	01079693          	slli	a3,a5,0x10
20015f94:	000707b7          	lui	a5,0x70
20015f98:	8ff5                	and	a5,a5,a3
20015f9a:	fec42683          	lw	a3,-20(s0)
20015f9e:	06a1                	addi	a3,a3,8
20015fa0:	8fd9                	or	a5,a5,a4
20015fa2:	c29c                	sw	a5,0(a3)
C:/Users/nandg/Desktop/FE310-G003/sifive_hifive1_revb_sifive_welcome/freedom-metal/src/drivers/sifive_uart0.c:84
    return 0;
20015fa4:	4781                	li	a5,0
C:/Users/nandg/Desktop/FE310-G003/sifive_hifive1_revb_sifive_welcome/freedom-metal/src/drivers/sifive_uart0.c:85
}
20015fa6:	853e                	mv	a0,a5
20015fa8:	50b2                	lw	ra,44(sp)
20015faa:	5422                	lw	s0,40(sp)
20015fac:	6145                	addi	sp,sp,48
20015fae:	8082                	ret

20015fb0 <__metal_driver_sifive_uart0_get_tx_watermark>:
__metal_driver_sifive_uart0_get_tx_watermark():
C:/Users/nandg/Desktop/FE310-G003/sifive_hifive1_revb_sifive_welcome/freedom-metal/src/drivers/sifive_uart0.c:87

size_t __metal_driver_sifive_uart0_get_tx_watermark(struct metal_uart *uart) {
20015fb0:	7179                	addi	sp,sp,-48
20015fb2:	d606                	sw	ra,44(sp)
20015fb4:	d422                	sw	s0,40(sp)
20015fb6:	1800                	addi	s0,sp,48
20015fb8:	fca42e23          	sw	a0,-36(s0)
C:/Users/nandg/Desktop/FE310-G003/sifive_hifive1_revb_sifive_welcome/freedom-metal/src/drivers/sifive_uart0.c:88
    long control_base = __metal_driver_sifive_uart0_control_base(uart);
20015fbc:	fdc42503          	lw	a0,-36(s0)
20015fc0:	c8dff0ef          	jal	ra,20015c4c <__metal_driver_sifive_uart0_control_base>
20015fc4:	87aa                	mv	a5,a0
20015fc6:	fef42623          	sw	a5,-20(s0)
C:/Users/nandg/Desktop/FE310-G003/sifive_hifive1_revb_sifive_welcome/freedom-metal/src/drivers/sifive_uart0.c:90

    return ((UART_REGW(METAL_SIFIVE_UART0_TXCTRL) >> 16) & 0x7);
20015fca:	fec42783          	lw	a5,-20(s0)
20015fce:	07a1                	addi	a5,a5,8
20015fd0:	439c                	lw	a5,0(a5)
20015fd2:	83c1                	srli	a5,a5,0x10
20015fd4:	8b9d                	andi	a5,a5,7
C:/Users/nandg/Desktop/FE310-G003/sifive_hifive1_revb_sifive_welcome/freedom-metal/src/drivers/sifive_uart0.c:91
}
20015fd6:	853e                	mv	a0,a5
20015fd8:	50b2                	lw	ra,44(sp)
20015fda:	5422                	lw	s0,40(sp)
20015fdc:	6145                	addi	sp,sp,48
20015fde:	8082                	ret

20015fe0 <__metal_driver_sifive_uart0_set_rx_watermark>:
__metal_driver_sifive_uart0_set_rx_watermark():
C:/Users/nandg/Desktop/FE310-G003/sifive_hifive1_revb_sifive_welcome/freedom-metal/src/drivers/sifive_uart0.c:94

int __metal_driver_sifive_uart0_set_rx_watermark(struct metal_uart *uart,
                                                 size_t level) {
20015fe0:	7179                	addi	sp,sp,-48
20015fe2:	d606                	sw	ra,44(sp)
20015fe4:	d422                	sw	s0,40(sp)
20015fe6:	1800                	addi	s0,sp,48
20015fe8:	fca42e23          	sw	a0,-36(s0)
20015fec:	fcb42c23          	sw	a1,-40(s0)
C:/Users/nandg/Desktop/FE310-G003/sifive_hifive1_revb_sifive_welcome/freedom-metal/src/drivers/sifive_uart0.c:95
    long control_base = __metal_driver_sifive_uart0_control_base(uart);
20015ff0:	fdc42503          	lw	a0,-36(s0)
20015ff4:	c59ff0ef          	jal	ra,20015c4c <__metal_driver_sifive_uart0_control_base>
20015ff8:	87aa                	mv	a5,a0
20015ffa:	fef42623          	sw	a5,-20(s0)
C:/Users/nandg/Desktop/FE310-G003/sifive_hifive1_revb_sifive_welcome/freedom-metal/src/drivers/sifive_uart0.c:97

    UART_REGW(METAL_SIFIVE_UART0_RXCTRL) |= UART_RXCNT(level);
20015ffe:	fec42783          	lw	a5,-20(s0)
20016002:	07b1                	addi	a5,a5,12
20016004:	4398                	lw	a4,0(a5)
20016006:	fd842783          	lw	a5,-40(s0)
2001600a:	01079693          	slli	a3,a5,0x10
2001600e:	000707b7          	lui	a5,0x70
20016012:	8ff5                	and	a5,a5,a3
20016014:	fec42683          	lw	a3,-20(s0)
20016018:	06b1                	addi	a3,a3,12
2001601a:	8fd9                	or	a5,a5,a4
2001601c:	c29c                	sw	a5,0(a3)
C:/Users/nandg/Desktop/FE310-G003/sifive_hifive1_revb_sifive_welcome/freedom-metal/src/drivers/sifive_uart0.c:98
    return 0;
2001601e:	4781                	li	a5,0
C:/Users/nandg/Desktop/FE310-G003/sifive_hifive1_revb_sifive_welcome/freedom-metal/src/drivers/sifive_uart0.c:99
}
20016020:	853e                	mv	a0,a5
20016022:	50b2                	lw	ra,44(sp)
20016024:	5422                	lw	s0,40(sp)
20016026:	6145                	addi	sp,sp,48
20016028:	8082                	ret

2001602a <__metal_driver_sifive_uart0_get_rx_watermark>:
__metal_driver_sifive_uart0_get_rx_watermark():
C:/Users/nandg/Desktop/FE310-G003/sifive_hifive1_revb_sifive_welcome/freedom-metal/src/drivers/sifive_uart0.c:101

size_t __metal_driver_sifive_uart0_get_rx_watermark(struct metal_uart *uart) {
2001602a:	7179                	addi	sp,sp,-48
2001602c:	d606                	sw	ra,44(sp)
2001602e:	d422                	sw	s0,40(sp)
20016030:	1800                	addi	s0,sp,48
20016032:	fca42e23          	sw	a0,-36(s0)
C:/Users/nandg/Desktop/FE310-G003/sifive_hifive1_revb_sifive_welcome/freedom-metal/src/drivers/sifive_uart0.c:102
    long control_base = __metal_driver_sifive_uart0_control_base(uart);
20016036:	fdc42503          	lw	a0,-36(s0)
2001603a:	c13ff0ef          	jal	ra,20015c4c <__metal_driver_sifive_uart0_control_base>
2001603e:	87aa                	mv	a5,a0
20016040:	fef42623          	sw	a5,-20(s0)
C:/Users/nandg/Desktop/FE310-G003/sifive_hifive1_revb_sifive_welcome/freedom-metal/src/drivers/sifive_uart0.c:104

    return ((UART_REGW(METAL_SIFIVE_UART0_RXCTRL) >> 16) & 0x7);
20016044:	fec42783          	lw	a5,-20(s0)
20016048:	07b1                	addi	a5,a5,12
2001604a:	439c                	lw	a5,0(a5)
2001604c:	83c1                	srli	a5,a5,0x10
2001604e:	8b9d                	andi	a5,a5,7
C:/Users/nandg/Desktop/FE310-G003/sifive_hifive1_revb_sifive_welcome/freedom-metal/src/drivers/sifive_uart0.c:105
}
20016050:	853e                	mv	a0,a5
20016052:	50b2                	lw	ra,44(sp)
20016054:	5422                	lw	s0,40(sp)
20016056:	6145                	addi	sp,sp,48
20016058:	8082                	ret

2001605a <__metal_driver_sifive_uart0_putc>:
__metal_driver_sifive_uart0_putc():
C:/Users/nandg/Desktop/FE310-G003/sifive_hifive1_revb_sifive_welcome/freedom-metal/src/drivers/sifive_uart0.c:107

int __metal_driver_sifive_uart0_putc(struct metal_uart *uart, int c) {
2001605a:	7179                	addi	sp,sp,-48
2001605c:	d606                	sw	ra,44(sp)
2001605e:	d422                	sw	s0,40(sp)
20016060:	1800                	addi	s0,sp,48
20016062:	fca42e23          	sw	a0,-36(s0)
20016066:	fcb42c23          	sw	a1,-40(s0)
C:/Users/nandg/Desktop/FE310-G003/sifive_hifive1_revb_sifive_welcome/freedom-metal/src/drivers/sifive_uart0.c:108
    long control_base = __metal_driver_sifive_uart0_control_base(uart);
2001606a:	fdc42503          	lw	a0,-36(s0)
2001606e:	bdfff0ef          	jal	ra,20015c4c <__metal_driver_sifive_uart0_control_base>
20016072:	87aa                	mv	a5,a0
20016074:	fef42623          	sw	a5,-20(s0)
C:/Users/nandg/Desktop/FE310-G003/sifive_hifive1_revb_sifive_welcome/freedom-metal/src/drivers/sifive_uart0.c:110

    while (__metal_driver_sifive_uart0_txready(uart) != 0) {
20016078:	0001                	nop
C:/Users/nandg/Desktop/FE310-G003/sifive_hifive1_revb_sifive_welcome/freedom-metal/src/drivers/sifive_uart0.c:110 (discriminator 1)
2001607a:	fdc42503          	lw	a0,-36(s0)
2001607e:	3d65                	jal	20015f36 <__metal_driver_sifive_uart0_txready>
20016080:	87aa                	mv	a5,a0
20016082:	ffe5                	bnez	a5,2001607a <__metal_driver_sifive_uart0_putc+0x20>
C:/Users/nandg/Desktop/FE310-G003/sifive_hifive1_revb_sifive_welcome/freedom-metal/src/drivers/sifive_uart0.c:113
        /* wait */
    }
    UART_REGW(METAL_SIFIVE_UART0_TXDATA) = c;
20016084:	fec42783          	lw	a5,-20(s0)
20016088:	fd842703          	lw	a4,-40(s0)
2001608c:	c398                	sw	a4,0(a5)
C:/Users/nandg/Desktop/FE310-G003/sifive_hifive1_revb_sifive_welcome/freedom-metal/src/drivers/sifive_uart0.c:114
    return 0;
2001608e:	4781                	li	a5,0
C:/Users/nandg/Desktop/FE310-G003/sifive_hifive1_revb_sifive_welcome/freedom-metal/src/drivers/sifive_uart0.c:115
}
20016090:	853e                	mv	a0,a5
20016092:	50b2                	lw	ra,44(sp)
20016094:	5422                	lw	s0,40(sp)
20016096:	6145                	addi	sp,sp,48
20016098:	8082                	ret

2001609a <__metal_driver_sifive_uart0_getc>:
__metal_driver_sifive_uart0_getc():
C:/Users/nandg/Desktop/FE310-G003/sifive_hifive1_revb_sifive_welcome/freedom-metal/src/drivers/sifive_uart0.c:117

int __metal_driver_sifive_uart0_getc(struct metal_uart *uart, int *c) {
2001609a:	7179                	addi	sp,sp,-48
2001609c:	d606                	sw	ra,44(sp)
2001609e:	d422                	sw	s0,40(sp)
200160a0:	1800                	addi	s0,sp,48
200160a2:	fca42e23          	sw	a0,-36(s0)
200160a6:	fcb42c23          	sw	a1,-40(s0)
C:/Users/nandg/Desktop/FE310-G003/sifive_hifive1_revb_sifive_welcome/freedom-metal/src/drivers/sifive_uart0.c:119
    uint32_t ch;
    long control_base = __metal_driver_sifive_uart0_control_base(uart);
200160aa:	fdc42503          	lw	a0,-36(s0)
200160ae:	b9fff0ef          	jal	ra,20015c4c <__metal_driver_sifive_uart0_control_base>
200160b2:	87aa                	mv	a5,a0
200160b4:	fef42623          	sw	a5,-20(s0)
C:/Users/nandg/Desktop/FE310-G003/sifive_hifive1_revb_sifive_welcome/freedom-metal/src/drivers/sifive_uart0.c:121
    /* No seperate status register, we get status and the byte at same time */
    ch = UART_REGW(METAL_SIFIVE_UART0_RXDATA);
200160b8:	fec42783          	lw	a5,-20(s0)
200160bc:	0791                	addi	a5,a5,4
200160be:	439c                	lw	a5,0(a5)
200160c0:	fef42423          	sw	a5,-24(s0)
C:/Users/nandg/Desktop/FE310-G003/sifive_hifive1_revb_sifive_welcome/freedom-metal/src/drivers/sifive_uart0.c:123
    ;
    if (ch & UART_RXEMPTY) {
200160c4:	fe842783          	lw	a5,-24(s0)
200160c8:	0007d763          	bgez	a5,200160d6 <__metal_driver_sifive_uart0_getc+0x3c>
C:/Users/nandg/Desktop/FE310-G003/sifive_hifive1_revb_sifive_welcome/freedom-metal/src/drivers/sifive_uart0.c:124
        *c = -1; /* aka: EOF in most of the world */
200160cc:	fd842783          	lw	a5,-40(s0)
200160d0:	577d                	li	a4,-1
200160d2:	c398                	sw	a4,0(a5)
200160d4:	a801                	j	200160e4 <__metal_driver_sifive_uart0_getc+0x4a>
C:/Users/nandg/Desktop/FE310-G003/sifive_hifive1_revb_sifive_welcome/freedom-metal/src/drivers/sifive_uart0.c:126
    } else {
        *c = ch & 0x0ff;
200160d6:	fe842783          	lw	a5,-24(s0)
200160da:	0ff7f713          	zext.b	a4,a5
200160de:	fd842783          	lw	a5,-40(s0)
200160e2:	c398                	sw	a4,0(a5)
C:/Users/nandg/Desktop/FE310-G003/sifive_hifive1_revb_sifive_welcome/freedom-metal/src/drivers/sifive_uart0.c:128
    }
    return 0;
200160e4:	4781                	li	a5,0
C:/Users/nandg/Desktop/FE310-G003/sifive_hifive1_revb_sifive_welcome/freedom-metal/src/drivers/sifive_uart0.c:129
}
200160e6:	853e                	mv	a0,a5
200160e8:	50b2                	lw	ra,44(sp)
200160ea:	5422                	lw	s0,40(sp)
200160ec:	6145                	addi	sp,sp,48
200160ee:	8082                	ret

200160f0 <__metal_driver_sifive_uart0_get_baud_rate>:
__metal_driver_sifive_uart0_get_baud_rate():
C:/Users/nandg/Desktop/FE310-G003/sifive_hifive1_revb_sifive_welcome/freedom-metal/src/drivers/sifive_uart0.c:131

int __metal_driver_sifive_uart0_get_baud_rate(struct metal_uart *guart) {
200160f0:	7179                	addi	sp,sp,-48
200160f2:	d622                	sw	s0,44(sp)
200160f4:	1800                	addi	s0,sp,48
200160f6:	fca42e23          	sw	a0,-36(s0)
C:/Users/nandg/Desktop/FE310-G003/sifive_hifive1_revb_sifive_welcome/freedom-metal/src/drivers/sifive_uart0.c:132
    struct __metal_driver_sifive_uart0 *uart = (void *)guart;
200160fa:	fdc42783          	lw	a5,-36(s0)
200160fe:	fef42623          	sw	a5,-20(s0)
C:/Users/nandg/Desktop/FE310-G003/sifive_hifive1_revb_sifive_welcome/freedom-metal/src/drivers/sifive_uart0.c:133
    return uart->baud_rate;
20016102:	fec42783          	lw	a5,-20(s0)
20016106:	43dc                	lw	a5,4(a5)
C:/Users/nandg/Desktop/FE310-G003/sifive_hifive1_revb_sifive_welcome/freedom-metal/src/drivers/sifive_uart0.c:134
}
20016108:	853e                	mv	a0,a5
2001610a:	5432                	lw	s0,44(sp)
2001610c:	6145                	addi	sp,sp,48
2001610e:	8082                	ret

20016110 <__metal_driver_sifive_uart0_set_baud_rate>:
__metal_driver_sifive_uart0_set_baud_rate():
C:/Users/nandg/Desktop/FE310-G003/sifive_hifive1_revb_sifive_welcome/freedom-metal/src/drivers/sifive_uart0.c:137

int __metal_driver_sifive_uart0_set_baud_rate(struct metal_uart *guart,
                                              int baud_rate) {
20016110:	7179                	addi	sp,sp,-48
20016112:	d606                	sw	ra,44(sp)
20016114:	d422                	sw	s0,40(sp)
20016116:	1800                	addi	s0,sp,48
20016118:	fca42e23          	sw	a0,-36(s0)
2001611c:	fcb42c23          	sw	a1,-40(s0)
C:/Users/nandg/Desktop/FE310-G003/sifive_hifive1_revb_sifive_welcome/freedom-metal/src/drivers/sifive_uart0.c:138
    struct __metal_driver_sifive_uart0 *uart = (void *)guart;
20016120:	fdc42783          	lw	a5,-36(s0)
20016124:	fef42623          	sw	a5,-20(s0)
C:/Users/nandg/Desktop/FE310-G003/sifive_hifive1_revb_sifive_welcome/freedom-metal/src/drivers/sifive_uart0.c:139
    long control_base = __metal_driver_sifive_uart0_control_base(guart);
20016128:	fdc42503          	lw	a0,-36(s0)
2001612c:	b21ff0ef          	jal	ra,20015c4c <__metal_driver_sifive_uart0_control_base>
20016130:	87aa                	mv	a5,a0
20016132:	fef42423          	sw	a5,-24(s0)
C:/Users/nandg/Desktop/FE310-G003/sifive_hifive1_revb_sifive_welcome/freedom-metal/src/drivers/sifive_uart0.c:140
    struct metal_clock *clock = __metal_driver_sifive_uart0_clock(guart);
20016136:	fdc42503          	lw	a0,-36(s0)
2001613a:	bd7ff0ef          	jal	ra,20015d10 <__metal_driver_sifive_uart0_clock>
2001613e:	fea42223          	sw	a0,-28(s0)
C:/Users/nandg/Desktop/FE310-G003/sifive_hifive1_revb_sifive_welcome/freedom-metal/src/drivers/sifive_uart0.c:142

    uart->baud_rate = baud_rate;
20016142:	fd842703          	lw	a4,-40(s0)
20016146:	fec42783          	lw	a5,-20(s0)
2001614a:	c3d8                	sw	a4,4(a5)
C:/Users/nandg/Desktop/FE310-G003/sifive_hifive1_revb_sifive_welcome/freedom-metal/src/drivers/sifive_uart0.c:144

    if (clock != NULL) {
2001614c:	fe442783          	lw	a5,-28(s0)
20016150:	cbb1                	beqz	a5,200161a4 <__metal_driver_sifive_uart0_set_baud_rate+0x94>
C:/Users/nandg/Desktop/FE310-G003/sifive_hifive1_revb_sifive_welcome/freedom-metal/src/drivers/sifive_uart0.c:145
        long clock_rate = clock->vtable->get_rate_hz(clock);
20016152:	fe442783          	lw	a5,-28(s0)
20016156:	439c                	lw	a5,0(a5)
20016158:	439c                	lw	a5,0(a5)
2001615a:	fe442503          	lw	a0,-28(s0)
2001615e:	9782                	jalr	a5
20016160:	fea42023          	sw	a0,-32(s0)
C:/Users/nandg/Desktop/FE310-G003/sifive_hifive1_revb_sifive_welcome/freedom-metal/src/drivers/sifive_uart0.c:146
        UART_REGW(METAL_SIFIVE_UART0_DIV) = clock_rate / baud_rate - 1;
20016164:	fe042703          	lw	a4,-32(s0)
20016168:	fd842783          	lw	a5,-40(s0)
2001616c:	02f747b3          	div	a5,a4,a5
20016170:	fff78713          	addi	a4,a5,-1 # 6ffff <__heap_size+0x6f7ff>
20016174:	fe842783          	lw	a5,-24(s0)
20016178:	07e1                	addi	a5,a5,24
2001617a:	c398                	sw	a4,0(a5)
C:/Users/nandg/Desktop/FE310-G003/sifive_hifive1_revb_sifive_welcome/freedom-metal/src/drivers/sifive_uart0.c:147
        UART_REGW(METAL_SIFIVE_UART0_TXCTRL) |= UART_TXEN;
2001617c:	fe842783          	lw	a5,-24(s0)
20016180:	07a1                	addi	a5,a5,8
20016182:	439c                	lw	a5,0(a5)
20016184:	fe842703          	lw	a4,-24(s0)
20016188:	0721                	addi	a4,a4,8
2001618a:	0017e793          	ori	a5,a5,1
2001618e:	c31c                	sw	a5,0(a4)
C:/Users/nandg/Desktop/FE310-G003/sifive_hifive1_revb_sifive_welcome/freedom-metal/src/drivers/sifive_uart0.c:148
        UART_REGW(METAL_SIFIVE_UART0_RXCTRL) |= UART_RXEN;
20016190:	fe842783          	lw	a5,-24(s0)
20016194:	07b1                	addi	a5,a5,12
20016196:	439c                	lw	a5,0(a5)
20016198:	fe842703          	lw	a4,-24(s0)
2001619c:	0731                	addi	a4,a4,12
2001619e:	0017e793          	ori	a5,a5,1
200161a2:	c31c                	sw	a5,0(a4)
C:/Users/nandg/Desktop/FE310-G003/sifive_hifive1_revb_sifive_welcome/freedom-metal/src/drivers/sifive_uart0.c:150
    }
    return 0;
200161a4:	4781                	li	a5,0
C:/Users/nandg/Desktop/FE310-G003/sifive_hifive1_revb_sifive_welcome/freedom-metal/src/drivers/sifive_uart0.c:151
}
200161a6:	853e                	mv	a0,a5
200161a8:	50b2                	lw	ra,44(sp)
200161aa:	5422                	lw	s0,40(sp)
200161ac:	6145                	addi	sp,sp,48
200161ae:	8082                	ret

200161b0 <pre_rate_change_callback_func>:
pre_rate_change_callback_func():
C:/Users/nandg/Desktop/FE310-G003/sifive_hifive1_revb_sifive_welcome/freedom-metal/src/drivers/sifive_uart0.c:153

static void pre_rate_change_callback_func(void *priv) {
200161b0:	7139                	addi	sp,sp,-64
200161b2:	de06                	sw	ra,60(sp)
200161b4:	dc22                	sw	s0,56(sp)
200161b6:	0080                	addi	s0,sp,64
200161b8:	fca42623          	sw	a0,-52(s0)
C:/Users/nandg/Desktop/FE310-G003/sifive_hifive1_revb_sifive_welcome/freedom-metal/src/drivers/sifive_uart0.c:154
    struct __metal_driver_sifive_uart0 *uart = priv;
200161bc:	fcc42783          	lw	a5,-52(s0)
200161c0:	fef42623          	sw	a5,-20(s0)
C:/Users/nandg/Desktop/FE310-G003/sifive_hifive1_revb_sifive_welcome/freedom-metal/src/drivers/sifive_uart0.c:156
    long control_base =
        __metal_driver_sifive_uart0_control_base((struct metal_uart *)priv);
200161c4:	fcc42503          	lw	a0,-52(s0)
200161c8:	a85ff0ef          	jal	ra,20015c4c <__metal_driver_sifive_uart0_control_base>
200161cc:	87aa                	mv	a5,a0
C:/Users/nandg/Desktop/FE310-G003/sifive_hifive1_revb_sifive_welcome/freedom-metal/src/drivers/sifive_uart0.c:155
    long control_base =
200161ce:	fef42423          	sw	a5,-24(s0)
C:/Users/nandg/Desktop/FE310-G003/sifive_hifive1_revb_sifive_welcome/freedom-metal/src/drivers/sifive_uart0.c:158
    struct metal_clock *clock =
        __metal_driver_sifive_uart0_clock((struct metal_uart *)priv);
200161d2:	fcc42503          	lw	a0,-52(s0)
200161d6:	b3bff0ef          	jal	ra,20015d10 <__metal_driver_sifive_uart0_clock>
200161da:	fea42223          	sw	a0,-28(s0)
C:/Users/nandg/Desktop/FE310-G003/sifive_hifive1_revb_sifive_welcome/freedom-metal/src/drivers/sifive_uart0.c:163

    /* Detect when the TXDATA is empty by setting the transmit watermark count
     * to one and waiting until an interrupt is pending */

    UART_REGW(METAL_SIFIVE_UART0_TXCTRL) &= ~(UART_TXCNT(0x7));
200161de:	fe842783          	lw	a5,-24(s0)
200161e2:	07a1                	addi	a5,a5,8
200161e4:	4398                	lw	a4,0(a5)
200161e6:	fe842783          	lw	a5,-24(s0)
200161ea:	07a1                	addi	a5,a5,8
200161ec:	86be                	mv	a3,a5
200161ee:	fff907b7          	lui	a5,0xfff90
200161f2:	17fd                	addi	a5,a5,-1
200161f4:	8ff9                	and	a5,a5,a4
200161f6:	c29c                	sw	a5,0(a3)
C:/Users/nandg/Desktop/FE310-G003/sifive_hifive1_revb_sifive_welcome/freedom-metal/src/drivers/sifive_uart0.c:164
    UART_REGW(METAL_SIFIVE_UART0_TXCTRL) |= UART_TXCNT(1);
200161f8:	fe842783          	lw	a5,-24(s0)
200161fc:	07a1                	addi	a5,a5,8
200161fe:	4398                	lw	a4,0(a5)
20016200:	fe842783          	lw	a5,-24(s0)
20016204:	07a1                	addi	a5,a5,8
20016206:	86be                	mv	a3,a5
20016208:	67c1                	lui	a5,0x10
2001620a:	8fd9                	or	a5,a5,a4
2001620c:	c29c                	sw	a5,0(a3)
C:/Users/nandg/Desktop/FE310-G003/sifive_hifive1_revb_sifive_welcome/freedom-metal/src/drivers/sifive_uart0.c:166

    while ((UART_REGW(METAL_SIFIVE_UART0_IP) & UART_TXWM) == 0)
2001620e:	0001                	nop
C:/Users/nandg/Desktop/FE310-G003/sifive_hifive1_revb_sifive_welcome/freedom-metal/src/drivers/sifive_uart0.c:166 (discriminator 1)
20016210:	fe842783          	lw	a5,-24(s0)
20016214:	07d1                	addi	a5,a5,20
20016216:	439c                	lw	a5,0(a5)
20016218:	8b85                	andi	a5,a5,1
2001621a:	dbfd                	beqz	a5,20016210 <pre_rate_change_callback_func+0x60>
C:/Users/nandg/Desktop/FE310-G003/sifive_hifive1_revb_sifive_welcome/freedom-metal/src/drivers/sifive_uart0.c:174
    /* When the TXDATA clears, the UART is still shifting out the last byte.
     * Calculate the time we must drain to finish transmitting and then wait
     * that long. */

    long bits_per_symbol =
        (UART_REGW(METAL_SIFIVE_UART0_TXCTRL) & (1 << 1)) ? 9 : 10;
2001621c:	fe842783          	lw	a5,-24(s0)
20016220:	07a1                	addi	a5,a5,8
20016222:	439c                	lw	a5,0(a5)
20016224:	8b89                	andi	a5,a5,2
20016226:	c399                	beqz	a5,2001622c <pre_rate_change_callback_func+0x7c>
C:/Users/nandg/Desktop/FE310-G003/sifive_hifive1_revb_sifive_welcome/freedom-metal/src/drivers/sifive_uart0.c:174 (discriminator 1)
20016228:	47a5                	li	a5,9
2001622a:	a011                	j	2001622e <pre_rate_change_callback_func+0x7e>
C:/Users/nandg/Desktop/FE310-G003/sifive_hifive1_revb_sifive_welcome/freedom-metal/src/drivers/sifive_uart0.c:174 (discriminator 2)
2001622c:	47a9                	li	a5,10
C:/Users/nandg/Desktop/FE310-G003/sifive_hifive1_revb_sifive_welcome/freedom-metal/src/drivers/sifive_uart0.c:173
    long bits_per_symbol =
2001622e:	fef42023          	sw	a5,-32(s0)
C:/Users/nandg/Desktop/FE310-G003/sifive_hifive1_revb_sifive_welcome/freedom-metal/src/drivers/sifive_uart0.c:175
    long clk_freq = clock->vtable->get_rate_hz(clock);
20016232:	fe442783          	lw	a5,-28(s0)
20016236:	439c                	lw	a5,0(a5)
20016238:	439c                	lw	a5,0(a5)
2001623a:	fe442503          	lw	a0,-28(s0)
2001623e:	9782                	jalr	a5
20016240:	fca42e23          	sw	a0,-36(s0)
C:/Users/nandg/Desktop/FE310-G003/sifive_hifive1_revb_sifive_welcome/freedom-metal/src/drivers/sifive_uart0.c:176
    long cycles_to_wait = bits_per_symbol * clk_freq / uart->baud_rate;
20016244:	fe042703          	lw	a4,-32(s0)
20016248:	fdc42783          	lw	a5,-36(s0)
2001624c:	02f707b3          	mul	a5,a4,a5
20016250:	873e                	mv	a4,a5
20016252:	fec42783          	lw	a5,-20(s0)
20016256:	43dc                	lw	a5,4(a5)
20016258:	02f757b3          	divu	a5,a4,a5
2001625c:	fcf42c23          	sw	a5,-40(s0)
C:/Users/nandg/Desktop/FE310-G003/sifive_hifive1_revb_sifive_welcome/freedom-metal/src/drivers/sifive_uart0.c:178

    for (volatile long x = 0; x < cycles_to_wait; x++)
20016260:	fc042a23          	sw	zero,-44(s0)
20016264:	a039                	j	20016272 <pre_rate_change_callback_func+0xc2>
C:/Users/nandg/Desktop/FE310-G003/sifive_hifive1_revb_sifive_welcome/freedom-metal/src/drivers/sifive_uart0.c:179 (discriminator 3)
        __asm__("nop");
20016266:	0001                	nop
C:/Users/nandg/Desktop/FE310-G003/sifive_hifive1_revb_sifive_welcome/freedom-metal/src/drivers/sifive_uart0.c:178 (discriminator 3)
    for (volatile long x = 0; x < cycles_to_wait; x++)
20016268:	fd442783          	lw	a5,-44(s0)
2001626c:	0785                	addi	a5,a5,1
2001626e:	fcf42a23          	sw	a5,-44(s0)
C:/Users/nandg/Desktop/FE310-G003/sifive_hifive1_revb_sifive_welcome/freedom-metal/src/drivers/sifive_uart0.c:178 (discriminator 1)
20016272:	fd442783          	lw	a5,-44(s0)
20016276:	fd842703          	lw	a4,-40(s0)
2001627a:	fee7c6e3          	blt	a5,a4,20016266 <pre_rate_change_callback_func+0xb6>
C:/Users/nandg/Desktop/FE310-G003/sifive_hifive1_revb_sifive_welcome/freedom-metal/src/drivers/sifive_uart0.c:180
}
2001627e:	0001                	nop
20016280:	0001                	nop
20016282:	50f2                	lw	ra,60(sp)
20016284:	5462                	lw	s0,56(sp)
20016286:	6121                	addi	sp,sp,64
20016288:	8082                	ret

2001628a <post_rate_change_callback_func>:
post_rate_change_callback_func():
C:/Users/nandg/Desktop/FE310-G003/sifive_hifive1_revb_sifive_welcome/freedom-metal/src/drivers/sifive_uart0.c:182

static void post_rate_change_callback_func(void *priv) {
2001628a:	7179                	addi	sp,sp,-48
2001628c:	d606                	sw	ra,44(sp)
2001628e:	d422                	sw	s0,40(sp)
20016290:	1800                	addi	s0,sp,48
20016292:	fca42e23          	sw	a0,-36(s0)
C:/Users/nandg/Desktop/FE310-G003/sifive_hifive1_revb_sifive_welcome/freedom-metal/src/drivers/sifive_uart0.c:183
    struct __metal_driver_sifive_uart0 *uart = priv;
20016296:	fdc42783          	lw	a5,-36(s0)
2001629a:	fef42623          	sw	a5,-20(s0)
C:/Users/nandg/Desktop/FE310-G003/sifive_hifive1_revb_sifive_welcome/freedom-metal/src/drivers/sifive_uart0.c:184
    metal_uart_set_baud_rate(&uart->uart, uart->baud_rate);
2001629e:	fec42703          	lw	a4,-20(s0)
200162a2:	fec42783          	lw	a5,-20(s0)
200162a6:	43dc                	lw	a5,4(a5)
200162a8:	85be                	mv	a1,a5
200162aa:	853a                	mv	a0,a4
200162ac:	26b5                	jal	20016618 <metal_uart_set_baud_rate>
C:/Users/nandg/Desktop/FE310-G003/sifive_hifive1_revb_sifive_welcome/freedom-metal/src/drivers/sifive_uart0.c:185
}
200162ae:	0001                	nop
200162b0:	50b2                	lw	ra,44(sp)
200162b2:	5422                	lw	s0,40(sp)
200162b4:	6145                	addi	sp,sp,48
200162b6:	8082                	ret

200162b8 <__metal_driver_sifive_uart0_init>:
__metal_driver_sifive_uart0_init():
C:/Users/nandg/Desktop/FE310-G003/sifive_hifive1_revb_sifive_welcome/freedom-metal/src/drivers/sifive_uart0.c:187

void __metal_driver_sifive_uart0_init(struct metal_uart *guart, int baud_rate) {
200162b8:	7139                	addi	sp,sp,-64
200162ba:	de06                	sw	ra,60(sp)
200162bc:	dc22                	sw	s0,56(sp)
200162be:	0080                	addi	s0,sp,64
200162c0:	fca42623          	sw	a0,-52(s0)
200162c4:	fcb42423          	sw	a1,-56(s0)
C:/Users/nandg/Desktop/FE310-G003/sifive_hifive1_revb_sifive_welcome/freedom-metal/src/drivers/sifive_uart0.c:188
    struct __metal_driver_sifive_uart0 *uart = (void *)(guart);
200162c8:	fcc42783          	lw	a5,-52(s0)
200162cc:	fef42623          	sw	a5,-20(s0)
C:/Users/nandg/Desktop/FE310-G003/sifive_hifive1_revb_sifive_welcome/freedom-metal/src/drivers/sifive_uart0.c:189
    struct metal_clock *clock = __metal_driver_sifive_uart0_clock(guart);
200162d0:	fcc42503          	lw	a0,-52(s0)
200162d4:	a3dff0ef          	jal	ra,20015d10 <__metal_driver_sifive_uart0_clock>
200162d8:	fea42423          	sw	a0,-24(s0)
C:/Users/nandg/Desktop/FE310-G003/sifive_hifive1_revb_sifive_welcome/freedom-metal/src/drivers/sifive_uart0.c:191
    struct __metal_driver_sifive_gpio0 *pinmux =
        __metal_driver_sifive_uart0_pinmux(guart);
200162dc:	fcc42503          	lw	a0,-52(s0)
200162e0:	a79ff0ef          	jal	ra,20015d58 <__metal_driver_sifive_uart0_pinmux>
200162e4:	fea42223          	sw	a0,-28(s0)
C:/Users/nandg/Desktop/FE310-G003/sifive_hifive1_revb_sifive_welcome/freedom-metal/src/drivers/sifive_uart0.c:193

    if (clock != NULL) {
200162e8:	fe842783          	lw	a5,-24(s0)
200162ec:	c7b9                	beqz	a5,2001633a <__metal_driver_sifive_uart0_init+0x82>
C:/Users/nandg/Desktop/FE310-G003/sifive_hifive1_revb_sifive_welcome/freedom-metal/src/drivers/sifive_uart0.c:194
        uart->pre_rate_change_callback.callback =
200162ee:	fec42783          	lw	a5,-20(s0)
200162f2:	20016737          	lui	a4,0x20016
200162f6:	1b070713          	addi	a4,a4,432 # 200161b0 <pre_rate_change_callback_func>
200162fa:	c798                	sw	a4,8(a5)
C:/Users/nandg/Desktop/FE310-G003/sifive_hifive1_revb_sifive_welcome/freedom-metal/src/drivers/sifive_uart0.c:196
            &pre_rate_change_callback_func;
        uart->pre_rate_change_callback.priv = guart;
200162fc:	fec42783          	lw	a5,-20(s0)
20016300:	fcc42703          	lw	a4,-52(s0)
20016304:	c7d8                	sw	a4,12(a5)
C:/Users/nandg/Desktop/FE310-G003/sifive_hifive1_revb_sifive_welcome/freedom-metal/src/drivers/sifive_uart0.c:197
        metal_clock_register_pre_rate_change_callback(
20016306:	fec42783          	lw	a5,-20(s0)
2001630a:	07a1                	addi	a5,a5,8
2001630c:	85be                	mv	a1,a5
2001630e:	fe842503          	lw	a0,-24(s0)
20016312:	2aad                	jal	2001648c <metal_clock_register_pre_rate_change_callback>
C:/Users/nandg/Desktop/FE310-G003/sifive_hifive1_revb_sifive_welcome/freedom-metal/src/drivers/sifive_uart0.c:200
            clock, &(uart->pre_rate_change_callback));

        uart->post_rate_change_callback.callback =
20016314:	fec42783          	lw	a5,-20(s0)
20016318:	20016737          	lui	a4,0x20016
2001631c:	28a70713          	addi	a4,a4,650 # 2001628a <post_rate_change_callback_func>
20016320:	cbd8                	sw	a4,20(a5)
C:/Users/nandg/Desktop/FE310-G003/sifive_hifive1_revb_sifive_welcome/freedom-metal/src/drivers/sifive_uart0.c:202
            &post_rate_change_callback_func;
        uart->post_rate_change_callback.priv = guart;
20016322:	fec42783          	lw	a5,-20(s0)
20016326:	fcc42703          	lw	a4,-52(s0)
2001632a:	cf98                	sw	a4,24(a5)
C:/Users/nandg/Desktop/FE310-G003/sifive_hifive1_revb_sifive_welcome/freedom-metal/src/drivers/sifive_uart0.c:203
        metal_clock_register_post_rate_change_callback(
2001632c:	fec42783          	lw	a5,-20(s0)
20016330:	07d1                	addi	a5,a5,20
20016332:	85be                	mv	a1,a5
20016334:	fe842503          	lw	a0,-24(s0)
20016338:	2251                	jal	200164bc <metal_clock_register_post_rate_change_callback>
C:/Users/nandg/Desktop/FE310-G003/sifive_hifive1_revb_sifive_welcome/freedom-metal/src/drivers/sifive_uart0.c:207
            clock, &(uart->post_rate_change_callback));
    }

    metal_uart_set_baud_rate(&(uart->uart), baud_rate);
2001633a:	fec42783          	lw	a5,-20(s0)
2001633e:	fc842583          	lw	a1,-56(s0)
20016342:	853e                	mv	a0,a5
20016344:	2cd1                	jal	20016618 <metal_uart_set_baud_rate>
C:/Users/nandg/Desktop/FE310-G003/sifive_hifive1_revb_sifive_welcome/freedom-metal/src/drivers/sifive_uart0.c:209

    if (pinmux != NULL) {
20016346:	fe442783          	lw	a5,-28(s0)
2001634a:	cb95                	beqz	a5,2001637e <__metal_driver_sifive_uart0_init+0xc6>
C:/Users/nandg/Desktop/FE310-G003/sifive_hifive1_revb_sifive_welcome/freedom-metal/src/drivers/sifive_uart0.c:211
        long pinmux_output_selector =
            __metal_driver_sifive_uart0_pinmux_output_selector(guart);
2001634c:	fcc42503          	lw	a0,-52(s0)
20016350:	a49ff0ef          	jal	ra,20015d98 <__metal_driver_sifive_uart0_pinmux_output_selector>
20016354:	87aa                	mv	a5,a0
C:/Users/nandg/Desktop/FE310-G003/sifive_hifive1_revb_sifive_welcome/freedom-metal/src/drivers/sifive_uart0.c:210
        long pinmux_output_selector =
20016356:	fef42023          	sw	a5,-32(s0)
C:/Users/nandg/Desktop/FE310-G003/sifive_hifive1_revb_sifive_welcome/freedom-metal/src/drivers/sifive_uart0.c:213
        long pinmux_source_selector =
            __metal_driver_sifive_uart0_pinmux_source_selector(guart);
2001635a:	fcc42503          	lw	a0,-52(s0)
2001635e:	a77ff0ef          	jal	ra,20015dd4 <__metal_driver_sifive_uart0_pinmux_source_selector>
20016362:	87aa                	mv	a5,a0
C:/Users/nandg/Desktop/FE310-G003/sifive_hifive1_revb_sifive_welcome/freedom-metal/src/drivers/sifive_uart0.c:212
        long pinmux_source_selector =
20016364:	fcf42e23          	sw	a5,-36(s0)
C:/Users/nandg/Desktop/FE310-G003/sifive_hifive1_revb_sifive_welcome/freedom-metal/src/drivers/sifive_uart0.c:214
        pinmux->gpio.vtable->enable_io((struct metal_gpio *)pinmux,
20016368:	fe442783          	lw	a5,-28(s0)
2001636c:	439c                	lw	a5,0(a5)
2001636e:	53dc                	lw	a5,36(a5)
20016370:	fdc42603          	lw	a2,-36(s0)
20016374:	fe042583          	lw	a1,-32(s0)
20016378:	fe442503          	lw	a0,-28(s0)
2001637c:	9782                	jalr	a5
C:/Users/nandg/Desktop/FE310-G003/sifive_hifive1_revb_sifive_welcome/freedom-metal/src/drivers/sifive_uart0.c:218
                                       pinmux_output_selector,
                                       pinmux_source_selector);
    }
}
2001637e:	0001                	nop
20016380:	50f2                	lw	ra,60(sp)
20016382:	5462                	lw	s0,56(sp)
20016384:	6121                	addi	sp,sp,64
20016386:	8082                	ret

20016388 <_metal_clock_call_all_callbacks>:
_metal_clock_call_all_callbacks():
C:/Users/nandg/Desktop/FE310-G003/sifive_hifive1_revb_sifive_welcome/freedom-metal/metal/clock.h:50

/*!
 * @brief Call all callbacks in the linked list, if any are registered
 */
__inline__ void
_metal_clock_call_all_callbacks(const metal_clock_callback *const list) {
20016388:	7179                	addi	sp,sp,-48
2001638a:	d606                	sw	ra,44(sp)
2001638c:	d422                	sw	s0,40(sp)
2001638e:	1800                	addi	s0,sp,48
20016390:	fca42e23          	sw	a0,-36(s0)
C:/Users/nandg/Desktop/FE310-G003/sifive_hifive1_revb_sifive_welcome/freedom-metal/metal/clock.h:51
    const metal_clock_callback *current = list;
20016394:	fdc42783          	lw	a5,-36(s0)
20016398:	fef42623          	sw	a5,-20(s0)
C:/Users/nandg/Desktop/FE310-G003/sifive_hifive1_revb_sifive_welcome/freedom-metal/metal/clock.h:52
    while (current) {
2001639c:	a831                	j	200163b8 <_metal_clock_call_all_callbacks+0x30>
C:/Users/nandg/Desktop/FE310-G003/sifive_hifive1_revb_sifive_welcome/freedom-metal/metal/clock.h:53
        current->callback(current->priv);
2001639e:	fec42783          	lw	a5,-20(s0)
200163a2:	4398                	lw	a4,0(a5)
200163a4:	fec42783          	lw	a5,-20(s0)
200163a8:	43dc                	lw	a5,4(a5)
200163aa:	853e                	mv	a0,a5
200163ac:	9702                	jalr	a4
C:/Users/nandg/Desktop/FE310-G003/sifive_hifive1_revb_sifive_welcome/freedom-metal/metal/clock.h:54
        current = current->_next;
200163ae:	fec42783          	lw	a5,-20(s0)
200163b2:	479c                	lw	a5,8(a5)
200163b4:	fef42623          	sw	a5,-20(s0)
C:/Users/nandg/Desktop/FE310-G003/sifive_hifive1_revb_sifive_welcome/freedom-metal/metal/clock.h:52
    while (current) {
200163b8:	fec42783          	lw	a5,-20(s0)
200163bc:	f3ed                	bnez	a5,2001639e <_metal_clock_call_all_callbacks+0x16>
C:/Users/nandg/Desktop/FE310-G003/sifive_hifive1_revb_sifive_welcome/freedom-metal/metal/clock.h:56
    }
}
200163be:	0001                	nop
200163c0:	0001                	nop
200163c2:	50b2                	lw	ra,44(sp)
200163c4:	5422                	lw	s0,40(sp)
200163c6:	6145                	addi	sp,sp,48
200163c8:	8082                	ret

200163ca <_metal_clock_append_to_callbacks>:
_metal_clock_append_to_callbacks():
C:/Users/nandg/Desktop/FE310-G003/sifive_hifive1_revb_sifive_welcome/freedom-metal/metal/clock.h:63
/*!
 * @brief Append a callback to the linked list and return the head of the list
 */
__inline__ metal_clock_callback *
_metal_clock_append_to_callbacks(metal_clock_callback *list,
                                 metal_clock_callback *const cb) {
200163ca:	7179                	addi	sp,sp,-48
200163cc:	d622                	sw	s0,44(sp)
200163ce:	1800                	addi	s0,sp,48
200163d0:	fca42e23          	sw	a0,-36(s0)
200163d4:	fcb42c23          	sw	a1,-40(s0)
C:/Users/nandg/Desktop/FE310-G003/sifive_hifive1_revb_sifive_welcome/freedom-metal/metal/clock.h:64
    cb->_next = NULL;
200163d8:	fd842783          	lw	a5,-40(s0)
200163dc:	0007a423          	sw	zero,8(a5) # 10008 <__heap_size+0xf808>
C:/Users/nandg/Desktop/FE310-G003/sifive_hifive1_revb_sifive_welcome/freedom-metal/metal/clock.h:66

    if (!list) {
200163e0:	fdc42783          	lw	a5,-36(s0)
200163e4:	e781                	bnez	a5,200163ec <_metal_clock_append_to_callbacks+0x22>
C:/Users/nandg/Desktop/FE310-G003/sifive_hifive1_revb_sifive_welcome/freedom-metal/metal/clock.h:67
        return cb;
200163e6:	fd842783          	lw	a5,-40(s0)
200163ea:	a035                	j	20016416 <_metal_clock_append_to_callbacks+0x4c>
C:/Users/nandg/Desktop/FE310-G003/sifive_hifive1_revb_sifive_welcome/freedom-metal/metal/clock.h:70
    }

    metal_clock_callback *current = list;
200163ec:	fdc42783          	lw	a5,-36(s0)
200163f0:	fef42623          	sw	a5,-20(s0)
C:/Users/nandg/Desktop/FE310-G003/sifive_hifive1_revb_sifive_welcome/freedom-metal/metal/clock.h:72

    while ((current->_next) != NULL) {
200163f4:	a031                	j	20016400 <_metal_clock_append_to_callbacks+0x36>
C:/Users/nandg/Desktop/FE310-G003/sifive_hifive1_revb_sifive_welcome/freedom-metal/metal/clock.h:73
        current = current->_next;
200163f6:	fec42783          	lw	a5,-20(s0)
200163fa:	479c                	lw	a5,8(a5)
200163fc:	fef42623          	sw	a5,-20(s0)
C:/Users/nandg/Desktop/FE310-G003/sifive_hifive1_revb_sifive_welcome/freedom-metal/metal/clock.h:72
    while ((current->_next) != NULL) {
20016400:	fec42783          	lw	a5,-20(s0)
20016404:	479c                	lw	a5,8(a5)
20016406:	fbe5                	bnez	a5,200163f6 <_metal_clock_append_to_callbacks+0x2c>
C:/Users/nandg/Desktop/FE310-G003/sifive_hifive1_revb_sifive_welcome/freedom-metal/metal/clock.h:76
    }

    current->_next = cb;
20016408:	fec42783          	lw	a5,-20(s0)
2001640c:	fd842703          	lw	a4,-40(s0)
20016410:	c798                	sw	a4,8(a5)
C:/Users/nandg/Desktop/FE310-G003/sifive_hifive1_revb_sifive_welcome/freedom-metal/metal/clock.h:78

    return list;
20016412:	fdc42783          	lw	a5,-36(s0)
C:/Users/nandg/Desktop/FE310-G003/sifive_hifive1_revb_sifive_welcome/freedom-metal/metal/clock.h:79
}
20016416:	853e                	mv	a0,a5
20016418:	5432                	lw	s0,44(sp)
2001641a:	6145                	addi	sp,sp,48
2001641c:	8082                	ret

2001641e <metal_clock_get_rate_hz>:
metal_clock_get_rate_hz():
C:/Users/nandg/Desktop/FE310-G003/sifive_hifive1_revb_sifive_welcome/freedom-metal/metal/clock.h:110
 * @brief Returns the current rate of the given clock
 *
 * @param clk The handle for the clock
 * @return The current rate of the clock in Hz
 */
__inline__ long metal_clock_get_rate_hz(const struct metal_clock *clk) {
2001641e:	1101                	addi	sp,sp,-32
20016420:	ce06                	sw	ra,28(sp)
20016422:	cc22                	sw	s0,24(sp)
20016424:	1000                	addi	s0,sp,32
20016426:	fea42623          	sw	a0,-20(s0)
C:/Users/nandg/Desktop/FE310-G003/sifive_hifive1_revb_sifive_welcome/freedom-metal/metal/clock.h:111
    return clk->vtable->get_rate_hz(clk);
2001642a:	fec42783          	lw	a5,-20(s0)
2001642e:	439c                	lw	a5,0(a5)
20016430:	439c                	lw	a5,0(a5)
20016432:	fec42503          	lw	a0,-20(s0)
20016436:	9782                	jalr	a5
20016438:	87aa                	mv	a5,a0
C:/Users/nandg/Desktop/FE310-G003/sifive_hifive1_revb_sifive_welcome/freedom-metal/metal/clock.h:112
}
2001643a:	853e                	mv	a0,a5
2001643c:	40f2                	lw	ra,28(sp)
2001643e:	4462                	lw	s0,24(sp)
20016440:	6105                	addi	sp,sp,32
20016442:	8082                	ret

20016444 <metal_clock_set_rate_hz>:
metal_clock_set_rate_hz():
C:/Users/nandg/Desktop/FE310-G003/sifive_hifive1_revb_sifive_welcome/freedom-metal/metal/clock.h:128
 * could be anything!
 *
 * Prior to and after the rate change of the clock, this will call the
 * registered pre- and post-rate change callbacks.
 */
__inline__ long metal_clock_set_rate_hz(struct metal_clock *clk, long hz) {
20016444:	7179                	addi	sp,sp,-48
20016446:	d606                	sw	ra,44(sp)
20016448:	d422                	sw	s0,40(sp)
2001644a:	1800                	addi	s0,sp,48
2001644c:	fca42e23          	sw	a0,-36(s0)
20016450:	fcb42c23          	sw	a1,-40(s0)
C:/Users/nandg/Desktop/FE310-G003/sifive_hifive1_revb_sifive_welcome/freedom-metal/metal/clock.h:129
    _metal_clock_call_all_callbacks(clk->_pre_rate_change_callback);
20016454:	fdc42783          	lw	a5,-36(s0)
20016458:	43dc                	lw	a5,4(a5)
2001645a:	853e                	mv	a0,a5
2001645c:	3735                	jal	20016388 <_metal_clock_call_all_callbacks>
C:/Users/nandg/Desktop/FE310-G003/sifive_hifive1_revb_sifive_welcome/freedom-metal/metal/clock.h:131

    long out = clk->vtable->set_rate_hz(clk, hz);
2001645e:	fdc42783          	lw	a5,-36(s0)
20016462:	439c                	lw	a5,0(a5)
20016464:	43dc                	lw	a5,4(a5)
20016466:	fd842583          	lw	a1,-40(s0)
2001646a:	fdc42503          	lw	a0,-36(s0)
2001646e:	9782                	jalr	a5
20016470:	fea42623          	sw	a0,-20(s0)
C:/Users/nandg/Desktop/FE310-G003/sifive_hifive1_revb_sifive_welcome/freedom-metal/metal/clock.h:133

    _metal_clock_call_all_callbacks(clk->_post_rate_change_callback);
20016474:	fdc42783          	lw	a5,-36(s0)
20016478:	479c                	lw	a5,8(a5)
2001647a:	853e                	mv	a0,a5
2001647c:	3731                	jal	20016388 <_metal_clock_call_all_callbacks>
C:/Users/nandg/Desktop/FE310-G003/sifive_hifive1_revb_sifive_welcome/freedom-metal/metal/clock.h:135

    return out;
2001647e:	fec42783          	lw	a5,-20(s0)
C:/Users/nandg/Desktop/FE310-G003/sifive_hifive1_revb_sifive_welcome/freedom-metal/metal/clock.h:136
}
20016482:	853e                	mv	a0,a5
20016484:	50b2                	lw	ra,44(sp)
20016486:	5422                	lw	s0,40(sp)
20016488:	6145                	addi	sp,sp,48
2001648a:	8082                	ret

2001648c <metal_clock_register_pre_rate_change_callback>:
metal_clock_register_pre_rate_change_callback():
C:/Users/nandg/Desktop/FE310-G003/sifive_hifive1_revb_sifive_welcome/freedom-metal/metal/clock.h:146
 * @param clk The handle for the clock
 * @param cb The callback to be registered
 */
__inline__ void
metal_clock_register_pre_rate_change_callback(struct metal_clock *clk,
                                              metal_clock_callback *cb) {
2001648c:	1101                	addi	sp,sp,-32
2001648e:	ce06                	sw	ra,28(sp)
20016490:	cc22                	sw	s0,24(sp)
20016492:	1000                	addi	s0,sp,32
20016494:	fea42623          	sw	a0,-20(s0)
20016498:	feb42423          	sw	a1,-24(s0)
C:/Users/nandg/Desktop/FE310-G003/sifive_hifive1_revb_sifive_welcome/freedom-metal/metal/clock.h:148
    clk->_pre_rate_change_callback =
        _metal_clock_append_to_callbacks(clk->_pre_rate_change_callback, cb);
2001649c:	fec42783          	lw	a5,-20(s0)
200164a0:	43dc                	lw	a5,4(a5)
200164a2:	fe842583          	lw	a1,-24(s0)
200164a6:	853e                	mv	a0,a5
200164a8:	370d                	jal	200163ca <_metal_clock_append_to_callbacks>
200164aa:	872a                	mv	a4,a0
C:/Users/nandg/Desktop/FE310-G003/sifive_hifive1_revb_sifive_welcome/freedom-metal/metal/clock.h:147
    clk->_pre_rate_change_callback =
200164ac:	fec42783          	lw	a5,-20(s0)
200164b0:	c3d8                	sw	a4,4(a5)
C:/Users/nandg/Desktop/FE310-G003/sifive_hifive1_revb_sifive_welcome/freedom-metal/metal/clock.h:149
}
200164b2:	0001                	nop
200164b4:	40f2                	lw	ra,28(sp)
200164b6:	4462                	lw	s0,24(sp)
200164b8:	6105                	addi	sp,sp,32
200164ba:	8082                	ret

200164bc <metal_clock_register_post_rate_change_callback>:
metal_clock_register_post_rate_change_callback():
C:/Users/nandg/Desktop/FE310-G003/sifive_hifive1_revb_sifive_welcome/freedom-metal/metal/clock.h:159
 * @param clk The handle for the clock
 * @param cb The callback to be registered
 */
__inline__ void
metal_clock_register_post_rate_change_callback(struct metal_clock *clk,
                                               metal_clock_callback *cb) {
200164bc:	1101                	addi	sp,sp,-32
200164be:	ce06                	sw	ra,28(sp)
200164c0:	cc22                	sw	s0,24(sp)
200164c2:	1000                	addi	s0,sp,32
200164c4:	fea42623          	sw	a0,-20(s0)
200164c8:	feb42423          	sw	a1,-24(s0)
C:/Users/nandg/Desktop/FE310-G003/sifive_hifive1_revb_sifive_welcome/freedom-metal/metal/clock.h:161
    clk->_post_rate_change_callback =
        _metal_clock_append_to_callbacks(clk->_post_rate_change_callback, cb);
200164cc:	fec42783          	lw	a5,-20(s0)
200164d0:	479c                	lw	a5,8(a5)
200164d2:	fe842583          	lw	a1,-24(s0)
200164d6:	853e                	mv	a0,a5
200164d8:	ef3ff0ef          	jal	ra,200163ca <_metal_clock_append_to_callbacks>
200164dc:	872a                	mv	a4,a0
C:/Users/nandg/Desktop/FE310-G003/sifive_hifive1_revb_sifive_welcome/freedom-metal/metal/clock.h:160
    clk->_post_rate_change_callback =
200164de:	fec42783          	lw	a5,-20(s0)
200164e2:	c798                	sw	a4,8(a5)
C:/Users/nandg/Desktop/FE310-G003/sifive_hifive1_revb_sifive_welcome/freedom-metal/metal/clock.h:162
}
200164e4:	0001                	nop
200164e6:	40f2                	lw	ra,28(sp)
200164e8:	4462                	lw	s0,24(sp)
200164ea:	6105                	addi	sp,sp,32
200164ec:	8082                	ret

200164ee <metal_cpu_get_timer>:
metal_cpu_get_timer():
C:/Users/nandg/Desktop/FE310-G003/sifive_hifive1_revb_sifive_welcome/freedom-metal/metal/cpu.h:73
 * Get the value of the cycle count timer for a given CPU
 *
 * @param cpu The CPU device handle
 * @return The value of the CPU cycle count timer
 */
__inline__ unsigned long long metal_cpu_get_timer(struct metal_cpu *cpu) {
200164ee:	1101                	addi	sp,sp,-32
200164f0:	ce06                	sw	ra,28(sp)
200164f2:	cc22                	sw	s0,24(sp)
200164f4:	1000                	addi	s0,sp,32
200164f6:	fea42623          	sw	a0,-20(s0)
C:/Users/nandg/Desktop/FE310-G003/sifive_hifive1_revb_sifive_welcome/freedom-metal/metal/cpu.h:74
    return cpu->vtable->mcycle_get(cpu);
200164fa:	fec42783          	lw	a5,-20(s0)
200164fe:	439c                	lw	a5,0(a5)
20016500:	439c                	lw	a5,0(a5)
20016502:	fec42503          	lw	a0,-20(s0)
20016506:	9782                	jalr	a5
20016508:	872a                	mv	a4,a0
2001650a:	87ae                	mv	a5,a1
C:/Users/nandg/Desktop/FE310-G003/sifive_hifive1_revb_sifive_welcome/freedom-metal/metal/cpu.h:75
}
2001650c:	853a                	mv	a0,a4
2001650e:	85be                	mv	a1,a5
20016510:	40f2                	lw	ra,28(sp)
20016512:	4462                	lw	s0,24(sp)
20016514:	6105                	addi	sp,sp,32
20016516:	8082                	ret

20016518 <metal_cpu_get_timebase>:
metal_cpu_get_timebase():
C:/Users/nandg/Desktop/FE310-G003/sifive_hifive1_revb_sifive_welcome/freedom-metal/metal/cpu.h:84
 * Get the value of the timebase of the cycle count timer
 *
 * @param cpu The CPU device handle
 * @return The value of the cycle count timer timebase
 */
__inline__ unsigned long long metal_cpu_get_timebase(struct metal_cpu *cpu) {
20016518:	1101                	addi	sp,sp,-32
2001651a:	ce06                	sw	ra,28(sp)
2001651c:	cc22                	sw	s0,24(sp)
2001651e:	1000                	addi	s0,sp,32
20016520:	fea42623          	sw	a0,-20(s0)
C:/Users/nandg/Desktop/FE310-G003/sifive_hifive1_revb_sifive_welcome/freedom-metal/metal/cpu.h:85
    return cpu->vtable->timebase_get(cpu);
20016524:	fec42783          	lw	a5,-20(s0)
20016528:	439c                	lw	a5,0(a5)
2001652a:	43dc                	lw	a5,4(a5)
2001652c:	fec42503          	lw	a0,-20(s0)
20016530:	9782                	jalr	a5
20016532:	872a                	mv	a4,a0
20016534:	87ae                	mv	a5,a1
C:/Users/nandg/Desktop/FE310-G003/sifive_hifive1_revb_sifive_welcome/freedom-metal/metal/cpu.h:86
}
20016536:	853a                	mv	a0,a4
20016538:	85be                	mv	a1,a5
2001653a:	40f2                	lw	ra,28(sp)
2001653c:	4462                	lw	s0,24(sp)
2001653e:	6105                	addi	sp,sp,32
20016540:	8082                	ret

20016542 <metal_cpu_interrupt_controller>:
metal_cpu_interrupt_controller():
C:/Users/nandg/Desktop/FE310-G003/sifive_hifive1_revb_sifive_welcome/freedom-metal/metal/cpu.h:224
 *
 * @param cpu The CPU device handle
 * @return The handle for the CPU interrupt controller
 */
__inline__ struct metal_interrupt *
metal_cpu_interrupt_controller(struct metal_cpu *cpu) {
20016542:	1101                	addi	sp,sp,-32
20016544:	ce06                	sw	ra,28(sp)
20016546:	cc22                	sw	s0,24(sp)
20016548:	1000                	addi	s0,sp,32
2001654a:	fea42623          	sw	a0,-20(s0)
C:/Users/nandg/Desktop/FE310-G003/sifive_hifive1_revb_sifive_welcome/freedom-metal/metal/cpu.h:225
    return cpu->vtable->controller_interrupt(cpu);
2001654e:	fec42783          	lw	a5,-20(s0)
20016552:	439c                	lw	a5,0(a5)
20016554:	57dc                	lw	a5,44(a5)
20016556:	fec42503          	lw	a0,-20(s0)
2001655a:	9782                	jalr	a5
2001655c:	87aa                	mv	a5,a0
C:/Users/nandg/Desktop/FE310-G003/sifive_hifive1_revb_sifive_welcome/freedom-metal/metal/cpu.h:226
}
2001655e:	853e                	mv	a0,a5
20016560:	40f2                	lw	ra,28(sp)
20016562:	4462                	lw	s0,24(sp)
20016564:	6105                	addi	sp,sp,32
20016566:	8082                	ret

20016568 <metal_cpu_get>:
metal_cpu_get():
C:/Users/nandg/Desktop/FE310-G003/sifive_hifive1_revb_sifive_welcome/freedom-metal/src/cpu.c:7
/* SPDX-License-Identifier: Apache-2.0 */

#include <metal/cpu.h>
#include <metal/machine.h>

struct metal_cpu *metal_cpu_get(unsigned int hartid) {
20016568:	1101                	addi	sp,sp,-32
2001656a:	ce22                	sw	s0,28(sp)
2001656c:	1000                	addi	s0,sp,32
2001656e:	fea42623          	sw	a0,-20(s0)
C:/Users/nandg/Desktop/FE310-G003/sifive_hifive1_revb_sifive_welcome/freedom-metal/src/cpu.c:8
    if (hartid < __METAL_DT_MAX_HARTS) {
20016572:	fec42783          	lw	a5,-20(s0)
20016576:	eb99                	bnez	a5,2001658c <metal_cpu_get+0x24>
C:/Users/nandg/Desktop/FE310-G003/sifive_hifive1_revb_sifive_welcome/freedom-metal/src/cpu.c:9
        return (struct metal_cpu *)__metal_cpu_table[hartid];
20016578:	800017b7          	lui	a5,0x80001
2001657c:	fec42703          	lw	a4,-20(s0)
20016580:	070a                	slli	a4,a4,0x2
20016582:	aa478793          	addi	a5,a5,-1372 # 80000aa4 <metal_segment_heap_target_end+0xfffff334>
20016586:	97ba                	add	a5,a5,a4
20016588:	439c                	lw	a5,0(a5)
2001658a:	a011                	j	2001658e <metal_cpu_get+0x26>
C:/Users/nandg/Desktop/FE310-G003/sifive_hifive1_revb_sifive_welcome/freedom-metal/src/cpu.c:11
    }
    return NULL;
2001658c:	4781                	li	a5,0
C:/Users/nandg/Desktop/FE310-G003/sifive_hifive1_revb_sifive_welcome/freedom-metal/src/cpu.c:12
}
2001658e:	853e                	mv	a0,a5
20016590:	4472                	lw	s0,28(sp)
20016592:	6105                	addi	sp,sp,32
20016594:	8082                	ret

20016596 <metal_cpu_get_current_hartid>:
metal_cpu_get_current_hartid():
C:/Users/nandg/Desktop/FE310-G003/sifive_hifive1_revb_sifive_welcome/freedom-metal/src/cpu.c:14

int metal_cpu_get_current_hartid() {
20016596:	1101                	addi	sp,sp,-32
20016598:	ce22                	sw	s0,28(sp)
2001659a:	1000                	addi	s0,sp,32
C:/Users/nandg/Desktop/FE310-G003/sifive_hifive1_revb_sifive_welcome/freedom-metal/src/cpu.c:17
#ifdef __riscv
    int mhartid;
    __asm__ volatile("csrr %0, mhartid" : "=r"(mhartid));
2001659c:	f14027f3          	csrr	a5,mhartid
200165a0:	fef42623          	sw	a5,-20(s0)
C:/Users/nandg/Desktop/FE310-G003/sifive_hifive1_revb_sifive_welcome/freedom-metal/src/cpu.c:18
    return mhartid;
200165a4:	fec42783          	lw	a5,-20(s0)
C:/Users/nandg/Desktop/FE310-G003/sifive_hifive1_revb_sifive_welcome/freedom-metal/src/cpu.c:20
#endif
}
200165a8:	853e                	mv	a0,a5
200165aa:	4472                	lw	s0,28(sp)
200165ac:	6105                	addi	sp,sp,32
200165ae:	8082                	ret

200165b0 <metal_shutdown>:
metal_shutdown():
C:/Users/nandg/Desktop/FE310-G003/sifive_hifive1_revb_sifive_welcome/freedom-metal/src/shutdown.c:17
    __metal_shutdown_exit(__METAL_DT_SHUTDOWN_HANDLE, code);
}
#else
#pragma message(                                                               \
    "There is no defined shutdown mechanism, metal_shutdown() will spin.")
void metal_shutdown(int code) {
200165b0:	1101                	addi	sp,sp,-32
200165b2:	ce22                	sw	s0,28(sp)
200165b4:	1000                	addi	s0,sp,32
200165b6:	fea42623          	sw	a0,-20(s0)
C:/Users/nandg/Desktop/FE310-G003/sifive_hifive1_revb_sifive_welcome/freedom-metal/src/shutdown.c:19 (discriminator 1)
    while (1) {
        __asm__ volatile("nop");
200165ba:	0001                	nop
200165bc:	bffd                	j	200165ba <metal_shutdown+0xa>

200165be <metal_uart_init>:
metal_uart_init():
C:/Users/nandg/Desktop/FE310-G003/sifive_hifive1_revb_sifive_welcome/freedom-metal/metal/uart.h:59
 more than once.
 *
 * @param uart The UART device handle
 * @param baud_rate the baud rate to set the UART to
 */
__inline__ void metal_uart_init(struct metal_uart *uart, int baud_rate) {
200165be:	1101                	addi	sp,sp,-32
200165c0:	ce06                	sw	ra,28(sp)
200165c2:	cc22                	sw	s0,24(sp)
200165c4:	1000                	addi	s0,sp,32
200165c6:	fea42623          	sw	a0,-20(s0)
200165ca:	feb42423          	sw	a1,-24(s0)
C:/Users/nandg/Desktop/FE310-G003/sifive_hifive1_revb_sifive_welcome/freedom-metal/metal/uart.h:60
    uart->vtable->init(uart, baud_rate);
200165ce:	fec42783          	lw	a5,-20(s0)
200165d2:	439c                	lw	a5,0(a5)
200165d4:	439c                	lw	a5,0(a5)
200165d6:	fe842583          	lw	a1,-24(s0)
200165da:	fec42503          	lw	a0,-20(s0)
200165de:	9782                	jalr	a5
C:/Users/nandg/Desktop/FE310-G003/sifive_hifive1_revb_sifive_welcome/freedom-metal/metal/uart.h:61
}
200165e0:	0001                	nop
200165e2:	40f2                	lw	ra,28(sp)
200165e4:	4462                	lw	s0,24(sp)
200165e6:	6105                	addi	sp,sp,32
200165e8:	8082                	ret

200165ea <metal_uart_putc>:
metal_uart_putc():
C:/Users/nandg/Desktop/FE310-G003/sifive_hifive1_revb_sifive_welcome/freedom-metal/metal/uart.h:69
 * @brief Output a character over the UART
 * @param uart The UART device handle
 * @param c The character to send over the UART
 * @return 0 upon success
 */
__inline__ int metal_uart_putc(struct metal_uart *uart, int c) {
200165ea:	1101                	addi	sp,sp,-32
200165ec:	ce06                	sw	ra,28(sp)
200165ee:	cc22                	sw	s0,24(sp)
200165f0:	1000                	addi	s0,sp,32
200165f2:	fea42623          	sw	a0,-20(s0)
200165f6:	feb42423          	sw	a1,-24(s0)
C:/Users/nandg/Desktop/FE310-G003/sifive_hifive1_revb_sifive_welcome/freedom-metal/metal/uart.h:70
    return uart->vtable->putc(uart, c);
200165fa:	fec42783          	lw	a5,-20(s0)
200165fe:	439c                	lw	a5,0(a5)
20016600:	43dc                	lw	a5,4(a5)
20016602:	fe842583          	lw	a1,-24(s0)
20016606:	fec42503          	lw	a0,-20(s0)
2001660a:	9782                	jalr	a5
2001660c:	87aa                	mv	a5,a0
C:/Users/nandg/Desktop/FE310-G003/sifive_hifive1_revb_sifive_welcome/freedom-metal/metal/uart.h:71
}
2001660e:	853e                	mv	a0,a5
20016610:	40f2                	lw	ra,28(sp)
20016612:	4462                	lw	s0,24(sp)
20016614:	6105                	addi	sp,sp,32
20016616:	8082                	ret

20016618 <metal_uart_set_baud_rate>:
metal_uart_set_baud_rate():
C:/Users/nandg/Desktop/FE310-G003/sifive_hifive1_revb_sifive_welcome/freedom-metal/metal/uart.h:111
 * @param uart The UART device handle
 * @param baud_rate The baud rate to configure
 * @return the new baud rate of the UART
 */
__inline__ int metal_uart_set_baud_rate(struct metal_uart *uart,
                                        int baud_rate) {
20016618:	1101                	addi	sp,sp,-32
2001661a:	ce06                	sw	ra,28(sp)
2001661c:	cc22                	sw	s0,24(sp)
2001661e:	1000                	addi	s0,sp,32
20016620:	fea42623          	sw	a0,-20(s0)
20016624:	feb42423          	sw	a1,-24(s0)
C:/Users/nandg/Desktop/FE310-G003/sifive_hifive1_revb_sifive_welcome/freedom-metal/metal/uart.h:112
    return uart->vtable->set_baud_rate(uart, baud_rate);
20016628:	fec42783          	lw	a5,-20(s0)
2001662c:	439c                	lw	a5,0(a5)
2001662e:	4bdc                	lw	a5,20(a5)
20016630:	fe842583          	lw	a1,-24(s0)
20016634:	fec42503          	lw	a0,-20(s0)
20016638:	9782                	jalr	a5
2001663a:	87aa                	mv	a5,a0
C:/Users/nandg/Desktop/FE310-G003/sifive_hifive1_revb_sifive_welcome/freedom-metal/metal/uart.h:113
}
2001663c:	853e                	mv	a0,a5
2001663e:	40f2                	lw	ra,28(sp)
20016640:	4462                	lw	s0,24(sp)
20016642:	6105                	addi	sp,sp,32
20016644:	8082                	ret
	...

20016680 <__metal_vector_table>:
IRQ_0():
C:/Users/nandg/Desktop/FE310-G003/sifive_hifive1_revb_sifive_welcome/freedom-metal/src/vector.S:96
#endif
.option norvc
.global __metal_vector_table
__metal_vector_table:
IRQ_0:
        j metal_interrupt_vector_handler
20016680:	960fc06f          	j	200127e0 <metal_interrupt_vector_handler>

20016684 <IRQ_1>:
IRQ_1():
C:/Users/nandg/Desktop/FE310-G003/sifive_hifive1_revb_sifive_welcome/freedom-metal/src/vector.S:98
IRQ_1:
        j metal_interrupt_vector_handler
20016684:	95cfc06f          	j	200127e0 <metal_interrupt_vector_handler>

20016688 <IRQ_2>:
IRQ_2():
C:/Users/nandg/Desktop/FE310-G003/sifive_hifive1_revb_sifive_welcome/freedom-metal/src/vector.S:100
IRQ_2:
        j metal_interrupt_vector_handler
20016688:	958fc06f          	j	200127e0 <metal_interrupt_vector_handler>

2001668c <IRQ_3>:
IRQ_3():
C:/Users/nandg/Desktop/FE310-G003/sifive_hifive1_revb_sifive_welcome/freedom-metal/src/vector.S:102
IRQ_3:
        j metal_software_interrupt_vector_handler
2001668c:	982fc06f          	j	2001280e <metal_software_interrupt_vector_handler>

20016690 <IRQ_4>:
IRQ_4():
C:/Users/nandg/Desktop/FE310-G003/sifive_hifive1_revb_sifive_welcome/freedom-metal/src/vector.S:104
IRQ_4:
        j metal_interrupt_vector_handler
20016690:	950fc06f          	j	200127e0 <metal_interrupt_vector_handler>

20016694 <IRQ_5>:
IRQ_5():
C:/Users/nandg/Desktop/FE310-G003/sifive_hifive1_revb_sifive_welcome/freedom-metal/src/vector.S:106
IRQ_5:
        j metal_interrupt_vector_handler
20016694:	94cfc06f          	j	200127e0 <metal_interrupt_vector_handler>

20016698 <IRQ_6>:
IRQ_6():
C:/Users/nandg/Desktop/FE310-G003/sifive_hifive1_revb_sifive_welcome/freedom-metal/src/vector.S:108
IRQ_6:
        j metal_interrupt_vector_handler
20016698:	948fc06f          	j	200127e0 <metal_interrupt_vector_handler>

2001669c <IRQ_7>:
IRQ_7():
C:/Users/nandg/Desktop/FE310-G003/sifive_hifive1_revb_sifive_welcome/freedom-metal/src/vector.S:110
IRQ_7:
        j metal_timer_interrupt_vector_handler
2001669c:	a6cfc06f          	j	20012908 <metal_timer_interrupt_vector_handler>

200166a0 <IRQ_8>:
IRQ_8():
C:/Users/nandg/Desktop/FE310-G003/sifive_hifive1_revb_sifive_welcome/freedom-metal/src/vector.S:112
IRQ_8:
        j metal_interrupt_vector_handler
200166a0:	940fc06f          	j	200127e0 <metal_interrupt_vector_handler>

200166a4 <IRQ_9>:
IRQ_9():
C:/Users/nandg/Desktop/FE310-G003/sifive_hifive1_revb_sifive_welcome/freedom-metal/src/vector.S:114
IRQ_9:
        j metal_interrupt_vector_handler
200166a4:	93cfc06f          	j	200127e0 <metal_interrupt_vector_handler>

200166a8 <IRQ_10>:
IRQ_10():
C:/Users/nandg/Desktop/FE310-G003/sifive_hifive1_revb_sifive_welcome/freedom-metal/src/vector.S:116
IRQ_10:
        j metal_interrupt_vector_handler
200166a8:	938fc06f          	j	200127e0 <metal_interrupt_vector_handler>

200166ac <IRQ_11>:
IRQ_11():
C:/Users/nandg/Desktop/FE310-G003/sifive_hifive1_revb_sifive_welcome/freedom-metal/src/vector.S:118
IRQ_11:
        j metal_interrupt_vector_handler
200166ac:	934fc06f          	j	200127e0 <metal_interrupt_vector_handler>

200166b0 <IRQ_12>:
IRQ_12():
C:/Users/nandg/Desktop/FE310-G003/sifive_hifive1_revb_sifive_welcome/freedom-metal/src/vector.S:120
IRQ_12:
        j metal_interrupt_vector_handler
200166b0:	930fc06f          	j	200127e0 <metal_interrupt_vector_handler>

200166b4 <IRQ_13>:
IRQ_13():
C:/Users/nandg/Desktop/FE310-G003/sifive_hifive1_revb_sifive_welcome/freedom-metal/src/vector.S:122
IRQ_13:
        j metal_interrupt_vector_handler
200166b4:	92cfc06f          	j	200127e0 <metal_interrupt_vector_handler>

200166b8 <IRQ_14>:
IRQ_14():
C:/Users/nandg/Desktop/FE310-G003/sifive_hifive1_revb_sifive_welcome/freedom-metal/src/vector.S:124
IRQ_14:
        j metal_interrupt_vector_handler
200166b8:	928fc06f          	j	200127e0 <metal_interrupt_vector_handler>

200166bc <IRQ_15>:
IRQ_15():
C:/Users/nandg/Desktop/FE310-G003/sifive_hifive1_revb_sifive_welcome/freedom-metal/src/vector.S:126
IRQ_15:
        j metal_interrupt_vector_handler
200166bc:	924fc06f          	j	200127e0 <metal_interrupt_vector_handler>

200166c0 <IRQ_LC0>:
IRQ_LC0():
C:/Users/nandg/Desktop/FE310-G003/sifive_hifive1_revb_sifive_welcome/freedom-metal/src/vector.S:128
IRQ_LC0:
        j metal_lc0_interrupt_vector_handler
200166c0:	db8fc06f          	j	20012c78 <metal_lc0_interrupt_vector_handler>

200166c4 <IRQ_LC1>:
IRQ_LC1():
C:/Users/nandg/Desktop/FE310-G003/sifive_hifive1_revb_sifive_welcome/freedom-metal/src/vector.S:130
IRQ_LC1:
        j metal_lc1_interrupt_vector_handler
200166c4:	e4afc06f          	j	20012d0e <metal_lc1_interrupt_vector_handler>

200166c8 <IRQ_LC2>:
IRQ_LC2():
C:/Users/nandg/Desktop/FE310-G003/sifive_hifive1_revb_sifive_welcome/freedom-metal/src/vector.S:132
IRQ_LC2:
        j metal_lc2_interrupt_vector_handler
200166c8:	edcfc06f          	j	20012da4 <metal_lc2_interrupt_vector_handler>

200166cc <IRQ_LC3>:
IRQ_LC3():
C:/Users/nandg/Desktop/FE310-G003/sifive_hifive1_revb_sifive_welcome/freedom-metal/src/vector.S:134
IRQ_LC3:
        j metal_lc3_interrupt_vector_handler
200166cc:	f6efc06f          	j	20012e3a <metal_lc3_interrupt_vector_handler>

200166d0 <IRQ_LC4>:
IRQ_LC4():
C:/Users/nandg/Desktop/FE310-G003/sifive_hifive1_revb_sifive_welcome/freedom-metal/src/vector.S:136
IRQ_LC4:
        j metal_lc4_interrupt_vector_handler
200166d0:	801fc06f          	j	20012ed0 <metal_lc4_interrupt_vector_handler>

200166d4 <IRQ_LC5>:
IRQ_LC5():
C:/Users/nandg/Desktop/FE310-G003/sifive_hifive1_revb_sifive_welcome/freedom-metal/src/vector.S:138
IRQ_LC5:
        j metal_lc5_interrupt_vector_handler
200166d4:	893fc06f          	j	20012f66 <metal_lc5_interrupt_vector_handler>

200166d8 <IRQ_LC6>:
IRQ_LC6():
C:/Users/nandg/Desktop/FE310-G003/sifive_hifive1_revb_sifive_welcome/freedom-metal/src/vector.S:140
IRQ_LC6:
        j metal_lc6_interrupt_vector_handler
200166d8:	925fc06f          	j	20012ffc <metal_lc6_interrupt_vector_handler>

200166dc <IRQ_LC7>:
IRQ_LC7():
C:/Users/nandg/Desktop/FE310-G003/sifive_hifive1_revb_sifive_welcome/freedom-metal/src/vector.S:142
IRQ_LC7:
        j metal_lc7_interrupt_vector_handler
200166dc:	9b7fc06f          	j	20013092 <metal_lc7_interrupt_vector_handler>

200166e0 <IRQ_LC8>:
IRQ_LC8():
C:/Users/nandg/Desktop/FE310-G003/sifive_hifive1_revb_sifive_welcome/freedom-metal/src/vector.S:144
IRQ_LC8:
        j metal_lc8_interrupt_vector_handler
200166e0:	a49fc06f          	j	20013128 <metal_lc8_interrupt_vector_handler>

200166e4 <IRQ_LC9>:
IRQ_LC9():
C:/Users/nandg/Desktop/FE310-G003/sifive_hifive1_revb_sifive_welcome/freedom-metal/src/vector.S:146
IRQ_LC9:
        j metal_lc9_interrupt_vector_handler
200166e4:	adbfc06f          	j	200131be <metal_lc9_interrupt_vector_handler>

200166e8 <IRQ_LC10>:
IRQ_LC10():
C:/Users/nandg/Desktop/FE310-G003/sifive_hifive1_revb_sifive_welcome/freedom-metal/src/vector.S:148
IRQ_LC10:
        j metal_lc10_interrupt_vector_handler
200166e8:	b6dfc06f          	j	20013254 <metal_lc10_interrupt_vector_handler>

200166ec <IRQ_LC11>:
IRQ_LC11():
C:/Users/nandg/Desktop/FE310-G003/sifive_hifive1_revb_sifive_welcome/freedom-metal/src/vector.S:150
IRQ_LC11:
        j metal_lc11_interrupt_vector_handler
200166ec:	bfffc06f          	j	200132ea <metal_lc11_interrupt_vector_handler>

200166f0 <IRQ_LC12>:
IRQ_LC12():
C:/Users/nandg/Desktop/FE310-G003/sifive_hifive1_revb_sifive_welcome/freedom-metal/src/vector.S:152
IRQ_LC12:
        j metal_lc12_interrupt_vector_handler
200166f0:	c91fc06f          	j	20013380 <metal_lc12_interrupt_vector_handler>

200166f4 <IRQ_LC13>:
IRQ_LC13():
C:/Users/nandg/Desktop/FE310-G003/sifive_hifive1_revb_sifive_welcome/freedom-metal/src/vector.S:154
IRQ_LC13:
        j metal_lc13_interrupt_vector_handler
200166f4:	d23fc06f          	j	20013416 <metal_lc13_interrupt_vector_handler>

200166f8 <IRQ_LC14>:
IRQ_LC14():
C:/Users/nandg/Desktop/FE310-G003/sifive_hifive1_revb_sifive_welcome/freedom-metal/src/vector.S:156
IRQ_LC14:
        j metal_lc14_interrupt_vector_handler
200166f8:	db5fc06f          	j	200134ac <metal_lc14_interrupt_vector_handler>

200166fc <IRQ_LC15>:
IRQ_LC15():
C:/Users/nandg/Desktop/FE310-G003/sifive_hifive1_revb_sifive_welcome/freedom-metal/src/vector.S:158
IRQ_LC15:
        j metal_lc15_interrupt_vector_handler
200166fc:	e47fc06f          	j	20013542 <metal_lc15_interrupt_vector_handler>

20016700 <__metal_driver_fixed_clock_rate>:
__metal_driver_fixed_clock_rate():
C:\Users\nandg\Desktop\FE310-G003\sifive_hifive1_revb_sifive_welcome\bsp\build\debug/./metal/machine.h:208
{
20016700:	1101                	addi	sp,sp,-32
20016702:	ce22                	sw	s0,28(sp)
20016704:	1000                	addi	s0,sp,32
20016706:	fea42623          	sw	a0,-20(s0)
C:\Users\nandg\Desktop\FE310-G003\sifive_hifive1_revb_sifive_welcome\bsp\build\debug/./metal/machine.h:209
	if ((uintptr_t)clock == (uintptr_t)&__metal_dt_clock_0) {
2001670a:	fec42703          	lw	a4,-20(s0)
2001670e:	800007b7          	lui	a5,0x80000
20016712:	06078793          	addi	a5,a5,96 # 80000060 <metal_segment_heap_target_end+0xffffe8f0>
20016716:	00f71763          	bne	a4,a5,20016724 <__metal_driver_fixed_clock_rate+0x24>
C:\Users\nandg\Desktop\FE310-G003\sifive_hifive1_revb_sifive_welcome\bsp\build\debug/./metal/machine.h:210
		return METAL_FIXED_CLOCK_0_CLOCK_FREQUENCY;
2001671a:	00f427b7          	lui	a5,0xf42
2001671e:	40078793          	addi	a5,a5,1024 # f42400 <__heap_size+0xf41c00>
20016722:	a099                	j	20016768 <__metal_driver_fixed_clock_rate+0x68>
C:\Users\nandg\Desktop\FE310-G003\sifive_hifive1_revb_sifive_welcome\bsp\build\debug/./metal/machine.h:212
	else if ((uintptr_t)clock == (uintptr_t)&__metal_dt_clock_2) {
20016724:	fec42703          	lw	a4,-20(s0)
20016728:	800007b7          	lui	a5,0x80000
2001672c:	06c78793          	addi	a5,a5,108 # 8000006c <metal_segment_heap_target_end+0xffffe8fc>
20016730:	00f71763          	bne	a4,a5,2001673e <__metal_driver_fixed_clock_rate+0x3e>
C:\Users\nandg\Desktop\FE310-G003\sifive_hifive1_revb_sifive_welcome\bsp\build\debug/./metal/machine.h:213
		return METAL_FIXED_CLOCK_2_CLOCK_FREQUENCY;
20016734:	044aa7b7          	lui	a5,0x44aa
20016738:	20078793          	addi	a5,a5,512 # 44aa200 <__heap_size+0x44a9a00>
2001673c:	a035                	j	20016768 <__metal_driver_fixed_clock_rate+0x68>
C:\Users\nandg\Desktop\FE310-G003\sifive_hifive1_revb_sifive_welcome\bsp\build\debug/./metal/machine.h:215
	else if ((uintptr_t)clock == (uintptr_t)&__metal_dt_clock_5) {
2001673e:	fec42703          	lw	a4,-20(s0)
20016742:	800007b7          	lui	a5,0x80000
20016746:	07878793          	addi	a5,a5,120 # 80000078 <metal_segment_heap_target_end+0xffffe908>
2001674a:	00f71463          	bne	a4,a5,20016752 <__metal_driver_fixed_clock_rate+0x52>
C:\Users\nandg\Desktop\FE310-G003\sifive_hifive1_revb_sifive_welcome\bsp\build\debug/./metal/machine.h:216
		return METAL_FIXED_CLOCK_5_CLOCK_FREQUENCY;
2001674e:	67a1                	lui	a5,0x8
20016750:	a821                	j	20016768 <__metal_driver_fixed_clock_rate+0x68>
C:\Users\nandg\Desktop\FE310-G003\sifive_hifive1_revb_sifive_welcome\bsp\build\debug/./metal/machine.h:218
	else if ((uintptr_t)clock == (uintptr_t)&__metal_dt_clock_6) {
20016752:	fec42703          	lw	a4,-20(s0)
20016756:	800007b7          	lui	a5,0x80000
2001675a:	08478793          	addi	a5,a5,132 # 80000084 <metal_segment_heap_target_end+0xffffe914>
2001675e:	00f71463          	bne	a4,a5,20016766 <__metal_driver_fixed_clock_rate+0x66>
C:\Users\nandg\Desktop\FE310-G003\sifive_hifive1_revb_sifive_welcome\bsp\build\debug/./metal/machine.h:219
		return METAL_FIXED_CLOCK_6_CLOCK_FREQUENCY;
20016762:	67a1                	lui	a5,0x8
20016764:	a011                	j	20016768 <__metal_driver_fixed_clock_rate+0x68>
C:\Users\nandg\Desktop\FE310-G003\sifive_hifive1_revb_sifive_welcome\bsp\build\debug/./metal/machine.h:222
		return 0;
20016766:	4781                	li	a5,0
C:\Users\nandg\Desktop\FE310-G003\sifive_hifive1_revb_sifive_welcome\bsp\build\debug/./metal/machine.h:224
}
20016768:	853e                	mv	a0,a5
2001676a:	4472                	lw	s0,28(sp)
2001676c:	6105                	addi	sp,sp,32
2001676e:	8082                	ret

20016770 <__metal_driver_fixed_clock_get_rate_hz>:
__metal_driver_fixed_clock_get_rate_hz():
C:/Users/nandg/Desktop/FE310-G003/sifive_hifive1_revb_sifive_welcome/freedom-metal/src/drivers/fixed-clock.c:12

#include <metal/drivers/fixed-clock.h>
#include <metal/machine.h>
#include <stddef.h>

long __metal_driver_fixed_clock_get_rate_hz(const struct metal_clock *gclk) {
20016770:	1101                	addi	sp,sp,-32
20016772:	ce06                	sw	ra,28(sp)
20016774:	cc22                	sw	s0,24(sp)
20016776:	1000                	addi	s0,sp,32
20016778:	fea42623          	sw	a0,-20(s0)
C:/Users/nandg/Desktop/FE310-G003/sifive_hifive1_revb_sifive_welcome/freedom-metal/src/drivers/fixed-clock.c:13
    return __metal_driver_fixed_clock_rate(gclk);
2001677c:	fec42503          	lw	a0,-20(s0)
20016780:	3741                	jal	20016700 <__metal_driver_fixed_clock_rate>
20016782:	87aa                	mv	a5,a0
C:/Users/nandg/Desktop/FE310-G003/sifive_hifive1_revb_sifive_welcome/freedom-metal/src/drivers/fixed-clock.c:14
}
20016784:	853e                	mv	a0,a5
20016786:	40f2                	lw	ra,28(sp)
20016788:	4462                	lw	s0,24(sp)
2001678a:	6105                	addi	sp,sp,32
2001678c:	8082                	ret

2001678e <__metal_driver_fixed_clock_set_rate_hz>:
__metal_driver_fixed_clock_set_rate_hz():
C:/Users/nandg/Desktop/FE310-G003/sifive_hifive1_revb_sifive_welcome/freedom-metal/src/drivers/fixed-clock.c:17

long __metal_driver_fixed_clock_set_rate_hz(struct metal_clock *gclk,
                                            long target_hz) {
2001678e:	1101                	addi	sp,sp,-32
20016790:	ce06                	sw	ra,28(sp)
20016792:	cc22                	sw	s0,24(sp)
20016794:	1000                	addi	s0,sp,32
20016796:	fea42623          	sw	a0,-20(s0)
2001679a:	feb42423          	sw	a1,-24(s0)
C:/Users/nandg/Desktop/FE310-G003/sifive_hifive1_revb_sifive_welcome/freedom-metal/src/drivers/fixed-clock.c:18
    return __metal_driver_fixed_clock_get_rate_hz(gclk);
2001679e:	fec42503          	lw	a0,-20(s0)
200167a2:	37f9                	jal	20016770 <__metal_driver_fixed_clock_get_rate_hz>
200167a4:	87aa                	mv	a5,a0
C:/Users/nandg/Desktop/FE310-G003/sifive_hifive1_revb_sifive_welcome/freedom-metal/src/drivers/fixed-clock.c:19
}
200167a6:	853e                	mv	a0,a5
200167a8:	40f2                	lw	ra,28(sp)
200167aa:	4462                	lw	s0,24(sp)
200167ac:	6105                	addi	sp,sp,32
200167ae:	8082                	ret

200167b0 <metal_timer_get_cyclecount>:
metal_timer_get_cyclecount():
C:/Users/nandg/Desktop/FE310-G003/sifive_hifive1_revb_sifive_welcome/freedom-metal/src/timer.c:15
#endif

#if defined(__METAL_DT_MAX_HARTS)
/* This implementation serves as a small shim that interfaces with the first
 * timer on a system. */
int metal_timer_get_cyclecount(int hartid, unsigned long long *mcc) {
200167b0:	7179                	addi	sp,sp,-48
200167b2:	d606                	sw	ra,44(sp)
200167b4:	d422                	sw	s0,40(sp)
200167b6:	1800                	addi	s0,sp,48
200167b8:	fca42e23          	sw	a0,-36(s0)
200167bc:	fcb42c23          	sw	a1,-40(s0)
C:/Users/nandg/Desktop/FE310-G003/sifive_hifive1_revb_sifive_welcome/freedom-metal/src/timer.c:16
    struct metal_cpu *cpu = metal_cpu_get(hartid);
200167c0:	fdc42783          	lw	a5,-36(s0)
200167c4:	853e                	mv	a0,a5
200167c6:	da3ff0ef          	jal	ra,20016568 <metal_cpu_get>
200167ca:	fea42623          	sw	a0,-20(s0)
C:/Users/nandg/Desktop/FE310-G003/sifive_hifive1_revb_sifive_welcome/freedom-metal/src/timer.c:18

    if (cpu) {
200167ce:	fec42783          	lw	a5,-20(s0)
200167d2:	cf89                	beqz	a5,200167ec <metal_timer_get_cyclecount+0x3c>
C:/Users/nandg/Desktop/FE310-G003/sifive_hifive1_revb_sifive_welcome/freedom-metal/src/timer.c:19
        *mcc = metal_cpu_get_timer(cpu);
200167d4:	fec42503          	lw	a0,-20(s0)
200167d8:	d17ff0ef          	jal	ra,200164ee <metal_cpu_get_timer>
200167dc:	872a                	mv	a4,a0
200167de:	87ae                	mv	a5,a1
200167e0:	fd842683          	lw	a3,-40(s0)
200167e4:	c298                	sw	a4,0(a3)
200167e6:	c2dc                	sw	a5,4(a3)
C:/Users/nandg/Desktop/FE310-G003/sifive_hifive1_revb_sifive_welcome/freedom-metal/src/timer.c:20
        return 0;
200167e8:	4781                	li	a5,0
200167ea:	a011                	j	200167ee <metal_timer_get_cyclecount+0x3e>
C:/Users/nandg/Desktop/FE310-G003/sifive_hifive1_revb_sifive_welcome/freedom-metal/src/timer.c:22
    }
    return -1;
200167ec:	57fd                	li	a5,-1
C:/Users/nandg/Desktop/FE310-G003/sifive_hifive1_revb_sifive_welcome/freedom-metal/src/timer.c:23
}
200167ee:	853e                	mv	a0,a5
200167f0:	50b2                	lw	ra,44(sp)
200167f2:	5422                	lw	s0,40(sp)
200167f4:	6145                	addi	sp,sp,48
200167f6:	8082                	ret

200167f8 <metal_timer_get_timebase_frequency>:
metal_timer_get_timebase_frequency():
C:/Users/nandg/Desktop/FE310-G003/sifive_hifive1_revb_sifive_welcome/freedom-metal/src/timer.c:26

int metal_timer_get_timebase_frequency(int hartid,
                                       unsigned long long *timebase) {
200167f8:	7179                	addi	sp,sp,-48
200167fa:	d606                	sw	ra,44(sp)
200167fc:	d422                	sw	s0,40(sp)
200167fe:	1800                	addi	s0,sp,48
20016800:	fca42e23          	sw	a0,-36(s0)
20016804:	fcb42c23          	sw	a1,-40(s0)
C:/Users/nandg/Desktop/FE310-G003/sifive_hifive1_revb_sifive_welcome/freedom-metal/src/timer.c:27
    struct metal_cpu *cpu = metal_cpu_get(hartid);
20016808:	fdc42783          	lw	a5,-36(s0)
2001680c:	853e                	mv	a0,a5
2001680e:	d5bff0ef          	jal	ra,20016568 <metal_cpu_get>
20016812:	fea42623          	sw	a0,-20(s0)
C:/Users/nandg/Desktop/FE310-G003/sifive_hifive1_revb_sifive_welcome/freedom-metal/src/timer.c:29

    if (cpu) {
20016816:	fec42783          	lw	a5,-20(s0)
2001681a:	cf89                	beqz	a5,20016834 <metal_timer_get_timebase_frequency+0x3c>
C:/Users/nandg/Desktop/FE310-G003/sifive_hifive1_revb_sifive_welcome/freedom-metal/src/timer.c:30
        *timebase = metal_cpu_get_timebase(cpu);
2001681c:	fec42503          	lw	a0,-20(s0)
20016820:	cf9ff0ef          	jal	ra,20016518 <metal_cpu_get_timebase>
20016824:	872a                	mv	a4,a0
20016826:	87ae                	mv	a5,a1
20016828:	fd842683          	lw	a3,-40(s0)
2001682c:	c298                	sw	a4,0(a3)
2001682e:	c2dc                	sw	a5,4(a3)
C:/Users/nandg/Desktop/FE310-G003/sifive_hifive1_revb_sifive_welcome/freedom-metal/src/timer.c:31
        return 0;
20016830:	4781                	li	a5,0
20016832:	a011                	j	20016836 <metal_timer_get_timebase_frequency+0x3e>
C:/Users/nandg/Desktop/FE310-G003/sifive_hifive1_revb_sifive_welcome/freedom-metal/src/timer.c:33
    }
    return -1;
20016834:	57fd                	li	a5,-1
C:/Users/nandg/Desktop/FE310-G003/sifive_hifive1_revb_sifive_welcome/freedom-metal/src/timer.c:34
}
20016836:	853e                	mv	a0,a5
20016838:	50b2                	lw	ra,44(sp)
2001683a:	5422                	lw	s0,40(sp)
2001683c:	6145                	addi	sp,sp,48
2001683e:	8082                	ret

20016840 <_close>:
_close():
C:/Users/nandg/Desktop/FE310-G003/sifive_hifive1_revb_sifive_welcome/freedom-metal/gloss/sys_close.c:3
#include <errno.h>

int _close(int file) {
20016840:	1101                	addi	sp,sp,-32
20016842:	ce06                	sw	ra,28(sp)
20016844:	cc22                	sw	s0,24(sp)
20016846:	1000                	addi	s0,sp,32
20016848:	fea42623          	sw	a0,-20(s0)
C:/Users/nandg/Desktop/FE310-G003/sifive_hifive1_revb_sifive_welcome/freedom-metal/gloss/sys_close.c:4
    errno = ENOSYS;
2001684c:	2611                	jal	20016b50 <__errno>
2001684e:	872a                	mv	a4,a0
20016850:	05800793          	li	a5,88
20016854:	c31c                	sw	a5,0(a4)
C:/Users/nandg/Desktop/FE310-G003/sifive_hifive1_revb_sifive_welcome/freedom-metal/gloss/sys_close.c:5
    return -1;
20016856:	57fd                	li	a5,-1
C:/Users/nandg/Desktop/FE310-G003/sifive_hifive1_revb_sifive_welcome/freedom-metal/gloss/sys_close.c:6
}
20016858:	853e                	mv	a0,a5
2001685a:	40f2                	lw	ra,28(sp)
2001685c:	4462                	lw	s0,24(sp)
2001685e:	6105                	addi	sp,sp,32
20016860:	8082                	ret

20016862 <_fstat>:
_fstat():
C:/Users/nandg/Desktop/FE310-G003/sifive_hifive1_revb_sifive_welcome/freedom-metal/gloss/sys_fstat.c:4
#include <errno.h>
#include <sys/stat.h>

int _fstat(int file, struct stat *st) {
20016862:	1101                	addi	sp,sp,-32
20016864:	ce06                	sw	ra,28(sp)
20016866:	cc22                	sw	s0,24(sp)
20016868:	1000                	addi	s0,sp,32
2001686a:	fea42623          	sw	a0,-20(s0)
2001686e:	feb42423          	sw	a1,-24(s0)
C:/Users/nandg/Desktop/FE310-G003/sifive_hifive1_revb_sifive_welcome/freedom-metal/gloss/sys_fstat.c:5
    errno = -ENOSYS;
20016872:	2cf9                	jal	20016b50 <__errno>
20016874:	872a                	mv	a4,a0
20016876:	fa800793          	li	a5,-88
2001687a:	c31c                	sw	a5,0(a4)
C:/Users/nandg/Desktop/FE310-G003/sifive_hifive1_revb_sifive_welcome/freedom-metal/gloss/sys_fstat.c:6
    return -1;
2001687c:	57fd                	li	a5,-1
C:/Users/nandg/Desktop/FE310-G003/sifive_hifive1_revb_sifive_welcome/freedom-metal/gloss/sys_fstat.c:7
}
2001687e:	853e                	mv	a0,a5
20016880:	40f2                	lw	ra,28(sp)
20016882:	4462                	lw	s0,24(sp)
20016884:	6105                	addi	sp,sp,32
20016886:	8082                	ret

20016888 <_isatty>:
_isatty():
C:/Users/nandg/Desktop/FE310-G003/sifive_hifive1_revb_sifive_welcome/freedom-metal/gloss/sys_isatty.c:3
#include <unistd.h>

int _isatty(int file) { return (file == STDOUT_FILENO); }
20016888:	1101                	addi	sp,sp,-32
2001688a:	ce22                	sw	s0,28(sp)
2001688c:	1000                	addi	s0,sp,32
2001688e:	fea42623          	sw	a0,-20(s0)
20016892:	fec42783          	lw	a5,-20(s0)
20016896:	17fd                	addi	a5,a5,-1
20016898:	0017b793          	seqz	a5,a5
2001689c:	0ff7f793          	zext.b	a5,a5
200168a0:	853e                	mv	a0,a5
200168a2:	4472                	lw	s0,28(sp)
200168a4:	6105                	addi	sp,sp,32
200168a6:	8082                	ret

200168a8 <_lseek>:
_lseek():
C:/Users/nandg/Desktop/FE310-G003/sifive_hifive1_revb_sifive_welcome/freedom-metal/gloss/sys_lseek.c:4
#include <errno.h>
#include <sys/types.h>

off_t _lseek(int file, off_t ptr, int dir) {
200168a8:	1101                	addi	sp,sp,-32
200168aa:	ce06                	sw	ra,28(sp)
200168ac:	cc22                	sw	s0,24(sp)
200168ae:	1000                	addi	s0,sp,32
200168b0:	fea42623          	sw	a0,-20(s0)
200168b4:	feb42423          	sw	a1,-24(s0)
200168b8:	fec42223          	sw	a2,-28(s0)
C:/Users/nandg/Desktop/FE310-G003/sifive_hifive1_revb_sifive_welcome/freedom-metal/gloss/sys_lseek.c:5
    errno = ENOSYS;
200168bc:	2c51                	jal	20016b50 <__errno>
200168be:	872a                	mv	a4,a0
200168c0:	05800793          	li	a5,88
200168c4:	c31c                	sw	a5,0(a4)
C:/Users/nandg/Desktop/FE310-G003/sifive_hifive1_revb_sifive_welcome/freedom-metal/gloss/sys_lseek.c:6
    return -1;
200168c6:	57fd                	li	a5,-1
C:/Users/nandg/Desktop/FE310-G003/sifive_hifive1_revb_sifive_welcome/freedom-metal/gloss/sys_lseek.c:7
}
200168c8:	853e                	mv	a0,a5
200168ca:	40f2                	lw	ra,28(sp)
200168cc:	4462                	lw	s0,24(sp)
200168ce:	6105                	addi	sp,sp,32
200168d0:	8082                	ret

200168d2 <_read>:
_read():
C:/Users/nandg/Desktop/FE310-G003/sifive_hifive1_revb_sifive_welcome/freedom-metal/gloss/sys_read.c:4
#include <errno.h>
#include <sys/types.h>

ssize_t _read(int file, void *ptr, size_t len) {
200168d2:	1101                	addi	sp,sp,-32
200168d4:	ce06                	sw	ra,28(sp)
200168d6:	cc22                	sw	s0,24(sp)
200168d8:	1000                	addi	s0,sp,32
200168da:	fea42623          	sw	a0,-20(s0)
200168de:	feb42423          	sw	a1,-24(s0)
200168e2:	fec42223          	sw	a2,-28(s0)
C:/Users/nandg/Desktop/FE310-G003/sifive_hifive1_revb_sifive_welcome/freedom-metal/gloss/sys_read.c:5
    errno = ENOSYS;
200168e6:	24ad                	jal	20016b50 <__errno>
200168e8:	872a                	mv	a4,a0
200168ea:	05800793          	li	a5,88
200168ee:	c31c                	sw	a5,0(a4)
C:/Users/nandg/Desktop/FE310-G003/sifive_hifive1_revb_sifive_welcome/freedom-metal/gloss/sys_read.c:6
    return -1;
200168f0:	57fd                	li	a5,-1
C:/Users/nandg/Desktop/FE310-G003/sifive_hifive1_revb_sifive_welcome/freedom-metal/gloss/sys_read.c:7
}
200168f2:	853e                	mv	a0,a5
200168f4:	40f2                	lw	ra,28(sp)
200168f6:	4462                	lw	s0,24(sp)
200168f8:	6105                	addi	sp,sp,32
200168fa:	8082                	ret

200168fc <_sbrk>:
_sbrk():
C:/Users/nandg/Desktop/FE310-G003/sifive_hifive1_revb_sifive_welcome/freedom-metal/gloss/sys_sbrk.c:24
int _brk(void *addr) {
    __brk = addr;
    return 0;
}

char *_sbrk(ptrdiff_t incr) {
200168fc:	7179                	addi	sp,sp,-48
200168fe:	d606                	sw	ra,44(sp)
20016900:	d422                	sw	s0,40(sp)
20016902:	1800                	addi	s0,sp,48
20016904:	fca42e23          	sw	a0,-36(s0)
C:/Users/nandg/Desktop/FE310-G003/sifive_hifive1_revb_sifive_welcome/freedom-metal/gloss/sys_sbrk.c:25
    char *old = __brk;
20016908:	8241a783          	lw	a5,-2012(gp) # 80000ac4 <__brk>
2001690c:	fef42623          	sw	a5,-20(s0)
C:/Users/nandg/Desktop/FE310-G003/sifive_hifive1_revb_sifive_welcome/freedom-metal/gloss/sys_sbrk.c:28

    /* If __heap_size == 0, we can't allocate memory on the heap */
    if (&metal_segment_heap_target_start == &metal_segment_heap_target_end) {
20016910:	cd018713          	addi	a4,gp,-816 # 80000f70 <_sp>
20016914:	4d018793          	addi	a5,gp,1232 # 80001770 <metal_segment_heap_target_end>
20016918:	00f71463          	bne	a4,a5,20016920 <_sbrk+0x24>
C:/Users/nandg/Desktop/FE310-G003/sifive_hifive1_revb_sifive_welcome/freedom-metal/gloss/sys_sbrk.c:29
        return (void *)-1;
2001691c:	57fd                	li	a5,-1
2001691e:	a83d                	j	2001695c <_sbrk+0x60>
C:/Users/nandg/Desktop/FE310-G003/sifive_hifive1_revb_sifive_welcome/freedom-metal/gloss/sys_sbrk.c:33
    }

    /* Don't move the break past the end of the heap */
    if ((__brk + incr) < &metal_segment_heap_target_end) {
20016920:	8241a703          	lw	a4,-2012(gp) # 80000ac4 <__brk>
20016924:	fdc42783          	lw	a5,-36(s0)
20016928:	973e                	add	a4,a4,a5
2001692a:	4d018793          	addi	a5,gp,1232 # 80001770 <metal_segment_heap_target_end>
2001692e:	02f77263          	bgeu	a4,a5,20016952 <_sbrk+0x56>
C:/Users/nandg/Desktop/FE310-G003/sifive_hifive1_revb_sifive_welcome/freedom-metal/gloss/sys_sbrk.c:34
        __brk += incr;
20016932:	8241a703          	lw	a4,-2012(gp) # 80000ac4 <__brk>
20016936:	fdc42783          	lw	a5,-36(s0)
2001693a:	973e                	add	a4,a4,a5
2001693c:	82e1a223          	sw	a4,-2012(gp) # 80000ac4 <__brk>
C:/Users/nandg/Desktop/FE310-G003/sifive_hifive1_revb_sifive_welcome/freedom-metal/gloss/sys_sbrk.c:40
    } else {
        __brk = &metal_segment_heap_target_end;
        return (void *)-1;
    }
    /* Scrub out allocated memory to avoid spurious ECC errors */
    metal_mem_scrub(old, incr);
20016940:	fdc42583          	lw	a1,-36(s0)
20016944:	fec42503          	lw	a0,-20(s0)
20016948:	f42f90ef          	jal	ra,2001008a <metal_mem_scrub>
C:/Users/nandg/Desktop/FE310-G003/sifive_hifive1_revb_sifive_welcome/freedom-metal/gloss/sys_sbrk.c:42

    return old;
2001694c:	fec42783          	lw	a5,-20(s0)
20016950:	a031                	j	2001695c <_sbrk+0x60>
C:/Users/nandg/Desktop/FE310-G003/sifive_hifive1_revb_sifive_welcome/freedom-metal/gloss/sys_sbrk.c:36
        __brk = &metal_segment_heap_target_end;
20016952:	4d018713          	addi	a4,gp,1232 # 80001770 <metal_segment_heap_target_end>
20016956:	82e1a223          	sw	a4,-2012(gp) # 80000ac4 <__brk>
C:/Users/nandg/Desktop/FE310-G003/sifive_hifive1_revb_sifive_welcome/freedom-metal/gloss/sys_sbrk.c:37
        return (void *)-1;
2001695a:	57fd                	li	a5,-1
C:/Users/nandg/Desktop/FE310-G003/sifive_hifive1_revb_sifive_welcome/freedom-metal/gloss/sys_sbrk.c:43
}
2001695c:	853e                	mv	a0,a5
2001695e:	50b2                	lw	ra,44(sp)
20016960:	5422                	lw	s0,40(sp)
20016962:	6145                	addi	sp,sp,48
20016964:	8082                	ret

20016966 <muldiv>:
muldiv():
C:/Users/nandg/Desktop/FE310-G003/sifive_hifive1_revb_sifive_welcome/freedom-metal/gloss/sys_times.c:27
 * in 64 bits. CLOCKS_PER_SEC is defined as 1,000,000, so we just need
 * timebase to be less than about 4,000,000,000,000 (4 trillion).
 */

static inline unsigned long long
muldiv(unsigned long long v, unsigned long long num, unsigned long long den) {
20016966:	7139                	addi	sp,sp,-64
20016968:	de06                	sw	ra,60(sp)
2001696a:	dc22                	sw	s0,56(sp)
2001696c:	da4a                	sw	s2,52(sp)
2001696e:	d84e                	sw	s3,48(sp)
20016970:	d652                	sw	s4,44(sp)
20016972:	d456                	sw	s5,40(sp)
20016974:	0080                	addi	s0,sp,64
20016976:	fca42c23          	sw	a0,-40(s0)
2001697a:	fcb42e23          	sw	a1,-36(s0)
2001697e:	fcc42823          	sw	a2,-48(s0)
20016982:	fcd42a23          	sw	a3,-44(s0)
20016986:	fce42423          	sw	a4,-56(s0)
2001698a:	fcf42623          	sw	a5,-52(s0)
C:/Users/nandg/Desktop/FE310-G003/sifive_hifive1_revb_sifive_welcome/freedom-metal/gloss/sys_times.c:28
    return (((v % den) * num) / den) + ((v / den) * num);
2001698e:	fd842703          	lw	a4,-40(s0)
20016992:	fdc42783          	lw	a5,-36(s0)
20016996:	fc842603          	lw	a2,-56(s0)
2001699a:	fcc42683          	lw	a3,-52(s0)
2001699e:	853a                	mv	a0,a4
200169a0:	85be                	mv	a1,a5
200169a2:	2f29                	jal	200170bc <__umoddi3>
200169a4:	872a                	mv	a4,a0
200169a6:	87ae                	mv	a5,a1
200169a8:	fd042683          	lw	a3,-48(s0)
200169ac:	02f68633          	mul	a2,a3,a5
200169b0:	fd442683          	lw	a3,-44(s0)
200169b4:	02e686b3          	mul	a3,a3,a4
200169b8:	9636                	add	a2,a2,a3
200169ba:	fd042683          	lw	a3,-48(s0)
200169be:	02e685b3          	mul	a1,a3,a4
200169c2:	02e6bab3          	mulhu	s5,a3,a4
200169c6:	8a2e                	mv	s4,a1
200169c8:	015607b3          	add	a5,a2,s5
200169cc:	8abe                	mv	s5,a5
200169ce:	fc842603          	lw	a2,-56(s0)
200169d2:	fcc42683          	lw	a3,-52(s0)
200169d6:	8552                	mv	a0,s4
200169d8:	85d6                	mv	a1,s5
200169da:	2649                	jal	20016d5c <__udivdi3>
200169dc:	872a                	mv	a4,a0
200169de:	87ae                	mv	a5,a1
200169e0:	8a3a                	mv	s4,a4
200169e2:	8abe                	mv	s5,a5
200169e4:	fc842603          	lw	a2,-56(s0)
200169e8:	fcc42683          	lw	a3,-52(s0)
200169ec:	fd842503          	lw	a0,-40(s0)
200169f0:	fdc42583          	lw	a1,-36(s0)
200169f4:	26a5                	jal	20016d5c <__udivdi3>
200169f6:	872a                	mv	a4,a0
200169f8:	87ae                	mv	a5,a1
200169fa:	fd042683          	lw	a3,-48(s0)
200169fe:	02f68633          	mul	a2,a3,a5
20016a02:	fd442683          	lw	a3,-44(s0)
20016a06:	02e686b3          	mul	a3,a3,a4
20016a0a:	9636                	add	a2,a2,a3
20016a0c:	fd042683          	lw	a3,-48(s0)
20016a10:	02e685b3          	mul	a1,a3,a4
20016a14:	02e6b9b3          	mulhu	s3,a3,a4
20016a18:	892e                	mv	s2,a1
20016a1a:	013607b3          	add	a5,a2,s3
20016a1e:	89be                	mv	s3,a5
20016a20:	012a0733          	add	a4,s4,s2
20016a24:	86ba                	mv	a3,a4
20016a26:	0146b6b3          	sltu	a3,a3,s4
20016a2a:	013a87b3          	add	a5,s5,s3
20016a2e:	96be                	add	a3,a3,a5
20016a30:	87b6                	mv	a5,a3
C:/Users/nandg/Desktop/FE310-G003/sifive_hifive1_revb_sifive_welcome/freedom-metal/gloss/sys_times.c:29
}
20016a32:	853a                	mv	a0,a4
20016a34:	85be                	mv	a1,a5
20016a36:	50f2                	lw	ra,60(sp)
20016a38:	5462                	lw	s0,56(sp)
20016a3a:	5952                	lw	s2,52(sp)
20016a3c:	59c2                	lw	s3,48(sp)
20016a3e:	5a32                	lw	s4,44(sp)
20016a40:	5aa2                	lw	s5,40(sp)
20016a42:	6121                	addi	sp,sp,64
20016a44:	8082                	ret

20016a46 <_times>:
_times():
C:/Users/nandg/Desktop/FE310-G003/sifive_hifive1_revb_sifive_welcome/freedom-metal/gloss/sys_times.c:43

   Since maven does not currently support processes we set both of the
   children's times to zero. Eventually we might want to separately
   account for user vs system time, but for now we just return the total
   number of cycles since starting the program.  */
clock_t _times(struct tms *buf) {
20016a46:	7139                	addi	sp,sp,-64
20016a48:	de06                	sw	ra,60(sp)
20016a4a:	dc22                	sw	s0,56(sp)
20016a4c:	0080                	addi	s0,sp,64
20016a4e:	fca42623          	sw	a0,-52(s0)
C:/Users/nandg/Desktop/FE310-G003/sifive_hifive1_revb_sifive_welcome/freedom-metal/gloss/sys_times.c:46
    unsigned long long mcc;
    unsigned long long timebase;
    int hartid = metal_cpu_get_current_hartid();
20016a52:	b45ff0ef          	jal	ra,20016596 <metal_cpu_get_current_hartid>
20016a56:	fea42623          	sw	a0,-20(s0)
C:/Users/nandg/Desktop/FE310-G003/sifive_hifive1_revb_sifive_welcome/freedom-metal/gloss/sys_times.c:48

    metal_timer_get_timebase_frequency(hartid, &timebase);
20016a5a:	fd840793          	addi	a5,s0,-40
20016a5e:	85be                	mv	a1,a5
20016a60:	fec42503          	lw	a0,-20(s0)
20016a64:	d95ff0ef          	jal	ra,200167f8 <metal_timer_get_timebase_frequency>
C:/Users/nandg/Desktop/FE310-G003/sifive_hifive1_revb_sifive_welcome/freedom-metal/gloss/sys_times.c:49
    metal_timer_get_cyclecount(hartid, &mcc);
20016a68:	fe040793          	addi	a5,s0,-32
20016a6c:	85be                	mv	a1,a5
20016a6e:	fec42503          	lw	a0,-20(s0)
20016a72:	d3fff0ef          	jal	ra,200167b0 <metal_timer_get_cyclecount>
C:/Users/nandg/Desktop/FE310-G003/sifive_hifive1_revb_sifive_welcome/freedom-metal/gloss/sys_times.c:59
     * Truncating this to 64 bits works because a change of 'c' in
     * cyclecount will change the return value by
     * c * CLOCKS_PER_SEC / timebase, so applications will see
     * time marching forward.
     */
    mcc = muldiv(mcc, CLOCKS_PER_SEC, timebase);
20016a76:	fe042503          	lw	a0,-32(s0)
20016a7a:	fe442583          	lw	a1,-28(s0)
20016a7e:	fd842703          	lw	a4,-40(s0)
20016a82:	fdc42783          	lw	a5,-36(s0)
20016a86:	000f4637          	lui	a2,0xf4
20016a8a:	24060613          	addi	a2,a2,576 # f4240 <__heap_size+0xf3a40>
20016a8e:	4681                	li	a3,0
20016a90:	ed7ff0ef          	jal	ra,20016966 <muldiv>
20016a94:	872a                	mv	a4,a0
20016a96:	87ae                	mv	a5,a1
20016a98:	fee42023          	sw	a4,-32(s0)
20016a9c:	fef42223          	sw	a5,-28(s0)
C:/Users/nandg/Desktop/FE310-G003/sifive_hifive1_revb_sifive_welcome/freedom-metal/gloss/sys_times.c:61

    buf->tms_stime = 0;
20016aa0:	fcc42783          	lw	a5,-52(s0)
20016aa4:	0007a223          	sw	zero,4(a5) # 8004 <__heap_size+0x7804>
C:/Users/nandg/Desktop/FE310-G003/sifive_hifive1_revb_sifive_welcome/freedom-metal/gloss/sys_times.c:62
    buf->tms_cutime = 0;
20016aa8:	fcc42783          	lw	a5,-52(s0)
20016aac:	0007a423          	sw	zero,8(a5)
C:/Users/nandg/Desktop/FE310-G003/sifive_hifive1_revb_sifive_welcome/freedom-metal/gloss/sys_times.c:63
    buf->tms_cstime = 0;
20016ab0:	fcc42783          	lw	a5,-52(s0)
20016ab4:	0007a623          	sw	zero,12(a5)
C:/Users/nandg/Desktop/FE310-G003/sifive_hifive1_revb_sifive_welcome/freedom-metal/gloss/sys_times.c:64
    return buf->tms_utime = mcc;
20016ab8:	fe042703          	lw	a4,-32(s0)
20016abc:	fe442783          	lw	a5,-28(s0)
20016ac0:	fcc42783          	lw	a5,-52(s0)
20016ac4:	c398                	sw	a4,0(a5)
20016ac6:	fcc42783          	lw	a5,-52(s0)
20016aca:	439c                	lw	a5,0(a5)
C:/Users/nandg/Desktop/FE310-G003/sifive_hifive1_revb_sifive_welcome/freedom-metal/gloss/sys_times.c:65
}
20016acc:	853e                	mv	a0,a5
20016ace:	50f2                	lw	ra,60(sp)
20016ad0:	5462                	lw	s0,56(sp)
20016ad2:	6121                	addi	sp,sp,64
20016ad4:	8082                	ret

20016ad6 <_write>:
_write():
C:/Users/nandg/Desktop/FE310-G003/sifive_hifive1_revb_sifive_welcome/freedom-metal/gloss/sys_write.c:7
#include <metal/tty.h>
#include <sys/types.h>
#include <unistd.h>

/* Write to a file.  */
ssize_t _write(int file, const void *ptr, size_t len) {
20016ad6:	7179                	addi	sp,sp,-48
20016ad8:	d606                	sw	ra,44(sp)
20016ada:	d422                	sw	s0,40(sp)
20016adc:	1800                	addi	s0,sp,48
20016ade:	fca42e23          	sw	a0,-36(s0)
20016ae2:	fcb42c23          	sw	a1,-40(s0)
20016ae6:	fcc42a23          	sw	a2,-44(s0)
C:/Users/nandg/Desktop/FE310-G003/sifive_hifive1_revb_sifive_welcome/freedom-metal/gloss/sys_write.c:8
    if (file != STDOUT_FILENO) {
20016aea:	fdc42703          	lw	a4,-36(s0)
20016aee:	4785                	li	a5,1
20016af0:	00f70963          	beq	a4,a5,20016b02 <_write+0x2c>
C:/Users/nandg/Desktop/FE310-G003/sifive_hifive1_revb_sifive_welcome/freedom-metal/gloss/sys_write.c:9
        errno = ENOSYS;
20016af4:	28b1                	jal	20016b50 <__errno>
20016af6:	872a                	mv	a4,a0
20016af8:	05800793          	li	a5,88
20016afc:	c31c                	sw	a5,0(a4)
C:/Users/nandg/Desktop/FE310-G003/sifive_hifive1_revb_sifive_welcome/freedom-metal/gloss/sys_write.c:10
        return -1;
20016afe:	57fd                	li	a5,-1
20016b00:	a835                	j	20016b3c <_write+0x66>
C:/Users/nandg/Desktop/FE310-G003/sifive_hifive1_revb_sifive_welcome/freedom-metal/gloss/sys_write.c:13
    }

    const char *bptr = ptr;
20016b02:	fd842783          	lw	a5,-40(s0)
20016b06:	fef42423          	sw	a5,-24(s0)
C:/Users/nandg/Desktop/FE310-G003/sifive_hifive1_revb_sifive_welcome/freedom-metal/gloss/sys_write.c:14
    for (size_t i = 0; i < len; ++i)
20016b0a:	fe042623          	sw	zero,-20(s0)
20016b0e:	a005                	j	20016b2e <_write+0x58>
C:/Users/nandg/Desktop/FE310-G003/sifive_hifive1_revb_sifive_welcome/freedom-metal/gloss/sys_write.c:15 (discriminator 3)
        metal_tty_putc(bptr[i]);
20016b10:	fe842703          	lw	a4,-24(s0)
20016b14:	fec42783          	lw	a5,-20(s0)
20016b18:	97ba                	add	a5,a5,a4
20016b1a:	0007c783          	lbu	a5,0(a5)
20016b1e:	853e                	mv	a0,a5
20016b20:	1f9000ef          	jal	ra,20017518 <metal_tty_putc>
C:/Users/nandg/Desktop/FE310-G003/sifive_hifive1_revb_sifive_welcome/freedom-metal/gloss/sys_write.c:14 (discriminator 3)
    for (size_t i = 0; i < len; ++i)
20016b24:	fec42783          	lw	a5,-20(s0)
20016b28:	0785                	addi	a5,a5,1
20016b2a:	fef42623          	sw	a5,-20(s0)
C:/Users/nandg/Desktop/FE310-G003/sifive_hifive1_revb_sifive_welcome/freedom-metal/gloss/sys_write.c:14 (discriminator 1)
20016b2e:	fec42703          	lw	a4,-20(s0)
20016b32:	fd442783          	lw	a5,-44(s0)
20016b36:	fcf76de3          	bltu	a4,a5,20016b10 <_write+0x3a>
C:/Users/nandg/Desktop/FE310-G003/sifive_hifive1_revb_sifive_welcome/freedom-metal/gloss/sys_write.c:16
    return 0;
20016b3a:	4781                	li	a5,0
C:/Users/nandg/Desktop/FE310-G003/sifive_hifive1_revb_sifive_welcome/freedom-metal/gloss/sys_write.c:17
}
20016b3c:	853e                	mv	a0,a5
20016b3e:	50b2                	lw	ra,44(sp)
20016b40:	5422                	lw	s0,40(sp)
20016b42:	6145                	addi	sp,sp,48
20016b44:	8082                	ret

20016b46 <atexit>:
atexit():
20016b46:	85aa                	mv	a1,a0
20016b48:	4681                	li	a3,0
20016b4a:	4601                	li	a2,0
20016b4c:	4501                	li	a0,0
20016b4e:	a0e9                	j	20016c18 <__register_exitproc>

20016b50 <__errno>:
__errno():
20016b50:	5ffea517          	auipc	a0,0x5ffea
20016b54:	f5052503          	lw	a0,-176(a0) # 80000aa0 <_impure_ptr>
20016b58:	8082                	ret

20016b5a <exit>:
exit():
20016b5a:	1141                	addi	sp,sp,-16
20016b5c:	c422                	sw	s0,8(sp)
20016b5e:	c606                	sw	ra,12(sp)
20016b60:	00000797          	auipc	a5,0x0
20016b64:	13478793          	addi	a5,a5,308 # 20016c94 <__call_exitprocs>
20016b68:	842a                	mv	s0,a0
20016b6a:	c399                	beqz	a5,20016b70 <exit+0x16>
20016b6c:	4581                	li	a1,0
20016b6e:	221d                	jal	20016c94 <__call_exitprocs>
20016b70:	ffffa517          	auipc	a0,0xffffa
20016b74:	4d852503          	lw	a0,1240(a0) # 20011048 <_global_impure_ptr>
20016b78:	551c                	lw	a5,40(a0)
20016b7a:	c391                	beqz	a5,20016b7e <exit+0x24>
20016b7c:	9782                	jalr	a5
20016b7e:	8522                	mv	a0,s0
20016b80:	1c1000ef          	jal	ra,20017540 <_exit>

20016b84 <__libc_fini_array>:
__libc_fini_array():
20016b84:	1141                	addi	sp,sp,-16
20016b86:	c422                	sw	s0,8(sp)
20016b88:	c226                	sw	s1,4(sp)
20016b8a:	ffff9417          	auipc	s0,0xffff9
20016b8e:	76640413          	addi	s0,s0,1894 # 200102f0 <__fini_array_end>
20016b92:	ffff9497          	auipc	s1,0xffff9
20016b96:	75e48493          	addi	s1,s1,1886 # 200102f0 <__fini_array_end>
20016b9a:	8c05                	sub	s0,s0,s1
20016b9c:	c606                	sw	ra,12(sp)
20016b9e:	8409                	srai	s0,s0,0x2
20016ba0:	e411                	bnez	s0,20016bac <__libc_fini_array+0x28>
20016ba2:	40b2                	lw	ra,12(sp)
20016ba4:	4422                	lw	s0,8(sp)
20016ba6:	4492                	lw	s1,4(sp)
20016ba8:	0141                	addi	sp,sp,16
20016baa:	8082                	ret
20016bac:	147d                	addi	s0,s0,-1
20016bae:	00241793          	slli	a5,s0,0x2
20016bb2:	97a6                	add	a5,a5,s1
20016bb4:	439c                	lw	a5,0(a5)
20016bb6:	9782                	jalr	a5
20016bb8:	b7e5                	j	20016ba0 <__libc_fini_array+0x1c>

20016bba <__libc_init_array>:
__libc_init_array():
20016bba:	1141                	addi	sp,sp,-16
20016bbc:	c422                	sw	s0,8(sp)
20016bbe:	c226                	sw	s1,4(sp)
20016bc0:	ffff9417          	auipc	s0,0xffff9
20016bc4:	72040413          	addi	s0,s0,1824 # 200102e0 <_metal_sifive_fe310_g000_pll_init_ptr>
20016bc8:	ffff9497          	auipc	s1,0xffff9
20016bcc:	71848493          	addi	s1,s1,1816 # 200102e0 <_metal_sifive_fe310_g000_pll_init_ptr>
20016bd0:	8c81                	sub	s1,s1,s0
20016bd2:	c04a                	sw	s2,0(sp)
20016bd4:	c606                	sw	ra,12(sp)
20016bd6:	8489                	srai	s1,s1,0x2
20016bd8:	4901                	li	s2,0
20016bda:	02991563          	bne	s2,s1,20016c04 <__libc_init_array+0x4a>
20016bde:	ffff9417          	auipc	s0,0xffff9
20016be2:	70240413          	addi	s0,s0,1794 # 200102e0 <_metal_sifive_fe310_g000_pll_init_ptr>
20016be6:	ffff9497          	auipc	s1,0xffff9
20016bea:	6fa48493          	addi	s1,s1,1786 # 200102e0 <_metal_sifive_fe310_g000_pll_init_ptr>
20016bee:	8c81                	sub	s1,s1,s0
20016bf0:	8489                	srai	s1,s1,0x2
20016bf2:	4901                	li	s2,0
20016bf4:	00991d63          	bne	s2,s1,20016c0e <__libc_init_array+0x54>
20016bf8:	40b2                	lw	ra,12(sp)
20016bfa:	4422                	lw	s0,8(sp)
20016bfc:	4492                	lw	s1,4(sp)
20016bfe:	4902                	lw	s2,0(sp)
20016c00:	0141                	addi	sp,sp,16
20016c02:	8082                	ret
20016c04:	401c                	lw	a5,0(s0)
20016c06:	0905                	addi	s2,s2,1
20016c08:	0411                	addi	s0,s0,4
20016c0a:	9782                	jalr	a5
20016c0c:	b7f9                	j	20016bda <__libc_init_array+0x20>
20016c0e:	401c                	lw	a5,0(s0)
20016c10:	0905                	addi	s2,s2,1
20016c12:	0411                	addi	s0,s0,4
20016c14:	9782                	jalr	a5
20016c16:	bff9                	j	20016bf4 <__libc_init_array+0x3a>

20016c18 <__register_exitproc>:
__register_exitproc():
20016c18:	88aa                	mv	a7,a0
20016c1a:	5ffea517          	auipc	a0,0x5ffea
20016c1e:	eba50513          	addi	a0,a0,-326 # 80000ad4 <_global_atexit>
20016c22:	411c                	lw	a5,0(a0)
20016c24:	ef91                	bnez	a5,20016c40 <__register_exitproc+0x28>
20016c26:	5ffea717          	auipc	a4,0x5ffea
20016c2a:	eba70713          	addi	a4,a4,-326 # 80000ae0 <_global_atexit0>
20016c2e:	c118                	sw	a4,0(a0)
20016c30:	00000513          	li	a0,0
20016c34:	87ba                	mv	a5,a4
20016c36:	c509                	beqz	a0,20016c40 <__register_exitproc+0x28>
20016c38:	411c                	lw	a5,0(a0)
20016c3a:	08f72423          	sw	a5,136(a4)
20016c3e:	87ba                	mv	a5,a4
20016c40:	43d8                	lw	a4,4(a5)
20016c42:	487d                	li	a6,31
20016c44:	557d                	li	a0,-1
20016c46:	04e84663          	blt	a6,a4,20016c92 <__register_exitproc+0x7a>
20016c4a:	02088d63          	beqz	a7,20016c84 <__register_exitproc+0x6c>
20016c4e:	0887a803          	lw	a6,136(a5)
20016c52:	04080063          	beqz	a6,20016c92 <__register_exitproc+0x7a>
20016c56:	00271513          	slli	a0,a4,0x2
20016c5a:	9542                	add	a0,a0,a6
20016c5c:	c110                	sw	a2,0(a0)
20016c5e:	10082303          	lw	t1,256(a6)
20016c62:	4605                	li	a2,1
20016c64:	00e61633          	sll	a2,a2,a4
20016c68:	00c36333          	or	t1,t1,a2
20016c6c:	10682023          	sw	t1,256(a6)
20016c70:	08d52023          	sw	a3,128(a0)
20016c74:	4689                	li	a3,2
20016c76:	00d89763          	bne	a7,a3,20016c84 <__register_exitproc+0x6c>
20016c7a:	10482683          	lw	a3,260(a6)
20016c7e:	8e55                	or	a2,a2,a3
20016c80:	10c82223          	sw	a2,260(a6)
20016c84:	00170693          	addi	a3,a4,1
20016c88:	070a                	slli	a4,a4,0x2
20016c8a:	c3d4                	sw	a3,4(a5)
20016c8c:	97ba                	add	a5,a5,a4
20016c8e:	c78c                	sw	a1,8(a5)
20016c90:	4501                	li	a0,0
20016c92:	8082                	ret

20016c94 <__call_exitprocs>:
__call_exitprocs():
20016c94:	7179                	addi	sp,sp,-48
20016c96:	ca56                	sw	s5,20(sp)
20016c98:	c85a                	sw	s6,16(sp)
20016c9a:	c65e                	sw	s7,12(sp)
20016c9c:	c462                	sw	s8,8(sp)
20016c9e:	d606                	sw	ra,44(sp)
20016ca0:	d422                	sw	s0,40(sp)
20016ca2:	d226                	sw	s1,36(sp)
20016ca4:	d04a                	sw	s2,32(sp)
20016ca6:	ce4e                	sw	s3,28(sp)
20016ca8:	cc52                	sw	s4,24(sp)
20016caa:	c266                	sw	s9,4(sp)
20016cac:	8b2a                	mv	s6,a0
20016cae:	8aae                	mv	s5,a1
20016cb0:	5ffeab97          	auipc	s7,0x5ffea
20016cb4:	e24b8b93          	addi	s7,s7,-476 # 80000ad4 <_global_atexit>
20016cb8:	4c05                	li	s8,1
20016cba:	000ba483          	lw	s1,0(s7)
20016cbe:	cc81                	beqz	s1,20016cd6 <__call_exitprocs+0x42>
20016cc0:	40c0                	lw	s0,4(s1)
20016cc2:	0884a983          	lw	s3,136(s1)
20016cc6:	fff40913          	addi	s2,s0,-1
20016cca:	040a                	slli	s0,s0,0x2
20016ccc:	00898a33          	add	s4,s3,s0
20016cd0:	9426                	add	s0,s0,s1
20016cd2:	00095f63          	bgez	s2,20016cf0 <__call_exitprocs+0x5c>
20016cd6:	50b2                	lw	ra,44(sp)
20016cd8:	5422                	lw	s0,40(sp)
20016cda:	5492                	lw	s1,36(sp)
20016cdc:	5902                	lw	s2,32(sp)
20016cde:	49f2                	lw	s3,28(sp)
20016ce0:	4a62                	lw	s4,24(sp)
20016ce2:	4ad2                	lw	s5,20(sp)
20016ce4:	4b42                	lw	s6,16(sp)
20016ce6:	4bb2                	lw	s7,12(sp)
20016ce8:	4c22                	lw	s8,8(sp)
20016cea:	4c92                	lw	s9,4(sp)
20016cec:	6145                	addi	sp,sp,48
20016cee:	8082                	ret
20016cf0:	000a8c63          	beqz	s5,20016d08 <__call_exitprocs+0x74>
20016cf4:	00099663          	bnez	s3,20016d00 <__call_exitprocs+0x6c>
20016cf8:	197d                	addi	s2,s2,-1
20016cfa:	1a71                	addi	s4,s4,-4
20016cfc:	1471                	addi	s0,s0,-4
20016cfe:	bfd1                	j	20016cd2 <__call_exitprocs+0x3e>
20016d00:	07ca2783          	lw	a5,124(s4)
20016d04:	ff579ae3          	bne	a5,s5,20016cf8 <__call_exitprocs+0x64>
20016d08:	40d8                	lw	a4,4(s1)
20016d0a:	405c                	lw	a5,4(s0)
20016d0c:	177d                	addi	a4,a4,-1
20016d0e:	03271863          	bne	a4,s2,20016d3e <__call_exitprocs+0xaa>
20016d12:	0124a223          	sw	s2,4(s1)
20016d16:	d3ed                	beqz	a5,20016cf8 <__call_exitprocs+0x64>
20016d18:	0044ac83          	lw	s9,4(s1)
20016d1c:	00098863          	beqz	s3,20016d2c <__call_exitprocs+0x98>
20016d20:	1009a683          	lw	a3,256(s3)
20016d24:	012c1733          	sll	a4,s8,s2
20016d28:	8ef9                	and	a3,a3,a4
20016d2a:	ee89                	bnez	a3,20016d44 <__call_exitprocs+0xb0>
20016d2c:	9782                	jalr	a5
20016d2e:	40d8                	lw	a4,4(s1)
20016d30:	000ba783          	lw	a5,0(s7)
20016d34:	f99713e3          	bne	a4,s9,20016cba <__call_exitprocs+0x26>
20016d38:	fcf480e3          	beq	s1,a5,20016cf8 <__call_exitprocs+0x64>
20016d3c:	bfbd                	j	20016cba <__call_exitprocs+0x26>
20016d3e:	00042223          	sw	zero,4(s0)
20016d42:	bfd1                	j	20016d16 <__call_exitprocs+0x82>
20016d44:	1049a683          	lw	a3,260(s3)
20016d48:	ffca2583          	lw	a1,-4(s4)
20016d4c:	8f75                	and	a4,a4,a3
20016d4e:	e701                	bnez	a4,20016d56 <__call_exitprocs+0xc2>
20016d50:	855a                	mv	a0,s6
20016d52:	9782                	jalr	a5
20016d54:	bfe9                	j	20016d2e <__call_exitprocs+0x9a>
20016d56:	852e                	mv	a0,a1
20016d58:	9782                	jalr	a5
20016d5a:	bfd1                	j	20016d2e <__call_exitprocs+0x9a>

20016d5c <__udivdi3>:
__udivdi3():
/scratch/jenkins/workspace/tpp-freedom-tools/tpp03--build-binary-packages--parameterized/obj/x86_64-w64-mingw32/build/riscv64-unknown-elf-gcc/build-gcc-stage2/riscv64-unknown-elf/rv32imac/ilp32/libgcc/../../../../../riscv-gcc/libgcc/libgcc2.c:1319
20016d5c:	88aa                	mv	a7,a0
20016d5e:	87ae                	mv	a5,a1
__udivmoddi4():
/scratch/jenkins/workspace/tpp-freedom-tools/tpp03--build-binary-packages--parameterized/obj/x86_64-w64-mingw32/build/riscv64-unknown-elf-gcc/build-gcc-stage2/riscv64-unknown-elf/rv32imac/ilp32/libgcc/../../../../../riscv-gcc/libgcc/libgcc2.c:1024
20016d60:	8832                	mv	a6,a2
/scratch/jenkins/workspace/tpp-freedom-tools/tpp03--build-binary-packages--parameterized/obj/x86_64-w64-mingw32/build/riscv64-unknown-elf-gcc/build-gcc-stage2/riscv64-unknown-elf/rv32imac/ilp32/libgcc/../../../../../riscv-gcc/libgcc/libgcc2.c:1025
20016d62:	8536                	mv	a0,a3
/scratch/jenkins/workspace/tpp-freedom-tools/tpp03--build-binary-packages--parameterized/obj/x86_64-w64-mingw32/build/riscv64-unknown-elf-gcc/build-gcc-stage2/riscv64-unknown-elf/rv32imac/ilp32/libgcc/../../../../../riscv-gcc/libgcc/libgcc2.c:1026
20016d64:	8346                	mv	t1,a7
/scratch/jenkins/workspace/tpp-freedom-tools/tpp03--build-binary-packages--parameterized/obj/x86_64-w64-mingw32/build/riscv64-unknown-elf-gcc/build-gcc-stage2/riscv64-unknown-elf/rv32imac/ilp32/libgcc/../../../../../riscv-gcc/libgcc/libgcc2.c:1064
20016d66:	20069663          	bnez	a3,20016f72 <__udivdi3+0x216>
/scratch/jenkins/workspace/tpp-freedom-tools/tpp03--build-binary-packages--parameterized/obj/x86_64-w64-mingw32/build/riscv64-unknown-elf-gcc/build-gcc-stage2/riscv64-unknown-elf/rv32imac/ilp32/libgcc/../../../../../riscv-gcc/libgcc/libgcc2.c:1066
20016d6a:	ffffa697          	auipc	a3,0xffffa
20016d6e:	1da68693          	addi	a3,a3,474 # 20010f44 <__clz_tab>
20016d72:	0ac5ff63          	bgeu	a1,a2,20016e30 <__udivdi3+0xd4>
/scratch/jenkins/workspace/tpp-freedom-tools/tpp03--build-binary-packages--parameterized/obj/x86_64-w64-mingw32/build/riscv64-unknown-elf-gcc/build-gcc-stage2/riscv64-unknown-elf/rv32imac/ilp32/libgcc/../../../../../riscv-gcc/libgcc/libgcc2.c:1070
20016d76:	6741                	lui	a4,0x10
20016d78:	0ae67563          	bgeu	a2,a4,20016e22 <__udivdi3+0xc6>
20016d7c:	0ff00713          	li	a4,255
20016d80:	00c73733          	sltu	a4,a4,a2
20016d84:	070e                	slli	a4,a4,0x3
20016d86:	00e65533          	srl	a0,a2,a4
20016d8a:	96aa                	add	a3,a3,a0
20016d8c:	0006c683          	lbu	a3,0(a3)
20016d90:	02000513          	li	a0,32
20016d94:	9736                	add	a4,a4,a3
20016d96:	40e506b3          	sub	a3,a0,a4
/scratch/jenkins/workspace/tpp-freedom-tools/tpp03--build-binary-packages--parameterized/obj/x86_64-w64-mingw32/build/riscv64-unknown-elf-gcc/build-gcc-stage2/riscv64-unknown-elf/rv32imac/ilp32/libgcc/../../../../../riscv-gcc/libgcc/libgcc2.c:1072
20016d9a:	00e50b63          	beq	a0,a4,20016db0 <__udivdi3+0x54>
/scratch/jenkins/workspace/tpp-freedom-tools/tpp03--build-binary-packages--parameterized/obj/x86_64-w64-mingw32/build/riscv64-unknown-elf-gcc/build-gcc-stage2/riscv64-unknown-elf/rv32imac/ilp32/libgcc/../../../../../riscv-gcc/libgcc/libgcc2.c:1078
20016d9e:	00d795b3          	sll	a1,a5,a3
20016da2:	00e8d733          	srl	a4,a7,a4
/scratch/jenkins/workspace/tpp-freedom-tools/tpp03--build-binary-packages--parameterized/obj/x86_64-w64-mingw32/build/riscv64-unknown-elf-gcc/build-gcc-stage2/riscv64-unknown-elf/rv32imac/ilp32/libgcc/../../../../../riscv-gcc/libgcc/libgcc2.c:1077
20016da6:	00d61833          	sll	a6,a2,a3
/scratch/jenkins/workspace/tpp-freedom-tools/tpp03--build-binary-packages--parameterized/obj/x86_64-w64-mingw32/build/riscv64-unknown-elf-gcc/build-gcc-stage2/riscv64-unknown-elf/rv32imac/ilp32/libgcc/../../../../../riscv-gcc/libgcc/libgcc2.c:1078
20016daa:	8dd9                	or	a1,a1,a4
/scratch/jenkins/workspace/tpp-freedom-tools/tpp03--build-binary-packages--parameterized/obj/x86_64-w64-mingw32/build/riscv64-unknown-elf-gcc/build-gcc-stage2/riscv64-unknown-elf/rv32imac/ilp32/libgcc/../../../../../riscv-gcc/libgcc/libgcc2.c:1079
20016dac:	00d89333          	sll	t1,a7,a3
/scratch/jenkins/workspace/tpp-freedom-tools/tpp03--build-binary-packages--parameterized/obj/x86_64-w64-mingw32/build/riscv64-unknown-elf-gcc/build-gcc-stage2/riscv64-unknown-elf/rv32imac/ilp32/libgcc/../../../../../riscv-gcc/libgcc/libgcc2.c:1082
20016db0:	01085893          	srli	a7,a6,0x10
20016db4:	0315d6b3          	divu	a3,a1,a7
20016db8:	01081613          	slli	a2,a6,0x10
20016dbc:	8241                	srli	a2,a2,0x10
20016dbe:	01035793          	srli	a5,t1,0x10
20016dc2:	0315f733          	remu	a4,a1,a7
20016dc6:	8536                	mv	a0,a3
20016dc8:	02d605b3          	mul	a1,a2,a3
20016dcc:	0742                	slli	a4,a4,0x10
20016dce:	8fd9                	or	a5,a5,a4
20016dd0:	00b7fc63          	bgeu	a5,a1,20016de8 <__udivdi3+0x8c>
20016dd4:	97c2                	add	a5,a5,a6
20016dd6:	fff68513          	addi	a0,a3,-1
20016dda:	0107e763          	bltu	a5,a6,20016de8 <__udivdi3+0x8c>
20016dde:	00b7f563          	bgeu	a5,a1,20016de8 <__udivdi3+0x8c>
20016de2:	ffe68513          	addi	a0,a3,-2
20016de6:	97c2                	add	a5,a5,a6
20016de8:	8f8d                	sub	a5,a5,a1
20016dea:	0317f733          	remu	a4,a5,a7
20016dee:	0342                	slli	t1,t1,0x10
20016df0:	01035313          	srli	t1,t1,0x10
20016df4:	0317d7b3          	divu	a5,a5,a7
20016df8:	0742                	slli	a4,a4,0x10
20016dfa:	00676333          	or	t1,a4,t1
20016dfe:	02f606b3          	mul	a3,a2,a5
20016e02:	863e                	mv	a2,a5
20016e04:	00d37b63          	bgeu	t1,a3,20016e1a <__udivdi3+0xbe>
20016e08:	9342                	add	t1,t1,a6
20016e0a:	fff78613          	addi	a2,a5,-1
20016e0e:	01036663          	bltu	t1,a6,20016e1a <__udivdi3+0xbe>
20016e12:	00d37463          	bgeu	t1,a3,20016e1a <__udivdi3+0xbe>
20016e16:	ffe78613          	addi	a2,a5,-2
20016e1a:	0542                	slli	a0,a0,0x10
20016e1c:	8d51                	or	a0,a0,a2
/scratch/jenkins/workspace/tpp-freedom-tools/tpp03--build-binary-packages--parameterized/obj/x86_64-w64-mingw32/build/riscv64-unknown-elf-gcc/build-gcc-stage2/riscv64-unknown-elf/rv32imac/ilp32/libgcc/../../../../../riscv-gcc/libgcc/libgcc2.c:1209
20016e1e:	4581                	li	a1,0
20016e20:	a85d                	j	20016ed6 <__udivdi3+0x17a>
/scratch/jenkins/workspace/tpp-freedom-tools/tpp03--build-binary-packages--parameterized/obj/x86_64-w64-mingw32/build/riscv64-unknown-elf-gcc/build-gcc-stage2/riscv64-unknown-elf/rv32imac/ilp32/libgcc/../../../../../riscv-gcc/libgcc/libgcc2.c:1070
20016e22:	01000537          	lui	a0,0x1000
20016e26:	4741                	li	a4,16
20016e28:	f4a66fe3          	bltu	a2,a0,20016d86 <__udivdi3+0x2a>
20016e2c:	4761                	li	a4,24
20016e2e:	bfa1                	j	20016d86 <__udivdi3+0x2a>
/scratch/jenkins/workspace/tpp-freedom-tools/tpp03--build-binary-packages--parameterized/obj/x86_64-w64-mingw32/build/riscv64-unknown-elf-gcc/build-gcc-stage2/riscv64-unknown-elf/rv32imac/ilp32/libgcc/../../../../../riscv-gcc/libgcc/libgcc2.c:1091
20016e30:	e601                	bnez	a2,20016e38 <__udivdi3+0xdc>
/scratch/jenkins/workspace/tpp-freedom-tools/tpp03--build-binary-packages--parameterized/obj/x86_64-w64-mingw32/build/riscv64-unknown-elf-gcc/build-gcc-stage2/riscv64-unknown-elf/rv32imac/ilp32/libgcc/../../../../../riscv-gcc/libgcc/libgcc2.c:1092
20016e32:	4705                	li	a4,1
20016e34:	02c75833          	divu	a6,a4,a2
/scratch/jenkins/workspace/tpp-freedom-tools/tpp03--build-binary-packages--parameterized/obj/x86_64-w64-mingw32/build/riscv64-unknown-elf-gcc/build-gcc-stage2/riscv64-unknown-elf/rv32imac/ilp32/libgcc/../../../../../riscv-gcc/libgcc/libgcc2.c:1094
20016e38:	6741                	lui	a4,0x10
20016e3a:	08e87f63          	bgeu	a6,a4,20016ed8 <__udivdi3+0x17c>
20016e3e:	0ff00713          	li	a4,255
20016e42:	01077363          	bgeu	a4,a6,20016e48 <__udivdi3+0xec>
20016e46:	4521                	li	a0,8
20016e48:	00a85733          	srl	a4,a6,a0
20016e4c:	96ba                	add	a3,a3,a4
20016e4e:	0006c703          	lbu	a4,0(a3)
20016e52:	02000613          	li	a2,32
20016e56:	972a                	add	a4,a4,a0
20016e58:	40e606b3          	sub	a3,a2,a4
/scratch/jenkins/workspace/tpp-freedom-tools/tpp03--build-binary-packages--parameterized/obj/x86_64-w64-mingw32/build/riscv64-unknown-elf-gcc/build-gcc-stage2/riscv64-unknown-elf/rv32imac/ilp32/libgcc/../../../../../riscv-gcc/libgcc/libgcc2.c:1096
20016e5c:	08e61563          	bne	a2,a4,20016ee6 <__udivdi3+0x18a>
/scratch/jenkins/workspace/tpp-freedom-tools/tpp03--build-binary-packages--parameterized/obj/x86_64-w64-mingw32/build/riscv64-unknown-elf-gcc/build-gcc-stage2/riscv64-unknown-elf/rv32imac/ilp32/libgcc/../../../../../riscv-gcc/libgcc/libgcc2.c:1105
20016e60:	410787b3          	sub	a5,a5,a6
/scratch/jenkins/workspace/tpp-freedom-tools/tpp03--build-binary-packages--parameterized/obj/x86_64-w64-mingw32/build/riscv64-unknown-elf-gcc/build-gcc-stage2/riscv64-unknown-elf/rv32imac/ilp32/libgcc/../../../../../riscv-gcc/libgcc/libgcc2.c:1106
20016e64:	4585                	li	a1,1
/scratch/jenkins/workspace/tpp-freedom-tools/tpp03--build-binary-packages--parameterized/obj/x86_64-w64-mingw32/build/riscv64-unknown-elf-gcc/build-gcc-stage2/riscv64-unknown-elf/rv32imac/ilp32/libgcc/../../../../../riscv-gcc/libgcc/libgcc2.c:1124
20016e66:	01085893          	srli	a7,a6,0x10
20016e6a:	01081613          	slli	a2,a6,0x10
20016e6e:	8241                	srli	a2,a2,0x10
20016e70:	01035713          	srli	a4,t1,0x10
20016e74:	0317f6b3          	remu	a3,a5,a7
20016e78:	0317d7b3          	divu	a5,a5,a7
20016e7c:	06c2                	slli	a3,a3,0x10
20016e7e:	8f55                	or	a4,a4,a3
20016e80:	02f60e33          	mul	t3,a2,a5
20016e84:	853e                	mv	a0,a5
20016e86:	01c77c63          	bgeu	a4,t3,20016e9e <__udivdi3+0x142>
20016e8a:	9742                	add	a4,a4,a6
20016e8c:	fff78513          	addi	a0,a5,-1
20016e90:	01076763          	bltu	a4,a6,20016e9e <__udivdi3+0x142>
20016e94:	01c77563          	bgeu	a4,t3,20016e9e <__udivdi3+0x142>
20016e98:	ffe78513          	addi	a0,a5,-2
20016e9c:	9742                	add	a4,a4,a6
20016e9e:	41c70733          	sub	a4,a4,t3
20016ea2:	031777b3          	remu	a5,a4,a7
20016ea6:	0342                	slli	t1,t1,0x10
20016ea8:	01035313          	srli	t1,t1,0x10
20016eac:	03175733          	divu	a4,a4,a7
20016eb0:	07c2                	slli	a5,a5,0x10
20016eb2:	0067e333          	or	t1,a5,t1
20016eb6:	02e606b3          	mul	a3,a2,a4
20016eba:	863a                	mv	a2,a4
20016ebc:	00d37b63          	bgeu	t1,a3,20016ed2 <__udivdi3+0x176>
20016ec0:	9342                	add	t1,t1,a6
20016ec2:	fff70613          	addi	a2,a4,-1 # ffff <__heap_size+0xf7ff>
20016ec6:	01036663          	bltu	t1,a6,20016ed2 <__udivdi3+0x176>
20016eca:	00d37463          	bgeu	t1,a3,20016ed2 <__udivdi3+0x176>
20016ece:	ffe70613          	addi	a2,a4,-2
20016ed2:	0542                	slli	a0,a0,0x10
20016ed4:	8d51                	or	a0,a0,a2
__udivdi3():
/scratch/jenkins/workspace/tpp-freedom-tools/tpp03--build-binary-packages--parameterized/obj/x86_64-w64-mingw32/build/riscv64-unknown-elf-gcc/build-gcc-stage2/riscv64-unknown-elf/rv32imac/ilp32/libgcc/../../../../../riscv-gcc/libgcc/libgcc2.c:1321
20016ed6:	8082                	ret
__udivmoddi4():
/scratch/jenkins/workspace/tpp-freedom-tools/tpp03--build-binary-packages--parameterized/obj/x86_64-w64-mingw32/build/riscv64-unknown-elf-gcc/build-gcc-stage2/riscv64-unknown-elf/rv32imac/ilp32/libgcc/../../../../../riscv-gcc/libgcc/libgcc2.c:1094
20016ed8:	01000737          	lui	a4,0x1000
20016edc:	4541                	li	a0,16
20016ede:	f6e865e3          	bltu	a6,a4,20016e48 <__udivdi3+0xec>
20016ee2:	4561                	li	a0,24
20016ee4:	b795                	j	20016e48 <__udivdi3+0xec>
/scratch/jenkins/workspace/tpp-freedom-tools/tpp03--build-binary-packages--parameterized/obj/x86_64-w64-mingw32/build/riscv64-unknown-elf-gcc/build-gcc-stage2/riscv64-unknown-elf/rv32imac/ilp32/libgcc/../../../../../riscv-gcc/libgcc/libgcc2.c:1114
20016ee6:	00d81833          	sll	a6,a6,a3
/scratch/jenkins/workspace/tpp-freedom-tools/tpp03--build-binary-packages--parameterized/obj/x86_64-w64-mingw32/build/riscv64-unknown-elf-gcc/build-gcc-stage2/riscv64-unknown-elf/rv32imac/ilp32/libgcc/../../../../../riscv-gcc/libgcc/libgcc2.c:1115
20016eea:	00e7d533          	srl	a0,a5,a4
/scratch/jenkins/workspace/tpp-freedom-tools/tpp03--build-binary-packages--parameterized/obj/x86_64-w64-mingw32/build/riscv64-unknown-elf-gcc/build-gcc-stage2/riscv64-unknown-elf/rv32imac/ilp32/libgcc/../../../../../riscv-gcc/libgcc/libgcc2.c:1117
20016eee:	00d89333          	sll	t1,a7,a3
/scratch/jenkins/workspace/tpp-freedom-tools/tpp03--build-binary-packages--parameterized/obj/x86_64-w64-mingw32/build/riscv64-unknown-elf-gcc/build-gcc-stage2/riscv64-unknown-elf/rv32imac/ilp32/libgcc/../../../../../riscv-gcc/libgcc/libgcc2.c:1116
20016ef2:	00d797b3          	sll	a5,a5,a3
20016ef6:	00e8d733          	srl	a4,a7,a4
/scratch/jenkins/workspace/tpp-freedom-tools/tpp03--build-binary-packages--parameterized/obj/x86_64-w64-mingw32/build/riscv64-unknown-elf-gcc/build-gcc-stage2/riscv64-unknown-elf/rv32imac/ilp32/libgcc/../../../../../riscv-gcc/libgcc/libgcc2.c:1119
20016efa:	01085893          	srli	a7,a6,0x10
/scratch/jenkins/workspace/tpp-freedom-tools/tpp03--build-binary-packages--parameterized/obj/x86_64-w64-mingw32/build/riscv64-unknown-elf-gcc/build-gcc-stage2/riscv64-unknown-elf/rv32imac/ilp32/libgcc/../../../../../riscv-gcc/libgcc/libgcc2.c:1116
20016efe:	00f76633          	or	a2,a4,a5
/scratch/jenkins/workspace/tpp-freedom-tools/tpp03--build-binary-packages--parameterized/obj/x86_64-w64-mingw32/build/riscv64-unknown-elf-gcc/build-gcc-stage2/riscv64-unknown-elf/rv32imac/ilp32/libgcc/../../../../../riscv-gcc/libgcc/libgcc2.c:1119
20016f02:	03157733          	remu	a4,a0,a7
20016f06:	01081793          	slli	a5,a6,0x10
20016f0a:	83c1                	srli	a5,a5,0x10
20016f0c:	01065593          	srli	a1,a2,0x10
20016f10:	03155533          	divu	a0,a0,a7
20016f14:	0742                	slli	a4,a4,0x10
20016f16:	8f4d                	or	a4,a4,a1
20016f18:	02a786b3          	mul	a3,a5,a0
20016f1c:	85aa                	mv	a1,a0
20016f1e:	00d77c63          	bgeu	a4,a3,20016f36 <__udivdi3+0x1da>
20016f22:	9742                	add	a4,a4,a6
20016f24:	fff50593          	addi	a1,a0,-1 # ffffff <__heap_size+0xfff7ff>
20016f28:	01076763          	bltu	a4,a6,20016f36 <__udivdi3+0x1da>
20016f2c:	00d77563          	bgeu	a4,a3,20016f36 <__udivdi3+0x1da>
20016f30:	ffe50593          	addi	a1,a0,-2
20016f34:	9742                	add	a4,a4,a6
20016f36:	40d706b3          	sub	a3,a4,a3
20016f3a:	0316f733          	remu	a4,a3,a7
20016f3e:	0642                	slli	a2,a2,0x10
20016f40:	8241                	srli	a2,a2,0x10
20016f42:	0316d6b3          	divu	a3,a3,a7
20016f46:	0742                	slli	a4,a4,0x10
20016f48:	02d78533          	mul	a0,a5,a3
20016f4c:	00c767b3          	or	a5,a4,a2
20016f50:	8736                	mv	a4,a3
20016f52:	00a7fc63          	bgeu	a5,a0,20016f6a <__udivdi3+0x20e>
20016f56:	97c2                	add	a5,a5,a6
20016f58:	fff68713          	addi	a4,a3,-1
20016f5c:	0107e763          	bltu	a5,a6,20016f6a <__udivdi3+0x20e>
20016f60:	00a7f563          	bgeu	a5,a0,20016f6a <__udivdi3+0x20e>
20016f64:	ffe68713          	addi	a4,a3,-2
20016f68:	97c2                	add	a5,a5,a6
20016f6a:	05c2                	slli	a1,a1,0x10
20016f6c:	8f89                	sub	a5,a5,a0
20016f6e:	8dd9                	or	a1,a1,a4
20016f70:	bddd                	j	20016e66 <__udivdi3+0x10a>
/scratch/jenkins/workspace/tpp-freedom-tools/tpp03--build-binary-packages--parameterized/obj/x86_64-w64-mingw32/build/riscv64-unknown-elf-gcc/build-gcc-stage2/riscv64-unknown-elf/rv32imac/ilp32/libgcc/../../../../../riscv-gcc/libgcc/libgcc2.c:1140
20016f72:	14d5e263          	bltu	a1,a3,200170b6 <__udivdi3+0x35a>
/scratch/jenkins/workspace/tpp-freedom-tools/tpp03--build-binary-packages--parameterized/obj/x86_64-w64-mingw32/build/riscv64-unknown-elf-gcc/build-gcc-stage2/riscv64-unknown-elf/rv32imac/ilp32/libgcc/../../../../../riscv-gcc/libgcc/libgcc2.c:1159
20016f76:	6741                	lui	a4,0x10
20016f78:	02e6ff63          	bgeu	a3,a4,20016fb6 <__udivdi3+0x25a>
20016f7c:	0ff00713          	li	a4,255
20016f80:	00d735b3          	sltu	a1,a4,a3
20016f84:	058e                	slli	a1,a1,0x3
20016f86:	00b6d533          	srl	a0,a3,a1
20016f8a:	ffffa717          	auipc	a4,0xffffa
20016f8e:	fba70713          	addi	a4,a4,-70 # 20010f44 <__clz_tab>
20016f92:	972a                	add	a4,a4,a0
20016f94:	00074703          	lbu	a4,0(a4)
20016f98:	02000513          	li	a0,32
20016f9c:	972e                	add	a4,a4,a1
20016f9e:	40e505b3          	sub	a1,a0,a4
/scratch/jenkins/workspace/tpp-freedom-tools/tpp03--build-binary-packages--parameterized/obj/x86_64-w64-mingw32/build/riscv64-unknown-elf-gcc/build-gcc-stage2/riscv64-unknown-elf/rv32imac/ilp32/libgcc/../../../../../riscv-gcc/libgcc/libgcc2.c:1160
20016fa2:	02e51163          	bne	a0,a4,20016fc4 <__udivdi3+0x268>
/scratch/jenkins/workspace/tpp-freedom-tools/tpp03--build-binary-packages--parameterized/obj/x86_64-w64-mingw32/build/riscv64-unknown-elf-gcc/build-gcc-stage2/riscv64-unknown-elf/rv32imac/ilp32/libgcc/../../../../../riscv-gcc/libgcc/libgcc2.c:1172
20016fa6:	4505                	li	a0,1
/scratch/jenkins/workspace/tpp-freedom-tools/tpp03--build-binary-packages--parameterized/obj/x86_64-w64-mingw32/build/riscv64-unknown-elf-gcc/build-gcc-stage2/riscv64-unknown-elf/rv32imac/ilp32/libgcc/../../../../../riscv-gcc/libgcc/libgcc2.c:1170
20016fa8:	f2f6e7e3          	bltu	a3,a5,20016ed6 <__udivdi3+0x17a>
20016fac:	00c8b533          	sltu	a0,a7,a2
20016fb0:	00154513          	xori	a0,a0,1
20016fb4:	b70d                	j	20016ed6 <__udivdi3+0x17a>
/scratch/jenkins/workspace/tpp-freedom-tools/tpp03--build-binary-packages--parameterized/obj/x86_64-w64-mingw32/build/riscv64-unknown-elf-gcc/build-gcc-stage2/riscv64-unknown-elf/rv32imac/ilp32/libgcc/../../../../../riscv-gcc/libgcc/libgcc2.c:1159
20016fb6:	01000737          	lui	a4,0x1000
20016fba:	45c1                	li	a1,16
20016fbc:	fce6e5e3          	bltu	a3,a4,20016f86 <__udivdi3+0x22a>
20016fc0:	45e1                	li	a1,24
20016fc2:	b7d1                	j	20016f86 <__udivdi3+0x22a>
/scratch/jenkins/workspace/tpp-freedom-tools/tpp03--build-binary-packages--parameterized/obj/x86_64-w64-mingw32/build/riscv64-unknown-elf-gcc/build-gcc-stage2/riscv64-unknown-elf/rv32imac/ilp32/libgcc/../../../../../riscv-gcc/libgcc/libgcc2.c:1194
20016fc4:	00e65833          	srl	a6,a2,a4
20016fc8:	00b696b3          	sll	a3,a3,a1
20016fcc:	00d86833          	or	a6,a6,a3
/scratch/jenkins/workspace/tpp-freedom-tools/tpp03--build-binary-packages--parameterized/obj/x86_64-w64-mingw32/build/riscv64-unknown-elf-gcc/build-gcc-stage2/riscv64-unknown-elf/rv32imac/ilp32/libgcc/../../../../../riscv-gcc/libgcc/libgcc2.c:1196
20016fd0:	00e7d333          	srl	t1,a5,a4
/scratch/jenkins/workspace/tpp-freedom-tools/tpp03--build-binary-packages--parameterized/obj/x86_64-w64-mingw32/build/riscv64-unknown-elf-gcc/build-gcc-stage2/riscv64-unknown-elf/rv32imac/ilp32/libgcc/../../../../../riscv-gcc/libgcc/libgcc2.c:1200
20016fd4:	01085e93          	srli	t4,a6,0x10
20016fd8:	03d376b3          	remu	a3,t1,t4
/scratch/jenkins/workspace/tpp-freedom-tools/tpp03--build-binary-packages--parameterized/obj/x86_64-w64-mingw32/build/riscv64-unknown-elf-gcc/build-gcc-stage2/riscv64-unknown-elf/rv32imac/ilp32/libgcc/../../../../../riscv-gcc/libgcc/libgcc2.c:1197
20016fdc:	00b797b3          	sll	a5,a5,a1
20016fe0:	00e8d733          	srl	a4,a7,a4
/scratch/jenkins/workspace/tpp-freedom-tools/tpp03--build-binary-packages--parameterized/obj/x86_64-w64-mingw32/build/riscv64-unknown-elf-gcc/build-gcc-stage2/riscv64-unknown-elf/rv32imac/ilp32/libgcc/../../../../../riscv-gcc/libgcc/libgcc2.c:1195
20016fe4:	00b61e33          	sll	t3,a2,a1
/scratch/jenkins/workspace/tpp-freedom-tools/tpp03--build-binary-packages--parameterized/obj/x86_64-w64-mingw32/build/riscv64-unknown-elf-gcc/build-gcc-stage2/riscv64-unknown-elf/rv32imac/ilp32/libgcc/../../../../../riscv-gcc/libgcc/libgcc2.c:1197
20016fe8:	00f76633          	or	a2,a4,a5
/scratch/jenkins/workspace/tpp-freedom-tools/tpp03--build-binary-packages--parameterized/obj/x86_64-w64-mingw32/build/riscv64-unknown-elf-gcc/build-gcc-stage2/riscv64-unknown-elf/rv32imac/ilp32/libgcc/../../../../../riscv-gcc/libgcc/libgcc2.c:1200
20016fec:	01081793          	slli	a5,a6,0x10
20016ff0:	83c1                	srli	a5,a5,0x10
20016ff2:	01065713          	srli	a4,a2,0x10
20016ff6:	03d35333          	divu	t1,t1,t4
20016ffa:	06c2                	slli	a3,a3,0x10
20016ffc:	8f55                	or	a4,a4,a3
20016ffe:	02678f33          	mul	t5,a5,t1
20017002:	851a                	mv	a0,t1
20017004:	01e77c63          	bgeu	a4,t5,2001701c <__udivdi3+0x2c0>
20017008:	9742                	add	a4,a4,a6
2001700a:	fff30513          	addi	a0,t1,-1
2001700e:	01076763          	bltu	a4,a6,2001701c <__udivdi3+0x2c0>
20017012:	01e77563          	bgeu	a4,t5,2001701c <__udivdi3+0x2c0>
20017016:	ffe30513          	addi	a0,t1,-2
2001701a:	9742                	add	a4,a4,a6
2001701c:	41e70733          	sub	a4,a4,t5
20017020:	03d776b3          	remu	a3,a4,t4
20017024:	03d75733          	divu	a4,a4,t4
20017028:	06c2                	slli	a3,a3,0x10
2001702a:	02e78333          	mul	t1,a5,a4
2001702e:	01061793          	slli	a5,a2,0x10
20017032:	83c1                	srli	a5,a5,0x10
20017034:	8fd5                	or	a5,a5,a3
20017036:	863a                	mv	a2,a4
20017038:	0067fc63          	bgeu	a5,t1,20017050 <__udivdi3+0x2f4>
2001703c:	97c2                	add	a5,a5,a6
2001703e:	fff70613          	addi	a2,a4,-1 # ffffff <__heap_size+0xfff7ff>
20017042:	0107e763          	bltu	a5,a6,20017050 <__udivdi3+0x2f4>
20017046:	0067f563          	bgeu	a5,t1,20017050 <__udivdi3+0x2f4>
2001704a:	ffe70613          	addi	a2,a4,-2
2001704e:	97c2                	add	a5,a5,a6
20017050:	0542                	slli	a0,a0,0x10
/scratch/jenkins/workspace/tpp-freedom-tools/tpp03--build-binary-packages--parameterized/obj/x86_64-w64-mingw32/build/riscv64-unknown-elf-gcc/build-gcc-stage2/riscv64-unknown-elf/rv32imac/ilp32/libgcc/../../../../../riscv-gcc/libgcc/libgcc2.c:1201
20017052:	6ec1                	lui	t4,0x10
/scratch/jenkins/workspace/tpp-freedom-tools/tpp03--build-binary-packages--parameterized/obj/x86_64-w64-mingw32/build/riscv64-unknown-elf-gcc/build-gcc-stage2/riscv64-unknown-elf/rv32imac/ilp32/libgcc/../../../../../riscv-gcc/libgcc/libgcc2.c:1200
20017054:	8d51                	or	a0,a0,a2
/scratch/jenkins/workspace/tpp-freedom-tools/tpp03--build-binary-packages--parameterized/obj/x86_64-w64-mingw32/build/riscv64-unknown-elf-gcc/build-gcc-stage2/riscv64-unknown-elf/rv32imac/ilp32/libgcc/../../../../../riscv-gcc/libgcc/libgcc2.c:1201
20017056:	fffe8693          	addi	a3,t4,-1 # ffff <__heap_size+0xf7ff>
2001705a:	010e5613          	srli	a2,t3,0x10
2001705e:	01055813          	srli	a6,a0,0x10
/scratch/jenkins/workspace/tpp-freedom-tools/tpp03--build-binary-packages--parameterized/obj/x86_64-w64-mingw32/build/riscv64-unknown-elf-gcc/build-gcc-stage2/riscv64-unknown-elf/rv32imac/ilp32/libgcc/../../../../../riscv-gcc/libgcc/libgcc2.c:1200
20017062:	406787b3          	sub	a5,a5,t1
/scratch/jenkins/workspace/tpp-freedom-tools/tpp03--build-binary-packages--parameterized/obj/x86_64-w64-mingw32/build/riscv64-unknown-elf-gcc/build-gcc-stage2/riscv64-unknown-elf/rv32imac/ilp32/libgcc/../../../../../riscv-gcc/libgcc/libgcc2.c:1201
20017066:	00d57333          	and	t1,a0,a3
2001706a:	00de76b3          	and	a3,t3,a3
2001706e:	02d30e33          	mul	t3,t1,a3
20017072:	02d806b3          	mul	a3,a6,a3
20017076:	010e5713          	srli	a4,t3,0x10
2001707a:	02c30333          	mul	t1,t1,a2
2001707e:	9336                	add	t1,t1,a3
20017080:	971a                	add	a4,a4,t1
20017082:	02c80833          	mul	a6,a6,a2
20017086:	00d77363          	bgeu	a4,a3,2001708c <__udivdi3+0x330>
2001708a:	9876                	add	a6,a6,t4
2001708c:	01075693          	srli	a3,a4,0x10
20017090:	9836                	add	a6,a6,a3
/scratch/jenkins/workspace/tpp-freedom-tools/tpp03--build-binary-packages--parameterized/obj/x86_64-w64-mingw32/build/riscv64-unknown-elf-gcc/build-gcc-stage2/riscv64-unknown-elf/rv32imac/ilp32/libgcc/../../../../../riscv-gcc/libgcc/libgcc2.c:1203
20017092:	0307e063          	bltu	a5,a6,200170b2 <__udivdi3+0x356>
20017096:	d90794e3          	bne	a5,a6,20016e1e <__udivdi3+0xc2>
/scratch/jenkins/workspace/tpp-freedom-tools/tpp03--build-binary-packages--parameterized/obj/x86_64-w64-mingw32/build/riscv64-unknown-elf-gcc/build-gcc-stage2/riscv64-unknown-elf/rv32imac/ilp32/libgcc/../../../../../riscv-gcc/libgcc/libgcc2.c:1201
2001709a:	67c1                	lui	a5,0x10
2001709c:	17fd                	addi	a5,a5,-1
2001709e:	8f7d                	and	a4,a4,a5
200170a0:	0742                	slli	a4,a4,0x10
200170a2:	00fe7e33          	and	t3,t3,a5
/scratch/jenkins/workspace/tpp-freedom-tools/tpp03--build-binary-packages--parameterized/obj/x86_64-w64-mingw32/build/riscv64-unknown-elf-gcc/build-gcc-stage2/riscv64-unknown-elf/rv32imac/ilp32/libgcc/../../../../../riscv-gcc/libgcc/libgcc2.c:1198
200170a6:	00b898b3          	sll	a7,a7,a1
/scratch/jenkins/workspace/tpp-freedom-tools/tpp03--build-binary-packages--parameterized/obj/x86_64-w64-mingw32/build/riscv64-unknown-elf-gcc/build-gcc-stage2/riscv64-unknown-elf/rv32imac/ilp32/libgcc/../../../../../riscv-gcc/libgcc/libgcc2.c:1201
200170aa:	9772                	add	a4,a4,t3
/scratch/jenkins/workspace/tpp-freedom-tools/tpp03--build-binary-packages--parameterized/obj/x86_64-w64-mingw32/build/riscv64-unknown-elf-gcc/build-gcc-stage2/riscv64-unknown-elf/rv32imac/ilp32/libgcc/../../../../../riscv-gcc/libgcc/libgcc2.c:1209
200170ac:	4581                	li	a1,0
/scratch/jenkins/workspace/tpp-freedom-tools/tpp03--build-binary-packages--parameterized/obj/x86_64-w64-mingw32/build/riscv64-unknown-elf-gcc/build-gcc-stage2/riscv64-unknown-elf/rv32imac/ilp32/libgcc/../../../../../riscv-gcc/libgcc/libgcc2.c:1203
200170ae:	e2e8f4e3          	bgeu	a7,a4,20016ed6 <__udivdi3+0x17a>
/scratch/jenkins/workspace/tpp-freedom-tools/tpp03--build-binary-packages--parameterized/obj/x86_64-w64-mingw32/build/riscv64-unknown-elf-gcc/build-gcc-stage2/riscv64-unknown-elf/rv32imac/ilp32/libgcc/../../../../../riscv-gcc/libgcc/libgcc2.c:1205
200170b2:	157d                	addi	a0,a0,-1
__udivdi3():
/scratch/jenkins/workspace/tpp-freedom-tools/tpp03--build-binary-packages--parameterized/obj/x86_64-w64-mingw32/build/riscv64-unknown-elf-gcc/build-gcc-stage2/riscv64-unknown-elf/rv32imac/ilp32/libgcc/../../../../../riscv-gcc/libgcc/libgcc2.c:1206
200170b4:	b3ad                	j	20016e1e <__udivdi3+0xc2>
__udivmoddi4():
/scratch/jenkins/workspace/tpp-freedom-tools/tpp03--build-binary-packages--parameterized/obj/x86_64-w64-mingw32/build/riscv64-unknown-elf-gcc/build-gcc-stage2/riscv64-unknown-elf/rv32imac/ilp32/libgcc/../../../../../riscv-gcc/libgcc/libgcc2.c:1145
200170b6:	4581                	li	a1,0
/scratch/jenkins/workspace/tpp-freedom-tools/tpp03--build-binary-packages--parameterized/obj/x86_64-w64-mingw32/build/riscv64-unknown-elf-gcc/build-gcc-stage2/riscv64-unknown-elf/rv32imac/ilp32/libgcc/../../../../../riscv-gcc/libgcc/libgcc2.c:1144
200170b8:	4501                	li	a0,0
200170ba:	bd31                	j	20016ed6 <__udivdi3+0x17a>

200170bc <__umoddi3>:
__umoddi3():
/scratch/jenkins/workspace/tpp-freedom-tools/tpp03--build-binary-packages--parameterized/obj/x86_64-w64-mingw32/build/riscv64-unknown-elf-gcc/build-gcc-stage2/riscv64-unknown-elf/rv32imac/ilp32/libgcc/../../../../../riscv-gcc/libgcc/libgcc2.c:1307
200170bc:	832a                	mv	t1,a0
__udivmoddi4():
/scratch/jenkins/workspace/tpp-freedom-tools/tpp03--build-binary-packages--parameterized/obj/x86_64-w64-mingw32/build/riscv64-unknown-elf-gcc/build-gcc-stage2/riscv64-unknown-elf/rv32imac/ilp32/libgcc/../../../../../riscv-gcc/libgcc/libgcc2.c:1024
200170be:	8832                	mv	a6,a2
/scratch/jenkins/workspace/tpp-freedom-tools/tpp03--build-binary-packages--parameterized/obj/x86_64-w64-mingw32/build/riscv64-unknown-elf-gcc/build-gcc-stage2/riscv64-unknown-elf/rv32imac/ilp32/libgcc/../../../../../riscv-gcc/libgcc/libgcc2.c:1025
200170c0:	87b6                	mv	a5,a3
/scratch/jenkins/workspace/tpp-freedom-tools/tpp03--build-binary-packages--parameterized/obj/x86_64-w64-mingw32/build/riscv64-unknown-elf-gcc/build-gcc-stage2/riscv64-unknown-elf/rv32imac/ilp32/libgcc/../../../../../riscv-gcc/libgcc/libgcc2.c:1027
200170c2:	872e                	mv	a4,a1
/scratch/jenkins/workspace/tpp-freedom-tools/tpp03--build-binary-packages--parameterized/obj/x86_64-w64-mingw32/build/riscv64-unknown-elf-gcc/build-gcc-stage2/riscv64-unknown-elf/rv32imac/ilp32/libgcc/../../../../../riscv-gcc/libgcc/libgcc2.c:1064
200170c4:	1c069563          	bnez	a3,2001728e <__umoddi3+0x1d2>
/scratch/jenkins/workspace/tpp-freedom-tools/tpp03--build-binary-packages--parameterized/obj/x86_64-w64-mingw32/build/riscv64-unknown-elf-gcc/build-gcc-stage2/riscv64-unknown-elf/rv32imac/ilp32/libgcc/../../../../../riscv-gcc/libgcc/libgcc2.c:1066
200170c8:	ffffa697          	auipc	a3,0xffffa
200170cc:	e7c68693          	addi	a3,a3,-388 # 20010f44 <__clz_tab>
200170d0:	0ac5f663          	bgeu	a1,a2,2001717c <__umoddi3+0xc0>
/scratch/jenkins/workspace/tpp-freedom-tools/tpp03--build-binary-packages--parameterized/obj/x86_64-w64-mingw32/build/riscv64-unknown-elf-gcc/build-gcc-stage2/riscv64-unknown-elf/rv32imac/ilp32/libgcc/../../../../../riscv-gcc/libgcc/libgcc2.c:1070
200170d4:	68c1                	lui	a7,0x10
200170d6:	09167c63          	bgeu	a2,a7,2001716e <__umoddi3+0xb2>
200170da:	0ff00893          	li	a7,255
200170de:	00c8f363          	bgeu	a7,a2,200170e4 <__umoddi3+0x28>
200170e2:	47a1                	li	a5,8
200170e4:	00f658b3          	srl	a7,a2,a5
200170e8:	96c6                	add	a3,a3,a7
200170ea:	0006c683          	lbu	a3,0(a3)
200170ee:	97b6                	add	a5,a5,a3
200170f0:	02000693          	li	a3,32
200170f4:	40f688b3          	sub	a7,a3,a5
/scratch/jenkins/workspace/tpp-freedom-tools/tpp03--build-binary-packages--parameterized/obj/x86_64-w64-mingw32/build/riscv64-unknown-elf-gcc/build-gcc-stage2/riscv64-unknown-elf/rv32imac/ilp32/libgcc/../../../../../riscv-gcc/libgcc/libgcc2.c:1072
200170f8:	00f68c63          	beq	a3,a5,20017110 <__umoddi3+0x54>
/scratch/jenkins/workspace/tpp-freedom-tools/tpp03--build-binary-packages--parameterized/obj/x86_64-w64-mingw32/build/riscv64-unknown-elf-gcc/build-gcc-stage2/riscv64-unknown-elf/rv32imac/ilp32/libgcc/../../../../../riscv-gcc/libgcc/libgcc2.c:1078
200170fc:	011595b3          	sll	a1,a1,a7
20017100:	00f357b3          	srl	a5,t1,a5
/scratch/jenkins/workspace/tpp-freedom-tools/tpp03--build-binary-packages--parameterized/obj/x86_64-w64-mingw32/build/riscv64-unknown-elf-gcc/build-gcc-stage2/riscv64-unknown-elf/rv32imac/ilp32/libgcc/../../../../../riscv-gcc/libgcc/libgcc2.c:1077
20017104:	01161833          	sll	a6,a2,a7
/scratch/jenkins/workspace/tpp-freedom-tools/tpp03--build-binary-packages--parameterized/obj/x86_64-w64-mingw32/build/riscv64-unknown-elf-gcc/build-gcc-stage2/riscv64-unknown-elf/rv32imac/ilp32/libgcc/../../../../../riscv-gcc/libgcc/libgcc2.c:1078
20017108:	00b7e733          	or	a4,a5,a1
/scratch/jenkins/workspace/tpp-freedom-tools/tpp03--build-binary-packages--parameterized/obj/x86_64-w64-mingw32/build/riscv64-unknown-elf-gcc/build-gcc-stage2/riscv64-unknown-elf/rv32imac/ilp32/libgcc/../../../../../riscv-gcc/libgcc/libgcc2.c:1079
2001710c:	01131533          	sll	a0,t1,a7
/scratch/jenkins/workspace/tpp-freedom-tools/tpp03--build-binary-packages--parameterized/obj/x86_64-w64-mingw32/build/riscv64-unknown-elf-gcc/build-gcc-stage2/riscv64-unknown-elf/rv32imac/ilp32/libgcc/../../../../../riscv-gcc/libgcc/libgcc2.c:1082
20017110:	01085593          	srli	a1,a6,0x10
20017114:	02b777b3          	remu	a5,a4,a1
20017118:	01081613          	slli	a2,a6,0x10
2001711c:	8241                	srli	a2,a2,0x10
2001711e:	01055693          	srli	a3,a0,0x10
20017122:	02b75733          	divu	a4,a4,a1
20017126:	07c2                	slli	a5,a5,0x10
20017128:	8edd                	or	a3,a3,a5
2001712a:	02e60733          	mul	a4,a2,a4
2001712e:	00e6f863          	bgeu	a3,a4,2001713e <__umoddi3+0x82>
20017132:	96c2                	add	a3,a3,a6
20017134:	0106e563          	bltu	a3,a6,2001713e <__umoddi3+0x82>
20017138:	00e6f363          	bgeu	a3,a4,2001713e <__umoddi3+0x82>
2001713c:	96c2                	add	a3,a3,a6
2001713e:	8e99                	sub	a3,a3,a4
20017140:	02b6f7b3          	remu	a5,a3,a1
20017144:	0542                	slli	a0,a0,0x10
20017146:	8141                	srli	a0,a0,0x10
20017148:	02b6d6b3          	divu	a3,a3,a1
2001714c:	07c2                	slli	a5,a5,0x10
2001714e:	8d5d                	or	a0,a0,a5
20017150:	02d606b3          	mul	a3,a2,a3
20017154:	00d57863          	bgeu	a0,a3,20017164 <__umoddi3+0xa8>
20017158:	9542                	add	a0,a0,a6
2001715a:	01056563          	bltu	a0,a6,20017164 <__umoddi3+0xa8>
2001715e:	00d57363          	bgeu	a0,a3,20017164 <__umoddi3+0xa8>
20017162:	9542                	add	a0,a0,a6
20017164:	8d15                	sub	a0,a0,a3
/scratch/jenkins/workspace/tpp-freedom-tools/tpp03--build-binary-packages--parameterized/obj/x86_64-w64-mingw32/build/riscv64-unknown-elf-gcc/build-gcc-stage2/riscv64-unknown-elf/rv32imac/ilp32/libgcc/../../../../../riscv-gcc/libgcc/libgcc2.c:1131
20017166:	01155533          	srl	a0,a0,a7
/scratch/jenkins/workspace/tpp-freedom-tools/tpp03--build-binary-packages--parameterized/obj/x86_64-w64-mingw32/build/riscv64-unknown-elf-gcc/build-gcc-stage2/riscv64-unknown-elf/rv32imac/ilp32/libgcc/../../../../../riscv-gcc/libgcc/libgcc2.c:1133
2001716a:	4581                	li	a1,0
__umoddi3():
/scratch/jenkins/workspace/tpp-freedom-tools/tpp03--build-binary-packages--parameterized/obj/x86_64-w64-mingw32/build/riscv64-unknown-elf-gcc/build-gcc-stage2/riscv64-unknown-elf/rv32imac/ilp32/libgcc/../../../../../riscv-gcc/libgcc/libgcc2.c:1313
2001716c:	8082                	ret
__udivmoddi4():
/scratch/jenkins/workspace/tpp-freedom-tools/tpp03--build-binary-packages--parameterized/obj/x86_64-w64-mingw32/build/riscv64-unknown-elf-gcc/build-gcc-stage2/riscv64-unknown-elf/rv32imac/ilp32/libgcc/../../../../../riscv-gcc/libgcc/libgcc2.c:1070
2001716e:	010008b7          	lui	a7,0x1000
20017172:	47c1                	li	a5,16
20017174:	f71668e3          	bltu	a2,a7,200170e4 <__umoddi3+0x28>
20017178:	47e1                	li	a5,24
2001717a:	b7ad                	j	200170e4 <__umoddi3+0x28>
/scratch/jenkins/workspace/tpp-freedom-tools/tpp03--build-binary-packages--parameterized/obj/x86_64-w64-mingw32/build/riscv64-unknown-elf-gcc/build-gcc-stage2/riscv64-unknown-elf/rv32imac/ilp32/libgcc/../../../../../riscv-gcc/libgcc/libgcc2.c:1091
2001717c:	e601                	bnez	a2,20017184 <__umoddi3+0xc8>
/scratch/jenkins/workspace/tpp-freedom-tools/tpp03--build-binary-packages--parameterized/obj/x86_64-w64-mingw32/build/riscv64-unknown-elf-gcc/build-gcc-stage2/riscv64-unknown-elf/rv32imac/ilp32/libgcc/../../../../../riscv-gcc/libgcc/libgcc2.c:1092
2001717e:	4705                	li	a4,1
20017180:	02c75833          	divu	a6,a4,a2
/scratch/jenkins/workspace/tpp-freedom-tools/tpp03--build-binary-packages--parameterized/obj/x86_64-w64-mingw32/build/riscv64-unknown-elf-gcc/build-gcc-stage2/riscv64-unknown-elf/rv32imac/ilp32/libgcc/../../../../../riscv-gcc/libgcc/libgcc2.c:1094
20017184:	6741                	lui	a4,0x10
20017186:	08e87363          	bgeu	a6,a4,2001720c <__umoddi3+0x150>
2001718a:	0ff00713          	li	a4,255
2001718e:	01077363          	bgeu	a4,a6,20017194 <__umoddi3+0xd8>
20017192:	47a1                	li	a5,8
20017194:	00f85733          	srl	a4,a6,a5
20017198:	96ba                	add	a3,a3,a4
2001719a:	0006c603          	lbu	a2,0(a3)
2001719e:	963e                	add	a2,a2,a5
200171a0:	02000793          	li	a5,32
200171a4:	40c788b3          	sub	a7,a5,a2
/scratch/jenkins/workspace/tpp-freedom-tools/tpp03--build-binary-packages--parameterized/obj/x86_64-w64-mingw32/build/riscv64-unknown-elf-gcc/build-gcc-stage2/riscv64-unknown-elf/rv32imac/ilp32/libgcc/../../../../../riscv-gcc/libgcc/libgcc2.c:1096
200171a8:	06c79963          	bne	a5,a2,2001721a <__umoddi3+0x15e>
/scratch/jenkins/workspace/tpp-freedom-tools/tpp03--build-binary-packages--parameterized/obj/x86_64-w64-mingw32/build/riscv64-unknown-elf-gcc/build-gcc-stage2/riscv64-unknown-elf/rv32imac/ilp32/libgcc/../../../../../riscv-gcc/libgcc/libgcc2.c:1105
200171ac:	410585b3          	sub	a1,a1,a6
/scratch/jenkins/workspace/tpp-freedom-tools/tpp03--build-binary-packages--parameterized/obj/x86_64-w64-mingw32/build/riscv64-unknown-elf-gcc/build-gcc-stage2/riscv64-unknown-elf/rv32imac/ilp32/libgcc/../../../../../riscv-gcc/libgcc/libgcc2.c:1124
200171b0:	01085693          	srli	a3,a6,0x10
200171b4:	01081793          	slli	a5,a6,0x10
200171b8:	83c1                	srli	a5,a5,0x10
200171ba:	01055613          	srli	a2,a0,0x10
200171be:	02d5f733          	remu	a4,a1,a3
200171c2:	02d5d5b3          	divu	a1,a1,a3
200171c6:	0742                	slli	a4,a4,0x10
200171c8:	8f51                	or	a4,a4,a2
200171ca:	02b785b3          	mul	a1,a5,a1
200171ce:	00b77863          	bgeu	a4,a1,200171de <__umoddi3+0x122>
200171d2:	9742                	add	a4,a4,a6
200171d4:	01076563          	bltu	a4,a6,200171de <__umoddi3+0x122>
200171d8:	00b77363          	bgeu	a4,a1,200171de <__umoddi3+0x122>
200171dc:	9742                	add	a4,a4,a6
200171de:	40b705b3          	sub	a1,a4,a1
200171e2:	02d5f733          	remu	a4,a1,a3
200171e6:	0542                	slli	a0,a0,0x10
200171e8:	8141                	srli	a0,a0,0x10
200171ea:	02d5d5b3          	divu	a1,a1,a3
200171ee:	02b785b3          	mul	a1,a5,a1
200171f2:	01071793          	slli	a5,a4,0x10
200171f6:	8d5d                	or	a0,a0,a5
200171f8:	00b57863          	bgeu	a0,a1,20017208 <__umoddi3+0x14c>
200171fc:	9542                	add	a0,a0,a6
200171fe:	01056563          	bltu	a0,a6,20017208 <__umoddi3+0x14c>
20017202:	00b57363          	bgeu	a0,a1,20017208 <__umoddi3+0x14c>
20017206:	9542                	add	a0,a0,a6
20017208:	8d0d                	sub	a0,a0,a1
2001720a:	bfb1                	j	20017166 <__umoddi3+0xaa>
/scratch/jenkins/workspace/tpp-freedom-tools/tpp03--build-binary-packages--parameterized/obj/x86_64-w64-mingw32/build/riscv64-unknown-elf-gcc/build-gcc-stage2/riscv64-unknown-elf/rv32imac/ilp32/libgcc/../../../../../riscv-gcc/libgcc/libgcc2.c:1094
2001720c:	01000737          	lui	a4,0x1000
20017210:	47c1                	li	a5,16
20017212:	f8e861e3          	bltu	a6,a4,20017194 <__umoddi3+0xd8>
20017216:	47e1                	li	a5,24
20017218:	bfb5                	j	20017194 <__umoddi3+0xd8>
/scratch/jenkins/workspace/tpp-freedom-tools/tpp03--build-binary-packages--parameterized/obj/x86_64-w64-mingw32/build/riscv64-unknown-elf-gcc/build-gcc-stage2/riscv64-unknown-elf/rv32imac/ilp32/libgcc/../../../../../riscv-gcc/libgcc/libgcc2.c:1114
2001721a:	01181833          	sll	a6,a6,a7
/scratch/jenkins/workspace/tpp-freedom-tools/tpp03--build-binary-packages--parameterized/obj/x86_64-w64-mingw32/build/riscv64-unknown-elf-gcc/build-gcc-stage2/riscv64-unknown-elf/rv32imac/ilp32/libgcc/../../../../../riscv-gcc/libgcc/libgcc2.c:1115
2001721e:	00c5d6b3          	srl	a3,a1,a2
/scratch/jenkins/workspace/tpp-freedom-tools/tpp03--build-binary-packages--parameterized/obj/x86_64-w64-mingw32/build/riscv64-unknown-elf-gcc/build-gcc-stage2/riscv64-unknown-elf/rv32imac/ilp32/libgcc/../../../../../riscv-gcc/libgcc/libgcc2.c:1119
20017222:	01085793          	srli	a5,a6,0x10
20017226:	02f6f733          	remu	a4,a3,a5
/scratch/jenkins/workspace/tpp-freedom-tools/tpp03--build-binary-packages--parameterized/obj/x86_64-w64-mingw32/build/riscv64-unknown-elf-gcc/build-gcc-stage2/riscv64-unknown-elf/rv32imac/ilp32/libgcc/../../../../../riscv-gcc/libgcc/libgcc2.c:1116
2001722a:	011595b3          	sll	a1,a1,a7
2001722e:	00c35633          	srl	a2,t1,a2
20017232:	8e4d                	or	a2,a2,a1
/scratch/jenkins/workspace/tpp-freedom-tools/tpp03--build-binary-packages--parameterized/obj/x86_64-w64-mingw32/build/riscv64-unknown-elf-gcc/build-gcc-stage2/riscv64-unknown-elf/rv32imac/ilp32/libgcc/../../../../../riscv-gcc/libgcc/libgcc2.c:1119
20017234:	01081593          	slli	a1,a6,0x10
20017238:	81c1                	srli	a1,a1,0x10
/scratch/jenkins/workspace/tpp-freedom-tools/tpp03--build-binary-packages--parameterized/obj/x86_64-w64-mingw32/build/riscv64-unknown-elf-gcc/build-gcc-stage2/riscv64-unknown-elf/rv32imac/ilp32/libgcc/../../../../../riscv-gcc/libgcc/libgcc2.c:1117
2001723a:	01131533          	sll	a0,t1,a7
/scratch/jenkins/workspace/tpp-freedom-tools/tpp03--build-binary-packages--parameterized/obj/x86_64-w64-mingw32/build/riscv64-unknown-elf-gcc/build-gcc-stage2/riscv64-unknown-elf/rv32imac/ilp32/libgcc/../../../../../riscv-gcc/libgcc/libgcc2.c:1119
2001723e:	01065313          	srli	t1,a2,0x10
20017242:	02f6d6b3          	divu	a3,a3,a5
20017246:	0742                	slli	a4,a4,0x10
20017248:	00676733          	or	a4,a4,t1
2001724c:	02d586b3          	mul	a3,a1,a3
20017250:	00d77863          	bgeu	a4,a3,20017260 <__umoddi3+0x1a4>
20017254:	9742                	add	a4,a4,a6
20017256:	01076563          	bltu	a4,a6,20017260 <__umoddi3+0x1a4>
2001725a:	00d77363          	bgeu	a4,a3,20017260 <__umoddi3+0x1a4>
2001725e:	9742                	add	a4,a4,a6
20017260:	40d706b3          	sub	a3,a4,a3
20017264:	02f6f733          	remu	a4,a3,a5
20017268:	0642                	slli	a2,a2,0x10
2001726a:	8241                	srli	a2,a2,0x10
2001726c:	02f6d6b3          	divu	a3,a3,a5
20017270:	0742                	slli	a4,a4,0x10
20017272:	02d586b3          	mul	a3,a1,a3
20017276:	00c765b3          	or	a1,a4,a2
2001727a:	00d5f863          	bgeu	a1,a3,2001728a <__umoddi3+0x1ce>
2001727e:	95c2                	add	a1,a1,a6
20017280:	0105e563          	bltu	a1,a6,2001728a <__umoddi3+0x1ce>
20017284:	00d5f363          	bgeu	a1,a3,2001728a <__umoddi3+0x1ce>
20017288:	95c2                	add	a1,a1,a6
2001728a:	8d95                	sub	a1,a1,a3
2001728c:	b715                	j	200171b0 <__umoddi3+0xf4>
/scratch/jenkins/workspace/tpp-freedom-tools/tpp03--build-binary-packages--parameterized/obj/x86_64-w64-mingw32/build/riscv64-unknown-elf-gcc/build-gcc-stage2/riscv64-unknown-elf/rv32imac/ilp32/libgcc/../../../../../riscv-gcc/libgcc/libgcc2.c:1140
2001728e:	ecd5efe3          	bltu	a1,a3,2001716c <__umoddi3+0xb0>
/scratch/jenkins/workspace/tpp-freedom-tools/tpp03--build-binary-packages--parameterized/obj/x86_64-w64-mingw32/build/riscv64-unknown-elf-gcc/build-gcc-stage2/riscv64-unknown-elf/rv32imac/ilp32/libgcc/../../../../../riscv-gcc/libgcc/libgcc2.c:1159
20017292:	67c1                	lui	a5,0x10
20017294:	04f6f463          	bgeu	a3,a5,200172dc <__umoddi3+0x220>
20017298:	0ff00893          	li	a7,255
2001729c:	00d8b7b3          	sltu	a5,a7,a3
200172a0:	078e                	slli	a5,a5,0x3
200172a2:	00f6d8b3          	srl	a7,a3,a5
200172a6:	ffffa817          	auipc	a6,0xffffa
200172aa:	c9e80813          	addi	a6,a6,-866 # 20010f44 <__clz_tab>
200172ae:	9846                	add	a6,a6,a7
200172b0:	00084883          	lbu	a7,0(a6)
200172b4:	98be                	add	a7,a7,a5
200172b6:	02000793          	li	a5,32
200172ba:	41178833          	sub	a6,a5,a7
/scratch/jenkins/workspace/tpp-freedom-tools/tpp03--build-binary-packages--parameterized/obj/x86_64-w64-mingw32/build/riscv64-unknown-elf-gcc/build-gcc-stage2/riscv64-unknown-elf/rv32imac/ilp32/libgcc/../../../../../riscv-gcc/libgcc/libgcc2.c:1160
200172be:	03179663          	bne	a5,a7,200172ea <__umoddi3+0x22e>
/scratch/jenkins/workspace/tpp-freedom-tools/tpp03--build-binary-packages--parameterized/obj/x86_64-w64-mingw32/build/riscv64-unknown-elf-gcc/build-gcc-stage2/riscv64-unknown-elf/rv32imac/ilp32/libgcc/../../../../../riscv-gcc/libgcc/libgcc2.c:1170
200172c2:	00b6e463          	bltu	a3,a1,200172ca <__umoddi3+0x20e>
200172c6:	00c36963          	bltu	t1,a2,200172d8 <__umoddi3+0x21c>
/scratch/jenkins/workspace/tpp-freedom-tools/tpp03--build-binary-packages--parameterized/obj/x86_64-w64-mingw32/build/riscv64-unknown-elf-gcc/build-gcc-stage2/riscv64-unknown-elf/rv32imac/ilp32/libgcc/../../../../../riscv-gcc/libgcc/libgcc2.c:1173
200172ca:	40c30533          	sub	a0,t1,a2
200172ce:	8d95                	sub	a1,a1,a3
200172d0:	00a33733          	sltu	a4,t1,a0
200172d4:	40e58733          	sub	a4,a1,a4
/scratch/jenkins/workspace/tpp-freedom-tools/tpp03--build-binary-packages--parameterized/obj/x86_64-w64-mingw32/build/riscv64-unknown-elf-gcc/build-gcc-stage2/riscv64-unknown-elf/rv32imac/ilp32/libgcc/../../../../../riscv-gcc/libgcc/libgcc2.c:1184
200172d8:	85ba                	mv	a1,a4
200172da:	bd49                	j	2001716c <__umoddi3+0xb0>
/scratch/jenkins/workspace/tpp-freedom-tools/tpp03--build-binary-packages--parameterized/obj/x86_64-w64-mingw32/build/riscv64-unknown-elf-gcc/build-gcc-stage2/riscv64-unknown-elf/rv32imac/ilp32/libgcc/../../../../../riscv-gcc/libgcc/libgcc2.c:1159
200172dc:	01000837          	lui	a6,0x1000
200172e0:	47c1                	li	a5,16
200172e2:	fd06e0e3          	bltu	a3,a6,200172a2 <__umoddi3+0x1e6>
200172e6:	47e1                	li	a5,24
200172e8:	bf6d                	j	200172a2 <__umoddi3+0x1e6>
/scratch/jenkins/workspace/tpp-freedom-tools/tpp03--build-binary-packages--parameterized/obj/x86_64-w64-mingw32/build/riscv64-unknown-elf-gcc/build-gcc-stage2/riscv64-unknown-elf/rv32imac/ilp32/libgcc/../../../../../riscv-gcc/libgcc/libgcc2.c:1194
200172ea:	011657b3          	srl	a5,a2,a7
200172ee:	010696b3          	sll	a3,a3,a6
200172f2:	00d7ee33          	or	t3,a5,a3
/scratch/jenkins/workspace/tpp-freedom-tools/tpp03--build-binary-packages--parameterized/obj/x86_64-w64-mingw32/build/riscv64-unknown-elf-gcc/build-gcc-stage2/riscv64-unknown-elf/rv32imac/ilp32/libgcc/../../../../../riscv-gcc/libgcc/libgcc2.c:1196
200172f6:	0115d733          	srl	a4,a1,a7
/scratch/jenkins/workspace/tpp-freedom-tools/tpp03--build-binary-packages--parameterized/obj/x86_64-w64-mingw32/build/riscv64-unknown-elf-gcc/build-gcc-stage2/riscv64-unknown-elf/rv32imac/ilp32/libgcc/../../../../../riscv-gcc/libgcc/libgcc2.c:1200
200172fa:	010e5f13          	srli	t5,t3,0x10
/scratch/jenkins/workspace/tpp-freedom-tools/tpp03--build-binary-packages--parameterized/obj/x86_64-w64-mingw32/build/riscv64-unknown-elf-gcc/build-gcc-stage2/riscv64-unknown-elf/rv32imac/ilp32/libgcc/../../../../../riscv-gcc/libgcc/libgcc2.c:1195
200172fe:	01061eb3          	sll	t4,a2,a6
/scratch/jenkins/workspace/tpp-freedom-tools/tpp03--build-binary-packages--parameterized/obj/x86_64-w64-mingw32/build/riscv64-unknown-elf-gcc/build-gcc-stage2/riscv64-unknown-elf/rv32imac/ilp32/libgcc/../../../../../riscv-gcc/libgcc/libgcc2.c:1200
20017302:	03e77633          	remu	a2,a4,t5
/scratch/jenkins/workspace/tpp-freedom-tools/tpp03--build-binary-packages--parameterized/obj/x86_64-w64-mingw32/build/riscv64-unknown-elf-gcc/build-gcc-stage2/riscv64-unknown-elf/rv32imac/ilp32/libgcc/../../../../../riscv-gcc/libgcc/libgcc2.c:1197
20017306:	010595b3          	sll	a1,a1,a6
2001730a:	011357b3          	srl	a5,t1,a7
2001730e:	8fcd                	or	a5,a5,a1
/scratch/jenkins/workspace/tpp-freedom-tools/tpp03--build-binary-packages--parameterized/obj/x86_64-w64-mingw32/build/riscv64-unknown-elf-gcc/build-gcc-stage2/riscv64-unknown-elf/rv32imac/ilp32/libgcc/../../../../../riscv-gcc/libgcc/libgcc2.c:1200
20017310:	010e1593          	slli	a1,t3,0x10
20017314:	81c1                	srli	a1,a1,0x10
/scratch/jenkins/workspace/tpp-freedom-tools/tpp03--build-binary-packages--parameterized/obj/x86_64-w64-mingw32/build/riscv64-unknown-elf-gcc/build-gcc-stage2/riscv64-unknown-elf/rv32imac/ilp32/libgcc/../../../../../riscv-gcc/libgcc/libgcc2.c:1198
20017316:	01031533          	sll	a0,t1,a6
/scratch/jenkins/workspace/tpp-freedom-tools/tpp03--build-binary-packages--parameterized/obj/x86_64-w64-mingw32/build/riscv64-unknown-elf-gcc/build-gcc-stage2/riscv64-unknown-elf/rv32imac/ilp32/libgcc/../../../../../riscv-gcc/libgcc/libgcc2.c:1200
2001731a:	0107d693          	srli	a3,a5,0x10
2001731e:	03e75733          	divu	a4,a4,t5
20017322:	0642                	slli	a2,a2,0x10
20017324:	8ed1                	or	a3,a3,a2
20017326:	02e58333          	mul	t1,a1,a4
2001732a:	863a                	mv	a2,a4
2001732c:	0066fc63          	bgeu	a3,t1,20017344 <__umoddi3+0x288>
20017330:	96f2                	add	a3,a3,t3
20017332:	fff70613          	addi	a2,a4,-1 # ffffff <__heap_size+0xfff7ff>
20017336:	01c6e763          	bltu	a3,t3,20017344 <__umoddi3+0x288>
2001733a:	0066f563          	bgeu	a3,t1,20017344 <__umoddi3+0x288>
2001733e:	ffe70613          	addi	a2,a4,-2
20017342:	96f2                	add	a3,a3,t3
20017344:	406686b3          	sub	a3,a3,t1
20017348:	03e6f333          	remu	t1,a3,t5
2001734c:	03e6d6b3          	divu	a3,a3,t5
20017350:	0342                	slli	t1,t1,0x10
20017352:	02d58733          	mul	a4,a1,a3
20017356:	01079593          	slli	a1,a5,0x10
2001735a:	81c1                	srli	a1,a1,0x10
2001735c:	00b365b3          	or	a1,t1,a1
20017360:	87b6                	mv	a5,a3
20017362:	00e5fc63          	bgeu	a1,a4,2001737a <__umoddi3+0x2be>
20017366:	95f2                	add	a1,a1,t3
20017368:	fff68793          	addi	a5,a3,-1
2001736c:	01c5e763          	bltu	a1,t3,2001737a <__umoddi3+0x2be>
20017370:	00e5f563          	bgeu	a1,a4,2001737a <__umoddi3+0x2be>
20017374:	ffe68793          	addi	a5,a3,-2
20017378:	95f2                	add	a1,a1,t3
2001737a:	0642                	slli	a2,a2,0x10
/scratch/jenkins/workspace/tpp-freedom-tools/tpp03--build-binary-packages--parameterized/obj/x86_64-w64-mingw32/build/riscv64-unknown-elf-gcc/build-gcc-stage2/riscv64-unknown-elf/rv32imac/ilp32/libgcc/../../../../../riscv-gcc/libgcc/libgcc2.c:1201
2001737c:	6f41                	lui	t5,0x10
/scratch/jenkins/workspace/tpp-freedom-tools/tpp03--build-binary-packages--parameterized/obj/x86_64-w64-mingw32/build/riscv64-unknown-elf-gcc/build-gcc-stage2/riscv64-unknown-elf/rv32imac/ilp32/libgcc/../../../../../riscv-gcc/libgcc/libgcc2.c:1200
2001737e:	8e5d                	or	a2,a2,a5
/scratch/jenkins/workspace/tpp-freedom-tools/tpp03--build-binary-packages--parameterized/obj/x86_64-w64-mingw32/build/riscv64-unknown-elf-gcc/build-gcc-stage2/riscv64-unknown-elf/rv32imac/ilp32/libgcc/../../../../../riscv-gcc/libgcc/libgcc2.c:1201
20017380:	ffff0693          	addi	a3,t5,-1 # ffff <__heap_size+0xf7ff>
20017384:	00d67333          	and	t1,a2,a3
/scratch/jenkins/workspace/tpp-freedom-tools/tpp03--build-binary-packages--parameterized/obj/x86_64-w64-mingw32/build/riscv64-unknown-elf-gcc/build-gcc-stage2/riscv64-unknown-elf/rv32imac/ilp32/libgcc/../../../../../riscv-gcc/libgcc/libgcc2.c:1200
20017388:	8d99                	sub	a1,a1,a4
/scratch/jenkins/workspace/tpp-freedom-tools/tpp03--build-binary-packages--parameterized/obj/x86_64-w64-mingw32/build/riscv64-unknown-elf-gcc/build-gcc-stage2/riscv64-unknown-elf/rv32imac/ilp32/libgcc/../../../../../riscv-gcc/libgcc/libgcc2.c:1201
2001738a:	8241                	srli	a2,a2,0x10
2001738c:	010ed713          	srli	a4,t4,0x10
20017390:	00def6b3          	and	a3,t4,a3
20017394:	02d307b3          	mul	a5,t1,a3
20017398:	02d606b3          	mul	a3,a2,a3
2001739c:	02e30333          	mul	t1,t1,a4
200173a0:	02e60633          	mul	a2,a2,a4
200173a4:	9336                	add	t1,t1,a3
200173a6:	0107d713          	srli	a4,a5,0x10
200173aa:	971a                	add	a4,a4,t1
200173ac:	00d77363          	bgeu	a4,a3,200173b2 <__umoddi3+0x2f6>
200173b0:	967a                	add	a2,a2,t5
200173b2:	01075693          	srli	a3,a4,0x10
200173b6:	96b2                	add	a3,a3,a2
200173b8:	6641                	lui	a2,0x10
200173ba:	167d                	addi	a2,a2,-1
200173bc:	8f71                	and	a4,a4,a2
200173be:	0742                	slli	a4,a4,0x10
200173c0:	8ff1                	and	a5,a5,a2
200173c2:	97ba                	add	a5,a5,a4
/scratch/jenkins/workspace/tpp-freedom-tools/tpp03--build-binary-packages--parameterized/obj/x86_64-w64-mingw32/build/riscv64-unknown-elf-gcc/build-gcc-stage2/riscv64-unknown-elf/rv32imac/ilp32/libgcc/../../../../../riscv-gcc/libgcc/libgcc2.c:1203
200173c4:	00d5e663          	bltu	a1,a3,200173d0 <__umoddi3+0x314>
200173c8:	00d59b63          	bne	a1,a3,200173de <__umoddi3+0x322>
200173cc:	00f57963          	bgeu	a0,a5,200173de <__umoddi3+0x322>
/scratch/jenkins/workspace/tpp-freedom-tools/tpp03--build-binary-packages--parameterized/obj/x86_64-w64-mingw32/build/riscv64-unknown-elf-gcc/build-gcc-stage2/riscv64-unknown-elf/rv32imac/ilp32/libgcc/../../../../../riscv-gcc/libgcc/libgcc2.c:1206
200173d0:	41d78633          	sub	a2,a5,t4
200173d4:	00c7b7b3          	sltu	a5,a5,a2
200173d8:	97f2                	add	a5,a5,t3
200173da:	8e9d                	sub	a3,a3,a5
200173dc:	87b2                	mv	a5,a2
/scratch/jenkins/workspace/tpp-freedom-tools/tpp03--build-binary-packages--parameterized/obj/x86_64-w64-mingw32/build/riscv64-unknown-elf-gcc/build-gcc-stage2/riscv64-unknown-elf/rv32imac/ilp32/libgcc/../../../../../riscv-gcc/libgcc/libgcc2.c:1214
200173de:	40f507b3          	sub	a5,a0,a5
200173e2:	00f53533          	sltu	a0,a0,a5
200173e6:	8d95                	sub	a1,a1,a3
200173e8:	8d89                	sub	a1,a1,a0
/scratch/jenkins/workspace/tpp-freedom-tools/tpp03--build-binary-packages--parameterized/obj/x86_64-w64-mingw32/build/riscv64-unknown-elf-gcc/build-gcc-stage2/riscv64-unknown-elf/rv32imac/ilp32/libgcc/../../../../../riscv-gcc/libgcc/libgcc2.c:1215
200173ea:	011598b3          	sll	a7,a1,a7
200173ee:	0107d533          	srl	a0,a5,a6
/scratch/jenkins/workspace/tpp-freedom-tools/tpp03--build-binary-packages--parameterized/obj/x86_64-w64-mingw32/build/riscv64-unknown-elf-gcc/build-gcc-stage2/riscv64-unknown-elf/rv32imac/ilp32/libgcc/../../../../../riscv-gcc/libgcc/libgcc2.c:1217
200173f2:	00a8e533          	or	a0,a7,a0
200173f6:	0105d5b3          	srl	a1,a1,a6
200173fa:	bb8d                	j	2001716c <__umoddi3+0xb0>

200173fc <metal_init>:
metal_init():
C:/Users/nandg/Desktop/FE310-G003/sifive_hifive1_revb_sifive_welcome/freedom-metal/src/init.c:17
extern metal_constructor_t metal_constructors_start;
extern metal_constructor_t metal_constructors_end;
extern metal_destructor_t metal_destructors_start;
extern metal_destructor_t metal_destructors_end;

void metal_init(void) {
200173fc:	1101                	addi	sp,sp,-32
200173fe:	ce06                	sw	ra,28(sp)
20017400:	cc22                	sw	s0,24(sp)
20017402:	1000                	addi	s0,sp,32
C:/Users/nandg/Desktop/FE310-G003/sifive_hifive1_revb_sifive_welcome/freedom-metal/src/init.c:20
    /* Make sure the constructors only run once */
    static int init_done = 0;
    if (init_done) {
20017404:	800017b7          	lui	a5,0x80001
20017408:	ad87a783          	lw	a5,-1320(a5) # 80000ad8 <metal_segment_heap_target_end+0xfffff368>
2001740c:	efa9                	bnez	a5,20017466 <metal_init+0x6a>
C:/Users/nandg/Desktop/FE310-G003/sifive_hifive1_revb_sifive_welcome/freedom-metal/src/init.c:23
        return;
    }
    init_done = 1;
2001740e:	800017b7          	lui	a5,0x80001
20017412:	4705                	li	a4,1
20017414:	ace7ac23          	sw	a4,-1320(a5) # 80000ad8 <metal_segment_heap_target_end+0xfffff368>
C:/Users/nandg/Desktop/FE310-G003/sifive_hifive1_revb_sifive_welcome/freedom-metal/src/init.c:25

    if (&metal_constructors_end <= &metal_constructors_start) {
20017418:	200107b7          	lui	a5,0x20010
2001741c:	2ec78713          	addi	a4,a5,748 # 200102ec <metal_sifive_fe310_g000_pll_init>
20017420:	200107b7          	lui	a5,0x20010
20017424:	2e078793          	addi	a5,a5,736 # 200102e0 <_metal_sifive_fe310_g000_pll_init_ptr>
20017428:	04e7f163          	bgeu	a5,a4,2001746a <metal_init+0x6e>
C:/Users/nandg/Desktop/FE310-G003/sifive_hifive1_revb_sifive_welcome/freedom-metal/src/init.c:29
        return;
    }

    metal_constructor_t *funcptr = &metal_constructors_start;
2001742c:	200107b7          	lui	a5,0x20010
20017430:	2e078793          	addi	a5,a5,736 # 200102e0 <_metal_sifive_fe310_g000_pll_init_ptr>
20017434:	fef42623          	sw	a5,-20(s0)
C:/Users/nandg/Desktop/FE310-G003/sifive_hifive1_revb_sifive_welcome/freedom-metal/src/init.c:30
    while (funcptr != &metal_constructors_end) {
20017438:	a831                	j	20017454 <metal_init+0x58>
C:/Users/nandg/Desktop/FE310-G003/sifive_hifive1_revb_sifive_welcome/freedom-metal/src/init.c:31
        metal_constructor_t func = *funcptr;
2001743a:	fec42783          	lw	a5,-20(s0)
2001743e:	439c                	lw	a5,0(a5)
20017440:	fef42423          	sw	a5,-24(s0)
C:/Users/nandg/Desktop/FE310-G003/sifive_hifive1_revb_sifive_welcome/freedom-metal/src/init.c:33

        func();
20017444:	fe842783          	lw	a5,-24(s0)
20017448:	9782                	jalr	a5
C:/Users/nandg/Desktop/FE310-G003/sifive_hifive1_revb_sifive_welcome/freedom-metal/src/init.c:35

        funcptr += 1;
2001744a:	fec42783          	lw	a5,-20(s0)
2001744e:	0791                	addi	a5,a5,4
20017450:	fef42623          	sw	a5,-20(s0)
C:/Users/nandg/Desktop/FE310-G003/sifive_hifive1_revb_sifive_welcome/freedom-metal/src/init.c:30
    while (funcptr != &metal_constructors_end) {
20017454:	fec42703          	lw	a4,-20(s0)
20017458:	200107b7          	lui	a5,0x20010
2001745c:	2ec78793          	addi	a5,a5,748 # 200102ec <metal_sifive_fe310_g000_pll_init>
20017460:	fcf71de3          	bne	a4,a5,2001743a <metal_init+0x3e>
20017464:	a021                	j	2001746c <metal_init+0x70>
C:/Users/nandg/Desktop/FE310-G003/sifive_hifive1_revb_sifive_welcome/freedom-metal/src/init.c:21
        return;
20017466:	0001                	nop
20017468:	a011                	j	2001746c <metal_init+0x70>
C:/Users/nandg/Desktop/FE310-G003/sifive_hifive1_revb_sifive_welcome/freedom-metal/src/init.c:26
        return;
2001746a:	0001                	nop
C:/Users/nandg/Desktop/FE310-G003/sifive_hifive1_revb_sifive_welcome/freedom-metal/src/init.c:37
    }
}
2001746c:	40f2                	lw	ra,28(sp)
2001746e:	4462                	lw	s0,24(sp)
20017470:	6105                	addi	sp,sp,32
20017472:	8082                	ret

20017474 <metal_fini>:
metal_fini():
C:/Users/nandg/Desktop/FE310-G003/sifive_hifive1_revb_sifive_welcome/freedom-metal/src/init.c:39

void metal_fini(void) {
20017474:	1101                	addi	sp,sp,-32
20017476:	ce06                	sw	ra,28(sp)
20017478:	cc22                	sw	s0,24(sp)
2001747a:	1000                	addi	s0,sp,32
C:/Users/nandg/Desktop/FE310-G003/sifive_hifive1_revb_sifive_welcome/freedom-metal/src/init.c:42
    /* Make sure the destructors only run once */
    static int fini_done = 0;
    if (fini_done) {
2001747c:	800017b7          	lui	a5,0x80001
20017480:	adc7a783          	lw	a5,-1316(a5) # 80000adc <metal_segment_heap_target_end+0xfffff36c>
20017484:	efa9                	bnez	a5,200174de <metal_fini+0x6a>
C:/Users/nandg/Desktop/FE310-G003/sifive_hifive1_revb_sifive_welcome/freedom-metal/src/init.c:45
        return;
    }
    fini_done = 1;
20017486:	800017b7          	lui	a5,0x80001
2001748a:	4705                	li	a4,1
2001748c:	ace7ae23          	sw	a4,-1316(a5) # 80000adc <metal_segment_heap_target_end+0xfffff36c>
C:/Users/nandg/Desktop/FE310-G003/sifive_hifive1_revb_sifive_welcome/freedom-metal/src/init.c:47

    if (&metal_destructors_end <= &metal_destructors_start) {
20017490:	200107b7          	lui	a5,0x20010
20017494:	2f078713          	addi	a4,a5,752 # 200102f0 <__fini_array_end>
20017498:	200107b7          	lui	a5,0x20010
2001749c:	2f078793          	addi	a5,a5,752 # 200102f0 <__fini_array_end>
200174a0:	04e7f163          	bgeu	a5,a4,200174e2 <metal_fini+0x6e>
C:/Users/nandg/Desktop/FE310-G003/sifive_hifive1_revb_sifive_welcome/freedom-metal/src/init.c:51
        return;
    }

    metal_destructor_t *funcptr = &metal_destructors_start;
200174a4:	200107b7          	lui	a5,0x20010
200174a8:	2f078793          	addi	a5,a5,752 # 200102f0 <__fini_array_end>
200174ac:	fef42623          	sw	a5,-20(s0)
C:/Users/nandg/Desktop/FE310-G003/sifive_hifive1_revb_sifive_welcome/freedom-metal/src/init.c:52
    while (funcptr != &metal_destructors_end) {
200174b0:	a831                	j	200174cc <metal_fini+0x58>
C:/Users/nandg/Desktop/FE310-G003/sifive_hifive1_revb_sifive_welcome/freedom-metal/src/init.c:53
        metal_destructor_t func = *funcptr;
200174b2:	fec42783          	lw	a5,-20(s0)
200174b6:	439c                	lw	a5,0(a5)
200174b8:	fef42423          	sw	a5,-24(s0)
C:/Users/nandg/Desktop/FE310-G003/sifive_hifive1_revb_sifive_welcome/freedom-metal/src/init.c:55

        func();
200174bc:	fe842783          	lw	a5,-24(s0)
200174c0:	9782                	jalr	a5
C:/Users/nandg/Desktop/FE310-G003/sifive_hifive1_revb_sifive_welcome/freedom-metal/src/init.c:57

        funcptr += 1;
200174c2:	fec42783          	lw	a5,-20(s0)
200174c6:	0791                	addi	a5,a5,4
200174c8:	fef42623          	sw	a5,-20(s0)
C:/Users/nandg/Desktop/FE310-G003/sifive_hifive1_revb_sifive_welcome/freedom-metal/src/init.c:52
    while (funcptr != &metal_destructors_end) {
200174cc:	fec42703          	lw	a4,-20(s0)
200174d0:	200107b7          	lui	a5,0x20010
200174d4:	2f078793          	addi	a5,a5,752 # 200102f0 <__fini_array_end>
200174d8:	fcf71de3          	bne	a4,a5,200174b2 <metal_fini+0x3e>
200174dc:	a021                	j	200174e4 <metal_fini+0x70>
C:/Users/nandg/Desktop/FE310-G003/sifive_hifive1_revb_sifive_welcome/freedom-metal/src/init.c:43
        return;
200174de:	0001                	nop
200174e0:	a011                	j	200174e4 <metal_fini+0x70>
C:/Users/nandg/Desktop/FE310-G003/sifive_hifive1_revb_sifive_welcome/freedom-metal/src/init.c:48
        return;
200174e2:	0001                	nop
C:/Users/nandg/Desktop/FE310-G003/sifive_hifive1_revb_sifive_welcome/freedom-metal/src/init.c:59
    }
}
200174e4:	40f2                	lw	ra,28(sp)
200174e6:	4462                	lw	s0,24(sp)
200174e8:	6105                	addi	sp,sp,32
200174ea:	8082                	ret

200174ec <metal_init_run>:
metal_init_run():
C:/Users/nandg/Desktop/FE310-G003/sifive_hifive1_revb_sifive_welcome/freedom-metal/src/init.c:69
 * in the case that users don't want the metal constructors or
 * destructors to run.
 */

void metal_init_run(void) __attribute__((weak));
void metal_init_run(void) { metal_init(); }
200174ec:	1141                	addi	sp,sp,-16
200174ee:	c606                	sw	ra,12(sp)
200174f0:	c422                	sw	s0,8(sp)
200174f2:	0800                	addi	s0,sp,16
200174f4:	f09ff0ef          	jal	ra,200173fc <metal_init>
200174f8:	0001                	nop
200174fa:	40b2                	lw	ra,12(sp)
200174fc:	4422                	lw	s0,8(sp)
200174fe:	0141                	addi	sp,sp,16
20017500:	8082                	ret

20017502 <metal_fini_run>:
metal_fini_run():
C:/Users/nandg/Desktop/FE310-G003/sifive_hifive1_revb_sifive_welcome/freedom-metal/src/init.c:72

void metal_fini_run(void) __attribute__((weak));
void metal_fini_run(void) { metal_fini(); }
20017502:	1141                	addi	sp,sp,-16
20017504:	c606                	sw	ra,12(sp)
20017506:	c422                	sw	s0,8(sp)
20017508:	0800                	addi	s0,sp,16
2001750a:	f6bff0ef          	jal	ra,20017474 <metal_fini>
2001750e:	0001                	nop
20017510:	40b2                	lw	ra,12(sp)
20017512:	4422                	lw	s0,8(sp)
20017514:	0141                	addi	sp,sp,16
20017516:	8082                	ret

20017518 <metal_tty_putc>:
metal_tty_putc():
C:/Users/nandg/Desktop/FE310-G003/sifive_hifive1_revb_sifive_welcome/freedom-metal/src/tty.c:12
int metal_tty_putc(int c) {
20017518:	1101                	addi	sp,sp,-32
2001751a:	ce06                	sw	ra,28(sp)
2001751c:	cc22                	sw	s0,24(sp)
2001751e:	1000                	addi	s0,sp,32
20017520:	fea42623          	sw	a0,-20(s0)
C:/Users/nandg/Desktop/FE310-G003/sifive_hifive1_revb_sifive_welcome/freedom-metal/src/tty.c:13
    return metal_uart_putc(__METAL_DT_STDOUT_UART_HANDLE, c);
20017524:	fec42583          	lw	a1,-20(s0)
20017528:	800017b7          	lui	a5,0x80001
2001752c:	a3878513          	addi	a0,a5,-1480 # 80000a38 <metal_segment_heap_target_end+0xfffff2c8>
20017530:	8baff0ef          	jal	ra,200165ea <metal_uart_putc>
20017534:	87aa                	mv	a5,a0
C:/Users/nandg/Desktop/FE310-G003/sifive_hifive1_revb_sifive_welcome/freedom-metal/src/tty.c:14
}
20017536:	853e                	mv	a0,a5
20017538:	40f2                	lw	ra,28(sp)
2001753a:	4462                	lw	s0,24(sp)
2001753c:	6105                	addi	sp,sp,32
2001753e:	8082                	ret

20017540 <_exit>:
_exit():
C:/Users/nandg/Desktop/FE310-G003/sifive_hifive1_revb_sifive_welcome/freedom-metal/gloss/sys_exit.c:3
#include <metal/shutdown.h>

void _exit(int exit_status) {
20017540:	1101                	addi	sp,sp,-32
20017542:	ce06                	sw	ra,28(sp)
20017544:	cc22                	sw	s0,24(sp)
20017546:	1000                	addi	s0,sp,32
20017548:	fea42623          	sw	a0,-20(s0)
C:/Users/nandg/Desktop/FE310-G003/sifive_hifive1_revb_sifive_welcome/freedom-metal/gloss/sys_exit.c:4
    metal_shutdown(exit_status);
2001754c:	fec42503          	lw	a0,-20(s0)
20017550:	860ff0ef          	jal	ra,200165b0 <metal_shutdown>
