
C:/Users/nandg/Desktop/Athena_Welcome_Demo/sifive_hifive1_revb_sifive_welcome/src/debug/sifive-welcome.elf:     file format elf32-littleriscv
C:/Users/nandg/Desktop/Athena_Welcome_Demo/sifive_hifive1_revb_sifive_welcome/src/debug/sifive-welcome.elf
architecture: riscv:rv32, flags 0x00000112:
EXEC_P, HAS_SYMS, D_PAGED
start address 0x20010000

Program Header:
    LOAD off    0x00001000 vaddr 0x20010000 paddr 0x20010000 align 2**12
         filesz 0x000013d4 memsz 0x000013d4 flags rwx
    LOAD off    0x00009000 vaddr 0x80000000 paddr 0x20017900 align 2**12
         filesz 0x00000ae0 memsz 0x00000ae0 flags rw-
     TLS off    0x00000000 vaddr 0x00000000 paddr 0x00000000 align 2**2
         filesz 0x00000000 memsz 0x00000000 flags ---
    LOAD off    0x00000ae0 vaddr 0x80000ae0 paddr 0x80000ae0 align 2**12
         filesz 0x00000000 memsz 0x00000cc0 flags rw-
    LOAD off    0x00000114 vaddr 0x00000000 paddr 0x00000000 align 2**12
         filesz 0x00000000 memsz 0x00000000 flags ---
    LOAD off    0x00002400 vaddr 0x20011400 paddr 0x20011400 align 2**12
         filesz 0x00006500 memsz 0x00006500 flags r-x
    LOAD off    0x00000114 vaddr 0x00000000 paddr 0x00000000 align 2**12
         filesz 0x00000000 memsz 0x00000000 flags ---

Sections:
Idx Name              Size      VMA       LMA       File off  Algn  Flags
  0 .init             000002dc  20010000  20010000  00001000  2**4  CONTENTS, ALLOC, LOAD, READONLY, CODE
  1 .init_array       0000000c  200102e0  200102e0  000012e0  2**3  CONTENTS, ALLOC, LOAD, DATA
  2 .ctors            0000007a  200102ec  200102ec  000012ec  2**1  CONTENTS, ALLOC, LOAD, READONLY, CODE
  3 .rodata           0000106c  20010368  20010368  00001368  2**2  CONTENTS, ALLOC, LOAD, READONLY, DATA
  4 .text             00006500  20011400  20011400  00002400  2**7  CONTENTS, ALLOC, LOAD, READONLY, CODE
  5 .data             00000ae0  80000000  20017900  00009000  2**3  CONTENTS, ALLOC, LOAD, DATA
  6 .bss              000000b8  80000ae0  80000ae0  00009ae0  2**3  ALLOC
  7 .stack            00000400  80000ba0  80000ba0  00009ae0  2**4  ALLOC
  8 .heap             00000800  80000fa0  80000fa0  00009ae0  2**3  ALLOC
  9 .debug_info       000271c9  00000000  00000000  00009ae0  2**0  CONTENTS, READONLY, DEBUGGING, OCTETS
 10 .debug_abbrev     00003199  00000000  00000000  00030ca9  2**0  CONTENTS, READONLY, DEBUGGING, OCTETS
 11 .debug_aranges    00000d80  00000000  00000000  00033e48  2**3  CONTENTS, READONLY, DEBUGGING, OCTETS
 12 .debug_ranges     00000b60  00000000  00000000  00034bc8  2**3  CONTENTS, READONLY, DEBUGGING, OCTETS
 13 .debug_line       0000c911  00000000  00000000  00035728  2**0  CONTENTS, READONLY, DEBUGGING, OCTETS
 14 .debug_str        00005578  00000000  00000000  00042039  2**0  CONTENTS, READONLY, DEBUGGING, OCTETS
 15 .comment          00000030  00000000  00000000  000475b1  2**0  CONTENTS, READONLY
 16 .riscv.attributes 0000002f  00000000  00000000  000475e1  2**0  CONTENTS, READONLY
 17 .debug_frame      000036cc  00000000  00000000  00047610  2**2  CONTENTS, READONLY, DEBUGGING, OCTETS
SYMBOL TABLE:
20010000 l    d  .init	00000000 .init
200102e0 l    d  .init_array	00000000 .init_array
200102ec l    d  .ctors	00000000 .ctors
20010368 l    d  .rodata	00000000 .rodata
20011400 l    d  .text	00000000 .text
80000000 l    d  .data	00000000 .data
80000ae0 l    d  .bss	00000000 .bss
80000ba0 l    d  .stack	00000000 .stack
80000fa0 l    d  .heap	00000000 .heap
00000000 l    d  .debug_info	00000000 .debug_info
00000000 l    d  .debug_abbrev	00000000 .debug_abbrev
00000000 l    d  .debug_aranges	00000000 .debug_aranges
00000000 l    d  .debug_ranges	00000000 .debug_ranges
00000000 l    d  .debug_line	00000000 .debug_line
00000000 l    d  .debug_str	00000000 .debug_str
00000000 l    d  .comment	00000000 .comment
00000000 l    d  .riscv.attributes	00000000 .riscv.attributes
00000000 l    d  .debug_frame	00000000 .debug_frame
00000000 l    df *ABS*	00000000 scrub.o
200100c0 l     F .init	00000000 __metal_memory_scrub
2001012e l       .init	00000000 skip_scrub
00000000 l    df *ABS*	00000000 synchronize_harts.c
00000000 l    df *ABS*	00000000 crt0.o
20010240 l       .init	00000000 _skip_init
2001139c l       .rodata	00000000 argv
200113a0 l       .rodata	00000000 envp
200113a4 l       .rodata	00000000 name
00000000 l    df *ABS*	00000000 sifive_fe310-g000_pll.c
200152b0 l     F .text	0000001a __metal_driver_sifive_fe310_g000_pll_pllsel0
200152ca l     F .text	0000001a __metal_driver_sifive_fe310_g000_pll_pllref
200152e4 l     F .text	00000016 __metal_driver_sifive_fe310_g000_pll_divider_base
200152fa l     F .text	00000014 __metal_driver_sifive_fe310_g000_pll_divider_offset
2001530e l     F .text	00000012 __metal_driver_sifive_fe310_g000_pll_config_base
20015320 l     F .text	00000010 __metal_driver_sifive_fe310_g000_pll_config_offset
20015330 l     F .text	00000016 __metal_driver_sifive_fe310_g000_pll_init_rate
20015346 l     F .text	00000012 __metal_driver_sifive_fe310_g000_prci_base
20015358 l     F .text	00000016 __metal_driver_sifive_fe310_g000_prci_vtable
20010a20 l     O .rodata	00000880 pll_configs
2001536e l     F .text	0000004e get_pll_config_freq
200155dc l     F .text	000000ac find_closest_config
20015688 l     F .text	000001b0 configure_pll
00000000 l    df *ABS*	00000000 tty.c
00000000 l    df *ABS*	00000000 sifive-welcome.c
00000000 l    df *ABS*	00000000 findfp.c
20011c70 l     F .text	00000068 std
00000000 l    df *ABS*	00000000 riscv_clint0.c
200126a4 l     F .text	0000002a __metal_driver_sifive_clint0_control_base
200126ce l     F .text	00000028 __metal_driver_sifive_clint0_num_interrupts
200126f6 l     F .text	0000003c __metal_driver_sifive_clint0_interrupt_parents
20012732 l     F .text	00000030 __metal_driver_sifive_clint0_interrupt_lines
20012892 l     F .text	00000032 _get_cpu_intc
00000000 l    df *ABS*	00000000 riscv_cpu.c
20012dd4 l     F .text	00000024 __metal_driver_cpu_hartid
20012df8 l     F .text	0000002a __metal_driver_cpu_timebase
20012e22 l     F .text	0000002a __metal_driver_cpu_interrupt_controller
20012e4c l     F .text	00000024 __metal_driver_cpu_buserror
00000000 l    df *ABS*	00000000 riscv_plic0.c
200147f4 l     F .text	0000002a __metal_driver_sifive_plic0_control_base
2001481e l     F .text	0000002a __metal_driver_sifive_plic0_num_interrupts
20014848 l     F .text	00000028 __metal_driver_sifive_plic0_max_priority
20014870 l     F .text	00000028 __metal_driver_sifive_plic0_interrupt_parents
20014898 l     F .text	00000022 __metal_driver_sifive_plic0_interrupt_lines
200148ba l     F .text	0000001e __metal_driver_sifive_plic0_context_ids
00000000 l    df *ABS*	00000000 sifive_gpio-leds.c
20015a16 l     F .text	0000004a __metal_driver_sifive_gpio_led_gpio
20015a60 l     F .text	00000044 __metal_driver_sifive_gpio_led_pin
20015aa4 l     F .text	0000005c __metal_driver_sifive_gpio_led_label
00000000 l    df *ABS*	00000000 sifive_gpio0.c
20015c46 l     F .text	00000026 __metal_driver_sifive_gpio0_base
20015c6c l     F .text	0000002a __metal_driver_sifive_gpio0_interrupt_parent
20015c96 l     F .text	0000035e __metal_driver_sifive_gpio0_interrupt_lines
00000000 l    df *ABS*	00000000 sifive_uart0.c
200166a4 l     F .text	00000040 __metal_driver_sifive_uart0_control_base
200166e4 l     F .text	00000048 __metal_driver_sifive_uart0_interrupt_parent
2001672c l     F .text	0000003c __metal_driver_sifive_uart0_interrupt_line
20016768 l     F .text	00000048 __metal_driver_sifive_uart0_clock
200167b0 l     F .text	00000040 __metal_driver_sifive_uart0_pinmux
200167f0 l     F .text	0000003c __metal_driver_sifive_uart0_pinmux_output_selector
2001682c l     F .text	00000040 __metal_driver_sifive_uart0_pinmux_source_selector
20016c0c l     F .text	000000da pre_rate_change_callback_func
20016ce6 l     F .text	0000002e post_rate_change_callback_func
00000000 l    df *ABS*	00000000 impure.c
80000000 l     O .data	00000060 impure_data
00000000 l    df *ABS*	00000000 sifive_fe310-g000_hfrosc.c
200150c0 l     F .text	0000001a __metal_driver_sifive_fe310_g000_hfrosc_ref
200150da l     F .text	00000016 __metal_driver_sifive_fe310_g000_hfrosc_config_base
200150f0 l     F .text	00000014 __metal_driver_sifive_fe310_g000_hfrosc_config_offset
20015104 l     F .text	00000016 __metal_driver_sifive_fe310_g000_prci_vtable
00000000 l    df *ABS*	00000000 sifive_fe310-g000_hfxosc.c
200151c0 l     F .text	0000001a __metal_driver_sifive_fe310_g000_hfxosc_ref
200151da l     F .text	00000016 __metal_driver_sifive_fe310_g000_hfxosc_config_base
200151f0 l     F .text	00000014 __metal_driver_sifive_fe310_g000_hfxosc_config_offset
20015204 l     F .text	00000016 __metal_driver_sifive_fe310_g000_prci_vtable
00000000 l    df *ABS*	00000000 sifive_fe310-g000_prci.c
2001599e l     F .text	00000012 __metal_driver_sifive_fe310_g000_prci_base
00000000 l    df *ABS*	00000000 fixed-clock.c
20017200 l     F .text	00000070 __metal_driver_fixed_clock_rate
00000000 l    df *ABS*	00000000 putchar.c
00000000 l    df *ABS*	00000000 putc.c
00000000 l    df *ABS*	00000000 puts.c
00000000 l    df *ABS*	00000000 wbuf.c
00000000 l    df *ABS*	00000000 wsetup.c
00000000 l    df *ABS*	00000000 fflush.c
00000000 l    df *ABS*	00000000 fwalk.c
00000000 l    df *ABS*	00000000 makebuf.c
00000000 l    df *ABS*	00000000 nano-mallocr.c
00000000 l    df *ABS*	00000000 nano-mallocr.c
00000000 l    df *ABS*	00000000 sbrkr.c
00000000 l    df *ABS*	00000000 stdio.c
00000000 l    df *ABS*	00000000 writer.c
00000000 l    df *ABS*	00000000 closer.c
00000000 l    df *ABS*	00000000 fstatr.c
00000000 l    df *ABS*	00000000 isattyr.c
00000000 l    df *ABS*	00000000 lseekr.c
00000000 l    df *ABS*	00000000 mlock.c
00000000 l    df *ABS*	00000000 readr.c
00000000 l    df *ABS*	00000000 cpu.c
00000000 l    df *ABS*	00000000 interrupt.c
00000000 l    df *ABS*	00000000 led.c
00000000 l    df *ABS*	00000000 clock.c
00000000 l    df *ABS*	00000000 gpio.c
00000000 l    df *ABS*	00000000 shutdown.c
00000000 l    df *ABS*	00000000 uart.c
00000000 l    df *ABS*	00000000 vector.o
20017180 l       .text	00000000 IRQ_0
20017184 l       .text	00000000 IRQ_1
20017188 l       .text	00000000 IRQ_2
2001718c l       .text	00000000 IRQ_3
20017190 l       .text	00000000 IRQ_4
20017194 l       .text	00000000 IRQ_5
20017198 l       .text	00000000 IRQ_6
2001719c l       .text	00000000 IRQ_7
200171a0 l       .text	00000000 IRQ_8
200171a4 l       .text	00000000 IRQ_9
200171a8 l       .text	00000000 IRQ_10
200171ac l       .text	00000000 IRQ_11
200171b0 l       .text	00000000 IRQ_12
200171b4 l       .text	00000000 IRQ_13
200171b8 l       .text	00000000 IRQ_14
200171bc l       .text	00000000 IRQ_15
200171c0 l       .text	00000000 IRQ_LC0
200171c4 l       .text	00000000 IRQ_LC1
200171c8 l       .text	00000000 IRQ_LC2
200171cc l       .text	00000000 IRQ_LC3
200171d0 l       .text	00000000 IRQ_LC4
200171d4 l       .text	00000000 IRQ_LC5
200171d8 l       .text	00000000 IRQ_LC6
200171dc l       .text	00000000 IRQ_LC7
200171e0 l       .text	00000000 IRQ_LC8
200171e4 l       .text	00000000 IRQ_LC9
200171e8 l       .text	00000000 IRQ_LC10
200171ec l       .text	00000000 IRQ_LC11
200171f0 l       .text	00000000 IRQ_LC12
200171f4 l       .text	00000000 IRQ_LC13
200171f8 l       .text	00000000 IRQ_LC14
200171fc l       .text	00000000 IRQ_LC15
00000000 l    df *ABS*	00000000 sys_close.c
00000000 l    df *ABS*	00000000 sys_fstat.c
00000000 l    df *ABS*	00000000 sys_isatty.c
00000000 l    df *ABS*	00000000 sys_lseek.c
00000000 l    df *ABS*	00000000 sys_read.c
00000000 l    df *ABS*	00000000 sys_sbrk.c
80000adc l     O .data	00000004 __brk
00000000 l    df *ABS*	00000000 sys_write.c
00000000 l    df *ABS*	00000000 atexit.c
00000000 l    df *ABS*	00000000 errno.c
00000000 l    df *ABS*	00000000 exit.c
00000000 l    df *ABS*	00000000 fini.c
00000000 l    df *ABS*	00000000 init.c
00000000 l    df *ABS*	00000000 strcat.c
00000000 l    df *ABS*	00000000 strcpy.c
00000000 l    df *ABS*	00000000 __atexit.c
80000af8 l     O .bss	0000008c _global_atexit0
00000000 l    df *ABS*	00000000 __call_atexit.c
00000000 l    df *ABS*	00000000 init.c
80000af0 l     O .bss	00000004 init_done.1
80000af4 l     O .bss	00000004 fini_done.0
00000000 l    df *ABS*	00000000 sys_exit.c
00000000 l    df *ABS*	00000000 inline.c
00000000 l    df *ABS*	00000000 
200102ec l       .init_array	00000000 metal_constructors_end
200102f0 l       .init_array	00000000 __fini_array_end
200102f0 l       .init_array	00000000 metal_destructors_end
200102f0 l       .init_array	00000000 metal_destructors_start
200102f0 l       .init_array	00000000 __fini_array_start
200102e0 l       .init_array	00000000 __init_array_end
200102e0 l       .init_array	00000000 __preinit_array_end
200102e0 l       .init_array	00000000 __init_array_start
200102e0 l       .init_array	00000000 metal_constructors_start
200102e0 l       .init_array	00000000 __preinit_array_start
2001176a g     F .text	0000002a putchar
2001135c g     O .rodata	00000040 __metal_driver_vtable_sifive_uart0
20015b00 g     F .text	00000036 __metal_driver_led_exist
20012450 g     F .text	00000026 metal_cpu_timer_get_interrupt_id
2001232e g     F .text	00000030 _isatty_r
20017652 g     F .text	00000012 strcpy
200136d2  w    F .text	00000096 metal_lc4_interrupt_vector_handler
20011816 g     F .text	000000da _puts_r
2001235e g     F .text	00000034 _lseek_r
20016e7a g     F .text	00000026 metal_clock_get_rate_hz
20016b6c g     F .text	000000a0 __metal_driver_sifive_uart0_set_baud_rate
20012a6a g     F .text	00000058 __metal_driver_riscv_clint0_set_vector_mode
200169c0 g     F .text	0000004a __metal_driver_sifive_uart0_set_tx_watermark
2001363c  w    F .text	00000096 metal_lc3_interrupt_vector_handler
20013ee4 g     F .text	00000058 __metal_valid_interrupt_id
20017038 g     F .text	00000040 metal_gpio_toggle_pin
200102e4 g     O .init_array	00000004 _use_hfxosc_ptr
20014364 g     F .text	0000001c __metal_driver_riscv_cpu_controller_get_vector_mode
800012b0 g       .data	00000000 __global_pointer$
20010342 g     F .ctors	00000024 metal_tty_init
2001242a g     F .text	00000026 metal_cpu_timer_interrupt_controller
200125ea g     F .text	00000024 metal_led_off
20016e26 g     F .text	00000054 _metal_clock_append_to_callbacks
20014914 g     F .text	00000046 __metal_plic0_complete_interrupt
2001412a g     F .text	000001e2 __metal_driver_riscv_cpu_controller_interrupt_register
200102e0 g     O .init_array	00000004 _metal_sifive_fe310_g000_pll_init_ptr
2001225c g     F .text	00000036 __sseek
20011d26 g     F .text	0000006a __sinit
200112cc g     O .rodata	00000014 __metal_driver_vtable_sifive_led
200118fc g     F .text	000000c0 __swbuf_r
80000ae0 g       .data	00000000 __tls_base
20011ce2 g     F .text	00000044 __sfmoreglue
20012394 g     F .text	00000002 __malloc_unlock
2001249c g     F .text	0000002e metal_cpu_get
200125c6 g     F .text	00000024 metal_led_on
80000a48 g     O .data	00000020 __metal_dt_serial_10013000
2001627e g     F .text	0000004a __metal_driver_sifive_gpio0_disable_io
20010830 g     O .rodata	00000064 __metal_driver_vtable_riscv_clint0
80000b98 g       .bss	00000000 metal_segment_bss_target_end
20012762 g     F .text	0000009a __metal_clint0_mtime_get
20014768 g     F .text	0000002e __metal_driver_cpu_get_instruction_length
00000001 g       *ABS*	00000000 __metal_chicken_bit
20016a84 g     F .text	00000030 __metal_driver_sifive_uart0_get_rx_watermark
20016034 g     F .text	00000046 __metal_driver_sifive_gpio0_disable_input
20017452 g     F .text	0000000a __errno
08000000 g       .rodata	00000000 metal_segment_itim_target_start
20016990 g     F .text	00000030 __metal_driver_sifive_uart0_txready
2001691e g     F .text	0000003a __metal_driver_sifive_uart0_rx_interrupt_enable
20016f90 g     F .text	00000040 metal_gpio_enable_output
20010142 g     F .init	0000000e __metal_synchronize_harts
80000ae0 g       .data	00000000 metal_segment_bss_target_start
200127fc g     F .text	00000096 __metal_driver_riscv_clint0_mtimecmp_set
200122fc g     F .text	00000032 _fstat_r
200164ce g     F .text	00000188 __metal_driver_sifive_gpio0_clear_int
80000ae8 g     O .bss	00000004 errno
20015460 g     F .text	0000017c __metal_driver_sifive_fe310_g000_pll_get_rate_hz
00000400 g       *ABS*	00000000 __stack_size
20016eec g     F .text	00000032 metal_clock_register_pre_rate_change_callback
20015b82 g     F .text	00000042 __metal_driver_led_on
200139c0  w    F .text	00000096 metal_lc9_interrupt_vector_handler
200100cc  w    F .init	00000000 __metal_before_start
20017898  w    F .text	00000016 metal_init_run
80000a68 g     O .data	00000020 __metal_dt_serial_10023000
200109bc g     O .rodata	00000064 __metal_driver_vtable_riscv_plic0
20010978 g     O .rodata	00000044 __metal_driver_vtable_cpu
200170e0 g     F .text	0000002e metal_uart_set_baud_rate
20016d14 g     F .text	000000d0 __metal_driver_sifive_uart0_init
00000000 g       *ABS*	00000000 __metal_eccscrub_bit
80000b84 g     O .bss	00000004 cpu
200143f0 g     F .text	00000070 __metal_driver_cpu_mcycle_get
200112a0 g     O .rodata	0000000c __metal_driver_vtable_sifive_fe310_g000_pll
80000fa0 g       .heap	00000000 metal_segment_heap_target_start
20011cd8 g     F .text	0000000a _cleanup_r
80000ac0 g     O .data	00000008 __metal_dt_cpu_0
2001392a  w    F .text	00000096 metal_lc8_interrupt_vector_handler
20015838 g     F .text	00000166 __metal_driver_sifive_fe310_g000_pll_set_rate_hz
20015024 g     F .text	00000074 __metal_driver_riscv_plic0_affinity_set_threshold
200118f0 g     F .text	0000000c puts
20013c18  w    F .text	00000096 metal_lc13_interrupt_vector_handler
20016fd0 g     F .text	00000068 metal_gpio_set_pin
20012fde g     F .text	00000018 __metal_default_exception_handler
200172d6 g     F .text	00000026 _fstat
20012da0 g     F .text	00000034 __metal_driver_riscv_clint0_set_interrupt
20014380 g     F .text	00000054 __metal_driver_riscv_cpu_controller_set_vector_mode
20012e70 g     F .text	00000030 __metal_driver_cpu_get
20010914 g     O .rodata	00000064 __metal_driver_vtable_riscv_cpu_intc
20012ed2 g     F .text	00000018 __metal_interrupt_global_disable
20015098 g     F .text	00000028 __metal_driver_riscv_plic0_affinity_get_threshold
200125a2 g     F .text	00000024 metal_led_enable
20013894  w    F .text	00000096 metal_lc7_interrupt_vector_handler
20013a56  w    F .text	00000096 metal_lc10_interrupt_vector_handler
200121ae g     F .text	00000030 _sbrk_r
20014e44 g     F .text	00000050 __metal_driver_riscv_plic0_disable
20013ff8 g     F .text	0000004e __metal_exception_register
2001260e g     F .text	00000096 metal_led_get_rgb
200177a8 g     F .text	00000078 metal_init
20012396 g     F .text	00000034 _read_r
20014582 g     F .text	0000001a __metal_driver_cpu_timer_controller_interrupt
20016116 g     F .text	00000040 __metal_driver_sifive_gpio0_enable_output
80000000 g       .rodata	00000000 metal_segment_lim_target_end
200130ce g     F .text	00000068 __metal_default_sw_handler
20016f1e g     F .text	00000032 metal_clock_register_post_rate_change_callback
80000078 g     O .data	0000000c __metal_dt_clock_2
2001686c g     F .text	00000020 __metal_driver_sifive_uart0_interrupt_controller
200172fc g     F .text	00000020 _isatty
200161dc g     F .text	00000040 __metal_driver_sifive_gpio0_output_toggle
200168ac g     F .text	0000003a __metal_driver_sifive_uart0_tx_interrupt_enable
200113cc g     O .rodata	00000008 __metal_driver_vtable_fixed_clock
200113b0 g     O .rodata	00000004 _global_impure_ptr
20013136  w    F .text	00000092 metal_timer_interrupt_vector_handler
200174ba g     F .text	0000005e __libc_init_array
20015bc4 g     F .text	00000042 __metal_driver_led_off
80000ad4 g     O .data	00000004 __metal_dt_led_2
20016156 g     F .text	00000040 __metal_driver_sifive_gpio0_output_set
20013aec  w    F .text	00000096 metal_lc11_interrupt_vector_handler
2001528e g     F .text	00000022 __metal_driver_sifive_fe310_g000_hfxosc_set_rate_hz
2001430c g     F .text	0000002c __metal_driver_riscv_cpu_controller_interrupt_enable
20017370 g     F .text	0000006a _sbrk
200160d0 g     F .text	00000046 __metal_driver_sifive_gpio0_disable_output
20016de4 g     F .text	00000042 _metal_clock_call_all_callbacks
200102ba g     F .init	00000002 _init
20012f34 g     F .text	0000001a __metal_interrupt_timer_disable
200162c8 g     F .text	00000206 __metal_driver_sifive_gpio0_config_int
20014640 g     F .text	00000062 __metal_driver_cpu_clear_sw_ipi
20011320 g     O .rodata	0000003c __metal_driver_vtable_sifive_gpio0
200168e6 g     F .text	00000038 __metal_driver_sifive_uart0_tx_interrupt_disable
2001621c g     F .text	00000062 __metal_driver_sifive_gpio0_enable_io
20017484 g     F .text	00000036 __libc_fini_array
80000aa0 g     O .data	0000000c __metal_dt_clock_4
20017820 g     F .text	00000078 metal_fini
20016656 g     F .text	00000020 __metal_driver_gpio_interrupt_controller
200145ca g     F .text	00000014 __metal_driver_cpu_get_sw_interrupt_id
200147d4 g     F .text	00000020 __metal_driver_cpu_get_buserror
80000000 g       .data	00000000 metal_segment_data_target_start
20012f86 g     F .text	0000002c __metal_interrupt_local_enable
20012d6c g     F .text	00000034 __metal_driver_riscv_clint0_clear_interrupt
200178c4 g     F .text	00000028 metal_tty_putc
20014b14 g     F .text	00000018 __metal_plic0_default_handler
200173da  w    F .text	0000006e write
20011794 g     F .text	00000082 _putc_r
00000000 g       *ABS*	00000000 __tbss_size
8000006c g     O .data	0000000c __metal_dt_clock_0
20017518 g     F .text	0000001c strcat
00000800 g       *ABS*	00000000 __heap_size
20014e94 g     F .text	00000030 __metal_driver_riscv_plic0_set_threshold
200131c8 g     F .text	00000016 __metal_default_beu_handler
200107d0 g     O .rodata	00000020 __sf_fake_stderr
200123ca g     F .text	0000002a metal_cpu_get_mtime
20012f6a g     F .text	0000001c __metal_interrupt_external_disable
2001688c g     F .text	00000020 __metal_driver_sifive_uart0_get_interrupt_id
200143d4 g     F .text	0000001c __metal_driver_riscv_cpu_controller_command_request
20014046 g     F .text	000000e4 __metal_driver_riscv_cpu_controller_interrupt_init
20014722 g     F .text	00000046 __metal_driver_cpu_exception_register
20012eea g     F .text	00000018 __metal_interrupt_software_enable
20013510  w    F .text	00000096 metal_lc1_interrupt_vector_handler
20012034 g     F .text	000000a2 _free_r
80000aec g     O .bss	00000004 _global_atexit
200149da g     F .text	00000062 __metal_driver_riscv_plic0_set_priority
20013dda g     F .text	00000058 __metal_controller_interrupt_vector_mode
200176e0 g     F .text	000000c8 __call_exitprocs
80000fa0 g       .stack	00000000 _sp
200102e8 g     O .init_array	00000004 _metal_tty_init_ptr
20010150 g     F .init	00000000 _start
2001511a g     F .text	00000084 __metal_driver_sifive_fe310_g000_hfrosc_get_rate_hz
2001731c g     F .text	0000002a _lseek
20014702 g     F .text	00000020 __metal_driver_cpu_controller_interrupt
20014796 g     F .text	0000001e __metal_driver_cpu_get_exception_pc
20012f4e g     F .text	0000001c __metal_interrupt_external_enable
20017664 g     F .text	0000007c __register_exitproc
20016ab4 g     F .text	00000042 __metal_driver_sifive_uart0_putc
20014bd8 g     F .text	0000015a __metal_driver_riscv_plic0_init
20014df4 g     F .text	00000050 __metal_driver_riscv_plic0_enable
200160a4 g     F .text	0000002c __metal_driver_sifive_gpio0_output
200137fe  w    F .text	00000096 metal_lc6_interrupt_vector_handler
20012ea0 g     F .text	0000001a __metal_myhart_id
20016676 g     F .text	0000002e __metal_driver_gpio_get_interrupt_id
2001303c  w    F .text	00000092 metal_software_interrupt_vector_handler
20014338 g     F .text	0000002c __metal_driver_riscv_cpu_controller_interrupt_disable
200122cc g     F .text	00000030 _close_r
20016b4c g     F .text	00000020 __metal_driver_sifive_uart0_get_baud_rate
2001294c g     F .text	000000da __metal_driver_riscv_clint0_register
20016f50 g     F .text	00000040 metal_gpio_disable_input
80000ab8 g     O .data	00000008 __metal_dt_clint_2000000
200119bc g     F .text	0000010a __swsetup_r
20012508 g     F .text	0000003e metal_interrupt_register_handler
20011d90 g     F .text	0000009c __sfp
20016ea0 g     F .text	0000004c metal_clock_set_rate_hz
200121de g     F .text	00000030 __sread
20015ff4 g     F .text	00000040 __metal_driver_sifive_gpio0_enable_input
200102bc  w    F .init	00000000 secondary_main
2001300e  w    F .text	0000002e metal_interrupt_vector_handler
20012392 g     F .text	00000002 __malloc_lock
20016958 g     F .text	00000038 __metal_driver_sifive_uart0_rx_interrupt_disable
80000b88 g     O .bss	00000004 tmr_intr
20011c0c g     F .text	00000064 _fflush_r
200149a0 g     F .text	0000003a __metal_plic0_get_threshold
200159b0 g     F .text	0000002e __metal_driver_sifive_fe310_g000_prci_get_reg
200107f0 g     O .rodata	00000020 __sf_fake_stdin
20013f3c g     F .text	000000bc __metal_local_interrupt_enable
20012c2c g     F .text	00000140 __metal_driver_riscv_clint0_command_request
20011f8c g     F .text	000000a8 memset
20013768  w    F .text	00000096 metal_lc5_interrupt_vector_handler
200115ba g     F .text	000001b0 main
80000ae0 g       .data	00000000 metal_segment_data_target_end
20016a3a g     F .text	0000004a __metal_driver_sifive_uart0_set_rx_watermark
200113b4 g     O .rodata	00000008 __metal_driver_vtable_sifive_fe310_g000_hfrosc
200145de g     F .text	00000062 __metal_driver_cpu_set_sw_ipi
200146a2 g     F .text	00000060 __metal_driver_cpu_get_msip
20017078 g     F .text	0000000e metal_shutdown
08000000 g       .rodata	00000000 metal_segment_itim_target_end
200147b4 g     F .text	00000020 __metal_driver_cpu_set_exception_pc
20015c06 g     F .text	00000040 __metal_driver_led_toggle
200148d8 g     F .text	0000003c __metal_plic0_claim_interrupt
20016a0a g     F .text	00000030 __metal_driver_sifive_uart0_get_tx_watermark
20012292 g     F .text	00000006 __sclose
80000060  w    O .data	0000000c __metal_led_table
20013b82  w    F .text	00000096 metal_lc12_interrupt_vector_handler
2001008a g     F .init	00000000 metal_mem_scrub
80000ad0 g     O .data	00000004 __metal_dt_led_1
200120d6 g     F .text	000000d8 _malloc_r
20012a4e g     F .text	0000001c __metal_driver_riscv_clint0_get_vector_mode
20015b36 g     F .text	0000004c __metal_driver_led_enable
80000ad8 g     O .data	00000004 __metal_dt_prci_10008000
20014460 g     F .text	00000046 __metal_driver_cpu_timebase_get
20014f88 g     F .text	0000009c __metal_driver_riscv_plic0_affinity_disable
20010000 g       .init	00000000 _enter
200124ca g     F .text	0000001a metal_cpu_get_current_hartid
20017534 g     F .text	0000011e strcmp
2001521a g     F .text	00000074 __metal_driver_sifive_fe310_g000_hfxosc_get_rate_hz
20017180 g       .text	00000000 __metal_vector_table
200113d8 g       *ABS*	00000000 metal_segment_itim_source_start
80000ab4  w    O .data	00000004 __metal_cpu_table
800000a0 g     O .data	000003d0 __metal_dt_cpu_0_interrupt_controller
200102ba g     F .init	00000002 _fini
80000000 g       .rodata	00000000 metal_segment_lim_target_start
20014a3c g     F .text	00000034 __metal_driver_riscv_plic0_get_priority
20011400 g     F .text	0000010c display_banner
20010318 g     F .ctors	0000002a use_hfxosc
20012eba g     F .text	00000018 __metal_interrupt_global_enable
20017448 g     F .text	0000000a atexit
20012298 g     F .text	00000034 _write_r
20012f1a g     F .text	0000001a __metal_interrupt_timer_enable
2001153c g     F .text	0000007e wait_for_timer
20016af6 g     F .text	00000056 __metal_driver_sifive_uart0_getc
20012b74 g     F .text	000000b8 __metal_driver_riscv_clint0_disable
80000ab0 g     O .data	00000004 _impure_ptr
2001450c g     F .text	00000076 __metal_driver_cpu_mtimecmp_set
20011ac6 g     F .text	00000146 __sflush_r
20014ec4 g     F .text	00000028 __metal_driver_riscv_plic0_get_threshold
200153bc g     F .text	000000a4 __metal_driver_sifive_fe310_g000_pll_init
80000084 g     O .data	0000000c __metal_dt_clock_5
80000b8c g     O .bss	00000004 cpu_intr
200159de g     F .text	00000038 __metal_driver_sifive_fe310_g000_prci_set_reg
20017270 g     F .text	00000020 __metal_driver_fixed_clock_get_rate_hz
20012ac2 g     F .text	000000b2 __metal_driver_riscv_clint0_enable
20017900 g       *ABS*	00000000 metal_segment_data_source_start
20010134 g       .init	00000000 early_trap_vector
800017a0 g       .heap	00000000 metal_segment_heap_target_end
20013e32 g     F .text	000000b2 __metal_controller_interrupt_vector
80000a94 g     O .data	0000000c __metal_dt_clock_1
80000470 g     O .data	000005d8 __metal_dt_interrupt_controller_c000000
20011e96 g     F .text	0000005a __swhatbuf_r
20016196 g     F .text	00000046 __metal_driver_sifive_gpio0_output_clear
200131de g     F .text	00000066 __metal_default_timer_handler
200173da g     F .text	0000006e _write
20014b2c g     F .text	000000ac __metal_plic0_handler
200135a6  w    F .text	00000096 metal_lc2_interrupt_vector_handler
20013d44  w    F .text	00000096 metal_lc15_interrupt_vector_handler
20012476 g     F .text	00000026 metal_cpu_interrupt_controller
200124e4 g     F .text	00000024 metal_interrupt_init
2001220e g     F .text	0000004e __swrite
200123f4 g     F .text	00000036 metal_cpu_set_mtimecmp
2001745c g     F .text	00000028 exit
20011e2c g     F .text	0000006a _fwalk_reent
20017290 g     F .text	00000024 __metal_driver_fixed_clock_set_rate_hz
200113d8 g       *ABS*	00000000 metal_segment_lim_source_start
20010810 g     O .rodata	00000020 __sf_fake_stdout
80000ac8 g     O .data	00000004 __metal_dt_gpio_10012000
20012ff6 g     F .text	00000018 __metal_default_interrupt_handler
20012546 g     F .text	0000002e metal_interrupt_enable
200170b2 g     F .text	0000002e metal_uart_putc
20017346 g     F .text	0000002a _read
200178ae  w    F .text	00000016 metal_fini_run
2001607a g     F .text	0000002a __metal_driver_sifive_gpio0_input
20013280 g     F .text	00000180 __metal_exception_handler
2001347a  w    F .text	00000096 metal_lc0_interrupt_vector_handler
200178ec g     F .text	00000014 _exit
2001150c g     F .text	00000030 timer_isr
200144a6 g     F .text	00000066 __metal_driver_cpu_mtime_get
20011ef0 g     F .text	0000009c __smakebuf_r
20012a26 g     F .text	00000028 __metal_driver_riscv_clint0_vector_register
80000ae4 g     O .bss	00000004 __malloc_sbrk_start
80000b90 g     O .bss	00000004 timer_isr_flag
20013cae  w    F .text	00000096 metal_lc14_interrupt_vector_handler
200113bc g     O .rodata	00000008 __metal_driver_vtable_sifive_fe310_g000_hfxosc
200128c4 g     F .text	00000088 __metal_driver_riscv_clint0_init
80000ae0 g     O .bss	00000004 __malloc_free_list
200102ec g     F .ctors	0000002c metal_sifive_fe310_g000_pll_init
80000b94 g     O .bss	00000004 tmr_id
2001459c g     F .text	00000014 __metal_driver_cpu_get_timer_interrupt_id
20014a70 g     F .text	000000a4 __metal_plic0_enable
20010088  w      .init	00000000 __register_frame_info
2001519e g     F .text	00000022 __metal_driver_sifive_fe310_g000_hfrosc_set_rate_hz
200145b0 g     F .text	0000001a __metal_driver_cpu_sw_controller_interrupt
20012fb2 g     F .text	0000002c __metal_interrupt_local_disable
20012f02 g     F .text	00000018 __metal_interrupt_software_disable
20017086 g     F .text	0000002c metal_uart_init
80000a88 g     O .data	0000000c __metal_dt_clock_3
80000090 g     O .data	0000000c __metal_dt_clock_6
2001495a g     F .text	00000046 __metal_plic0_set_threshold
80000acc g     O .data	00000004 __metal_dt_led_0
20014eec g     F .text	0000009c __metal_driver_riscv_plic0_affinity_enable
200172b4 g     F .text	00000022 _close
200113c4 g     O .rodata	00000008 __metal_driver_vtable_sifive_fe310_g000_prci
00000000 g       *ABS*	00000000 __metal_boot_hart
20014d32 g     F .text	000000c2 __metal_driver_riscv_plic0_register
20012574 g     F .text	0000002e metal_interrupt_disable



Disassembly of section .init:

20010000 <_enter>:
_enter():
C:/Users/nandg/Desktop/Athena_Welcome_Demo/sifive_hifive1_revb_sifive_welcome/freedom-metal/src/entry.S:24
     * it's not valid to obtain the address of any symbol without GP
     * configured.  The C environment might go ahead and do this again, but
     * that's safe as it's a fixed register. */
.option push
.option norelax
    la gp, __global_pointer$
20010000:	5fff1197          	auipc	gp,0x5fff1
20010004:	2b018193          	addi	gp,gp,688 # 800012b0 <__global_pointer$>
C:/Users/nandg/Desktop/Athena_Welcome_Demo/sifive_hifive1_revb_sifive_welcome/freedom-metal/src/entry.S:28
.option pop

    /* trap over the chicken bit register clearing, aloe & fe310 dont have it */
    la t0, 1f
20010008:	00000297          	auipc	t0,0x0
2001000c:	01828293          	addi	t0,t0,24 # 20010020 <_enter+0x20>
C:/Users/nandg/Desktop/Athena_Welcome_Demo/sifive_hifive1_revb_sifive_welcome/freedom-metal/src/entry.S:29
    csrw mtvec, t0
20010010:	30529073          	csrw	mtvec,t0
C:/Users/nandg/Desktop/Athena_Welcome_Demo/sifive_hifive1_revb_sifive_welcome/freedom-metal/src/entry.S:31
    /* chicken bit is enable if core are sifive series. */
    la t0, __metal_chicken_bit
20010014:	00100293          	li	t0,1
C:/Users/nandg/Desktop/Athena_Welcome_Demo/sifive_hifive1_revb_sifive_welcome/freedom-metal/src/entry.S:32
    beqz t0, 1f
20010018:	00028463          	beqz	t0,20010020 <_enter+0x20>
C:/Users/nandg/Desktop/Athena_Welcome_Demo/sifive_hifive1_revb_sifive_welcome/freedom-metal/src/entry.S:34
    /* If set, always clear the feature disable register for all cores series */
    csrwi 0x7C1, 0
2001001c:	7c105073          	csrwi	0x7c1,0
C:/Users/nandg/Desktop/Athena_Welcome_Demo/sifive_hifive1_revb_sifive_welcome/freedom-metal/src/entry.S:39
.align 4
1:
    /* Set up a simple trap vector to catch anything that goes wrong early in
     * the boot process. */
    la t0, early_trap_vector
20010020:	00000297          	auipc	t0,0x0
20010024:	11428293          	addi	t0,t0,276 # 20010134 <early_trap_vector>
C:/Users/nandg/Desktop/Athena_Welcome_Demo/sifive_hifive1_revb_sifive_welcome/freedom-metal/src/entry.S:40
    csrw mtvec, t0
20010028:	30529073          	csrw	mtvec,t0
C:/Users/nandg/Desktop/Athena_Welcome_Demo/sifive_hifive1_revb_sifive_welcome/freedom-metal/src/entry.S:48
     * C, so here we set up a C environment. First we set up a stack pointer,
     * which is left as a weak reference in order to allow initialization
     * routines that do not need a stack to be set up to transparently be
     * called. */
    .weak __metal_stack_pointer
    la sp, __metal_stack_pointer
2001002c:	00000113          	li	sp,0
C:/Users/nandg/Desktop/Athena_Welcome_Demo/sifive_hifive1_revb_sifive_welcome/freedom-metal/src/entry.S:55
   /* The METAL is designed for a bare-metal environment and therefore is expected
    * to define its own stack pointer. We also align the stack pointer here
    * because the only RISC-V ABI that's currently defined, mandates 16-byte
    * stack alignment. */

    bne sp, zero, 1f
20010030:	00011463          	bnez	sp,20010038 <_enter+0x38>
C:/Users/nandg/Desktop/Athena_Welcome_Demo/sifive_hifive1_revb_sifive_welcome/freedom-metal/src/entry.S:56
    la sp, _sp
20010034:	cf018113          	addi	sp,gp,-784 # 80000fa0 <_sp>
C:/Users/nandg/Desktop/Athena_Welcome_Demo/sifive_hifive1_revb_sifive_welcome/freedom-metal/src/entry.S:59
1:
    /* Increment by hartid number of stack sizes */
    csrr a0, mhartid
20010038:	f1402573          	csrr	a0,mhartid
C:/Users/nandg/Desktop/Athena_Welcome_Demo/sifive_hifive1_revb_sifive_welcome/freedom-metal/src/entry.S:60
    li t0, 0
2001003c:	4281                	li	t0,0
C:/Users/nandg/Desktop/Athena_Welcome_Demo/sifive_hifive1_revb_sifive_welcome/freedom-metal/src/entry.S:61
    la t1, __stack_size
2001003e:	40000313          	li	t1,1024
C:/Users/nandg/Desktop/Athena_Welcome_Demo/sifive_hifive1_revb_sifive_welcome/freedom-metal/src/entry.S:63
1:
    andi sp, sp, -16
20010042:	ff017113          	andi	sp,sp,-16
C:/Users/nandg/Desktop/Athena_Welcome_Demo/sifive_hifive1_revb_sifive_welcome/freedom-metal/src/entry.S:64
    beq t0, a0, 1f
20010046:	00a28563          	beq	t0,a0,20010050 <_enter+0x50>
C:/Users/nandg/Desktop/Athena_Welcome_Demo/sifive_hifive1_revb_sifive_welcome/freedom-metal/src/entry.S:65
    add sp, sp, t1
2001004a:	911a                	add	sp,sp,t1
C:/Users/nandg/Desktop/Athena_Welcome_Demo/sifive_hifive1_revb_sifive_welcome/freedom-metal/src/entry.S:66
    addi t0, t0, 1
2001004c:	0285                	addi	t0,t0,1
C:/Users/nandg/Desktop/Athena_Welcome_Demo/sifive_hifive1_revb_sifive_welcome/freedom-metal/src/entry.S:67
    j 1b
2001004e:	bfd5                	j	20010042 <_enter+0x42>
C:/Users/nandg/Desktop/Athena_Welcome_Demo/sifive_hifive1_revb_sifive_welcome/freedom-metal/src/entry.S:76
     * just skip over the call entirely.   Note that __metal_initialize isn't
     * actually a full C function, as it doesn't end up with the .bss or .data
     * segments having been initialized.  This is done to avoid putting a
     * burden on systems that can be initialized without having a C environment
     * set up. */
    la ra, __metal_before_start
20010050:	00000097          	auipc	ra,0x0
20010054:	07c08093          	addi	ra,ra,124 # 200100cc <__metal_before_start>
C:/Users/nandg/Desktop/Athena_Welcome_Demo/sifive_hifive1_revb_sifive_welcome/freedom-metal/src/entry.S:77
    beqz ra, 1f
20010058:	00008363          	beqz	ra,2001005e <_enter+0x5e>
C:/Users/nandg/Desktop/Athena_Welcome_Demo/sifive_hifive1_revb_sifive_welcome/freedom-metal/src/entry.S:78
    jalr ra
2001005c:	9082                	jalr	ra
C:/Users/nandg/Desktop/Athena_Welcome_Demo/sifive_hifive1_revb_sifive_welcome/freedom-metal/src/entry.S:84
1:

    /* At this point we can enter the C runtime's startup file.  The arguments
     * to this function are designed to match those provided to the SEE, just
     * so we don't have to write another ABI. */
    csrr a0, mhartid
2001005e:	f1402573          	csrr	a0,mhartid
C:/Users/nandg/Desktop/Athena_Welcome_Demo/sifive_hifive1_revb_sifive_welcome/freedom-metal/src/entry.S:85
    li a1, 0
20010062:	4581                	li	a1,0
C:/Users/nandg/Desktop/Athena_Welcome_Demo/sifive_hifive1_revb_sifive_welcome/freedom-metal/src/entry.S:86
    li a2, 0
20010064:	4601                	li	a2,0
C:/Users/nandg/Desktop/Athena_Welcome_Demo/sifive_hifive1_revb_sifive_welcome/freedom-metal/src/entry.S:87
    call _start
20010066:	20ed                	jal	20010150 <_start>
C:/Users/nandg/Desktop/Athena_Welcome_Demo/sifive_hifive1_revb_sifive_welcome/freedom-metal/src/entry.S:92

    /* If we've made it back here then there's probably something wrong.  We
     * allow the METAL to register a handler here. */
    .weak __metal_after_main
    la ra, __metal_after_main
20010068:	00000093          	li	ra,0
C:/Users/nandg/Desktop/Athena_Welcome_Demo/sifive_hifive1_revb_sifive_welcome/freedom-metal/src/entry.S:93
    beqz ra, 1f
2001006c:	00008363          	beqz	ra,20010072 <_enter+0x72>
C:/Users/nandg/Desktop/Athena_Welcome_Demo/sifive_hifive1_revb_sifive_welcome/freedom-metal/src/entry.S:94
    jalr ra
20010070:	9082                	jalr	ra
C:/Users/nandg/Desktop/Athena_Welcome_Demo/sifive_hifive1_revb_sifive_welcome/freedom-metal/src/entry.S:99
1:

    /* If that handler returns then there's not a whole lot we can do.  Just
     * try to make some noise. */
     la t0, 1f
20010072:	00000297          	auipc	t0,0x0
20010076:	00c28293          	addi	t0,t0,12 # 2001007e <_enter+0x7e>
C:/Users/nandg/Desktop/Athena_Welcome_Demo/sifive_hifive1_revb_sifive_welcome/freedom-metal/src/entry.S:100
     csrw mtvec, t0
2001007a:	30529073          	csrw	mtvec,t0
C:/Users/nandg/Desktop/Athena_Welcome_Demo/sifive_hifive1_revb_sifive_welcome/freedom-metal/src/entry.S:102
1:
     lw t1, 0(x0)
2001007e:	00002303          	lw	t1,0(zero) # 0 <__metal_boot_hart>
C:/Users/nandg/Desktop/Athena_Welcome_Demo/sifive_hifive1_revb_sifive_welcome/freedom-metal/src/entry.S:103
     j 1b
20010082:	bff5                	j	2001007e <_enter+0x7e>
20010084:	0000                	unimp
	...

20010088 <__register_frame_info>:
__register_frame_info():
C:/Users/nandg/Desktop/Athena_Welcome_Demo/sifive_hifive1_revb_sifive_welcome/freedom-metal/src/entry.S:117
.weak __register_frame_info
.global __register_frame_info
.section .text.metal.init.__register_frame_info
__register_frame_info:
    .cfi_startproc
    ret
20010088:	8082                	ret

2001008a <metal_mem_scrub>:
metal_mem_scrub():
C:/Users/nandg/Desktop/Athena_Welcome_Demo/sifive_hifive1_revb_sifive_welcome/freedom-metal/src/scrub.S:24
.type metal_mem_scrub, @function
metal_mem_scrub:

    /* Disable machine interrupts,
    restore previous mstatus value at exit */
    li      a3, 8
2001008a:	46a1                	li	a3,8
C:/Users/nandg/Desktop/Athena_Welcome_Demo/sifive_hifive1_revb_sifive_welcome/freedom-metal/src/scrub.S:25
    csrrc   t1, mstatus, a3
2001008c:	3006b373          	csrrc	t1,mstatus,a3
C:/Users/nandg/Desktop/Athena_Welcome_Demo/sifive_hifive1_revb_sifive_welcome/freedom-metal/src/scrub.S:28

#if __riscv_xlen == 32
    addi    t0, x0, 4
20010090:	4291                	li	t0,4
C:/Users/nandg/Desktop/Athena_Welcome_Demo/sifive_hifive1_revb_sifive_welcome/freedom-metal/src/scrub.S:30
1:
    blt     a1, t0, 2f
20010092:	0055c563          	blt	a1,t0,2001009c <metal_mem_scrub+0x12>
C:/Users/nandg/Desktop/Athena_Welcome_Demo/sifive_hifive1_revb_sifive_welcome/freedom-metal/src/scrub.S:31
    andi    a2, a0, 3
20010096:	00357613          	andi	a2,a0,3
C:/Users/nandg/Desktop/Athena_Welcome_Demo/sifive_hifive1_revb_sifive_welcome/freedom-metal/src/scrub.S:32
    beqz    a2, 3f
2001009a:	ca11                	beqz	a2,200100ae <metal_mem_scrub+0x24>
C:/Users/nandg/Desktop/Athena_Welcome_Demo/sifive_hifive1_revb_sifive_welcome/freedom-metal/src/scrub.S:34
2:
    sb      x0, 0(a0)
2001009c:	00050023          	sb	zero,0(a0)
C:/Users/nandg/Desktop/Athena_Welcome_Demo/sifive_hifive1_revb_sifive_welcome/freedom-metal/src/scrub.S:35
    addi    a0, a0, 1
200100a0:	0505                	addi	a0,a0,1
C:/Users/nandg/Desktop/Athena_Welcome_Demo/sifive_hifive1_revb_sifive_welcome/freedom-metal/src/scrub.S:36
    addi    a1, a1, -1
200100a2:	15fd                	addi	a1,a1,-1
C:/Users/nandg/Desktop/Athena_Welcome_Demo/sifive_hifive1_revb_sifive_welcome/freedom-metal/src/scrub.S:37
    bgtz    a1, 1b
200100a4:	feb047e3          	bgtz	a1,20010092 <metal_mem_scrub+0x8>
C:/Users/nandg/Desktop/Athena_Welcome_Demo/sifive_hifive1_revb_sifive_welcome/freedom-metal/src/scrub.S:38
    csrw    mstatus, t1
200100a8:	30031073          	csrw	mstatus,t1
C:/Users/nandg/Desktop/Athena_Welcome_Demo/sifive_hifive1_revb_sifive_welcome/freedom-metal/src/scrub.S:39
    ret
200100ac:	8082                	ret
C:/Users/nandg/Desktop/Athena_Welcome_Demo/sifive_hifive1_revb_sifive_welcome/freedom-metal/src/scrub.S:41
3:
    sw      x0, 0(a0)
200100ae:	00052023          	sw	zero,0(a0)
C:/Users/nandg/Desktop/Athena_Welcome_Demo/sifive_hifive1_revb_sifive_welcome/freedom-metal/src/scrub.S:42
    addi    a0, a0, 4
200100b2:	0511                	addi	a0,a0,4
C:/Users/nandg/Desktop/Athena_Welcome_Demo/sifive_hifive1_revb_sifive_welcome/freedom-metal/src/scrub.S:43
    addi    a1, a1, -4
200100b4:	15f1                	addi	a1,a1,-4
C:/Users/nandg/Desktop/Athena_Welcome_Demo/sifive_hifive1_revb_sifive_welcome/freedom-metal/src/scrub.S:44
    bgtz    a1, 1b
200100b6:	fcb04ee3          	bgtz	a1,20010092 <metal_mem_scrub+0x8>
C:/Users/nandg/Desktop/Athena_Welcome_Demo/sifive_hifive1_revb_sifive_welcome/freedom-metal/src/scrub.S:45
    csrw    mstatus, t1
200100ba:	30031073          	csrw	mstatus,t1
C:/Users/nandg/Desktop/Athena_Welcome_Demo/sifive_hifive1_revb_sifive_welcome/freedom-metal/src/scrub.S:46
    ret
200100be:	8082                	ret

200100c0 <__metal_memory_scrub>:
__metal_memory_scrub():
C:/Users/nandg/Desktop/Athena_Welcome_Demo/sifive_hifive1_revb_sifive_welcome/freedom-metal/src/scrub.S:74
.type __metal_memory_scrub, @function
__metal_memory_scrub:
/* Zero out specified memory regions */
1:
#if __riscv_xlen == 32
    sw      x0, 0(t1)
200100c0:	00032023          	sw	zero,0(t1)
C:/Users/nandg/Desktop/Athena_Welcome_Demo/sifive_hifive1_revb_sifive_welcome/freedom-metal/src/scrub.S:75
    addi    t1, t1, 4
200100c4:	0311                	addi	t1,t1,4
C:/Users/nandg/Desktop/Athena_Welcome_Demo/sifive_hifive1_revb_sifive_welcome/freedom-metal/src/scrub.S:76
    blt     t1, t2, 1b
200100c6:	fe734de3          	blt	t1,t2,200100c0 <__metal_memory_scrub>
C:/Users/nandg/Desktop/Athena_Welcome_Demo/sifive_hifive1_revb_sifive_welcome/freedom-metal/src/scrub.S:82
#else
    sd      x0, 0(t1)
    addi    t1, t1, 8
    blt     t1, t2, 1b
#endif
    ret
200100ca:	8082                	ret

200100cc <__metal_before_start>:
__metal_before_start():
C:/Users/nandg/Desktop/Athena_Welcome_Demo/sifive_hifive1_revb_sifive_welcome/freedom-metal/src/scrub.S:94
.weak __metal_before_start
.global __metal_before_start
.type __metal_before_start, @function
__metal_before_start:
    /* Save caller ra */
    mv      s0, ra
200100cc:	8406                	mv	s0,ra
C:/Users/nandg/Desktop/Athena_Welcome_Demo/sifive_hifive1_revb_sifive_welcome/freedom-metal/src/scrub.S:96

    la      t0, __metal_eccscrub_bit
200100ce:	dfff0297          	auipc	t0,0xdfff0
200100d2:	f3228293          	addi	t0,t0,-206 # 0 <__metal_boot_hart>
C:/Users/nandg/Desktop/Athena_Welcome_Demo/sifive_hifive1_revb_sifive_welcome/freedom-metal/src/scrub.S:97
    beqz    t0, skip_scrub
200100d6:	04028c63          	beqz	t0,2001012e <skip_scrub>
C:/Users/nandg/Desktop/Athena_Welcome_Demo/sifive_hifive1_revb_sifive_welcome/freedom-metal/src/scrub.S:99

    la      t0, __metal_boot_hart
200100da:	dfff0297          	auipc	t0,0xdfff0
200100de:	f2628293          	addi	t0,t0,-218 # 0 <__metal_boot_hart>
C:/Users/nandg/Desktop/Athena_Welcome_Demo/sifive_hifive1_revb_sifive_welcome/freedom-metal/src/scrub.S:100
    csrr    a5, mhartid
200100e2:	f14027f3          	csrr	a5,mhartid
C:/Users/nandg/Desktop/Athena_Welcome_Demo/sifive_hifive1_revb_sifive_welcome/freedom-metal/src/scrub.S:103

    /* Disable machine interrupts to be safe */
    li      a3, 8
200100e6:	46a1                	li	a3,8
C:/Users/nandg/Desktop/Athena_Welcome_Demo/sifive_hifive1_revb_sifive_welcome/freedom-metal/src/scrub.S:104
    csrc    mstatus, a3
200100e8:	3006b073          	csrc	mstatus,a3
C:/Users/nandg/Desktop/Athena_Welcome_Demo/sifive_hifive1_revb_sifive_welcome/freedom-metal/src/scrub.S:107

    /* Zero out per hart stack */
    mv      t1, sp
200100ec:	830a                	mv	t1,sp
C:/Users/nandg/Desktop/Athena_Welcome_Demo/sifive_hifive1_revb_sifive_welcome/freedom-metal/src/scrub.S:108
    la      t2, __stack_size
200100ee:	dfff0397          	auipc	t2,0xdfff0
200100f2:	31238393          	addi	t2,t2,786 # 400 <__stack_size>
C:/Users/nandg/Desktop/Athena_Welcome_Demo/sifive_hifive1_revb_sifive_welcome/freedom-metal/src/scrub.S:109
    add     t2, t2, sp
200100f6:	938a                	add	t2,t2,sp
C:/Users/nandg/Desktop/Athena_Welcome_Demo/sifive_hifive1_revb_sifive_welcome/freedom-metal/src/scrub.S:110
    beq     t1, t2, 1f
200100f8:	00730363          	beq	t1,t2,200100fe <__metal_before_start+0x32>
C:/Users/nandg/Desktop/Athena_Welcome_Demo/sifive_hifive1_revb_sifive_welcome/freedom-metal/src/scrub.S:111
    jal     __metal_memory_scrub
200100fc:	37d1                	jal	200100c0 <__metal_memory_scrub>
C:/Users/nandg/Desktop/Athena_Welcome_Demo/sifive_hifive1_revb_sifive_welcome/freedom-metal/src/scrub.S:113
1:
    bne     a5, t0, skip_scrub
200100fe:	02579863          	bne	a5,t0,2001012e <skip_scrub>
C:/Users/nandg/Desktop/Athena_Welcome_Demo/sifive_hifive1_revb_sifive_welcome/freedom-metal/src/scrub.S:116

    /* Zero out data segment */
    la      t1, metal_segment_data_target_start
20010102:	5fff0317          	auipc	t1,0x5fff0
20010106:	efe30313          	addi	t1,t1,-258 # 80000000 <impure_data>
C:/Users/nandg/Desktop/Athena_Welcome_Demo/sifive_hifive1_revb_sifive_welcome/freedom-metal/src/scrub.S:117
    la      t2, metal_segment_data_target_end
2001010a:	5fff1397          	auipc	t2,0x5fff1
2001010e:	9d638393          	addi	t2,t2,-1578 # 80000ae0 <__malloc_free_list>
C:/Users/nandg/Desktop/Athena_Welcome_Demo/sifive_hifive1_revb_sifive_welcome/freedom-metal/src/scrub.S:118
    beq     t1, t2, 1f
20010112:	00730363          	beq	t1,t2,20010118 <__metal_before_start+0x4c>
C:/Users/nandg/Desktop/Athena_Welcome_Demo/sifive_hifive1_revb_sifive_welcome/freedom-metal/src/scrub.S:119
    jal     __metal_memory_scrub
20010116:	376d                	jal	200100c0 <__metal_memory_scrub>
C:/Users/nandg/Desktop/Athena_Welcome_Demo/sifive_hifive1_revb_sifive_welcome/freedom-metal/src/scrub.S:122
1:
    /* Zero out itim memory */
    la      t1, metal_segment_itim_target_start
20010118:	e7ff0317          	auipc	t1,0xe7ff0
2001011c:	ee830313          	addi	t1,t1,-280 # 8000000 <metal_segment_itim_target_end>
C:/Users/nandg/Desktop/Athena_Welcome_Demo/sifive_hifive1_revb_sifive_welcome/freedom-metal/src/scrub.S:123
    la      t2, metal_segment_itim_target_end
20010120:	e7ff0397          	auipc	t2,0xe7ff0
20010124:	ee038393          	addi	t2,t2,-288 # 8000000 <metal_segment_itim_target_end>
C:/Users/nandg/Desktop/Athena_Welcome_Demo/sifive_hifive1_revb_sifive_welcome/freedom-metal/src/scrub.S:124
    beq     t1, t2, skip_scrub
20010128:	00730363          	beq	t1,t2,2001012e <skip_scrub>
C:/Users/nandg/Desktop/Athena_Welcome_Demo/sifive_hifive1_revb_sifive_welcome/freedom-metal/src/scrub.S:125
    jal     __metal_memory_scrub
2001012c:	3f51                	jal	200100c0 <__metal_memory_scrub>

2001012e <skip_scrub>:
skip_scrub():
C:/Users/nandg/Desktop/Athena_Welcome_Demo/sifive_hifive1_revb_sifive_welcome/freedom-metal/src/scrub.S:129

skip_scrub:
    /* Restore caller ra */
    mv      ra, s0
2001012e:	80a2                	mv	ra,s0
C:/Users/nandg/Desktop/Athena_Welcome_Demo/sifive_hifive1_revb_sifive_welcome/freedom-metal/src/scrub.S:130
    ret
20010130:	8082                	ret
	...

20010134 <early_trap_vector>:
early_trap_vector():
C:/Users/nandg/Desktop/Athena_Welcome_Demo/sifive_hifive1_revb_sifive_welcome/freedom-metal/src/trap.S:64
.section .text.metal.init.trapvec
.global early_trap_vector
.align 2
early_trap_vector:
    .cfi_startproc
    csrr t0, mcause
20010134:	342022f3          	csrr	t0,mcause
C:/Users/nandg/Desktop/Athena_Welcome_Demo/sifive_hifive1_revb_sifive_welcome/freedom-metal/src/trap.S:65
    csrr t1, mepc
20010138:	34102373          	csrr	t1,mepc
C:/Users/nandg/Desktop/Athena_Welcome_Demo/sifive_hifive1_revb_sifive_welcome/freedom-metal/src/trap.S:66
    csrr t2, mtval
2001013c:	343023f3          	csrr	t2,mtval
C:/Users/nandg/Desktop/Athena_Welcome_Demo/sifive_hifive1_revb_sifive_welcome/freedom-metal/src/trap.S:67
    j early_trap_vector
20010140:	bfd5                	j	20010134 <early_trap_vector>

20010142 <__metal_synchronize_harts>:
__metal_synchronize_harts():
C:/Users/nandg/Desktop/Athena_Welcome_Demo/sifive_hifive1_revb_sifive_welcome/freedom-metal/src/synchronize_harts.c:19
/*
 * _synchronize_harts() is called by crt0.S to cause harts > 0 to wait for
 * hart 0 to finish copying the datat section, zeroing the BSS, and running
 * the libc contstructors.
 */
__attribute__((section(".init"))) void __metal_synchronize_harts() {
20010142:	1141                	addi	sp,sp,-16
20010144:	c622                	sw	s0,12(sp)
20010146:	0800                	addi	s0,sp,16
C:/Users/nandg/Desktop/Athena_Welcome_Demo/sifive_hifive1_revb_sifive_welcome/freedom-metal/src/synchronize_harts.c:66
        while (METAL_MSIP(msip_base, hart) == 1)
            ;
    }

#endif /* __METAL_DT_MAX_HARTS > 1 */
}
20010148:	0001                	nop
2001014a:	4432                	lw	s0,12(sp)
2001014c:	0141                	addi	sp,sp,16
2001014e:	8082                	ret

20010150 <_start>:
_start():
C:/Users/nandg/Desktop/Athena_Welcome_Demo/sifive_hifive1_revb_sifive_welcome/freedom-metal/gloss/crt0.S:36
.cfi_startproc
.cfi_undefined ra

  /* This is a bit funky: it's not usually sane for _start to return, but in
   * this case we actually want to in order to signal an error to the METAL. */
  mv s0, ra
20010150:	8406                	mv	s0,ra
C:/Users/nandg/Desktop/Athena_Welcome_Demo/sifive_hifive1_revb_sifive_welcome/freedom-metal/gloss/crt0.S:44
   * safely perform any access that may be relaxed without GP being set.  This
   * is done with relaxation disabled to avoid relaxing the address calculation
   * to just "addi gp, gp, 0". */
.option push
.option norelax
  la gp, __global_pointer$
20010152:	5fff1197          	auipc	gp,0x5fff1
20010156:	15e18193          	addi	gp,gp,350 # 800012b0 <__global_pointer$>
C:/Users/nandg/Desktop/Athena_Welcome_Demo/sifive_hifive1_revb_sifive_welcome/freedom-metal/gloss/crt0.S:50
.option pop

  /* Stack pointer is expected to be initialized before _start */

  /* If we're not hart 0, skip the initialization work */
  la t0, __metal_boot_hart
2001015a:	00000293          	li	t0,0
C:/Users/nandg/Desktop/Athena_Welcome_Demo/sifive_hifive1_revb_sifive_welcome/freedom-metal/gloss/crt0.S:51
  bne a0, t0, _skip_init
2001015e:	0e551163          	bne	a0,t0,20010240 <_skip_init>
C:/Users/nandg/Desktop/Athena_Welcome_Demo/sifive_hifive1_revb_sifive_welcome/freedom-metal/gloss/crt0.S:60
   * boot and then need to get relocated into a non-persistant writable memory
   * before C code can execute.  If this is the case we do so here.  This step
   * is optional: if the METAL provides an environment in which this relocation
   * is not necessary then it must simply set metal_segment_data_source_start to
   * be equal to metal_segment_data_target_start. */
  la t0, metal_segment_data_source_start
20010162:	00007297          	auipc	t0,0x7
20010166:	79e28293          	addi	t0,t0,1950 # 20017900 <metal_segment_data_source_start>
C:/Users/nandg/Desktop/Athena_Welcome_Demo/sifive_hifive1_revb_sifive_welcome/freedom-metal/gloss/crt0.S:61
  la t1, metal_segment_data_target_start
2001016a:	5fff0317          	auipc	t1,0x5fff0
2001016e:	e9630313          	addi	t1,t1,-362 # 80000000 <impure_data>
C:/Users/nandg/Desktop/Athena_Welcome_Demo/sifive_hifive1_revb_sifive_welcome/freedom-metal/gloss/crt0.S:62
  la t2, metal_segment_data_target_end
20010172:	5fff1397          	auipc	t2,0x5fff1
20010176:	96e38393          	addi	t2,t2,-1682 # 80000ae0 <__malloc_free_list>
C:/Users/nandg/Desktop/Athena_Welcome_Demo/sifive_hifive1_revb_sifive_welcome/freedom-metal/gloss/crt0.S:64

  beq t0, t1, 2f
2001017a:	00628c63          	beq	t0,t1,20010192 <_start+0x42>
C:/Users/nandg/Desktop/Athena_Welcome_Demo/sifive_hifive1_revb_sifive_welcome/freedom-metal/gloss/crt0.S:65
  bge t1, t2, 2f
2001017e:	00735a63          	bge	t1,t2,20010192 <_start+0x42>
C:/Users/nandg/Desktop/Athena_Welcome_Demo/sifive_hifive1_revb_sifive_welcome/freedom-metal/gloss/crt0.S:69

1:
#if __riscv_xlen == 32
  lw   a0, 0(t0)
20010182:	0002a503          	lw	a0,0(t0)
C:/Users/nandg/Desktop/Athena_Welcome_Demo/sifive_hifive1_revb_sifive_welcome/freedom-metal/gloss/crt0.S:70
  addi t0, t0, 4
20010186:	0291                	addi	t0,t0,4
C:/Users/nandg/Desktop/Athena_Welcome_Demo/sifive_hifive1_revb_sifive_welcome/freedom-metal/gloss/crt0.S:71
  sw   a0, 0(t1)
20010188:	00a32023          	sw	a0,0(t1)
C:/Users/nandg/Desktop/Athena_Welcome_Demo/sifive_hifive1_revb_sifive_welcome/freedom-metal/gloss/crt0.S:72
  addi t1, t1, 4
2001018c:	0311                	addi	t1,t1,4
C:/Users/nandg/Desktop/Athena_Welcome_Demo/sifive_hifive1_revb_sifive_welcome/freedom-metal/gloss/crt0.S:73
  blt  t1, t2, 1b
2001018e:	fe734ae3          	blt	t1,t2,20010182 <_start+0x32>
C:/Users/nandg/Desktop/Athena_Welcome_Demo/sifive_hifive1_revb_sifive_welcome/freedom-metal/gloss/crt0.S:84
  blt  t1, t2, 1b
#endif
2:

  /* Copy the ITIM section */
  la t0, metal_segment_itim_source_start
20010192:	00001297          	auipc	t0,0x1
20010196:	24628293          	addi	t0,t0,582 # 200113d8 <metal_segment_itim_source_start>
C:/Users/nandg/Desktop/Athena_Welcome_Demo/sifive_hifive1_revb_sifive_welcome/freedom-metal/gloss/crt0.S:85
  la t1, metal_segment_itim_target_start
2001019a:	e7ff0317          	auipc	t1,0xe7ff0
2001019e:	e6630313          	addi	t1,t1,-410 # 8000000 <metal_segment_itim_target_end>
C:/Users/nandg/Desktop/Athena_Welcome_Demo/sifive_hifive1_revb_sifive_welcome/freedom-metal/gloss/crt0.S:86
  la t2, metal_segment_itim_target_end
200101a2:	e7ff0397          	auipc	t2,0xe7ff0
200101a6:	e5e38393          	addi	t2,t2,-418 # 8000000 <metal_segment_itim_target_end>
C:/Users/nandg/Desktop/Athena_Welcome_Demo/sifive_hifive1_revb_sifive_welcome/freedom-metal/gloss/crt0.S:88

  beq t0, t1, 2f
200101aa:	00628c63          	beq	t0,t1,200101c2 <_start+0x72>
C:/Users/nandg/Desktop/Athena_Welcome_Demo/sifive_hifive1_revb_sifive_welcome/freedom-metal/gloss/crt0.S:89
  bge t1, t2, 2f
200101ae:	00735a63          	bge	t1,t2,200101c2 <_start+0x72>
C:/Users/nandg/Desktop/Athena_Welcome_Demo/sifive_hifive1_revb_sifive_welcome/freedom-metal/gloss/crt0.S:93

1:
#if __riscv_xlen == 32
  lw   a0, 0(t0)
200101b2:	0002a503          	lw	a0,0(t0)
C:/Users/nandg/Desktop/Athena_Welcome_Demo/sifive_hifive1_revb_sifive_welcome/freedom-metal/gloss/crt0.S:94
  addi t0, t0, 4
200101b6:	0291                	addi	t0,t0,4
C:/Users/nandg/Desktop/Athena_Welcome_Demo/sifive_hifive1_revb_sifive_welcome/freedom-metal/gloss/crt0.S:95
  sw   a0, 0(t1)
200101b8:	00a32023          	sw	a0,0(t1)
C:/Users/nandg/Desktop/Athena_Welcome_Demo/sifive_hifive1_revb_sifive_welcome/freedom-metal/gloss/crt0.S:96
  addi t1, t1, 4
200101bc:	0311                	addi	t1,t1,4
C:/Users/nandg/Desktop/Athena_Welcome_Demo/sifive_hifive1_revb_sifive_welcome/freedom-metal/gloss/crt0.S:97
  blt  t1, t2, 1b
200101be:	fe734ae3          	blt	t1,t2,200101b2 <_start+0x62>
C:/Users/nandg/Desktop/Athena_Welcome_Demo/sifive_hifive1_revb_sifive_welcome/freedom-metal/gloss/crt0.S:109
#endif
2:

  /* Fence all subsequent instruction fetches until after the ITIM writes
     complete */
  fence.i
200101c2:	0000100f          	fence.i
C:/Users/nandg/Desktop/Athena_Welcome_Demo/sifive_hifive1_revb_sifive_welcome/freedom-metal/gloss/crt0.S:114

2:

  /* Copy the LIM section */
  la t0, metal_segment_lim_source_start
200101c6:	00001297          	auipc	t0,0x1
200101ca:	21228293          	addi	t0,t0,530 # 200113d8 <metal_segment_itim_source_start>
C:/Users/nandg/Desktop/Athena_Welcome_Demo/sifive_hifive1_revb_sifive_welcome/freedom-metal/gloss/crt0.S:115
  la t1, metal_segment_lim_target_start
200101ce:	5fff0317          	auipc	t1,0x5fff0
200101d2:	e3230313          	addi	t1,t1,-462 # 80000000 <impure_data>
C:/Users/nandg/Desktop/Athena_Welcome_Demo/sifive_hifive1_revb_sifive_welcome/freedom-metal/gloss/crt0.S:116
  la t2, metal_segment_lim_target_end
200101d6:	5fff0397          	auipc	t2,0x5fff0
200101da:	e2a38393          	addi	t2,t2,-470 # 80000000 <impure_data>
C:/Users/nandg/Desktop/Athena_Welcome_Demo/sifive_hifive1_revb_sifive_welcome/freedom-metal/gloss/crt0.S:118

  beq t0, t1, 2f
200101de:	00628c63          	beq	t0,t1,200101f6 <_start+0xa6>
C:/Users/nandg/Desktop/Athena_Welcome_Demo/sifive_hifive1_revb_sifive_welcome/freedom-metal/gloss/crt0.S:119
  bge t1, t2, 2f
200101e2:	00735a63          	bge	t1,t2,200101f6 <_start+0xa6>
C:/Users/nandg/Desktop/Athena_Welcome_Demo/sifive_hifive1_revb_sifive_welcome/freedom-metal/gloss/crt0.S:123

1:
#if __riscv_xlen == 32
  lw   a0, 0(t0)
200101e6:	0002a503          	lw	a0,0(t0)
C:/Users/nandg/Desktop/Athena_Welcome_Demo/sifive_hifive1_revb_sifive_welcome/freedom-metal/gloss/crt0.S:124
  addi t0, t0, 4
200101ea:	0291                	addi	t0,t0,4
C:/Users/nandg/Desktop/Athena_Welcome_Demo/sifive_hifive1_revb_sifive_welcome/freedom-metal/gloss/crt0.S:125
  sw   a0, 0(t1)
200101ec:	00a32023          	sw	a0,0(t1)
C:/Users/nandg/Desktop/Athena_Welcome_Demo/sifive_hifive1_revb_sifive_welcome/freedom-metal/gloss/crt0.S:126
  addi t1, t1, 4
200101f0:	0311                	addi	t1,t1,4
C:/Users/nandg/Desktop/Athena_Welcome_Demo/sifive_hifive1_revb_sifive_welcome/freedom-metal/gloss/crt0.S:127
  blt  t1, t2, 1b
200101f2:	fe734ae3          	blt	t1,t2,200101e6 <_start+0x96>
C:/Users/nandg/Desktop/Athena_Welcome_Demo/sifive_hifive1_revb_sifive_welcome/freedom-metal/gloss/crt0.S:139
#endif
2:

  /* Fence all subsequent instruction fetches until after the LIM writes
     complete */
  fence.i
200101f6:	0000100f          	fence.i
C:/Users/nandg/Desktop/Athena_Welcome_Demo/sifive_hifive1_revb_sifive_welcome/freedom-metal/gloss/crt0.S:142

  /* Zero the BSS segment. */
  la t1, metal_segment_bss_target_start
200101fa:	5fff1317          	auipc	t1,0x5fff1
200101fe:	8e630313          	addi	t1,t1,-1818 # 80000ae0 <__malloc_free_list>
C:/Users/nandg/Desktop/Athena_Welcome_Demo/sifive_hifive1_revb_sifive_welcome/freedom-metal/gloss/crt0.S:143
  la t2, metal_segment_bss_target_end
20010202:	8e818393          	addi	t2,gp,-1816 # 80000b98 <metal_segment_bss_target_end>
C:/Users/nandg/Desktop/Athena_Welcome_Demo/sifive_hifive1_revb_sifive_welcome/freedom-metal/gloss/crt0.S:145

  bge t1, t2, 2f
20010206:	00735763          	bge	t1,t2,20010214 <_start+0xc4>
C:/Users/nandg/Desktop/Athena_Welcome_Demo/sifive_hifive1_revb_sifive_welcome/freedom-metal/gloss/crt0.S:149

1:
#if __riscv_xlen == 32
  sw   x0, 0(t1)
2001020a:	00032023          	sw	zero,0(t1)
C:/Users/nandg/Desktop/Athena_Welcome_Demo/sifive_hifive1_revb_sifive_welcome/freedom-metal/gloss/crt0.S:150
  addi t1, t1, 4
2001020e:	0311                	addi	t1,t1,4
C:/Users/nandg/Desktop/Athena_Welcome_Demo/sifive_hifive1_revb_sifive_welcome/freedom-metal/gloss/crt0.S:151
  blt  t1, t2, 1b
20010210:	fe734de3          	blt	t1,t2,2001020a <_start+0xba>
C:/Users/nandg/Desktop/Athena_Welcome_Demo/sifive_hifive1_revb_sifive_welcome/freedom-metal/gloss/crt0.S:161
#endif
2:

  /* Set TLS pointer */
  .weak __tls_base	
  la tp, __tls_base
20010214:	5fff1217          	auipc	tp,0x5fff1
20010218:	8cc20213          	addi	tp,tp,-1844 # 80000ae0 <__malloc_free_list>
C:/Users/nandg/Desktop/Athena_Welcome_Demo/sifive_hifive1_revb_sifive_welcome/freedom-metal/gloss/crt0.S:166

  /* At this point we're in an environment that can execute C code.  The first
   * thing to do is to make the callback to the parent environment if it's been
   * requested to do so. */
  beqz a2, 1f
2001021c:	c211                	beqz	a2,20010220 <_start+0xd0>
C:/Users/nandg/Desktop/Athena_Welcome_Demo/sifive_hifive1_revb_sifive_welcome/freedom-metal/gloss/crt0.S:167
  jalr a2
2001021e:	9602                	jalr	a2
C:/Users/nandg/Desktop/Athena_Welcome_Demo/sifive_hifive1_revb_sifive_welcome/freedom-metal/gloss/crt0.S:171
1:

  /* The RISC-V port only uses new-style constructors and destructors. */
  la a0, __libc_fini_array
20010220:	00007517          	auipc	a0,0x7
20010224:	26450513          	addi	a0,a0,612 # 20017484 <__libc_fini_array>
C:/Users/nandg/Desktop/Athena_Welcome_Demo/sifive_hifive1_revb_sifive_welcome/freedom-metal/gloss/crt0.S:172
  call atexit
20010228:	220070ef          	jal	ra,20017448 <atexit>
C:/Users/nandg/Desktop/Athena_Welcome_Demo/sifive_hifive1_revb_sifive_welcome/freedom-metal/gloss/crt0.S:173
  call __libc_init_array
2001022c:	28e070ef          	jal	ra,200174ba <__libc_init_array>
C:/Users/nandg/Desktop/Athena_Welcome_Demo/sifive_hifive1_revb_sifive_welcome/freedom-metal/gloss/crt0.S:177

  /* Register metal_fini_run as a destructor and call metal_init_run to
   * run and setup Metal constructors */
  la a0, metal_fini_run
20010230:	00007517          	auipc	a0,0x7
20010234:	67e50513          	addi	a0,a0,1662 # 200178ae <metal_fini_run>
C:/Users/nandg/Desktop/Athena_Welcome_Demo/sifive_hifive1_revb_sifive_welcome/freedom-metal/gloss/crt0.S:178
  call atexit
20010238:	210070ef          	jal	ra,20017448 <atexit>
C:/Users/nandg/Desktop/Athena_Welcome_Demo/sifive_hifive1_revb_sifive_welcome/freedom-metal/gloss/crt0.S:179
  call metal_init_run
2001023c:	65c070ef          	jal	ra,20017898 <metal_init_run>

20010240 <_skip_init>:
_skip_init():
C:/Users/nandg/Desktop/Athena_Welcome_Demo/sifive_hifive1_revb_sifive_welcome/freedom-metal/gloss/crt0.S:185

_skip_init:

  /* Synchronize harts so that secondary harts wait until hart 0 finishes
     initializing */
  call __metal_synchronize_harts
20010240:	3709                	jal	20010142 <__metal_synchronize_harts>
C:/Users/nandg/Desktop/Athena_Welcome_Demo/sifive_hifive1_revb_sifive_welcome/freedom-metal/gloss/crt0.S:188

  /* Disable and clear all interrupt sources */
  li   a3, -1
20010242:	56fd                	li	a3,-1
C:/Users/nandg/Desktop/Athena_Welcome_Demo/sifive_hifive1_revb_sifive_welcome/freedom-metal/gloss/crt0.S:189
  csrc mie, a3
20010244:	3046b073          	csrc	mie,a3
C:/Users/nandg/Desktop/Athena_Welcome_Demo/sifive_hifive1_revb_sifive_welcome/freedom-metal/gloss/crt0.S:190
  csrc mip, a3
20010248:	3446b073          	csrc	mip,a3
C:/Users/nandg/Desktop/Athena_Welcome_Demo/sifive_hifive1_revb_sifive_welcome/freedom-metal/gloss/crt0.S:194

  /* The delegation CSRs exist if user mode interrupts (N extension) or
   * supervisor mode (S extension) are supported */
  csrr a5, misa
2001024c:	301027f3          	csrr	a5,misa
C:/Users/nandg/Desktop/Athena_Welcome_Demo/sifive_hifive1_revb_sifive_welcome/freedom-metal/gloss/crt0.S:195
  lui  a4, 0x42
20010250:	00042737          	lui	a4,0x42
C:/Users/nandg/Desktop/Athena_Welcome_Demo/sifive_hifive1_revb_sifive_welcome/freedom-metal/gloss/crt0.S:196
  and  a4, a4, a5
20010254:	8f7d                	and	a4,a4,a5
C:/Users/nandg/Desktop/Athena_Welcome_Demo/sifive_hifive1_revb_sifive_welcome/freedom-metal/gloss/crt0.S:197
  beqz a4, 1f
20010256:	c709                	beqz	a4,20010260 <_skip_init+0x20>
C:/Users/nandg/Desktop/Athena_Welcome_Demo/sifive_hifive1_revb_sifive_welcome/freedom-metal/gloss/crt0.S:198
  csrc mideleg, a3
20010258:	3036b073          	csrc	mideleg,a3
C:/Users/nandg/Desktop/Athena_Welcome_Demo/sifive_hifive1_revb_sifive_welcome/freedom-metal/gloss/crt0.S:199
  csrc medeleg, a3
2001025c:	3026b073          	csrc	medeleg,a3
C:/Users/nandg/Desktop/Athena_Welcome_Demo/sifive_hifive1_revb_sifive_welcome/freedom-metal/gloss/crt0.S:203
1:

  /* The satp CSR exists if supervisor mode (S extension) is supported */
  lui  a4, 0x40
20010260:	00040737          	lui	a4,0x40
C:/Users/nandg/Desktop/Athena_Welcome_Demo/sifive_hifive1_revb_sifive_welcome/freedom-metal/gloss/crt0.S:204
  and  a4, a4, a5
20010264:	8f7d                	and	a4,a4,a5
C:/Users/nandg/Desktop/Athena_Welcome_Demo/sifive_hifive1_revb_sifive_welcome/freedom-metal/gloss/crt0.S:205
  beqz a4, 1f
20010266:	c319                	beqz	a4,2001026c <_skip_init+0x2c>
C:/Users/nandg/Desktop/Athena_Welcome_Demo/sifive_hifive1_revb_sifive_welcome/freedom-metal/gloss/crt0.S:206
  csrc satp, a3
20010268:	1806b073          	csrc	satp,a3
C:/Users/nandg/Desktop/Athena_Welcome_Demo/sifive_hifive1_revb_sifive_welcome/freedom-metal/gloss/crt0.S:210
1:

  /* Check RISC-V isa and enable FS bits if Floating Point architecture. */
  li   a4, 0x10028
2001026c:	6741                	lui	a4,0x10
2001026e:	02870713          	addi	a4,a4,40 # 10028 <__heap_size+0xf828>
C:/Users/nandg/Desktop/Athena_Welcome_Demo/sifive_hifive1_revb_sifive_welcome/freedom-metal/gloss/crt0.S:211
  and  a5, a5, a4
20010272:	8ff9                	and	a5,a5,a4
C:/Users/nandg/Desktop/Athena_Welcome_Demo/sifive_hifive1_revb_sifive_welcome/freedom-metal/gloss/crt0.S:212
  beqz a5, 1f
20010274:	cb89                	beqz	a5,20010286 <_skip_init+0x46>
C:/Users/nandg/Desktop/Athena_Welcome_Demo/sifive_hifive1_revb_sifive_welcome/freedom-metal/gloss/crt0.S:213
  csrr a5, mstatus
20010276:	300027f3          	csrr	a5,mstatus
C:/Users/nandg/Desktop/Athena_Welcome_Demo/sifive_hifive1_revb_sifive_welcome/freedom-metal/gloss/crt0.S:214
  lui  a4, 0x2
2001027a:	6709                	lui	a4,0x2
C:/Users/nandg/Desktop/Athena_Welcome_Demo/sifive_hifive1_revb_sifive_welcome/freedom-metal/gloss/crt0.S:215
  or   a5, a5, a4
2001027c:	8fd9                	or	a5,a5,a4
C:/Users/nandg/Desktop/Athena_Welcome_Demo/sifive_hifive1_revb_sifive_welcome/freedom-metal/gloss/crt0.S:216
  csrw mstatus, a5
2001027e:	30079073          	csrw	mstatus,a5
C:/Users/nandg/Desktop/Athena_Welcome_Demo/sifive_hifive1_revb_sifive_welcome/freedom-metal/gloss/crt0.S:217
  csrwi fcsr, 0
20010282:	00305073          	csrwi	fcsr,0
C:/Users/nandg/Desktop/Athena_Welcome_Demo/sifive_hifive1_revb_sifive_welcome/freedom-metal/gloss/crt0.S:221
1:

  /* Check for vector extension support and enable it if found */
  csrr a5, misa
20010286:	301027f3          	csrr	a5,misa
C:/Users/nandg/Desktop/Athena_Welcome_Demo/sifive_hifive1_revb_sifive_welcome/freedom-metal/gloss/crt0.S:222
  li a4, 0x200000
2001028a:	00200737          	lui	a4,0x200
C:/Users/nandg/Desktop/Athena_Welcome_Demo/sifive_hifive1_revb_sifive_welcome/freedom-metal/gloss/crt0.S:223
  and a5, a5, a4
2001028e:	8ff9                	and	a5,a5,a4
C:/Users/nandg/Desktop/Athena_Welcome_Demo/sifive_hifive1_revb_sifive_welcome/freedom-metal/gloss/crt0.S:224
  beqz a5, 1f
20010290:	c799                	beqz	a5,2001029e <_skip_init+0x5e>
C:/Users/nandg/Desktop/Athena_Welcome_Demo/sifive_hifive1_revb_sifive_welcome/freedom-metal/gloss/crt0.S:225
  csrr a5, mstatus
20010292:	300027f3          	csrr	a5,mstatus
C:/Users/nandg/Desktop/Athena_Welcome_Demo/sifive_hifive1_revb_sifive_welcome/freedom-metal/gloss/crt0.S:226
  ori a5, a5, 0x200
20010296:	2007e793          	ori	a5,a5,512
C:/Users/nandg/Desktop/Athena_Welcome_Demo/sifive_hifive1_revb_sifive_welcome/freedom-metal/gloss/crt0.S:227
  csrw mstatus, a5
2001029a:	30079073          	csrw	mstatus,a5
C:/Users/nandg/Desktop/Athena_Welcome_Demo/sifive_hifive1_revb_sifive_welcome/freedom-metal/gloss/crt0.S:233
1:

  /* This is a C runtime, so main() is defined to have some arguments.  Since
   * there's nothing sane the METAL can pass we don't bother with that but
   * instead just setup as close to a NOP as we can. */
  li a0, 1     /* argc=1 */
2001029e:	4505                	li	a0,1
C:/Users/nandg/Desktop/Athena_Welcome_Demo/sifive_hifive1_revb_sifive_welcome/freedom-metal/gloss/crt0.S:234
  la a1, argv  /* argv = {"libgloss", NULL} */
200102a0:	00001597          	auipc	a1,0x1
200102a4:	0fc58593          	addi	a1,a1,252 # 2001139c <argv>
C:/Users/nandg/Desktop/Athena_Welcome_Demo/sifive_hifive1_revb_sifive_welcome/freedom-metal/gloss/crt0.S:235
  la a2, envp  /* envp = {NULL} */
200102a8:	00001617          	auipc	a2,0x1
200102ac:	0f860613          	addi	a2,a2,248 # 200113a0 <envp>
C:/Users/nandg/Desktop/Athena_Welcome_Demo/sifive_hifive1_revb_sifive_welcome/freedom-metal/gloss/crt0.S:236
  call secondary_main
200102b0:	2031                	jal	200102bc <secondary_main>
C:/Users/nandg/Desktop/Athena_Welcome_Demo/sifive_hifive1_revb_sifive_welcome/freedom-metal/gloss/crt0.S:242

  /* Call exit to handle libc's cleanup routines.  Under normal contains this
   * shouldn't even get called, but I'm still not using a tail call here
   * because returning to the METAL is the right thing to do in pathological
   * situations. */
  call exit
200102b2:	1aa070ef          	jal	ra,2001745c <exit>
C:/Users/nandg/Desktop/Athena_Welcome_Demo/sifive_hifive1_revb_sifive_welcome/freedom-metal/gloss/crt0.S:247

  /* And here's where we return.  Again, it's a bit odd but the METAL defines
   * this as a bad idea (ie, as opposed to leaving it undefined) and at this
   * point it's really the only thing left to do. */
  mv ra, s0
200102b6:	80a2                	mv	ra,s0
C:/Users/nandg/Desktop/Athena_Welcome_Demo/sifive_hifive1_revb_sifive_welcome/freedom-metal/gloss/crt0.S:248
  ret
200102b8:	8082                	ret

200102ba <_fini>:
_init():
C:/Users/nandg/Desktop/Athena_Welcome_Demo/sifive_hifive1_revb_sifive_welcome/freedom-metal/gloss/crt0.S:260
.type   _init, @function
.global _fini
.type   _fini, @function
_init:
_fini:
  ret
200102ba:	8082                	ret

200102bc <secondary_main>:
secondary_main():
C:/Users/nandg/Desktop/Athena_Welcome_Demo/sifive_hifive1_revb_sifive_welcome/freedom-metal/gloss/crt0.S:271
.weak   secondary_main
.global secondary_main
.type   secondary_main, @function

secondary_main:
  addi sp, sp, -16
200102bc:	1141                	addi	sp,sp,-16
C:/Users/nandg/Desktop/Athena_Welcome_Demo/sifive_hifive1_revb_sifive_welcome/freedom-metal/gloss/crt0.S:273
#if __riscv_xlen == 32
  sw ra, 4(sp)
200102be:	c206                	sw	ra,4(sp)
C:/Users/nandg/Desktop/Athena_Welcome_Demo/sifive_hifive1_revb_sifive_welcome/freedom-metal/gloss/crt0.S:277
#else
  sd ra, 8(sp)
#endif
  csrr t0, mhartid
200102c0:	f14022f3          	csrr	t0,mhartid
C:/Users/nandg/Desktop/Athena_Welcome_Demo/sifive_hifive1_revb_sifive_welcome/freedom-metal/gloss/crt0.S:278
  la t1, __metal_boot_hart
200102c4:	00000313          	li	t1,0
C:/Users/nandg/Desktop/Athena_Welcome_Demo/sifive_hifive1_revb_sifive_welcome/freedom-metal/gloss/crt0.S:279
  beq t0, t1, 2f
200102c8:	00628563          	beq	t0,t1,200102d2 <secondary_main+0x16>
C:/Users/nandg/Desktop/Athena_Welcome_Demo/sifive_hifive1_revb_sifive_welcome/freedom-metal/gloss/crt0.S:281
1:
  wfi
200102cc:	10500073          	wfi
C:/Users/nandg/Desktop/Athena_Welcome_Demo/sifive_hifive1_revb_sifive_welcome/freedom-metal/gloss/crt0.S:282
  j 1b
200102d0:	bff5                	j	200102cc <secondary_main+0x10>
C:/Users/nandg/Desktop/Athena_Welcome_Demo/sifive_hifive1_revb_sifive_welcome/freedom-metal/gloss/crt0.S:284
2:
  call main
200102d2:	2e8010ef          	jal	ra,200115ba <main>
C:/Users/nandg/Desktop/Athena_Welcome_Demo/sifive_hifive1_revb_sifive_welcome/freedom-metal/gloss/crt0.S:286
#if __riscv_xlen == 32
  lw ra, 4(sp)
200102d6:	4092                	lw	ra,4(sp)
C:/Users/nandg/Desktop/Athena_Welcome_Demo/sifive_hifive1_revb_sifive_welcome/freedom-metal/gloss/crt0.S:290
#else
  ld ra, 8(sp)
#endif
  addi sp, sp, 16
200102d8:	0141                	addi	sp,sp,16
C:/Users/nandg/Desktop/Athena_Welcome_Demo/sifive_hifive1_revb_sifive_welcome/freedom-metal/gloss/crt0.S:291
  ret
200102da:	8082                	ret

Disassembly of section .ctors:

200102ec <metal_sifive_fe310_g000_pll_init>:
metal_sifive_fe310_g000_pll_init():
C:/Users/nandg/Desktop/Athena_Welcome_Demo/sifive_hifive1_revb_sifive_welcome/freedom-metal/src/drivers/sifive_fe310-g000_pll.c:151
    return pll_input_rate * config->multiplier / config->divisor;
}

#ifdef __METAL_DT_SIFIVE_FE310_G000_PLL_HANDLE

METAL_CONSTRUCTOR(metal_sifive_fe310_g000_pll_init) {
200102ec:	1101                	addi	sp,sp,-32
200102ee:	ce06                	sw	ra,28(sp)
200102f0:	cc22                	sw	s0,24(sp)
200102f2:	1000                	addi	s0,sp,32
C:/Users/nandg/Desktop/Athena_Welcome_Demo/sifive_hifive1_revb_sifive_welcome/freedom-metal/src/drivers/sifive_fe310-g000_pll.c:152
    long init_rate = __metal_driver_sifive_fe310_g000_pll_init_rate();
200102f4:	03c050ef          	jal	ra,20015330 <__metal_driver_sifive_fe310_g000_pll_init_rate>
200102f8:	fea42623          	sw	a0,-20(s0)
C:/Users/nandg/Desktop/Athena_Welcome_Demo/sifive_hifive1_revb_sifive_welcome/freedom-metal/src/drivers/sifive_fe310-g000_pll.c:154
    /* If the PLL init_rate is zero, don't initialize the PLL */
    if (init_rate != 0)
200102fc:	fec42783          	lw	a5,-20(s0)
20010300:	c799                	beqz	a5,2001030e <__fini_array_end+0x1e>
C:/Users/nandg/Desktop/Athena_Welcome_Demo/sifive_hifive1_revb_sifive_welcome/freedom-metal/src/drivers/sifive_fe310-g000_pll.c:155
        __metal_driver_sifive_fe310_g000_pll_init(
20010302:	800017b7          	lui	a5,0x80001
20010306:	aa078513          	addi	a0,a5,-1376 # 80000aa0 <metal_segment_heap_target_end+0xfffff300>
2001030a:	0b2050ef          	jal	ra,200153bc <__metal_driver_sifive_fe310_g000_pll_init>
C:/Users/nandg/Desktop/Athena_Welcome_Demo/sifive_hifive1_revb_sifive_welcome/freedom-metal/src/drivers/sifive_fe310-g000_pll.c:157
            __METAL_DT_SIFIVE_FE310_G000_PLL_HANDLE);
}
2001030e:	0001                	nop
20010310:	40f2                	lw	ra,28(sp)
20010312:	4462                	lw	s0,24(sp)
20010314:	6105                	addi	sp,sp,32
20010316:	8082                	ret

20010318 <use_hfxosc>:
use_hfxosc():
C:/Users/nandg/Desktop/Athena_Welcome_Demo/sifive_hifive1_revb_sifive_welcome/freedom-metal/src/drivers/sifive_fe310-g000_pll.c:389

    return __metal_driver_sifive_fe310_g000_pll_get_rate_hz(clock);
}

#ifdef __METAL_DT_SIFIVE_FE310_G000_PLL_HANDLE
METAL_CONSTRUCTOR(use_hfxosc) {
20010318:	1101                	addi	sp,sp,-32
2001031a:	ce06                	sw	ra,28(sp)
2001031c:	cc22                	sw	s0,24(sp)
2001031e:	1000                	addi	s0,sp,32
C:/Users/nandg/Desktop/Athena_Welcome_Demo/sifive_hifive1_revb_sifive_welcome/freedom-metal/src/drivers/sifive_fe310-g000_pll.c:390
    long init_rate = __metal_driver_sifive_fe310_g000_pll_init_rate();
20010320:	010050ef          	jal	ra,20015330 <__metal_driver_sifive_fe310_g000_pll_init_rate>
20010324:	fea42623          	sw	a0,-20(s0)
C:/Users/nandg/Desktop/Athena_Welcome_Demo/sifive_hifive1_revb_sifive_welcome/freedom-metal/src/drivers/sifive_fe310-g000_pll.c:391
    metal_clock_set_rate_hz(&__METAL_DT_SIFIVE_FE310_G000_PLL_HANDLE->clock,
20010328:	fec42583          	lw	a1,-20(s0)
2001032c:	800017b7          	lui	a5,0x80001
20010330:	aa078513          	addi	a0,a5,-1376 # 80000aa0 <metal_segment_heap_target_end+0xfffff300>
20010334:	36d060ef          	jal	ra,20016ea0 <metal_clock_set_rate_hz>
C:/Users/nandg/Desktop/Athena_Welcome_Demo/sifive_hifive1_revb_sifive_welcome/freedom-metal/src/drivers/sifive_fe310-g000_pll.c:393
                            init_rate);
}
20010338:	0001                	nop
2001033a:	40f2                	lw	ra,28(sp)
2001033c:	4462                	lw	s0,24(sp)
2001033e:	6105                	addi	sp,sp,32
20010340:	8082                	ret

20010342 <metal_tty_init>:
metal_tty_init():
C:/Users/nandg/Desktop/Athena_Welcome_Demo/sifive_hifive1_revb_sifive_welcome/freedom-metal/src/tty.c:28

#ifndef __METAL_DT_STDOUT_UART_BAUD
#define __METAL_DT_STDOUT_UART_BAUD 115200
#endif

METAL_CONSTRUCTOR(metal_tty_init) {
20010342:	1141                	addi	sp,sp,-16
20010344:	c606                	sw	ra,12(sp)
20010346:	c422                	sw	s0,8(sp)
20010348:	0800                	addi	s0,sp,16
C:/Users/nandg/Desktop/Athena_Welcome_Demo/sifive_hifive1_revb_sifive_welcome/freedom-metal/src/tty.c:29
    metal_uart_init(__METAL_DT_STDOUT_UART_HANDLE, __METAL_DT_STDOUT_UART_BAUD);
2001034a:	67f1                	lui	a5,0x1c
2001034c:	20078593          	addi	a1,a5,512 # 1c200 <__heap_size+0x1ba00>
20010350:	800017b7          	lui	a5,0x80001
20010354:	a4878513          	addi	a0,a5,-1464 # 80000a48 <metal_segment_heap_target_end+0xfffff2a8>
20010358:	52f060ef          	jal	ra,20017086 <metal_uart_init>
C:/Users/nandg/Desktop/Athena_Welcome_Demo/sifive_hifive1_revb_sifive_welcome/freedom-metal/src/tty.c:30
}
2001035c:	0001                	nop
2001035e:	40b2                	lw	ra,12(sp)
20010360:	4422                	lw	s0,8(sp)
20010362:	0141                	addi	sp,sp,16
20010364:	8082                	ret

Disassembly of section .text:

20011400 <display_banner>:
display_banner():
C:\Users\nandg\Desktop\Athena_Welcome_Demo\sifive_hifive1_revb_sifive_welcome\src/sifive-welcome.c:17
struct metal_cpu *cpu;
struct metal_interrupt *cpu_intr, *tmr_intr;
int tmr_id;
volatile uint32_t timer_isr_flag;

void display_banner (void) {
20011400:	1141                	addi	sp,sp,-16
20011402:	c606                	sw	ra,12(sp)
20011404:	c422                	sw	s0,8(sp)
20011406:	0800                	addi	s0,sp,16
C:\Users\nandg\Desktop\Athena_Welcome_Demo\sifive_hifive1_revb_sifive_welcome\src/sifive-welcome.c:19

    printf("\n");
20011408:	4529                	li	a0,10
2001140a:	2685                	jal	2001176a <putchar>
C:\Users\nandg\Desktop\Athena_Welcome_Demo\sifive_hifive1_revb_sifive_welcome\src/sifive-welcome.c:20
    printf("\n");
2001140c:	4529                	li	a0,10
2001140e:	2eb1                	jal	2001176a <putchar>
C:\Users\nandg\Desktop\Athena_Welcome_Demo\sifive_hifive1_revb_sifive_welcome\src/sifive-welcome.c:21
    printf("                  SIFIVE, INC.\n");
20011410:	200107b7          	lui	a5,0x20010
20011414:	36878513          	addi	a0,a5,872 # 20010368 <metal_tty_init+0x26>
20011418:	29e1                	jal	200118f0 <puts>
C:\Users\nandg\Desktop\Athena_Welcome_Demo\sifive_hifive1_revb_sifive_welcome\src/sifive-welcome.c:22
    printf("\n");
2001141a:	4529                	li	a0,10
2001141c:	26b9                	jal	2001176a <putchar>
C:\Users\nandg\Desktop\Athena_Welcome_Demo\sifive_hifive1_revb_sifive_welcome\src/sifive-welcome.c:23
    printf("           5555555555555555555555555\n");
2001141e:	200107b7          	lui	a5,0x20010
20011422:	38878513          	addi	a0,a5,904 # 20010388 <metal_tty_init+0x46>
20011426:	21e9                	jal	200118f0 <puts>
C:\Users\nandg\Desktop\Athena_Welcome_Demo\sifive_hifive1_revb_sifive_welcome\src/sifive-welcome.c:24
    printf("          5555                   5555\n");
20011428:	200107b7          	lui	a5,0x20010
2001142c:	3b078513          	addi	a0,a5,944 # 200103b0 <metal_tty_init+0x6e>
20011430:	21c1                	jal	200118f0 <puts>
C:\Users\nandg\Desktop\Athena_Welcome_Demo\sifive_hifive1_revb_sifive_welcome\src/sifive-welcome.c:25
    printf("         5555                     5555\n");
20011432:	200107b7          	lui	a5,0x20010
20011436:	3d878513          	addi	a0,a5,984 # 200103d8 <metal_tty_init+0x96>
2001143a:	295d                	jal	200118f0 <puts>
C:\Users\nandg\Desktop\Athena_Welcome_Demo\sifive_hifive1_revb_sifive_welcome\src/sifive-welcome.c:26
    printf("        5555                       5555\n");
2001143c:	200107b7          	lui	a5,0x20010
20011440:	40078513          	addi	a0,a5,1024 # 20010400 <metal_tty_init+0xbe>
20011444:	2175                	jal	200118f0 <puts>
C:\Users\nandg\Desktop\Athena_Welcome_Demo\sifive_hifive1_revb_sifive_welcome\src/sifive-welcome.c:27
    printf("       5555       5555555555555555555555\n");
20011446:	200107b7          	lui	a5,0x20010
2001144a:	42878513          	addi	a0,a5,1064 # 20010428 <metal_tty_init+0xe6>
2001144e:	214d                	jal	200118f0 <puts>
C:\Users\nandg\Desktop\Athena_Welcome_Demo\sifive_hifive1_revb_sifive_welcome\src/sifive-welcome.c:28
    printf("      5555       555555555555555555555555\n");
20011450:	200107b7          	lui	a5,0x20010
20011454:	45478513          	addi	a0,a5,1108 # 20010454 <metal_tty_init+0x112>
20011458:	2961                	jal	200118f0 <puts>
C:\Users\nandg\Desktop\Athena_Welcome_Demo\sifive_hifive1_revb_sifive_welcome\src/sifive-welcome.c:29
    printf("     5555                             5555\n");
2001145a:	200107b7          	lui	a5,0x20010
2001145e:	48078513          	addi	a0,a5,1152 # 20010480 <metal_tty_init+0x13e>
20011462:	2179                	jal	200118f0 <puts>
C:\Users\nandg\Desktop\Athena_Welcome_Demo\sifive_hifive1_revb_sifive_welcome\src/sifive-welcome.c:30
    printf("    5555                               5555\n");
20011464:	200107b7          	lui	a5,0x20010
20011468:	4ac78513          	addi	a0,a5,1196 # 200104ac <metal_tty_init+0x16a>
2001146c:	2151                	jal	200118f0 <puts>
C:\Users\nandg\Desktop\Athena_Welcome_Demo\sifive_hifive1_revb_sifive_welcome\src/sifive-welcome.c:31
    printf("   5555                                 5555\n");
2001146e:	200107b7          	lui	a5,0x20010
20011472:	4d878513          	addi	a0,a5,1240 # 200104d8 <metal_tty_init+0x196>
20011476:	29ad                	jal	200118f0 <puts>
C:\Users\nandg\Desktop\Athena_Welcome_Demo\sifive_hifive1_revb_sifive_welcome\src/sifive-welcome.c:32
    printf("  5555555555555555555555555555          55555\n");
20011478:	200107b7          	lui	a5,0x20010
2001147c:	50878513          	addi	a0,a5,1288 # 20010508 <metal_tty_init+0x1c6>
20011480:	2985                	jal	200118f0 <puts>
C:\Users\nandg\Desktop\Athena_Welcome_Demo\sifive_hifive1_revb_sifive_welcome\src/sifive-welcome.c:33
    printf("   55555           555555555           55555\n");
20011482:	200107b7          	lui	a5,0x20010
20011486:	53878513          	addi	a0,a5,1336 # 20010538 <metal_tty_init+0x1f6>
2001148a:	219d                	jal	200118f0 <puts>
C:\Users\nandg\Desktop\Athena_Welcome_Demo\sifive_hifive1_revb_sifive_welcome\src/sifive-welcome.c:34
    printf("     55555           55555           55555\n");
2001148c:	200107b7          	lui	a5,0x20010
20011490:	56878513          	addi	a0,a5,1384 # 20010568 <metal_tty_init+0x226>
20011494:	29b1                	jal	200118f0 <puts>
C:\Users\nandg\Desktop\Athena_Welcome_Demo\sifive_hifive1_revb_sifive_welcome\src/sifive-welcome.c:35
    printf("       55555           5           55555\n");
20011496:	200107b7          	lui	a5,0x20010
2001149a:	59478513          	addi	a0,a5,1428 # 20010594 <metal_tty_init+0x252>
2001149e:	2989                	jal	200118f0 <puts>
C:\Users\nandg\Desktop\Athena_Welcome_Demo\sifive_hifive1_revb_sifive_welcome\src/sifive-welcome.c:36
    printf("         55555                   55555\n");
200114a0:	200107b7          	lui	a5,0x20010
200114a4:	5c078513          	addi	a0,a5,1472 # 200105c0 <metal_tty_init+0x27e>
200114a8:	21a1                	jal	200118f0 <puts>
C:\Users\nandg\Desktop\Athena_Welcome_Demo\sifive_hifive1_revb_sifive_welcome\src/sifive-welcome.c:37
    printf("           55555               55555\n");
200114aa:	200107b7          	lui	a5,0x20010
200114ae:	5e878513          	addi	a0,a5,1512 # 200105e8 <metal_tty_init+0x2a6>
200114b2:	293d                	jal	200118f0 <puts>
C:\Users\nandg\Desktop\Athena_Welcome_Demo\sifive_hifive1_revb_sifive_welcome\src/sifive-welcome.c:38
    printf("             55555           55555\n");
200114b4:	200107b7          	lui	a5,0x20010
200114b8:	61078513          	addi	a0,a5,1552 # 20010610 <metal_tty_init+0x2ce>
200114bc:	2915                	jal	200118f0 <puts>
C:\Users\nandg\Desktop\Athena_Welcome_Demo\sifive_hifive1_revb_sifive_welcome\src/sifive-welcome.c:39
    printf("               55555       55555\n");
200114be:	200107b7          	lui	a5,0x20010
200114c2:	63478513          	addi	a0,a5,1588 # 20010634 <metal_tty_init+0x2f2>
200114c6:	212d                	jal	200118f0 <puts>
C:\Users\nandg\Desktop\Athena_Welcome_Demo\sifive_hifive1_revb_sifive_welcome\src/sifive-welcome.c:40
    printf("                 55555   55555\n");
200114c8:	200107b7          	lui	a5,0x20010
200114cc:	65878513          	addi	a0,a5,1624 # 20010658 <metal_tty_init+0x316>
200114d0:	2105                	jal	200118f0 <puts>
C:\Users\nandg\Desktop\Athena_Welcome_Demo\sifive_hifive1_revb_sifive_welcome\src/sifive-welcome.c:41
    printf("                   555555555\n");
200114d2:	200107b7          	lui	a5,0x20010
200114d6:	67878513          	addi	a0,a5,1656 # 20010678 <metal_tty_init+0x336>
200114da:	2919                	jal	200118f0 <puts>
C:\Users\nandg\Desktop\Athena_Welcome_Demo\sifive_hifive1_revb_sifive_welcome\src/sifive-welcome.c:42
    printf("                     55555\n");
200114dc:	200107b7          	lui	a5,0x20010
200114e0:	69878513          	addi	a0,a5,1688 # 20010698 <metal_tty_init+0x356>
200114e4:	2131                	jal	200118f0 <puts>
C:\Users\nandg\Desktop\Athena_Welcome_Demo\sifive_hifive1_revb_sifive_welcome\src/sifive-welcome.c:43
    printf("                       5\n");
200114e6:	200107b7          	lui	a5,0x20010
200114ea:	6b478513          	addi	a0,a5,1716 # 200106b4 <metal_tty_init+0x372>
200114ee:	2109                	jal	200118f0 <puts>
C:\Users\nandg\Desktop\Athena_Welcome_Demo\sifive_hifive1_revb_sifive_welcome\src/sifive-welcome.c:44
    printf("\n");
200114f0:	4529                	li	a0,10
200114f2:	2ca5                	jal	2001176a <putchar>
C:\Users\nandg\Desktop\Athena_Welcome_Demo\sifive_hifive1_revb_sifive_welcome\src/sifive-welcome.c:46

    printf("\n");
200114f4:	4529                	li	a0,10
200114f6:	2c95                	jal	2001176a <putchar>
C:\Users\nandg\Desktop\Athena_Welcome_Demo\sifive_hifive1_revb_sifive_welcome\src/sifive-welcome.c:47
    printf("               Welcome to Athena Board!\n");
200114f8:	200107b7          	lui	a5,0x20010
200114fc:	6d078513          	addi	a0,a5,1744 # 200106d0 <metal_tty_init+0x38e>
20011500:	2ec5                	jal	200118f0 <puts>
C:\Users\nandg\Desktop\Athena_Welcome_Demo\sifive_hifive1_revb_sifive_welcome\src/sifive-welcome.c:49

}
20011502:	0001                	nop
20011504:	40b2                	lw	ra,12(sp)
20011506:	4422                	lw	s0,8(sp)
20011508:	0141                	addi	sp,sp,16
2001150a:	8082                	ret

2001150c <timer_isr>:
timer_isr():
C:\Users\nandg\Desktop\Athena_Welcome_Demo\sifive_hifive1_revb_sifive_welcome\src/sifive-welcome.c:51

void timer_isr (int id, void *data) {
2001150c:	1101                	addi	sp,sp,-32
2001150e:	ce06                	sw	ra,28(sp)
20011510:	cc22                	sw	s0,24(sp)
20011512:	1000                	addi	s0,sp,32
20011514:	fea42623          	sw	a0,-20(s0)
20011518:	feb42423          	sw	a1,-24(s0)
C:\Users\nandg\Desktop\Athena_Welcome_Demo\sifive_hifive1_revb_sifive_welcome\src/sifive-welcome.c:54

    // Disable Timer interrupt
    metal_interrupt_disable(tmr_intr, tmr_id);
2001151c:	8d81a703          	lw	a4,-1832(gp) # 80000b88 <tmr_intr>
20011520:	8e41a783          	lw	a5,-1820(gp) # 80000b94 <tmr_id>
20011524:	85be                	mv	a1,a5
20011526:	853a                	mv	a0,a4
20011528:	04c010ef          	jal	ra,20012574 <metal_interrupt_disable>
C:\Users\nandg\Desktop\Athena_Welcome_Demo\sifive_hifive1_revb_sifive_welcome\src/sifive-welcome.c:57

    // Flag showing we hit timer isr
    timer_isr_flag = 1;
2001152c:	4705                	li	a4,1
2001152e:	8ee1a023          	sw	a4,-1824(gp) # 80000b90 <timer_isr_flag>
C:\Users\nandg\Desktop\Athena_Welcome_Demo\sifive_hifive1_revb_sifive_welcome\src/sifive-welcome.c:58
}
20011532:	0001                	nop
20011534:	40f2                	lw	ra,28(sp)
20011536:	4462                	lw	s0,24(sp)
20011538:	6105                	addi	sp,sp,32
2001153a:	8082                	ret

2001153c <wait_for_timer>:
wait_for_timer():
C:\Users\nandg\Desktop\Athena_Welcome_Demo\sifive_hifive1_revb_sifive_welcome\src/sifive-welcome.c:60

void wait_for_timer(struct metal_led *which_led) {
2001153c:	1101                	addi	sp,sp,-32
2001153e:	ce06                	sw	ra,28(sp)
20011540:	cc22                	sw	s0,24(sp)
20011542:	ca26                	sw	s1,20(sp)
20011544:	1000                	addi	s0,sp,32
20011546:	fea42623          	sw	a0,-20(s0)
C:\Users\nandg\Desktop\Athena_Welcome_Demo\sifive_hifive1_revb_sifive_welcome\src/sifive-welcome.c:63

    // clear global timer isr flag
    timer_isr_flag = 0;
2001154a:	8e01a023          	sw	zero,-1824(gp) # 80000b90 <timer_isr_flag>
C:\Users\nandg\Desktop\Athena_Welcome_Demo\sifive_hifive1_revb_sifive_welcome\src/sifive-welcome.c:66

    // Turn on desired LED
    metal_led_on(which_led);
2001154e:	fec42503          	lw	a0,-20(s0)
20011552:	074010ef          	jal	ra,200125c6 <metal_led_on>
C:\Users\nandg\Desktop\Athena_Welcome_Demo\sifive_hifive1_revb_sifive_welcome\src/sifive-welcome.c:69

    // Set timer
    metal_cpu_set_mtimecmp(cpu, metal_cpu_get_mtime(cpu) + RTC_FREQ);
20011556:	8d41a483          	lw	s1,-1836(gp) # 80000b84 <cpu>
2001155a:	8d41a783          	lw	a5,-1836(gp) # 80000b84 <cpu>
2001155e:	853e                	mv	a0,a5
20011560:	66b000ef          	jal	ra,200123ca <metal_cpu_get_mtime>
20011564:	862a                	mv	a2,a0
20011566:	86ae                	mv	a3,a1
20011568:	6521                	lui	a0,0x8
2001156a:	4581                	li	a1,0
2001156c:	00a60733          	add	a4,a2,a0
20011570:	883a                	mv	a6,a4
20011572:	00c83833          	sltu	a6,a6,a2
20011576:	00b687b3          	add	a5,a3,a1
2001157a:	00f806b3          	add	a3,a6,a5
2001157e:	87b6                	mv	a5,a3
20011580:	85ba                	mv	a1,a4
20011582:	863e                	mv	a2,a5
20011584:	8526                	mv	a0,s1
20011586:	66f000ef          	jal	ra,200123f4 <metal_cpu_set_mtimecmp>
C:\Users\nandg\Desktop\Athena_Welcome_Demo\sifive_hifive1_revb_sifive_welcome\src/sifive-welcome.c:72

    // Enable Timer interrupt
    metal_interrupt_enable(tmr_intr, tmr_id);
2001158a:	8d81a703          	lw	a4,-1832(gp) # 80000b88 <tmr_intr>
2001158e:	8e41a783          	lw	a5,-1820(gp) # 80000b94 <tmr_id>
20011592:	85be                	mv	a1,a5
20011594:	853a                	mv	a0,a4
20011596:	7b1000ef          	jal	ra,20012546 <metal_interrupt_enable>
C:\Users\nandg\Desktop\Athena_Welcome_Demo\sifive_hifive1_revb_sifive_welcome\src/sifive-welcome.c:75

    // wait till timer triggers and isr is hit
    while (timer_isr_flag == 0){};
2001159a:	0001                	nop
C:\Users\nandg\Desktop\Athena_Welcome_Demo\sifive_hifive1_revb_sifive_welcome\src/sifive-welcome.c:75 (discriminator 1)
2001159c:	8e01a783          	lw	a5,-1824(gp) # 80000b90 <timer_isr_flag>
200115a0:	dff5                	beqz	a5,2001159c <wait_for_timer+0x60>
C:\Users\nandg\Desktop\Athena_Welcome_Demo\sifive_hifive1_revb_sifive_welcome\src/sifive-welcome.c:77

    timer_isr_flag = 0;
200115a2:	8e01a023          	sw	zero,-1824(gp) # 80000b90 <timer_isr_flag>
C:\Users\nandg\Desktop\Athena_Welcome_Demo\sifive_hifive1_revb_sifive_welcome\src/sifive-welcome.c:80

    // Turn off this LED
    metal_led_off(which_led);
200115a6:	fec42503          	lw	a0,-20(s0)
200115aa:	040010ef          	jal	ra,200125ea <metal_led_off>
C:\Users\nandg\Desktop\Athena_Welcome_Demo\sifive_hifive1_revb_sifive_welcome\src/sifive-welcome.c:81
}
200115ae:	0001                	nop
200115b0:	40f2                	lw	ra,28(sp)
200115b2:	4462                	lw	s0,24(sp)
200115b4:	44d2                	lw	s1,20(sp)
200115b6:	6105                	addi	sp,sp,32
200115b8:	8082                	ret

200115ba <main>:
main():
C:\Users\nandg\Desktop\Athena_Welcome_Demo\sifive_hifive1_revb_sifive_welcome\src/sifive-welcome.c:84

int main (void)
{
200115ba:	1101                	addi	sp,sp,-32
200115bc:	ce06                	sw	ra,28(sp)
200115be:	cc22                	sw	s0,24(sp)
200115c0:	1000                	addi	s0,sp,32
C:\Users\nandg\Desktop\Athena_Welcome_Demo\sifive_hifive1_revb_sifive_welcome\src/sifive-welcome.c:89
    int rc;
    struct metal_led *led0_red, *led0_green, *led0_blue;

    // This demo will toggle LEDs colors so we define them here
    led0_red = metal_led_get_rgb("LD0", "red");
200115c2:	200107b7          	lui	a5,0x20010
200115c6:	6f878593          	addi	a1,a5,1784 # 200106f8 <metal_tty_init+0x3b6>
200115ca:	200107b7          	lui	a5,0x20010
200115ce:	6fc78513          	addi	a0,a5,1788 # 200106fc <metal_tty_init+0x3ba>
200115d2:	03c010ef          	jal	ra,2001260e <metal_led_get_rgb>
200115d6:	fea42623          	sw	a0,-20(s0)
C:\Users\nandg\Desktop\Athena_Welcome_Demo\sifive_hifive1_revb_sifive_welcome\src/sifive-welcome.c:90
    led0_green = metal_led_get_rgb("LD0", "green");
200115da:	200107b7          	lui	a5,0x20010
200115de:	70078593          	addi	a1,a5,1792 # 20010700 <metal_tty_init+0x3be>
200115e2:	200107b7          	lui	a5,0x20010
200115e6:	6fc78513          	addi	a0,a5,1788 # 200106fc <metal_tty_init+0x3ba>
200115ea:	024010ef          	jal	ra,2001260e <metal_led_get_rgb>
200115ee:	fea42423          	sw	a0,-24(s0)
C:\Users\nandg\Desktop\Athena_Welcome_Demo\sifive_hifive1_revb_sifive_welcome\src/sifive-welcome.c:91
    led0_blue = metal_led_get_rgb("LD0", "blue");
200115f2:	200107b7          	lui	a5,0x20010
200115f6:	70878593          	addi	a1,a5,1800 # 20010708 <metal_tty_init+0x3c6>
200115fa:	200107b7          	lui	a5,0x20010
200115fe:	6fc78513          	addi	a0,a5,1788 # 200106fc <metal_tty_init+0x3ba>
20011602:	00c010ef          	jal	ra,2001260e <metal_led_get_rgb>
20011606:	fea42223          	sw	a0,-28(s0)
C:\Users\nandg\Desktop\Athena_Welcome_Demo\sifive_hifive1_revb_sifive_welcome\src/sifive-welcome.c:92
    if ((led0_red == NULL) || (led0_green == NULL) || (led0_blue == NULL)) {
2001160a:	fec42783          	lw	a5,-20(s0)
2001160e:	c799                	beqz	a5,2001161c <main+0x62>
C:\Users\nandg\Desktop\Athena_Welcome_Demo\sifive_hifive1_revb_sifive_welcome\src/sifive-welcome.c:92 (discriminator 1)
20011610:	fe842783          	lw	a5,-24(s0)
20011614:	c781                	beqz	a5,2001161c <main+0x62>
C:\Users\nandg\Desktop\Athena_Welcome_Demo\sifive_hifive1_revb_sifive_welcome\src/sifive-welcome.c:92 (discriminator 2)
20011616:	fe442783          	lw	a5,-28(s0)
2001161a:	eb81                	bnez	a5,2001162a <main+0x70>
C:\Users\nandg\Desktop\Athena_Welcome_Demo\sifive_hifive1_revb_sifive_welcome\src/sifive-welcome.c:93
        printf("At least one of LEDs is null.\n");
2001161c:	200107b7          	lui	a5,0x20010
20011620:	71078513          	addi	a0,a5,1808 # 20010710 <metal_tty_init+0x3ce>
20011624:	24f1                	jal	200118f0 <puts>
C:\Users\nandg\Desktop\Athena_Welcome_Demo\sifive_hifive1_revb_sifive_welcome\src/sifive-welcome.c:94
        return 1;
20011626:	4785                	li	a5,1
20011628:	aa25                	j	20011760 <main+0x1a6>
C:\Users\nandg\Desktop\Athena_Welcome_Demo\sifive_hifive1_revb_sifive_welcome\src/sifive-welcome.c:98
    }

    // Enable each LED
    metal_led_enable(led0_red);
2001162a:	fec42503          	lw	a0,-20(s0)
2001162e:	775000ef          	jal	ra,200125a2 <metal_led_enable>
C:\Users\nandg\Desktop\Athena_Welcome_Demo\sifive_hifive1_revb_sifive_welcome\src/sifive-welcome.c:99
    metal_led_enable(led0_green);
20011632:	fe842503          	lw	a0,-24(s0)
20011636:	76d000ef          	jal	ra,200125a2 <metal_led_enable>
C:\Users\nandg\Desktop\Athena_Welcome_Demo\sifive_hifive1_revb_sifive_welcome\src/sifive-welcome.c:100
    metal_led_enable(led0_blue);
2001163a:	fe442503          	lw	a0,-28(s0)
2001163e:	765000ef          	jal	ra,200125a2 <metal_led_enable>
C:\Users\nandg\Desktop\Athena_Welcome_Demo\sifive_hifive1_revb_sifive_welcome\src/sifive-welcome.c:103

    // All Off
    metal_led_off(led0_red);
20011642:	fec42503          	lw	a0,-20(s0)
20011646:	7a5000ef          	jal	ra,200125ea <metal_led_off>
C:\Users\nandg\Desktop\Athena_Welcome_Demo\sifive_hifive1_revb_sifive_welcome\src/sifive-welcome.c:104
    metal_led_off(led0_green);
2001164a:	fe842503          	lw	a0,-24(s0)
2001164e:	79d000ef          	jal	ra,200125ea <metal_led_off>
C:\Users\nandg\Desktop\Athena_Welcome_Demo\sifive_hifive1_revb_sifive_welcome\src/sifive-welcome.c:105
    metal_led_off(led0_blue);
20011652:	fe442503          	lw	a0,-28(s0)
20011656:	795000ef          	jal	ra,200125ea <metal_led_off>
C:\Users\nandg\Desktop\Athena_Welcome_Demo\sifive_hifive1_revb_sifive_welcome\src/sifive-welcome.c:108

    // Lets get the CPU and and its interrupt
    cpu = metal_cpu_get(metal_cpu_get_current_hartid());
2001165a:	671000ef          	jal	ra,200124ca <metal_cpu_get_current_hartid>
2001165e:	87aa                	mv	a5,a0
20011660:	853e                	mv	a0,a5
20011662:	63b000ef          	jal	ra,2001249c <metal_cpu_get>
20011666:	872a                	mv	a4,a0
20011668:	8ce1aa23          	sw	a4,-1836(gp) # 80000b84 <cpu>
C:\Users\nandg\Desktop\Athena_Welcome_Demo\sifive_hifive1_revb_sifive_welcome\src/sifive-welcome.c:109
    if (cpu == NULL) {
2001166c:	8d41a783          	lw	a5,-1836(gp) # 80000b84 <cpu>
20011670:	eb81                	bnez	a5,20011680 <main+0xc6>
C:\Users\nandg\Desktop\Athena_Welcome_Demo\sifive_hifive1_revb_sifive_welcome\src/sifive-welcome.c:110
        printf("CPU null.\n");
20011672:	200107b7          	lui	a5,0x20010
20011676:	73078513          	addi	a0,a5,1840 # 20010730 <metal_tty_init+0x3ee>
2001167a:	2c9d                	jal	200118f0 <puts>
C:\Users\nandg\Desktop\Athena_Welcome_Demo\sifive_hifive1_revb_sifive_welcome\src/sifive-welcome.c:111
        return 2;
2001167c:	4789                	li	a5,2
2001167e:	a0cd                	j	20011760 <main+0x1a6>
C:\Users\nandg\Desktop\Athena_Welcome_Demo\sifive_hifive1_revb_sifive_welcome\src/sifive-welcome.c:113
    }
    cpu_intr = metal_cpu_interrupt_controller(cpu);
20011680:	8d41a783          	lw	a5,-1836(gp) # 80000b84 <cpu>
20011684:	853e                	mv	a0,a5
20011686:	5f1000ef          	jal	ra,20012476 <metal_cpu_interrupt_controller>
2001168a:	872a                	mv	a4,a0
2001168c:	8ce1ae23          	sw	a4,-1828(gp) # 80000b8c <cpu_intr>
C:\Users\nandg\Desktop\Athena_Welcome_Demo\sifive_hifive1_revb_sifive_welcome\src/sifive-welcome.c:114
    if (cpu_intr == NULL) {
20011690:	8dc1a783          	lw	a5,-1828(gp) # 80000b8c <cpu_intr>
20011694:	eb81                	bnez	a5,200116a4 <main+0xea>
C:\Users\nandg\Desktop\Athena_Welcome_Demo\sifive_hifive1_revb_sifive_welcome\src/sifive-welcome.c:115
        printf("CPU interrupt controller is null.\n");
20011696:	200107b7          	lui	a5,0x20010
2001169a:	73c78513          	addi	a0,a5,1852 # 2001073c <metal_tty_init+0x3fa>
2001169e:	2c89                	jal	200118f0 <puts>
C:\Users\nandg\Desktop\Athena_Welcome_Demo\sifive_hifive1_revb_sifive_welcome\src/sifive-welcome.c:116
        return 3;
200116a0:	478d                	li	a5,3
200116a2:	a87d                	j	20011760 <main+0x1a6>
C:\Users\nandg\Desktop\Athena_Welcome_Demo\sifive_hifive1_revb_sifive_welcome\src/sifive-welcome.c:118
    }
    metal_interrupt_init(cpu_intr);
200116a4:	8dc1a783          	lw	a5,-1828(gp) # 80000b8c <cpu_intr>
200116a8:	853e                	mv	a0,a5
200116aa:	63b000ef          	jal	ra,200124e4 <metal_interrupt_init>
C:\Users\nandg\Desktop\Athena_Welcome_Demo\sifive_hifive1_revb_sifive_welcome\src/sifive-welcome.c:121

    // display welcome banner
    display_banner();
200116ae:	3b89                	jal	20011400 <display_banner>
C:\Users\nandg\Desktop\Athena_Welcome_Demo\sifive_hifive1_revb_sifive_welcome\src/sifive-welcome.c:124

    // Setup Timer and its interrupt so we can toggle LEDs on 1s cadence
    tmr_intr = metal_cpu_timer_interrupt_controller(cpu);
200116b0:	8d41a783          	lw	a5,-1836(gp) # 80000b84 <cpu>
200116b4:	853e                	mv	a0,a5
200116b6:	575000ef          	jal	ra,2001242a <metal_cpu_timer_interrupt_controller>
200116ba:	872a                	mv	a4,a0
200116bc:	8ce1ac23          	sw	a4,-1832(gp) # 80000b88 <tmr_intr>
C:\Users\nandg\Desktop\Athena_Welcome_Demo\sifive_hifive1_revb_sifive_welcome\src/sifive-welcome.c:125
    if (tmr_intr == NULL) {
200116c0:	8d81a783          	lw	a5,-1832(gp) # 80000b88 <tmr_intr>
200116c4:	eb81                	bnez	a5,200116d4 <main+0x11a>
C:\Users\nandg\Desktop\Athena_Welcome_Demo\sifive_hifive1_revb_sifive_welcome\src/sifive-welcome.c:126
        printf("TIMER interrupt controller is  null.\n");
200116c6:	200107b7          	lui	a5,0x20010
200116ca:	76078513          	addi	a0,a5,1888 # 20010760 <metal_tty_init+0x41e>
200116ce:	240d                	jal	200118f0 <puts>
C:\Users\nandg\Desktop\Athena_Welcome_Demo\sifive_hifive1_revb_sifive_welcome\src/sifive-welcome.c:127
        return 4;
200116d0:	4791                	li	a5,4
200116d2:	a079                	j	20011760 <main+0x1a6>
C:\Users\nandg\Desktop\Athena_Welcome_Demo\sifive_hifive1_revb_sifive_welcome\src/sifive-welcome.c:129
    }
    metal_interrupt_init(tmr_intr);
200116d4:	8d81a783          	lw	a5,-1832(gp) # 80000b88 <tmr_intr>
200116d8:	853e                	mv	a0,a5
200116da:	60b000ef          	jal	ra,200124e4 <metal_interrupt_init>
C:\Users\nandg\Desktop\Athena_Welcome_Demo\sifive_hifive1_revb_sifive_welcome\src/sifive-welcome.c:130
    tmr_id = metal_cpu_timer_get_interrupt_id(cpu);
200116de:	8d41a783          	lw	a5,-1836(gp) # 80000b84 <cpu>
200116e2:	853e                	mv	a0,a5
200116e4:	56d000ef          	jal	ra,20012450 <metal_cpu_timer_get_interrupt_id>
200116e8:	872a                	mv	a4,a0
200116ea:	8ee1a223          	sw	a4,-1820(gp) # 80000b94 <tmr_id>
C:\Users\nandg\Desktop\Athena_Welcome_Demo\sifive_hifive1_revb_sifive_welcome\src/sifive-welcome.c:131
    rc = metal_interrupt_register_handler(tmr_intr, tmr_id, timer_isr, cpu);
200116ee:	8d81a703          	lw	a4,-1832(gp) # 80000b88 <tmr_intr>
200116f2:	8e41a583          	lw	a1,-1820(gp) # 80000b94 <tmr_id>
200116f6:	8d41a783          	lw	a5,-1836(gp) # 80000b84 <cpu>
200116fa:	86be                	mv	a3,a5
200116fc:	200117b7          	lui	a5,0x20011
20011700:	50c78613          	addi	a2,a5,1292 # 2001150c <timer_isr>
20011704:	853a                	mv	a0,a4
20011706:	603000ef          	jal	ra,20012508 <metal_interrupt_register_handler>
2001170a:	fea42023          	sw	a0,-32(s0)
C:\Users\nandg\Desktop\Athena_Welcome_Demo\sifive_hifive1_revb_sifive_welcome\src/sifive-welcome.c:132
    if (rc < 0) {
2001170e:	fe042783          	lw	a5,-32(s0)
20011712:	0007dc63          	bgez	a5,2001172a <main+0x170>
C:\Users\nandg\Desktop\Athena_Welcome_Demo\sifive_hifive1_revb_sifive_welcome\src/sifive-welcome.c:133
        printf("TIMER interrupt handler registration failed\n");
20011716:	200107b7          	lui	a5,0x20010
2001171a:	78878513          	addi	a0,a5,1928 # 20010788 <metal_tty_init+0x446>
2001171e:	2ac9                	jal	200118f0 <puts>
C:\Users\nandg\Desktop\Athena_Welcome_Demo\sifive_hifive1_revb_sifive_welcome\src/sifive-welcome.c:134
        return (rc * -1);
20011720:	fe042783          	lw	a5,-32(s0)
20011724:	40f007b3          	neg	a5,a5
20011728:	a825                	j	20011760 <main+0x1a6>
C:\Users\nandg\Desktop\Athena_Welcome_Demo\sifive_hifive1_revb_sifive_welcome\src/sifive-welcome.c:138
    }

    // Lastly CPU interrupt
    if (metal_interrupt_enable(cpu_intr, 0) == -1) {
2001172a:	8dc1a783          	lw	a5,-1828(gp) # 80000b8c <cpu_intr>
2001172e:	4581                	li	a1,0
20011730:	853e                	mv	a0,a5
20011732:	615000ef          	jal	ra,20012546 <metal_interrupt_enable>
20011736:	872a                	mv	a4,a0
20011738:	57fd                	li	a5,-1
2001173a:	00f71963          	bne	a4,a5,2001174c <main+0x192>
C:\Users\nandg\Desktop\Athena_Welcome_Demo\sifive_hifive1_revb_sifive_welcome\src/sifive-welcome.c:139
        printf("CPU interrupt enable failed\n");
2001173e:	200107b7          	lui	a5,0x20010
20011742:	7b478513          	addi	a0,a5,1972 # 200107b4 <metal_tty_init+0x472>
20011746:	226d                	jal	200118f0 <puts>
C:\Users\nandg\Desktop\Athena_Welcome_Demo\sifive_hifive1_revb_sifive_welcome\src/sifive-welcome.c:140
        return 6;
20011748:	4799                	li	a5,6
2001174a:	a819                	j	20011760 <main+0x1a6>
C:\Users\nandg\Desktop\Athena_Welcome_Demo\sifive_hifive1_revb_sifive_welcome\src/sifive-welcome.c:147 (discriminator 1)

    // Red -> Green -> Blue, repeat
    while (1) {

        // Turn on RED
        wait_for_timer(led0_red);
2001174c:	fec42503          	lw	a0,-20(s0)
20011750:	33f5                	jal	2001153c <wait_for_timer>
C:\Users\nandg\Desktop\Athena_Welcome_Demo\sifive_hifive1_revb_sifive_welcome\src/sifive-welcome.c:150 (discriminator 1)

        // Turn on Green
        wait_for_timer(led0_green);
20011752:	fe842503          	lw	a0,-24(s0)
20011756:	33dd                	jal	2001153c <wait_for_timer>
C:\Users\nandg\Desktop\Athena_Welcome_Demo\sifive_hifive1_revb_sifive_welcome\src/sifive-welcome.c:153 (discriminator 1)

        // Turn on Blue
        wait_for_timer(led0_blue);
20011758:	fe442503          	lw	a0,-28(s0)
2001175c:	33c5                	jal	2001153c <wait_for_timer>
C:\Users\nandg\Desktop\Athena_Welcome_Demo\sifive_hifive1_revb_sifive_welcome\src/sifive-welcome.c:147 (discriminator 1)
        wait_for_timer(led0_red);
2001175e:	b7fd                	j	2001174c <main+0x192>
C:\Users\nandg\Desktop\Athena_Welcome_Demo\sifive_hifive1_revb_sifive_welcome\src/sifive-welcome.c:158
    }

    // return
    return 0;
}
20011760:	853e                	mv	a0,a5
20011762:	40f2                	lw	ra,28(sp)
20011764:	4462                	lw	s0,24(sp)
20011766:	6105                	addi	sp,sp,32
20011768:	8082                	ret

2001176a <putchar>:
putchar():
2001176a:	85aa                	mv	a1,a0
2001176c:	5ffef517          	auipc	a0,0x5ffef
20011770:	34452503          	lw	a0,836(a0) # 80000ab0 <_impure_ptr>
20011774:	cd11                	beqz	a0,20011790 <putchar+0x26>
20011776:	4d1c                	lw	a5,24(a0)
20011778:	ef81                	bnez	a5,20011790 <putchar+0x26>
2001177a:	1101                	addi	sp,sp,-32
2001177c:	ce06                	sw	ra,28(sp)
2001177e:	c62e                	sw	a1,12(sp)
20011780:	c42a                	sw	a0,8(sp)
20011782:	2355                	jal	20011d26 <__sinit>
20011784:	4522                	lw	a0,8(sp)
20011786:	45b2                	lw	a1,12(sp)
20011788:	40f2                	lw	ra,28(sp)
2001178a:	4510                	lw	a2,8(a0)
2001178c:	6105                	addi	sp,sp,32
2001178e:	a019                	j	20011794 <_putc_r>
20011790:	4510                	lw	a2,8(a0)
20011792:	bff5                	j	2001178e <putchar+0x24>

20011794 <_putc_r>:
_putc_r():
20011794:	1101                	addi	sp,sp,-32
20011796:	cc22                	sw	s0,24(sp)
20011798:	ce06                	sw	ra,28(sp)
2001179a:	842a                	mv	s0,a0
2001179c:	c901                	beqz	a0,200117ac <_putc_r+0x18>
2001179e:	4d1c                	lw	a5,24(a0)
200117a0:	e791                	bnez	a5,200117ac <_putc_r+0x18>
200117a2:	c632                	sw	a2,12(sp)
200117a4:	c42e                	sw	a1,8(sp)
200117a6:	2341                	jal	20011d26 <__sinit>
200117a8:	4632                	lw	a2,12(sp)
200117aa:	45a2                	lw	a1,8(sp)
200117ac:	fffff797          	auipc	a5,0xfffff
200117b0:	04478793          	addi	a5,a5,68 # 200107f0 <__sf_fake_stdin>
200117b4:	02f61563          	bne	a2,a5,200117de <_putc_r+0x4a>
200117b8:	4050                	lw	a2,4(s0)
200117ba:	461c                	lw	a5,8(a2)
200117bc:	17fd                	addi	a5,a5,-1
200117be:	c61c                	sw	a5,8(a2)
200117c0:	0207df63          	bgez	a5,200117fe <_putc_r+0x6a>
200117c4:	4e18                	lw	a4,24(a2)
200117c6:	00e7c763          	blt	a5,a4,200117d4 <_putc_r+0x40>
200117ca:	0ff5f793          	zext.b	a5,a1
200117ce:	4729                	li	a4,10
200117d0:	02e79763          	bne	a5,a4,200117fe <_putc_r+0x6a>
200117d4:	8522                	mv	a0,s0
200117d6:	4462                	lw	s0,24(sp)
200117d8:	40f2                	lw	ra,28(sp)
200117da:	6105                	addi	sp,sp,32
200117dc:	a205                	j	200118fc <__swbuf_r>
200117de:	fffff797          	auipc	a5,0xfffff
200117e2:	03278793          	addi	a5,a5,50 # 20010810 <__sf_fake_stdout>
200117e6:	00f61463          	bne	a2,a5,200117ee <_putc_r+0x5a>
200117ea:	4410                	lw	a2,8(s0)
200117ec:	b7f9                	j	200117ba <_putc_r+0x26>
200117ee:	fffff797          	auipc	a5,0xfffff
200117f2:	fe278793          	addi	a5,a5,-30 # 200107d0 <__sf_fake_stderr>
200117f6:	fcf612e3          	bne	a2,a5,200117ba <_putc_r+0x26>
200117fa:	4450                	lw	a2,12(s0)
200117fc:	bf7d                	j	200117ba <_putc_r+0x26>
200117fe:	421c                	lw	a5,0(a2)
20011800:	0ff5f513          	zext.b	a0,a1
20011804:	00178713          	addi	a4,a5,1
20011808:	c218                	sw	a4,0(a2)
2001180a:	00b78023          	sb	a1,0(a5)
2001180e:	40f2                	lw	ra,28(sp)
20011810:	4462                	lw	s0,24(sp)
20011812:	6105                	addi	sp,sp,32
20011814:	8082                	ret

20011816 <_puts_r>:
_puts_r():
20011816:	1101                	addi	sp,sp,-32
20011818:	ca26                	sw	s1,20(sp)
2001181a:	c84a                	sw	s2,16(sp)
2001181c:	ce06                	sw	ra,28(sp)
2001181e:	cc22                	sw	s0,24(sp)
20011820:	c64e                	sw	s3,12(sp)
20011822:	c452                	sw	s4,8(sp)
20011824:	84aa                	mv	s1,a0
20011826:	892e                	mv	s2,a1
20011828:	c501                	beqz	a0,20011830 <_puts_r+0x1a>
2001182a:	4d1c                	lw	a5,24(a0)
2001182c:	e391                	bnez	a5,20011830 <_puts_r+0x1a>
2001182e:	29e5                	jal	20011d26 <__sinit>
20011830:	4c9c                	lw	a5,24(s1)
20011832:	4480                	lw	s0,8(s1)
20011834:	e399                	bnez	a5,2001183a <_puts_r+0x24>
20011836:	8526                	mv	a0,s1
20011838:	21fd                	jal	20011d26 <__sinit>
2001183a:	fffff797          	auipc	a5,0xfffff
2001183e:	fb678793          	addi	a5,a5,-74 # 200107f0 <__sf_fake_stdin>
20011842:	02f41c63          	bne	s0,a5,2001187a <_puts_r+0x64>
20011846:	40c0                	lw	s0,4(s1)
20011848:	00c45783          	lhu	a5,12(s0)
2001184c:	8ba1                	andi	a5,a5,8
2001184e:	c7b1                	beqz	a5,2001189a <_puts_r+0x84>
20011850:	481c                	lw	a5,16(s0)
20011852:	c7a1                	beqz	a5,2001189a <_puts_r+0x84>
20011854:	59fd                	li	s3,-1
20011856:	4a29                	li	s4,10
20011858:	441c                	lw	a5,8(s0)
2001185a:	00094583          	lbu	a1,0(s2)
2001185e:	17fd                	addi	a5,a5,-1
20011860:	e9b1                	bnez	a1,200118b4 <_puts_r+0x9e>
20011862:	c41c                	sw	a5,8(s0)
20011864:	0607de63          	bgez	a5,200118e0 <_puts_r+0xca>
20011868:	8622                	mv	a2,s0
2001186a:	45a9                	li	a1,10
2001186c:	8526                	mv	a0,s1
2001186e:	2079                	jal	200118fc <__swbuf_r>
20011870:	57fd                	li	a5,-1
20011872:	02f50863          	beq	a0,a5,200118a2 <_puts_r+0x8c>
20011876:	4529                	li	a0,10
20011878:	a035                	j	200118a4 <_puts_r+0x8e>
2001187a:	fffff797          	auipc	a5,0xfffff
2001187e:	f9678793          	addi	a5,a5,-106 # 20010810 <__sf_fake_stdout>
20011882:	00f41463          	bne	s0,a5,2001188a <_puts_r+0x74>
20011886:	4480                	lw	s0,8(s1)
20011888:	b7c1                	j	20011848 <_puts_r+0x32>
2001188a:	fffff797          	auipc	a5,0xfffff
2001188e:	f4678793          	addi	a5,a5,-186 # 200107d0 <__sf_fake_stderr>
20011892:	faf41be3          	bne	s0,a5,20011848 <_puts_r+0x32>
20011896:	44c0                	lw	s0,12(s1)
20011898:	bf45                	j	20011848 <_puts_r+0x32>
2001189a:	85a2                	mv	a1,s0
2001189c:	8526                	mv	a0,s1
2001189e:	2a39                	jal	200119bc <__swsetup_r>
200118a0:	d955                	beqz	a0,20011854 <_puts_r+0x3e>
200118a2:	557d                	li	a0,-1
200118a4:	40f2                	lw	ra,28(sp)
200118a6:	4462                	lw	s0,24(sp)
200118a8:	44d2                	lw	s1,20(sp)
200118aa:	4942                	lw	s2,16(sp)
200118ac:	49b2                	lw	s3,12(sp)
200118ae:	4a22                	lw	s4,8(sp)
200118b0:	6105                	addi	sp,sp,32
200118b2:	8082                	ret
200118b4:	c41c                	sw	a5,8(s0)
200118b6:	0905                	addi	s2,s2,1
200118b8:	0007d763          	bgez	a5,200118c6 <_puts_r+0xb0>
200118bc:	4c18                	lw	a4,24(s0)
200118be:	00e7cb63          	blt	a5,a4,200118d4 <_puts_r+0xbe>
200118c2:	01458963          	beq	a1,s4,200118d4 <_puts_r+0xbe>
200118c6:	401c                	lw	a5,0(s0)
200118c8:	00178713          	addi	a4,a5,1
200118cc:	c018                	sw	a4,0(s0)
200118ce:	00b78023          	sb	a1,0(a5)
200118d2:	b759                	j	20011858 <_puts_r+0x42>
200118d4:	8622                	mv	a2,s0
200118d6:	8526                	mv	a0,s1
200118d8:	2015                	jal	200118fc <__swbuf_r>
200118da:	f7351fe3          	bne	a0,s3,20011858 <_puts_r+0x42>
200118de:	b7d1                	j	200118a2 <_puts_r+0x8c>
200118e0:	401c                	lw	a5,0(s0)
200118e2:	00178713          	addi	a4,a5,1
200118e6:	c018                	sw	a4,0(s0)
200118e8:	4729                	li	a4,10
200118ea:	00e78023          	sb	a4,0(a5)
200118ee:	b761                	j	20011876 <_puts_r+0x60>

200118f0 <puts>:
puts():
200118f0:	85aa                	mv	a1,a0
200118f2:	5ffef517          	auipc	a0,0x5ffef
200118f6:	1be52503          	lw	a0,446(a0) # 80000ab0 <_impure_ptr>
200118fa:	bf31                	j	20011816 <_puts_r>

200118fc <__swbuf_r>:
__swbuf_r():
200118fc:	1101                	addi	sp,sp,-32
200118fe:	cc22                	sw	s0,24(sp)
20011900:	ca26                	sw	s1,20(sp)
20011902:	c84a                	sw	s2,16(sp)
20011904:	ce06                	sw	ra,28(sp)
20011906:	c64e                	sw	s3,12(sp)
20011908:	84aa                	mv	s1,a0
2001190a:	892e                	mv	s2,a1
2001190c:	8432                	mv	s0,a2
2001190e:	c501                	beqz	a0,20011916 <__swbuf_r+0x1a>
20011910:	4d1c                	lw	a5,24(a0)
20011912:	e391                	bnez	a5,20011916 <__swbuf_r+0x1a>
20011914:	2909                	jal	20011d26 <__sinit>
20011916:	fffff797          	auipc	a5,0xfffff
2001191a:	eda78793          	addi	a5,a5,-294 # 200107f0 <__sf_fake_stdin>
2001191e:	06f41963          	bne	s0,a5,20011990 <__swbuf_r+0x94>
20011922:	40c0                	lw	s0,4(s1)
20011924:	4c1c                	lw	a5,24(s0)
20011926:	c41c                	sw	a5,8(s0)
20011928:	00c45783          	lhu	a5,12(s0)
2001192c:	8ba1                	andi	a5,a5,8
2001192e:	c3c9                	beqz	a5,200119b0 <__swbuf_r+0xb4>
20011930:	481c                	lw	a5,16(s0)
20011932:	cfbd                	beqz	a5,200119b0 <__swbuf_r+0xb4>
20011934:	481c                	lw	a5,16(s0)
20011936:	4008                	lw	a0,0(s0)
20011938:	0ff97993          	zext.b	s3,s2
2001193c:	0ff97913          	zext.b	s2,s2
20011940:	8d1d                	sub	a0,a0,a5
20011942:	485c                	lw	a5,20(s0)
20011944:	00f54663          	blt	a0,a5,20011950 <__swbuf_r+0x54>
20011948:	85a2                	mv	a1,s0
2001194a:	8526                	mv	a0,s1
2001194c:	24c1                	jal	20011c0c <_fflush_r>
2001194e:	e52d                	bnez	a0,200119b8 <__swbuf_r+0xbc>
20011950:	441c                	lw	a5,8(s0)
20011952:	0505                	addi	a0,a0,1
20011954:	17fd                	addi	a5,a5,-1
20011956:	c41c                	sw	a5,8(s0)
20011958:	401c                	lw	a5,0(s0)
2001195a:	00178713          	addi	a4,a5,1
2001195e:	c018                	sw	a4,0(s0)
20011960:	01378023          	sb	s3,0(a5)
20011964:	485c                	lw	a5,20(s0)
20011966:	00a78963          	beq	a5,a0,20011978 <__swbuf_r+0x7c>
2001196a:	00c45783          	lhu	a5,12(s0)
2001196e:	8b85                	andi	a5,a5,1
20011970:	cb81                	beqz	a5,20011980 <__swbuf_r+0x84>
20011972:	47a9                	li	a5,10
20011974:	00f91663          	bne	s2,a5,20011980 <__swbuf_r+0x84>
20011978:	85a2                	mv	a1,s0
2001197a:	8526                	mv	a0,s1
2001197c:	2c41                	jal	20011c0c <_fflush_r>
2001197e:	ed0d                	bnez	a0,200119b8 <__swbuf_r+0xbc>
20011980:	40f2                	lw	ra,28(sp)
20011982:	4462                	lw	s0,24(sp)
20011984:	44d2                	lw	s1,20(sp)
20011986:	49b2                	lw	s3,12(sp)
20011988:	854a                	mv	a0,s2
2001198a:	4942                	lw	s2,16(sp)
2001198c:	6105                	addi	sp,sp,32
2001198e:	8082                	ret
20011990:	fffff797          	auipc	a5,0xfffff
20011994:	e8078793          	addi	a5,a5,-384 # 20010810 <__sf_fake_stdout>
20011998:	00f41463          	bne	s0,a5,200119a0 <__swbuf_r+0xa4>
2001199c:	4480                	lw	s0,8(s1)
2001199e:	b759                	j	20011924 <__swbuf_r+0x28>
200119a0:	fffff797          	auipc	a5,0xfffff
200119a4:	e3078793          	addi	a5,a5,-464 # 200107d0 <__sf_fake_stderr>
200119a8:	f6f41ee3          	bne	s0,a5,20011924 <__swbuf_r+0x28>
200119ac:	44c0                	lw	s0,12(s1)
200119ae:	bf9d                	j	20011924 <__swbuf_r+0x28>
200119b0:	85a2                	mv	a1,s0
200119b2:	8526                	mv	a0,s1
200119b4:	2021                	jal	200119bc <__swsetup_r>
200119b6:	dd3d                	beqz	a0,20011934 <__swbuf_r+0x38>
200119b8:	597d                	li	s2,-1
200119ba:	b7d9                	j	20011980 <__swbuf_r+0x84>

200119bc <__swsetup_r>:
__swsetup_r():
200119bc:	1141                	addi	sp,sp,-16
200119be:	c422                	sw	s0,8(sp)
200119c0:	c226                	sw	s1,4(sp)
200119c2:	c04a                	sw	s2,0(sp)
200119c4:	c606                	sw	ra,12(sp)
200119c6:	5ffef497          	auipc	s1,0x5ffef
200119ca:	0ea4a483          	lw	s1,234(s1) # 80000ab0 <_impure_ptr>
200119ce:	892a                	mv	s2,a0
200119d0:	842e                	mv	s0,a1
200119d2:	c489                	beqz	s1,200119dc <__swsetup_r+0x20>
200119d4:	4c9c                	lw	a5,24(s1)
200119d6:	e399                	bnez	a5,200119dc <__swsetup_r+0x20>
200119d8:	8526                	mv	a0,s1
200119da:	26b1                	jal	20011d26 <__sinit>
200119dc:	fffff797          	auipc	a5,0xfffff
200119e0:	e1478793          	addi	a5,a5,-492 # 200107f0 <__sf_fake_stdin>
200119e4:	02f41763          	bne	s0,a5,20011a12 <__swsetup_r+0x56>
200119e8:	40c0                	lw	s0,4(s1)
200119ea:	00c41783          	lh	a5,12(s0)
200119ee:	01079713          	slli	a4,a5,0x10
200119f2:	0087f693          	andi	a3,a5,8
200119f6:	8341                	srli	a4,a4,0x10
200119f8:	eaad                	bnez	a3,20011a6a <__swsetup_r+0xae>
200119fa:	01077693          	andi	a3,a4,16
200119fe:	ea95                	bnez	a3,20011a32 <__swsetup_r+0x76>
20011a00:	4725                	li	a4,9
20011a02:	00e92023          	sw	a4,0(s2)
20011a06:	0407e793          	ori	a5,a5,64
20011a0a:	00f41623          	sh	a5,12(s0)
20011a0e:	557d                	li	a0,-1
20011a10:	a871                	j	20011aac <__swsetup_r+0xf0>
20011a12:	fffff797          	auipc	a5,0xfffff
20011a16:	dfe78793          	addi	a5,a5,-514 # 20010810 <__sf_fake_stdout>
20011a1a:	00f41463          	bne	s0,a5,20011a22 <__swsetup_r+0x66>
20011a1e:	4480                	lw	s0,8(s1)
20011a20:	b7e9                	j	200119ea <__swsetup_r+0x2e>
20011a22:	fffff797          	auipc	a5,0xfffff
20011a26:	dae78793          	addi	a5,a5,-594 # 200107d0 <__sf_fake_stderr>
20011a2a:	fcf410e3          	bne	s0,a5,200119ea <__swsetup_r+0x2e>
20011a2e:	44c0                	lw	s0,12(s1)
20011a30:	bf6d                	j	200119ea <__swsetup_r+0x2e>
20011a32:	8b11                	andi	a4,a4,4
20011a34:	c70d                	beqz	a4,20011a5e <__swsetup_r+0xa2>
20011a36:	584c                	lw	a1,52(s0)
20011a38:	c989                	beqz	a1,20011a4a <__swsetup_r+0x8e>
20011a3a:	04440793          	addi	a5,s0,68
20011a3e:	00f58463          	beq	a1,a5,20011a46 <__swsetup_r+0x8a>
20011a42:	854a                	mv	a0,s2
20011a44:	2bc5                	jal	20012034 <_free_r>
20011a46:	02042a23          	sw	zero,52(s0)
20011a4a:	00c45783          	lhu	a5,12(s0)
20011a4e:	00042223          	sw	zero,4(s0)
20011a52:	fdb7f793          	andi	a5,a5,-37
20011a56:	00f41623          	sh	a5,12(s0)
20011a5a:	481c                	lw	a5,16(s0)
20011a5c:	c01c                	sw	a5,0(s0)
20011a5e:	00c45783          	lhu	a5,12(s0)
20011a62:	0087e793          	ori	a5,a5,8
20011a66:	00f41623          	sh	a5,12(s0)
20011a6a:	481c                	lw	a5,16(s0)
20011a6c:	ef81                	bnez	a5,20011a84 <__swsetup_r+0xc8>
20011a6e:	00c45783          	lhu	a5,12(s0)
20011a72:	20000713          	li	a4,512
20011a76:	2807f793          	andi	a5,a5,640
20011a7a:	00e78563          	beq	a5,a4,20011a84 <__swsetup_r+0xc8>
20011a7e:	85a2                	mv	a1,s0
20011a80:	854a                	mv	a0,s2
20011a82:	21bd                	jal	20011ef0 <__smakebuf_r>
20011a84:	00c41783          	lh	a5,12(s0)
20011a88:	01079713          	slli	a4,a5,0x10
20011a8c:	0017f693          	andi	a3,a5,1
20011a90:	8341                	srli	a4,a4,0x10
20011a92:	c29d                	beqz	a3,20011ab8 <__swsetup_r+0xfc>
20011a94:	4854                	lw	a3,20(s0)
20011a96:	00042423          	sw	zero,8(s0)
20011a9a:	40d006b3          	neg	a3,a3
20011a9e:	cc14                	sw	a3,24(s0)
20011aa0:	4814                	lw	a3,16(s0)
20011aa2:	4501                	li	a0,0
20011aa4:	e681                	bnez	a3,20011aac <__swsetup_r+0xf0>
20011aa6:	08077713          	andi	a4,a4,128
20011aaa:	ff31                	bnez	a4,20011a06 <__swsetup_r+0x4a>
20011aac:	40b2                	lw	ra,12(sp)
20011aae:	4422                	lw	s0,8(sp)
20011ab0:	4492                	lw	s1,4(sp)
20011ab2:	4902                	lw	s2,0(sp)
20011ab4:	0141                	addi	sp,sp,16
20011ab6:	8082                	ret
20011ab8:	00277693          	andi	a3,a4,2
20011abc:	4601                	li	a2,0
20011abe:	e291                	bnez	a3,20011ac2 <__swsetup_r+0x106>
20011ac0:	4850                	lw	a2,20(s0)
20011ac2:	c410                	sw	a2,8(s0)
20011ac4:	bff1                	j	20011aa0 <__swsetup_r+0xe4>

20011ac6 <__sflush_r>:
__sflush_r():
20011ac6:	00c5d783          	lhu	a5,12(a1)
20011aca:	1101                	addi	sp,sp,-32
20011acc:	cc22                	sw	s0,24(sp)
20011ace:	ca26                	sw	s1,20(sp)
20011ad0:	ce06                	sw	ra,28(sp)
20011ad2:	c84a                	sw	s2,16(sp)
20011ad4:	c64e                	sw	s3,12(sp)
20011ad6:	0087f713          	andi	a4,a5,8
20011ada:	84aa                	mv	s1,a0
20011adc:	842e                	mv	s0,a1
20011ade:	e375                	bnez	a4,20011bc2 <__sflush_r+0xfc>
20011ae0:	41d8                	lw	a4,4(a1)
20011ae2:	00e04763          	bgtz	a4,20011af0 <__sflush_r+0x2a>
20011ae6:	41b8                	lw	a4,64(a1)
20011ae8:	00e04463          	bgtz	a4,20011af0 <__sflush_r+0x2a>
20011aec:	4501                	li	a0,0
20011aee:	a875                	j	20011baa <__sflush_r+0xe4>
20011af0:	5458                	lw	a4,44(s0)
20011af2:	df6d                	beqz	a4,20011aec <__sflush_r+0x26>
20011af4:	6685                	lui	a3,0x1
20011af6:	0004a903          	lw	s2,0(s1)
20011afa:	8ff5                	and	a5,a5,a3
20011afc:	0004a023          	sw	zero,0(s1)
20011b00:	cfa5                	beqz	a5,20011b78 <__sflush_r+0xb2>
20011b02:	4868                	lw	a0,84(s0)
20011b04:	00c45783          	lhu	a5,12(s0)
20011b08:	8b91                	andi	a5,a5,4
20011b0a:	c799                	beqz	a5,20011b18 <__sflush_r+0x52>
20011b0c:	405c                	lw	a5,4(s0)
20011b0e:	8d1d                	sub	a0,a0,a5
20011b10:	585c                	lw	a5,52(s0)
20011b12:	c399                	beqz	a5,20011b18 <__sflush_r+0x52>
20011b14:	403c                	lw	a5,64(s0)
20011b16:	8d1d                	sub	a0,a0,a5
20011b18:	545c                	lw	a5,44(s0)
20011b1a:	500c                	lw	a1,32(s0)
20011b1c:	862a                	mv	a2,a0
20011b1e:	4681                	li	a3,0
20011b20:	8526                	mv	a0,s1
20011b22:	9782                	jalr	a5
20011b24:	57fd                	li	a5,-1
20011b26:	00c45703          	lhu	a4,12(s0)
20011b2a:	00f51d63          	bne	a0,a5,20011b44 <__sflush_r+0x7e>
20011b2e:	4094                	lw	a3,0(s1)
20011b30:	47f5                	li	a5,29
20011b32:	08d7e363          	bltu	a5,a3,20011bb8 <__sflush_r+0xf2>
20011b36:	204007b7          	lui	a5,0x20400
20011b3a:	0785                	addi	a5,a5,1
20011b3c:	00d7d7b3          	srl	a5,a5,a3
20011b40:	8b85                	andi	a5,a5,1
20011b42:	cbbd                	beqz	a5,20011bb8 <__sflush_r+0xf2>
20011b44:	481c                	lw	a5,16(s0)
20011b46:	00042223          	sw	zero,4(s0)
20011b4a:	c01c                	sw	a5,0(s0)
20011b4c:	6785                	lui	a5,0x1
20011b4e:	8f7d                	and	a4,a4,a5
20011b50:	c719                	beqz	a4,20011b5e <__sflush_r+0x98>
20011b52:	57fd                	li	a5,-1
20011b54:	00f51463          	bne	a0,a5,20011b5c <__sflush_r+0x96>
20011b58:	409c                	lw	a5,0(s1)
20011b5a:	e391                	bnez	a5,20011b5e <__sflush_r+0x98>
20011b5c:	c868                	sw	a0,84(s0)
20011b5e:	584c                	lw	a1,52(s0)
20011b60:	0124a023          	sw	s2,0(s1)
20011b64:	d5c1                	beqz	a1,20011aec <__sflush_r+0x26>
20011b66:	04440793          	addi	a5,s0,68
20011b6a:	00f58463          	beq	a1,a5,20011b72 <__sflush_r+0xac>
20011b6e:	8526                	mv	a0,s1
20011b70:	21d1                	jal	20012034 <_free_r>
20011b72:	02042a23          	sw	zero,52(s0)
20011b76:	bf9d                	j	20011aec <__sflush_r+0x26>
20011b78:	500c                	lw	a1,32(s0)
20011b7a:	4685                	li	a3,1
20011b7c:	4601                	li	a2,0
20011b7e:	8526                	mv	a0,s1
20011b80:	9702                	jalr	a4
20011b82:	57fd                	li	a5,-1
20011b84:	f8f510e3          	bne	a0,a5,20011b04 <__sflush_r+0x3e>
20011b88:	409c                	lw	a5,0(s1)
20011b8a:	dfad                	beqz	a5,20011b04 <__sflush_r+0x3e>
20011b8c:	4775                	li	a4,29
20011b8e:	00e78563          	beq	a5,a4,20011b98 <__sflush_r+0xd2>
20011b92:	4759                	li	a4,22
20011b94:	00e79563          	bne	a5,a4,20011b9e <__sflush_r+0xd8>
20011b98:	0124a023          	sw	s2,0(s1)
20011b9c:	bf81                	j	20011aec <__sflush_r+0x26>
20011b9e:	00c45783          	lhu	a5,12(s0)
20011ba2:	0407e793          	ori	a5,a5,64
20011ba6:	00f41623          	sh	a5,12(s0)
20011baa:	40f2                	lw	ra,28(sp)
20011bac:	4462                	lw	s0,24(sp)
20011bae:	44d2                	lw	s1,20(sp)
20011bb0:	4942                	lw	s2,16(sp)
20011bb2:	49b2                	lw	s3,12(sp)
20011bb4:	6105                	addi	sp,sp,32
20011bb6:	8082                	ret
20011bb8:	04076713          	ori	a4,a4,64
20011bbc:	00e41623          	sh	a4,12(s0)
20011bc0:	b7ed                	j	20011baa <__sflush_r+0xe4>
20011bc2:	0105a983          	lw	s3,16(a1)
20011bc6:	f20983e3          	beqz	s3,20011aec <__sflush_r+0x26>
20011bca:	0005a903          	lw	s2,0(a1)
20011bce:	8b8d                	andi	a5,a5,3
20011bd0:	0135a023          	sw	s3,0(a1)
20011bd4:	41390933          	sub	s2,s2,s3
20011bd8:	4701                	li	a4,0
20011bda:	e391                	bnez	a5,20011bde <__sflush_r+0x118>
20011bdc:	49d8                	lw	a4,20(a1)
20011bde:	c418                	sw	a4,8(s0)
20011be0:	f12056e3          	blez	s2,20011aec <__sflush_r+0x26>
20011be4:	541c                	lw	a5,40(s0)
20011be6:	500c                	lw	a1,32(s0)
20011be8:	86ca                	mv	a3,s2
20011bea:	864e                	mv	a2,s3
20011bec:	8526                	mv	a0,s1
20011bee:	9782                	jalr	a5
20011bf0:	00a04a63          	bgtz	a0,20011c04 <__sflush_r+0x13e>
20011bf4:	00c45783          	lhu	a5,12(s0)
20011bf8:	557d                	li	a0,-1
20011bfa:	0407e793          	ori	a5,a5,64
20011bfe:	00f41623          	sh	a5,12(s0)
20011c02:	b765                	j	20011baa <__sflush_r+0xe4>
20011c04:	99aa                	add	s3,s3,a0
20011c06:	40a90933          	sub	s2,s2,a0
20011c0a:	bfd9                	j	20011be0 <__sflush_r+0x11a>

20011c0c <_fflush_r>:
_fflush_r():
20011c0c:	499c                	lw	a5,16(a1)
20011c0e:	cfb9                	beqz	a5,20011c6c <_fflush_r+0x60>
20011c10:	1101                	addi	sp,sp,-32
20011c12:	cc22                	sw	s0,24(sp)
20011c14:	ce06                	sw	ra,28(sp)
20011c16:	842a                	mv	s0,a0
20011c18:	c511                	beqz	a0,20011c24 <_fflush_r+0x18>
20011c1a:	4d1c                	lw	a5,24(a0)
20011c1c:	e781                	bnez	a5,20011c24 <_fflush_r+0x18>
20011c1e:	c62e                	sw	a1,12(sp)
20011c20:	2219                	jal	20011d26 <__sinit>
20011c22:	45b2                	lw	a1,12(sp)
20011c24:	fffff797          	auipc	a5,0xfffff
20011c28:	bcc78793          	addi	a5,a5,-1076 # 200107f0 <__sf_fake_stdin>
20011c2c:	00f59b63          	bne	a1,a5,20011c42 <_fflush_r+0x36>
20011c30:	404c                	lw	a1,4(s0)
20011c32:	00c59783          	lh	a5,12(a1)
20011c36:	c795                	beqz	a5,20011c62 <_fflush_r+0x56>
20011c38:	8522                	mv	a0,s0
20011c3a:	4462                	lw	s0,24(sp)
20011c3c:	40f2                	lw	ra,28(sp)
20011c3e:	6105                	addi	sp,sp,32
20011c40:	b559                	j	20011ac6 <__sflush_r>
20011c42:	fffff797          	auipc	a5,0xfffff
20011c46:	bce78793          	addi	a5,a5,-1074 # 20010810 <__sf_fake_stdout>
20011c4a:	00f59463          	bne	a1,a5,20011c52 <_fflush_r+0x46>
20011c4e:	440c                	lw	a1,8(s0)
20011c50:	b7cd                	j	20011c32 <_fflush_r+0x26>
20011c52:	fffff797          	auipc	a5,0xfffff
20011c56:	b7e78793          	addi	a5,a5,-1154 # 200107d0 <__sf_fake_stderr>
20011c5a:	fcf59ce3          	bne	a1,a5,20011c32 <_fflush_r+0x26>
20011c5e:	444c                	lw	a1,12(s0)
20011c60:	bfc9                	j	20011c32 <_fflush_r+0x26>
20011c62:	40f2                	lw	ra,28(sp)
20011c64:	4462                	lw	s0,24(sp)
20011c66:	4501                	li	a0,0
20011c68:	6105                	addi	sp,sp,32
20011c6a:	8082                	ret
20011c6c:	4501                	li	a0,0
20011c6e:	8082                	ret

20011c70 <std>:
std():
20011c70:	1141                	addi	sp,sp,-16
20011c72:	c422                	sw	s0,8(sp)
20011c74:	c606                	sw	ra,12(sp)
20011c76:	842a                	mv	s0,a0
20011c78:	00b51623          	sh	a1,12(a0)
20011c7c:	00c51723          	sh	a2,14(a0)
20011c80:	00052023          	sw	zero,0(a0)
20011c84:	00052223          	sw	zero,4(a0)
20011c88:	00052423          	sw	zero,8(a0)
20011c8c:	06052223          	sw	zero,100(a0)
20011c90:	00052823          	sw	zero,16(a0)
20011c94:	00052a23          	sw	zero,20(a0)
20011c98:	00052c23          	sw	zero,24(a0)
20011c9c:	4621                	li	a2,8
20011c9e:	4581                	li	a1,0
20011ca0:	05c50513          	addi	a0,a0,92
20011ca4:	24e5                	jal	20011f8c <memset>
20011ca6:	00000797          	auipc	a5,0x0
20011caa:	53878793          	addi	a5,a5,1336 # 200121de <__sread>
20011cae:	d05c                	sw	a5,36(s0)
20011cb0:	00000797          	auipc	a5,0x0
20011cb4:	55e78793          	addi	a5,a5,1374 # 2001220e <__swrite>
20011cb8:	d41c                	sw	a5,40(s0)
20011cba:	00000797          	auipc	a5,0x0
20011cbe:	5a278793          	addi	a5,a5,1442 # 2001225c <__sseek>
20011cc2:	d45c                	sw	a5,44(s0)
20011cc4:	00000797          	auipc	a5,0x0
20011cc8:	5ce78793          	addi	a5,a5,1486 # 20012292 <__sclose>
20011ccc:	40b2                	lw	ra,12(sp)
20011cce:	d000                	sw	s0,32(s0)
20011cd0:	d81c                	sw	a5,48(s0)
20011cd2:	4422                	lw	s0,8(sp)
20011cd4:	0141                	addi	sp,sp,16
20011cd6:	8082                	ret

20011cd8 <_cleanup_r>:
_cleanup_r():
20011cd8:	00000597          	auipc	a1,0x0
20011cdc:	f3458593          	addi	a1,a1,-204 # 20011c0c <_fflush_r>
20011ce0:	a2b1                	j	20011e2c <_fwalk_reent>

20011ce2 <__sfmoreglue>:
__sfmoreglue():
20011ce2:	1141                	addi	sp,sp,-16
20011ce4:	c226                	sw	s1,4(sp)
20011ce6:	06800613          	li	a2,104
20011cea:	fff58493          	addi	s1,a1,-1
20011cee:	02c484b3          	mul	s1,s1,a2
20011cf2:	c04a                	sw	s2,0(sp)
20011cf4:	892e                	mv	s2,a1
20011cf6:	c422                	sw	s0,8(sp)
20011cf8:	c606                	sw	ra,12(sp)
20011cfa:	07448593          	addi	a1,s1,116
20011cfe:	2ee1                	jal	200120d6 <_malloc_r>
20011d00:	842a                	mv	s0,a0
20011d02:	c919                	beqz	a0,20011d18 <__sfmoreglue+0x36>
20011d04:	00052023          	sw	zero,0(a0)
20011d08:	01252223          	sw	s2,4(a0)
20011d0c:	0531                	addi	a0,a0,12
20011d0e:	c408                	sw	a0,8(s0)
20011d10:	06848613          	addi	a2,s1,104
20011d14:	4581                	li	a1,0
20011d16:	2c9d                	jal	20011f8c <memset>
20011d18:	40b2                	lw	ra,12(sp)
20011d1a:	8522                	mv	a0,s0
20011d1c:	4422                	lw	s0,8(sp)
20011d1e:	4492                	lw	s1,4(sp)
20011d20:	4902                	lw	s2,0(sp)
20011d22:	0141                	addi	sp,sp,16
20011d24:	8082                	ret

20011d26 <__sinit>:
__sinit():
20011d26:	4d1c                	lw	a5,24(a0)
20011d28:	e3bd                	bnez	a5,20011d8e <__sinit+0x68>
20011d2a:	1141                	addi	sp,sp,-16
20011d2c:	c422                	sw	s0,8(sp)
20011d2e:	c606                	sw	ra,12(sp)
20011d30:	00000797          	auipc	a5,0x0
20011d34:	fa878793          	addi	a5,a5,-88 # 20011cd8 <_cleanup_r>
20011d38:	d51c                	sw	a5,40(a0)
20011d3a:	04052423          	sw	zero,72(a0)
20011d3e:	04052623          	sw	zero,76(a0)
20011d42:	04052823          	sw	zero,80(a0)
20011d46:	fffff797          	auipc	a5,0xfffff
20011d4a:	66a7a783          	lw	a5,1642(a5) # 200113b0 <_global_impure_ptr>
20011d4e:	842a                	mv	s0,a0
20011d50:	00f51463          	bne	a0,a5,20011d58 <__sinit+0x32>
20011d54:	4785                	li	a5,1
20011d56:	cd1c                	sw	a5,24(a0)
20011d58:	8522                	mv	a0,s0
20011d5a:	281d                	jal	20011d90 <__sfp>
20011d5c:	c048                	sw	a0,4(s0)
20011d5e:	8522                	mv	a0,s0
20011d60:	2805                	jal	20011d90 <__sfp>
20011d62:	c408                	sw	a0,8(s0)
20011d64:	8522                	mv	a0,s0
20011d66:	202d                	jal	20011d90 <__sfp>
20011d68:	c448                	sw	a0,12(s0)
20011d6a:	4048                	lw	a0,4(s0)
20011d6c:	4601                	li	a2,0
20011d6e:	4591                	li	a1,4
20011d70:	3701                	jal	20011c70 <std>
20011d72:	4408                	lw	a0,8(s0)
20011d74:	4605                	li	a2,1
20011d76:	45a5                	li	a1,9
20011d78:	3de5                	jal	20011c70 <std>
20011d7a:	4448                	lw	a0,12(s0)
20011d7c:	4609                	li	a2,2
20011d7e:	45c9                	li	a1,18
20011d80:	3dc5                	jal	20011c70 <std>
20011d82:	4785                	li	a5,1
20011d84:	40b2                	lw	ra,12(sp)
20011d86:	cc1c                	sw	a5,24(s0)
20011d88:	4422                	lw	s0,8(sp)
20011d8a:	0141                	addi	sp,sp,16
20011d8c:	8082                	ret
20011d8e:	8082                	ret

20011d90 <__sfp>:
__sfp():
20011d90:	1141                	addi	sp,sp,-16
20011d92:	c226                	sw	s1,4(sp)
20011d94:	fffff497          	auipc	s1,0xfffff
20011d98:	61c4a483          	lw	s1,1564(s1) # 200113b0 <_global_impure_ptr>
20011d9c:	4c9c                	lw	a5,24(s1)
20011d9e:	c04a                	sw	s2,0(sp)
20011da0:	c606                	sw	ra,12(sp)
20011da2:	c422                	sw	s0,8(sp)
20011da4:	892a                	mv	s2,a0
20011da6:	e399                	bnez	a5,20011dac <__sfp+0x1c>
20011da8:	8526                	mv	a0,s1
20011daa:	3fb5                	jal	20011d26 <__sinit>
20011dac:	04848493          	addi	s1,s1,72
20011db0:	4480                	lw	s0,8(s1)
20011db2:	40dc                	lw	a5,4(s1)
20011db4:	17fd                	addi	a5,a5,-1
20011db6:	0007d663          	bgez	a5,20011dc2 <__sfp+0x32>
20011dba:	409c                	lw	a5,0(s1)
20011dbc:	cfb1                	beqz	a5,20011e18 <__sfp+0x88>
20011dbe:	4084                	lw	s1,0(s1)
20011dc0:	bfc5                	j	20011db0 <__sfp+0x20>
20011dc2:	00c41703          	lh	a4,12(s0)
20011dc6:	e731                	bnez	a4,20011e12 <__sfp+0x82>
20011dc8:	77c1                	lui	a5,0xffff0
20011dca:	0785                	addi	a5,a5,1
20011dcc:	06042223          	sw	zero,100(s0)
20011dd0:	00042023          	sw	zero,0(s0)
20011dd4:	00042223          	sw	zero,4(s0)
20011dd8:	00042423          	sw	zero,8(s0)
20011ddc:	c45c                	sw	a5,12(s0)
20011dde:	00042823          	sw	zero,16(s0)
20011de2:	00042a23          	sw	zero,20(s0)
20011de6:	00042c23          	sw	zero,24(s0)
20011dea:	4621                	li	a2,8
20011dec:	4581                	li	a1,0
20011dee:	05c40513          	addi	a0,s0,92
20011df2:	2a69                	jal	20011f8c <memset>
20011df4:	02042a23          	sw	zero,52(s0)
20011df8:	02042c23          	sw	zero,56(s0)
20011dfc:	04042423          	sw	zero,72(s0)
20011e00:	04042623          	sw	zero,76(s0)
20011e04:	40b2                	lw	ra,12(sp)
20011e06:	8522                	mv	a0,s0
20011e08:	4422                	lw	s0,8(sp)
20011e0a:	4492                	lw	s1,4(sp)
20011e0c:	4902                	lw	s2,0(sp)
20011e0e:	0141                	addi	sp,sp,16
20011e10:	8082                	ret
20011e12:	06840413          	addi	s0,s0,104
20011e16:	bf79                	j	20011db4 <__sfp+0x24>
20011e18:	4591                	li	a1,4
20011e1a:	854a                	mv	a0,s2
20011e1c:	35d9                	jal	20011ce2 <__sfmoreglue>
20011e1e:	c088                	sw	a0,0(s1)
20011e20:	842a                	mv	s0,a0
20011e22:	fd51                	bnez	a0,20011dbe <__sfp+0x2e>
20011e24:	47b1                	li	a5,12
20011e26:	00f92023          	sw	a5,0(s2)
20011e2a:	bfe9                	j	20011e04 <__sfp+0x74>

20011e2c <_fwalk_reent>:
_fwalk_reent():
20011e2c:	7179                	addi	sp,sp,-48
20011e2e:	d422                	sw	s0,40(sp)
20011e30:	d04a                	sw	s2,32(sp)
20011e32:	ce4e                	sw	s3,28(sp)
20011e34:	cc52                	sw	s4,24(sp)
20011e36:	c85a                	sw	s6,16(sp)
20011e38:	c65e                	sw	s7,12(sp)
20011e3a:	d606                	sw	ra,44(sp)
20011e3c:	d226                	sw	s1,36(sp)
20011e3e:	ca56                	sw	s5,20(sp)
20011e40:	892a                	mv	s2,a0
20011e42:	8a2e                	mv	s4,a1
20011e44:	04850413          	addi	s0,a0,72
20011e48:	4981                	li	s3,0
20011e4a:	4b05                	li	s6,1
20011e4c:	5bfd                	li	s7,-1
20011e4e:	4404                	lw	s1,8(s0)
20011e50:	00442a83          	lw	s5,4(s0)
20011e54:	1afd                	addi	s5,s5,-1
20011e56:	020ad063          	bgez	s5,20011e76 <_fwalk_reent+0x4a>
20011e5a:	4000                	lw	s0,0(s0)
20011e5c:	f86d                	bnez	s0,20011e4e <_fwalk_reent+0x22>
20011e5e:	50b2                	lw	ra,44(sp)
20011e60:	5422                	lw	s0,40(sp)
20011e62:	5492                	lw	s1,36(sp)
20011e64:	5902                	lw	s2,32(sp)
20011e66:	4a62                	lw	s4,24(sp)
20011e68:	4ad2                	lw	s5,20(sp)
20011e6a:	4b42                	lw	s6,16(sp)
20011e6c:	4bb2                	lw	s7,12(sp)
20011e6e:	854e                	mv	a0,s3
20011e70:	49f2                	lw	s3,28(sp)
20011e72:	6145                	addi	sp,sp,48
20011e74:	8082                	ret
20011e76:	00c4d783          	lhu	a5,12(s1)
20011e7a:	00fb7b63          	bgeu	s6,a5,20011e90 <_fwalk_reent+0x64>
20011e7e:	00e49783          	lh	a5,14(s1)
20011e82:	01778763          	beq	a5,s7,20011e90 <_fwalk_reent+0x64>
20011e86:	85a6                	mv	a1,s1
20011e88:	854a                	mv	a0,s2
20011e8a:	9a02                	jalr	s4
20011e8c:	00a9e9b3          	or	s3,s3,a0
20011e90:	06848493          	addi	s1,s1,104
20011e94:	b7c1                	j	20011e54 <_fwalk_reent+0x28>

20011e96 <__swhatbuf_r>:
__swhatbuf_r():
20011e96:	7159                	addi	sp,sp,-112
20011e98:	d0ca                	sw	s2,96(sp)
20011e9a:	892e                	mv	s2,a1
20011e9c:	00e59583          	lh	a1,14(a1)
20011ea0:	d4a2                	sw	s0,104(sp)
20011ea2:	d2a6                	sw	s1,100(sp)
20011ea4:	d686                	sw	ra,108(sp)
20011ea6:	8432                	mv	s0,a2
20011ea8:	84b6                	mv	s1,a3
20011eaa:	0005dc63          	bgez	a1,20011ec2 <__swhatbuf_r+0x2c>
20011eae:	00c91783          	lh	a5,12(s2)
20011eb2:	0004a023          	sw	zero,0(s1)
20011eb6:	0807f793          	andi	a5,a5,128
20011eba:	e38d                	bnez	a5,20011edc <__swhatbuf_r+0x46>
20011ebc:	40000793          	li	a5,1024
20011ec0:	a005                	j	20011ee0 <__swhatbuf_r+0x4a>
20011ec2:	0030                	addi	a2,sp,8
20011ec4:	2925                	jal	200122fc <_fstat_r>
20011ec6:	fe0544e3          	bltz	a0,20011eae <__swhatbuf_r+0x18>
20011eca:	4732                	lw	a4,12(sp)
20011ecc:	67bd                	lui	a5,0xf
20011ece:	8ff9                	and	a5,a5,a4
20011ed0:	7779                	lui	a4,0xffffe
20011ed2:	97ba                	add	a5,a5,a4
20011ed4:	0017b793          	seqz	a5,a5
20011ed8:	c09c                	sw	a5,0(s1)
20011eda:	b7cd                	j	20011ebc <__swhatbuf_r+0x26>
20011edc:	04000793          	li	a5,64
20011ee0:	50b6                	lw	ra,108(sp)
20011ee2:	c01c                	sw	a5,0(s0)
20011ee4:	5426                	lw	s0,104(sp)
20011ee6:	5496                	lw	s1,100(sp)
20011ee8:	5906                	lw	s2,96(sp)
20011eea:	4501                	li	a0,0
20011eec:	6165                	addi	sp,sp,112
20011eee:	8082                	ret

20011ef0 <__smakebuf_r>:
__smakebuf_r():
20011ef0:	00c5d783          	lhu	a5,12(a1)
20011ef4:	1101                	addi	sp,sp,-32
20011ef6:	cc22                	sw	s0,24(sp)
20011ef8:	ce06                	sw	ra,28(sp)
20011efa:	ca26                	sw	s1,20(sp)
20011efc:	c84a                	sw	s2,16(sp)
20011efe:	8b89                	andi	a5,a5,2
20011f00:	842e                	mv	s0,a1
20011f02:	cf89                	beqz	a5,20011f1c <__smakebuf_r+0x2c>
20011f04:	04740793          	addi	a5,s0,71
20011f08:	c01c                	sw	a5,0(s0)
20011f0a:	c81c                	sw	a5,16(s0)
20011f0c:	4785                	li	a5,1
20011f0e:	c85c                	sw	a5,20(s0)
20011f10:	40f2                	lw	ra,28(sp)
20011f12:	4462                	lw	s0,24(sp)
20011f14:	44d2                	lw	s1,20(sp)
20011f16:	4942                	lw	s2,16(sp)
20011f18:	6105                	addi	sp,sp,32
20011f1a:	8082                	ret
20011f1c:	0074                	addi	a3,sp,12
20011f1e:	0030                	addi	a2,sp,8
20011f20:	892a                	mv	s2,a0
20011f22:	3f95                	jal	20011e96 <__swhatbuf_r>
20011f24:	45a2                	lw	a1,8(sp)
20011f26:	84aa                	mv	s1,a0
20011f28:	854a                	mv	a0,s2
20011f2a:	2275                	jal	200120d6 <_malloc_r>
20011f2c:	ed01                	bnez	a0,20011f44 <__smakebuf_r+0x54>
20011f2e:	00c41783          	lh	a5,12(s0)
20011f32:	2007f713          	andi	a4,a5,512
20011f36:	ff69                	bnez	a4,20011f10 <__smakebuf_r+0x20>
20011f38:	9bf1                	andi	a5,a5,-4
20011f3a:	0027e793          	ori	a5,a5,2
20011f3e:	00f41623          	sh	a5,12(s0)
20011f42:	b7c9                	j	20011f04 <__smakebuf_r+0x14>
20011f44:	00000797          	auipc	a5,0x0
20011f48:	d9478793          	addi	a5,a5,-620 # 20011cd8 <_cleanup_r>
20011f4c:	02f92423          	sw	a5,40(s2)
20011f50:	00c45783          	lhu	a5,12(s0)
20011f54:	c008                	sw	a0,0(s0)
20011f56:	c808                	sw	a0,16(s0)
20011f58:	0807e793          	ori	a5,a5,128
20011f5c:	00f41623          	sh	a5,12(s0)
20011f60:	47a2                	lw	a5,8(sp)
20011f62:	c85c                	sw	a5,20(s0)
20011f64:	47b2                	lw	a5,12(sp)
20011f66:	cf89                	beqz	a5,20011f80 <__smakebuf_r+0x90>
20011f68:	00e41583          	lh	a1,14(s0)
20011f6c:	854a                	mv	a0,s2
20011f6e:	26c1                	jal	2001232e <_isatty_r>
20011f70:	c901                	beqz	a0,20011f80 <__smakebuf_r+0x90>
20011f72:	00c45783          	lhu	a5,12(s0)
20011f76:	9bf1                	andi	a5,a5,-4
20011f78:	0017e793          	ori	a5,a5,1
20011f7c:	00f41623          	sh	a5,12(s0)
20011f80:	00c45503          	lhu	a0,12(s0)
20011f84:	8cc9                	or	s1,s1,a0
20011f86:	00941623          	sh	s1,12(s0)
20011f8a:	b759                	j	20011f10 <__smakebuf_r+0x20>

20011f8c <memset>:
memset():
20011f8c:	433d                	li	t1,15
20011f8e:	872a                	mv	a4,a0
20011f90:	02c37363          	bgeu	t1,a2,20011fb6 <memset+0x2a>
20011f94:	00f77793          	andi	a5,a4,15
20011f98:	efbd                	bnez	a5,20012016 <memset+0x8a>
20011f9a:	e5ad                	bnez	a1,20012004 <memset+0x78>
20011f9c:	ff067693          	andi	a3,a2,-16
20011fa0:	8a3d                	andi	a2,a2,15
20011fa2:	96ba                	add	a3,a3,a4
20011fa4:	c30c                	sw	a1,0(a4)
20011fa6:	c34c                	sw	a1,4(a4)
20011fa8:	c70c                	sw	a1,8(a4)
20011faa:	c74c                	sw	a1,12(a4)
20011fac:	0741                	addi	a4,a4,16
20011fae:	fed76be3          	bltu	a4,a3,20011fa4 <memset+0x18>
20011fb2:	e211                	bnez	a2,20011fb6 <memset+0x2a>
20011fb4:	8082                	ret
20011fb6:	40c306b3          	sub	a3,t1,a2
20011fba:	068a                	slli	a3,a3,0x2
20011fbc:	00000297          	auipc	t0,0x0
20011fc0:	9696                	add	a3,a3,t0
20011fc2:	00a68067          	jr	10(a3) # 100a <__heap_size+0x80a>
20011fc6:	00b70723          	sb	a1,14(a4) # ffffe00e <metal_segment_heap_target_end+0x7fffc86e>
20011fca:	00b706a3          	sb	a1,13(a4)
20011fce:	00b70623          	sb	a1,12(a4)
20011fd2:	00b705a3          	sb	a1,11(a4)
20011fd6:	00b70523          	sb	a1,10(a4)
20011fda:	00b704a3          	sb	a1,9(a4)
20011fde:	00b70423          	sb	a1,8(a4)
20011fe2:	00b703a3          	sb	a1,7(a4)
20011fe6:	00b70323          	sb	a1,6(a4)
20011fea:	00b702a3          	sb	a1,5(a4)
20011fee:	00b70223          	sb	a1,4(a4)
20011ff2:	00b701a3          	sb	a1,3(a4)
20011ff6:	00b70123          	sb	a1,2(a4)
20011ffa:	00b700a3          	sb	a1,1(a4)
20011ffe:	00b70023          	sb	a1,0(a4)
20012002:	8082                	ret
20012004:	0ff5f593          	zext.b	a1,a1
20012008:	00859693          	slli	a3,a1,0x8
2001200c:	8dd5                	or	a1,a1,a3
2001200e:	01059693          	slli	a3,a1,0x10
20012012:	8dd5                	or	a1,a1,a3
20012014:	b761                	j	20011f9c <memset+0x10>
20012016:	00279693          	slli	a3,a5,0x2
2001201a:	00000297          	auipc	t0,0x0
2001201e:	9696                	add	a3,a3,t0
20012020:	8286                	mv	t0,ra
20012022:	fa8680e7          	jalr	-88(a3)
20012026:	8096                	mv	ra,t0
20012028:	17c1                	addi	a5,a5,-16
2001202a:	8f1d                	sub	a4,a4,a5
2001202c:	963e                	add	a2,a2,a5
2001202e:	f8c374e3          	bgeu	t1,a2,20011fb6 <memset+0x2a>
20012032:	b7a5                	j	20011f9a <memset+0xe>

20012034 <_free_r>:
_free_r():
20012034:	c1c5                	beqz	a1,200120d4 <_free_r+0xa0>
20012036:	ffc5a783          	lw	a5,-4(a1)
2001203a:	1101                	addi	sp,sp,-32
2001203c:	cc22                	sw	s0,24(sp)
2001203e:	ce06                	sw	ra,28(sp)
20012040:	ffc58413          	addi	s0,a1,-4
20012044:	0007d363          	bgez	a5,2001204a <_free_r+0x16>
20012048:	943e                	add	s0,s0,a5
2001204a:	c62a                	sw	a0,12(sp)
2001204c:	2699                	jal	20012392 <__malloc_lock>
2001204e:	5ffef717          	auipc	a4,0x5ffef
20012052:	a9270713          	addi	a4,a4,-1390 # 80000ae0 <__malloc_free_list>
20012056:	431c                	lw	a5,0(a4)
20012058:	4532                	lw	a0,12(sp)
2001205a:	eb81                	bnez	a5,2001206a <_free_r+0x36>
2001205c:	00042223          	sw	zero,4(s0)
20012060:	c300                	sw	s0,0(a4)
20012062:	4462                	lw	s0,24(sp)
20012064:	40f2                	lw	ra,28(sp)
20012066:	6105                	addi	sp,sp,32
20012068:	a635                	j	20012394 <__malloc_unlock>
2001206a:	00f47d63          	bgeu	s0,a5,20012084 <_free_r+0x50>
2001206e:	4010                	lw	a2,0(s0)
20012070:	00c406b3          	add	a3,s0,a2
20012074:	00d79663          	bne	a5,a3,20012080 <_free_r+0x4c>
20012078:	4394                	lw	a3,0(a5)
2001207a:	43dc                	lw	a5,4(a5)
2001207c:	96b2                	add	a3,a3,a2
2001207e:	c014                	sw	a3,0(s0)
20012080:	c05c                	sw	a5,4(s0)
20012082:	bff9                	j	20012060 <_free_r+0x2c>
20012084:	873e                	mv	a4,a5
20012086:	43dc                	lw	a5,4(a5)
20012088:	c399                	beqz	a5,2001208e <_free_r+0x5a>
2001208a:	fef47de3          	bgeu	s0,a5,20012084 <_free_r+0x50>
2001208e:	4314                	lw	a3,0(a4)
20012090:	00d70633          	add	a2,a4,a3
20012094:	00861f63          	bne	a2,s0,200120b2 <_free_r+0x7e>
20012098:	4010                	lw	a2,0(s0)
2001209a:	96b2                	add	a3,a3,a2
2001209c:	c314                	sw	a3,0(a4)
2001209e:	00d70633          	add	a2,a4,a3
200120a2:	fcc790e3          	bne	a5,a2,20012062 <_free_r+0x2e>
200120a6:	4390                	lw	a2,0(a5)
200120a8:	43dc                	lw	a5,4(a5)
200120aa:	96b2                	add	a3,a3,a2
200120ac:	c314                	sw	a3,0(a4)
200120ae:	c35c                	sw	a5,4(a4)
200120b0:	bf4d                	j	20012062 <_free_r+0x2e>
200120b2:	00c47563          	bgeu	s0,a2,200120bc <_free_r+0x88>
200120b6:	47b1                	li	a5,12
200120b8:	c11c                	sw	a5,0(a0)
200120ba:	b765                	j	20012062 <_free_r+0x2e>
200120bc:	4010                	lw	a2,0(s0)
200120be:	00c406b3          	add	a3,s0,a2
200120c2:	00d79663          	bne	a5,a3,200120ce <_free_r+0x9a>
200120c6:	4394                	lw	a3,0(a5)
200120c8:	43dc                	lw	a5,4(a5)
200120ca:	96b2                	add	a3,a3,a2
200120cc:	c014                	sw	a3,0(s0)
200120ce:	c05c                	sw	a5,4(s0)
200120d0:	c340                	sw	s0,4(a4)
200120d2:	bf41                	j	20012062 <_free_r+0x2e>
200120d4:	8082                	ret

200120d6 <_malloc_r>:
_malloc_r():
200120d6:	1101                	addi	sp,sp,-32
200120d8:	ca26                	sw	s1,20(sp)
200120da:	00358493          	addi	s1,a1,3
200120de:	98f1                	andi	s1,s1,-4
200120e0:	c84a                	sw	s2,16(sp)
200120e2:	ce06                	sw	ra,28(sp)
200120e4:	cc22                	sw	s0,24(sp)
200120e6:	c64e                	sw	s3,12(sp)
200120e8:	04a1                	addi	s1,s1,8
200120ea:	47b1                	li	a5,12
200120ec:	892a                	mv	s2,a0
200120ee:	04f4f463          	bgeu	s1,a5,20012136 <_malloc_r+0x60>
200120f2:	44b1                	li	s1,12
200120f4:	04b4e363          	bltu	s1,a1,2001213a <_malloc_r+0x64>
200120f8:	854a                	mv	a0,s2
200120fa:	2c61                	jal	20012392 <__malloc_lock>
200120fc:	5ffef697          	auipc	a3,0x5ffef
20012100:	9e468693          	addi	a3,a3,-1564 # 80000ae0 <__malloc_free_list>
20012104:	4298                	lw	a4,0(a3)
20012106:	843a                	mv	s0,a4
20012108:	e421                	bnez	s0,20012150 <_malloc_r+0x7a>
2001210a:	5ffef417          	auipc	s0,0x5ffef
2001210e:	9da40413          	addi	s0,s0,-1574 # 80000ae4 <__malloc_sbrk_start>
20012112:	401c                	lw	a5,0(s0)
20012114:	e789                	bnez	a5,2001211e <_malloc_r+0x48>
20012116:	4581                	li	a1,0
20012118:	854a                	mv	a0,s2
2001211a:	2851                	jal	200121ae <_sbrk_r>
2001211c:	c008                	sw	a0,0(s0)
2001211e:	85a6                	mv	a1,s1
20012120:	854a                	mv	a0,s2
20012122:	2071                	jal	200121ae <_sbrk_r>
20012124:	59fd                	li	s3,-1
20012126:	07351863          	bne	a0,s3,20012196 <_malloc_r+0xc0>
2001212a:	47b1                	li	a5,12
2001212c:	00f92023          	sw	a5,0(s2)
20012130:	854a                	mv	a0,s2
20012132:	248d                	jal	20012394 <__malloc_unlock>
20012134:	a031                	j	20012140 <_malloc_r+0x6a>
20012136:	fa04dfe3          	bgez	s1,200120f4 <_malloc_r+0x1e>
2001213a:	47b1                	li	a5,12
2001213c:	00f92023          	sw	a5,0(s2)
20012140:	4501                	li	a0,0
20012142:	40f2                	lw	ra,28(sp)
20012144:	4462                	lw	s0,24(sp)
20012146:	44d2                	lw	s1,20(sp)
20012148:	4942                	lw	s2,16(sp)
2001214a:	49b2                	lw	s3,12(sp)
2001214c:	6105                	addi	sp,sp,32
2001214e:	8082                	ret
20012150:	401c                	lw	a5,0(s0)
20012152:	8f85                	sub	a5,a5,s1
20012154:	0207ce63          	bltz	a5,20012190 <_malloc_r+0xba>
20012158:	462d                	li	a2,11
2001215a:	00f67663          	bgeu	a2,a5,20012166 <_malloc_r+0x90>
2001215e:	c01c                	sw	a5,0(s0)
20012160:	943e                	add	s0,s0,a5
20012162:	c004                	sw	s1,0(s0)
20012164:	a029                	j	2001216e <_malloc_r+0x98>
20012166:	405c                	lw	a5,4(s0)
20012168:	02871263          	bne	a4,s0,2001218c <_malloc_r+0xb6>
2001216c:	c29c                	sw	a5,0(a3)
2001216e:	854a                	mv	a0,s2
20012170:	2415                	jal	20012394 <__malloc_unlock>
20012172:	00b40513          	addi	a0,s0,11
20012176:	00440793          	addi	a5,s0,4
2001217a:	9961                	andi	a0,a0,-8
2001217c:	40f50733          	sub	a4,a0,a5
20012180:	fcf501e3          	beq	a0,a5,20012142 <_malloc_r+0x6c>
20012184:	943a                	add	s0,s0,a4
20012186:	8f89                	sub	a5,a5,a0
20012188:	c01c                	sw	a5,0(s0)
2001218a:	bf65                	j	20012142 <_malloc_r+0x6c>
2001218c:	c35c                	sw	a5,4(a4)
2001218e:	b7c5                	j	2001216e <_malloc_r+0x98>
20012190:	8722                	mv	a4,s0
20012192:	4040                	lw	s0,4(s0)
20012194:	bf95                	j	20012108 <_malloc_r+0x32>
20012196:	00350413          	addi	s0,a0,3
2001219a:	9871                	andi	s0,s0,-4
2001219c:	fc8503e3          	beq	a0,s0,20012162 <_malloc_r+0x8c>
200121a0:	40a405b3          	sub	a1,s0,a0
200121a4:	854a                	mv	a0,s2
200121a6:	2021                	jal	200121ae <_sbrk_r>
200121a8:	fb351de3          	bne	a0,s3,20012162 <_malloc_r+0x8c>
200121ac:	bfbd                	j	2001212a <_malloc_r+0x54>

200121ae <_sbrk_r>:
_sbrk_r():
200121ae:	1141                	addi	sp,sp,-16
200121b0:	c422                	sw	s0,8(sp)
200121b2:	842a                	mv	s0,a0
200121b4:	852e                	mv	a0,a1
200121b6:	5ffef797          	auipc	a5,0x5ffef
200121ba:	9207a923          	sw	zero,-1742(a5) # 80000ae8 <errno>
200121be:	c606                	sw	ra,12(sp)
200121c0:	1b0050ef          	jal	ra,20017370 <_sbrk>
200121c4:	57fd                	li	a5,-1
200121c6:	00f51863          	bne	a0,a5,200121d6 <_sbrk_r+0x28>
200121ca:	5ffef797          	auipc	a5,0x5ffef
200121ce:	91e7a783          	lw	a5,-1762(a5) # 80000ae8 <errno>
200121d2:	c391                	beqz	a5,200121d6 <_sbrk_r+0x28>
200121d4:	c01c                	sw	a5,0(s0)
200121d6:	40b2                	lw	ra,12(sp)
200121d8:	4422                	lw	s0,8(sp)
200121da:	0141                	addi	sp,sp,16
200121dc:	8082                	ret

200121de <__sread>:
__sread():
200121de:	1141                	addi	sp,sp,-16
200121e0:	c422                	sw	s0,8(sp)
200121e2:	842e                	mv	s0,a1
200121e4:	00e59583          	lh	a1,14(a1)
200121e8:	c606                	sw	ra,12(sp)
200121ea:	2275                	jal	20012396 <_read_r>
200121ec:	00054963          	bltz	a0,200121fe <__sread+0x20>
200121f0:	487c                	lw	a5,84(s0)
200121f2:	97aa                	add	a5,a5,a0
200121f4:	c87c                	sw	a5,84(s0)
200121f6:	40b2                	lw	ra,12(sp)
200121f8:	4422                	lw	s0,8(sp)
200121fa:	0141                	addi	sp,sp,16
200121fc:	8082                	ret
200121fe:	00c45783          	lhu	a5,12(s0)
20012202:	777d                	lui	a4,0xfffff
20012204:	177d                	addi	a4,a4,-1
20012206:	8ff9                	and	a5,a5,a4
20012208:	00f41623          	sh	a5,12(s0)
2001220c:	b7ed                	j	200121f6 <__sread+0x18>

2001220e <__swrite>:
__swrite():
2001220e:	00c5d783          	lhu	a5,12(a1)
20012212:	1101                	addi	sp,sp,-32
20012214:	cc22                	sw	s0,24(sp)
20012216:	ca26                	sw	s1,20(sp)
20012218:	c84a                	sw	s2,16(sp)
2001221a:	c64e                	sw	s3,12(sp)
2001221c:	ce06                	sw	ra,28(sp)
2001221e:	1007f793          	andi	a5,a5,256
20012222:	84aa                	mv	s1,a0
20012224:	842e                	mv	s0,a1
20012226:	8932                	mv	s2,a2
20012228:	89b6                	mv	s3,a3
2001222a:	c791                	beqz	a5,20012236 <__swrite+0x28>
2001222c:	00e59583          	lh	a1,14(a1)
20012230:	4689                	li	a3,2
20012232:	4601                	li	a2,0
20012234:	222d                	jal	2001235e <_lseek_r>
20012236:	00c45783          	lhu	a5,12(s0)
2001223a:	777d                	lui	a4,0xfffff
2001223c:	177d                	addi	a4,a4,-1
2001223e:	8ff9                	and	a5,a5,a4
20012240:	00e41583          	lh	a1,14(s0)
20012244:	00f41623          	sh	a5,12(s0)
20012248:	4462                	lw	s0,24(sp)
2001224a:	40f2                	lw	ra,28(sp)
2001224c:	86ce                	mv	a3,s3
2001224e:	864a                	mv	a2,s2
20012250:	49b2                	lw	s3,12(sp)
20012252:	4942                	lw	s2,16(sp)
20012254:	8526                	mv	a0,s1
20012256:	44d2                	lw	s1,20(sp)
20012258:	6105                	addi	sp,sp,32
2001225a:	a83d                	j	20012298 <_write_r>

2001225c <__sseek>:
__sseek():
2001225c:	1141                	addi	sp,sp,-16
2001225e:	c422                	sw	s0,8(sp)
20012260:	842e                	mv	s0,a1
20012262:	00e59583          	lh	a1,14(a1)
20012266:	c606                	sw	ra,12(sp)
20012268:	28dd                	jal	2001235e <_lseek_r>
2001226a:	57fd                	li	a5,-1
2001226c:	00c45703          	lhu	a4,12(s0)
20012270:	00f51b63          	bne	a0,a5,20012286 <__sseek+0x2a>
20012274:	77fd                	lui	a5,0xfffff
20012276:	17fd                	addi	a5,a5,-1
20012278:	8ff9                	and	a5,a5,a4
2001227a:	00f41623          	sh	a5,12(s0)
2001227e:	40b2                	lw	ra,12(sp)
20012280:	4422                	lw	s0,8(sp)
20012282:	0141                	addi	sp,sp,16
20012284:	8082                	ret
20012286:	6785                	lui	a5,0x1
20012288:	8fd9                	or	a5,a5,a4
2001228a:	00f41623          	sh	a5,12(s0)
2001228e:	c868                	sw	a0,84(s0)
20012290:	b7fd                	j	2001227e <__sseek+0x22>

20012292 <__sclose>:
__sclose():
20012292:	00e59583          	lh	a1,14(a1)
20012296:	a81d                	j	200122cc <_close_r>

20012298 <_write_r>:
_write_r():
20012298:	1141                	addi	sp,sp,-16
2001229a:	c422                	sw	s0,8(sp)
2001229c:	842a                	mv	s0,a0
2001229e:	852e                	mv	a0,a1
200122a0:	85b2                	mv	a1,a2
200122a2:	8636                	mv	a2,a3
200122a4:	5ffef797          	auipc	a5,0x5ffef
200122a8:	8407a223          	sw	zero,-1980(a5) # 80000ae8 <errno>
200122ac:	c606                	sw	ra,12(sp)
200122ae:	12c050ef          	jal	ra,200173da <_write>
200122b2:	57fd                	li	a5,-1
200122b4:	00f51863          	bne	a0,a5,200122c4 <_write_r+0x2c>
200122b8:	5ffef797          	auipc	a5,0x5ffef
200122bc:	8307a783          	lw	a5,-2000(a5) # 80000ae8 <errno>
200122c0:	c391                	beqz	a5,200122c4 <_write_r+0x2c>
200122c2:	c01c                	sw	a5,0(s0)
200122c4:	40b2                	lw	ra,12(sp)
200122c6:	4422                	lw	s0,8(sp)
200122c8:	0141                	addi	sp,sp,16
200122ca:	8082                	ret

200122cc <_close_r>:
_close_r():
200122cc:	1141                	addi	sp,sp,-16
200122ce:	c422                	sw	s0,8(sp)
200122d0:	842a                	mv	s0,a0
200122d2:	852e                	mv	a0,a1
200122d4:	5ffef797          	auipc	a5,0x5ffef
200122d8:	8007aa23          	sw	zero,-2028(a5) # 80000ae8 <errno>
200122dc:	c606                	sw	ra,12(sp)
200122de:	7d7040ef          	jal	ra,200172b4 <_close>
200122e2:	57fd                	li	a5,-1
200122e4:	00f51863          	bne	a0,a5,200122f4 <_close_r+0x28>
200122e8:	5ffef797          	auipc	a5,0x5ffef
200122ec:	8007a783          	lw	a5,-2048(a5) # 80000ae8 <errno>
200122f0:	c391                	beqz	a5,200122f4 <_close_r+0x28>
200122f2:	c01c                	sw	a5,0(s0)
200122f4:	40b2                	lw	ra,12(sp)
200122f6:	4422                	lw	s0,8(sp)
200122f8:	0141                	addi	sp,sp,16
200122fa:	8082                	ret

200122fc <_fstat_r>:
_fstat_r():
200122fc:	1141                	addi	sp,sp,-16
200122fe:	c422                	sw	s0,8(sp)
20012300:	842a                	mv	s0,a0
20012302:	852e                	mv	a0,a1
20012304:	85b2                	mv	a1,a2
20012306:	5ffee797          	auipc	a5,0x5ffee
2001230a:	7e07a123          	sw	zero,2018(a5) # 80000ae8 <errno>
2001230e:	c606                	sw	ra,12(sp)
20012310:	7c7040ef          	jal	ra,200172d6 <_fstat>
20012314:	57fd                	li	a5,-1
20012316:	00f51863          	bne	a0,a5,20012326 <_fstat_r+0x2a>
2001231a:	5ffee797          	auipc	a5,0x5ffee
2001231e:	7ce7a783          	lw	a5,1998(a5) # 80000ae8 <errno>
20012322:	c391                	beqz	a5,20012326 <_fstat_r+0x2a>
20012324:	c01c                	sw	a5,0(s0)
20012326:	40b2                	lw	ra,12(sp)
20012328:	4422                	lw	s0,8(sp)
2001232a:	0141                	addi	sp,sp,16
2001232c:	8082                	ret

2001232e <_isatty_r>:
_isatty_r():
2001232e:	1141                	addi	sp,sp,-16
20012330:	c422                	sw	s0,8(sp)
20012332:	842a                	mv	s0,a0
20012334:	852e                	mv	a0,a1
20012336:	5ffee797          	auipc	a5,0x5ffee
2001233a:	7a07a923          	sw	zero,1970(a5) # 80000ae8 <errno>
2001233e:	c606                	sw	ra,12(sp)
20012340:	7bd040ef          	jal	ra,200172fc <_isatty>
20012344:	57fd                	li	a5,-1
20012346:	00f51863          	bne	a0,a5,20012356 <_isatty_r+0x28>
2001234a:	5ffee797          	auipc	a5,0x5ffee
2001234e:	79e7a783          	lw	a5,1950(a5) # 80000ae8 <errno>
20012352:	c391                	beqz	a5,20012356 <_isatty_r+0x28>
20012354:	c01c                	sw	a5,0(s0)
20012356:	40b2                	lw	ra,12(sp)
20012358:	4422                	lw	s0,8(sp)
2001235a:	0141                	addi	sp,sp,16
2001235c:	8082                	ret

2001235e <_lseek_r>:
_lseek_r():
2001235e:	1141                	addi	sp,sp,-16
20012360:	c422                	sw	s0,8(sp)
20012362:	842a                	mv	s0,a0
20012364:	852e                	mv	a0,a1
20012366:	85b2                	mv	a1,a2
20012368:	8636                	mv	a2,a3
2001236a:	5ffee797          	auipc	a5,0x5ffee
2001236e:	7607af23          	sw	zero,1918(a5) # 80000ae8 <errno>
20012372:	c606                	sw	ra,12(sp)
20012374:	7a9040ef          	jal	ra,2001731c <_lseek>
20012378:	57fd                	li	a5,-1
2001237a:	00f51863          	bne	a0,a5,2001238a <_lseek_r+0x2c>
2001237e:	5ffee797          	auipc	a5,0x5ffee
20012382:	76a7a783          	lw	a5,1898(a5) # 80000ae8 <errno>
20012386:	c391                	beqz	a5,2001238a <_lseek_r+0x2c>
20012388:	c01c                	sw	a5,0(s0)
2001238a:	40b2                	lw	ra,12(sp)
2001238c:	4422                	lw	s0,8(sp)
2001238e:	0141                	addi	sp,sp,16
20012390:	8082                	ret

20012392 <__malloc_lock>:
__malloc_lock():
20012392:	8082                	ret

20012394 <__malloc_unlock>:
__malloc_unlock():
20012394:	8082                	ret

20012396 <_read_r>:
_read_r():
20012396:	1141                	addi	sp,sp,-16
20012398:	c422                	sw	s0,8(sp)
2001239a:	842a                	mv	s0,a0
2001239c:	852e                	mv	a0,a1
2001239e:	85b2                	mv	a1,a2
200123a0:	8636                	mv	a2,a3
200123a2:	5ffee797          	auipc	a5,0x5ffee
200123a6:	7407a323          	sw	zero,1862(a5) # 80000ae8 <errno>
200123aa:	c606                	sw	ra,12(sp)
200123ac:	79b040ef          	jal	ra,20017346 <_read>
200123b0:	57fd                	li	a5,-1
200123b2:	00f51863          	bne	a0,a5,200123c2 <_read_r+0x2c>
200123b6:	5ffee797          	auipc	a5,0x5ffee
200123ba:	7327a783          	lw	a5,1842(a5) # 80000ae8 <errno>
200123be:	c391                	beqz	a5,200123c2 <_read_r+0x2c>
200123c0:	c01c                	sw	a5,0(s0)
200123c2:	40b2                	lw	ra,12(sp)
200123c4:	4422                	lw	s0,8(sp)
200123c6:	0141                	addi	sp,sp,16
200123c8:	8082                	ret

200123ca <metal_cpu_get_mtime>:
metal_cpu_get_mtime():
C:/Users/nandg/Desktop/Athena_Welcome_Demo/sifive_hifive1_revb_sifive_welcome/freedom-metal/metal/cpu.h:97
 * will be 0.
 *
 * @param cpu The CPU device handle
 * @return The value of mtime, or 0 if failure
 */
__inline__ unsigned long long metal_cpu_get_mtime(struct metal_cpu *cpu) {
200123ca:	1101                	addi	sp,sp,-32
200123cc:	ce06                	sw	ra,28(sp)
200123ce:	cc22                	sw	s0,24(sp)
200123d0:	1000                	addi	s0,sp,32
200123d2:	fea42623          	sw	a0,-20(s0)
C:/Users/nandg/Desktop/Athena_Welcome_Demo/sifive_hifive1_revb_sifive_welcome/freedom-metal/metal/cpu.h:98
    return cpu->vtable->mtime_get(cpu);
200123d6:	fec42783          	lw	a5,-20(s0)
200123da:	439c                	lw	a5,0(a5)
200123dc:	479c                	lw	a5,8(a5)
200123de:	fec42503          	lw	a0,-20(s0)
200123e2:	9782                	jalr	a5
200123e4:	872a                	mv	a4,a0
200123e6:	87ae                	mv	a5,a1
C:/Users/nandg/Desktop/Athena_Welcome_Demo/sifive_hifive1_revb_sifive_welcome/freedom-metal/metal/cpu.h:99
}
200123e8:	853a                	mv	a0,a4
200123ea:	85be                	mv	a1,a5
200123ec:	40f2                	lw	ra,28(sp)
200123ee:	4462                	lw	s0,24(sp)
200123f0:	6105                	addi	sp,sp,32
200123f2:	8082                	ret

200123f4 <metal_cpu_set_mtimecmp>:
metal_cpu_set_mtimecmp():
C:/Users/nandg/Desktop/Athena_Welcome_Demo/sifive_hifive1_revb_sifive_welcome/freedom-metal/metal/cpu.h:112
 * @param cpu The CPU device handle
 * @param time The value to set the compare register to
 * @return The value of mtimecmp or -1 if error
 */
__inline__ int metal_cpu_set_mtimecmp(struct metal_cpu *cpu,
                                      unsigned long long time) {
200123f4:	1101                	addi	sp,sp,-32
200123f6:	ce06                	sw	ra,28(sp)
200123f8:	cc22                	sw	s0,24(sp)
200123fa:	1000                	addi	s0,sp,32
200123fc:	fea42623          	sw	a0,-20(s0)
20012400:	feb42023          	sw	a1,-32(s0)
20012404:	fec42223          	sw	a2,-28(s0)
C:/Users/nandg/Desktop/Athena_Welcome_Demo/sifive_hifive1_revb_sifive_welcome/freedom-metal/metal/cpu.h:113
    return cpu->vtable->mtimecmp_set(cpu, time);
20012408:	fec42783          	lw	a5,-20(s0)
2001240c:	439c                	lw	a5,0(a5)
2001240e:	47dc                	lw	a5,12(a5)
20012410:	fe042583          	lw	a1,-32(s0)
20012414:	fe442603          	lw	a2,-28(s0)
20012418:	fec42503          	lw	a0,-20(s0)
2001241c:	9782                	jalr	a5
2001241e:	87aa                	mv	a5,a0
C:/Users/nandg/Desktop/Athena_Welcome_Demo/sifive_hifive1_revb_sifive_welcome/freedom-metal/metal/cpu.h:114
}
20012420:	853e                	mv	a0,a5
20012422:	40f2                	lw	ra,28(sp)
20012424:	4462                	lw	s0,24(sp)
20012426:	6105                	addi	sp,sp,32
20012428:	8082                	ret

2001242a <metal_cpu_timer_interrupt_controller>:
metal_cpu_timer_interrupt_controller():
C:/Users/nandg/Desktop/Athena_Welcome_Demo/sifive_hifive1_revb_sifive_welcome/freedom-metal/metal/cpu.h:126
 *
 * @param cpu The CPU device handle
 * @return A pointer to the timer interrupt handle
 */
__inline__ struct metal_interrupt *
metal_cpu_timer_interrupt_controller(struct metal_cpu *cpu) {
2001242a:	1101                	addi	sp,sp,-32
2001242c:	ce06                	sw	ra,28(sp)
2001242e:	cc22                	sw	s0,24(sp)
20012430:	1000                	addi	s0,sp,32
20012432:	fea42623          	sw	a0,-20(s0)
C:/Users/nandg/Desktop/Athena_Welcome_Demo/sifive_hifive1_revb_sifive_welcome/freedom-metal/metal/cpu.h:127
    return cpu->vtable->tmr_controller_interrupt(cpu);
20012436:	fec42783          	lw	a5,-20(s0)
2001243a:	439c                	lw	a5,0(a5)
2001243c:	4b9c                	lw	a5,16(a5)
2001243e:	fec42503          	lw	a0,-20(s0)
20012442:	9782                	jalr	a5
20012444:	87aa                	mv	a5,a0
C:/Users/nandg/Desktop/Athena_Welcome_Demo/sifive_hifive1_revb_sifive_welcome/freedom-metal/metal/cpu.h:128
}
20012446:	853e                	mv	a0,a5
20012448:	40f2                	lw	ra,28(sp)
2001244a:	4462                	lw	s0,24(sp)
2001244c:	6105                	addi	sp,sp,32
2001244e:	8082                	ret

20012450 <metal_cpu_timer_get_interrupt_id>:
metal_cpu_timer_get_interrupt_id():
C:/Users/nandg/Desktop/Athena_Welcome_Demo/sifive_hifive1_revb_sifive_welcome/freedom-metal/metal/cpu.h:137
 * Get the interrupt ID of the real-time clock interrupt
 *
 * @param cpu The CPU device handle
 * @return The timer interrupt ID
 */
__inline__ int metal_cpu_timer_get_interrupt_id(struct metal_cpu *cpu) {
20012450:	1101                	addi	sp,sp,-32
20012452:	ce06                	sw	ra,28(sp)
20012454:	cc22                	sw	s0,24(sp)
20012456:	1000                	addi	s0,sp,32
20012458:	fea42623          	sw	a0,-20(s0)
C:/Users/nandg/Desktop/Athena_Welcome_Demo/sifive_hifive1_revb_sifive_welcome/freedom-metal/metal/cpu.h:138
    return cpu->vtable->get_tmr_interrupt_id(cpu);
2001245c:	fec42783          	lw	a5,-20(s0)
20012460:	439c                	lw	a5,0(a5)
20012462:	4bdc                	lw	a5,20(a5)
20012464:	fec42503          	lw	a0,-20(s0)
20012468:	9782                	jalr	a5
2001246a:	87aa                	mv	a5,a0
C:/Users/nandg/Desktop/Athena_Welcome_Demo/sifive_hifive1_revb_sifive_welcome/freedom-metal/metal/cpu.h:139
}
2001246c:	853e                	mv	a0,a5
2001246e:	40f2                	lw	ra,28(sp)
20012470:	4462                	lw	s0,24(sp)
20012472:	6105                	addi	sp,sp,32
20012474:	8082                	ret

20012476 <metal_cpu_interrupt_controller>:
metal_cpu_interrupt_controller():
C:/Users/nandg/Desktop/Athena_Welcome_Demo/sifive_hifive1_revb_sifive_welcome/freedom-metal/metal/cpu.h:224
 *
 * @param cpu The CPU device handle
 * @return The handle for the CPU interrupt controller
 */
__inline__ struct metal_interrupt *
metal_cpu_interrupt_controller(struct metal_cpu *cpu) {
20012476:	1101                	addi	sp,sp,-32
20012478:	ce06                	sw	ra,28(sp)
2001247a:	cc22                	sw	s0,24(sp)
2001247c:	1000                	addi	s0,sp,32
2001247e:	fea42623          	sw	a0,-20(s0)
C:/Users/nandg/Desktop/Athena_Welcome_Demo/sifive_hifive1_revb_sifive_welcome/freedom-metal/metal/cpu.h:225
    return cpu->vtable->controller_interrupt(cpu);
20012482:	fec42783          	lw	a5,-20(s0)
20012486:	439c                	lw	a5,0(a5)
20012488:	57dc                	lw	a5,44(a5)
2001248a:	fec42503          	lw	a0,-20(s0)
2001248e:	9782                	jalr	a5
20012490:	87aa                	mv	a5,a0
C:/Users/nandg/Desktop/Athena_Welcome_Demo/sifive_hifive1_revb_sifive_welcome/freedom-metal/metal/cpu.h:226
}
20012492:	853e                	mv	a0,a5
20012494:	40f2                	lw	ra,28(sp)
20012496:	4462                	lw	s0,24(sp)
20012498:	6105                	addi	sp,sp,32
2001249a:	8082                	ret

2001249c <metal_cpu_get>:
metal_cpu_get():
C:/Users/nandg/Desktop/Athena_Welcome_Demo/sifive_hifive1_revb_sifive_welcome/freedom-metal/src/cpu.c:7
/* SPDX-License-Identifier: Apache-2.0 */

#include <metal/cpu.h>
#include <metal/machine.h>

struct metal_cpu *metal_cpu_get(unsigned int hartid) {
2001249c:	1101                	addi	sp,sp,-32
2001249e:	ce22                	sw	s0,28(sp)
200124a0:	1000                	addi	s0,sp,32
200124a2:	fea42623          	sw	a0,-20(s0)
C:/Users/nandg/Desktop/Athena_Welcome_Demo/sifive_hifive1_revb_sifive_welcome/freedom-metal/src/cpu.c:8
    if (hartid < __METAL_DT_MAX_HARTS) {
200124a6:	fec42783          	lw	a5,-20(s0)
200124aa:	eb99                	bnez	a5,200124c0 <metal_cpu_get+0x24>
C:/Users/nandg/Desktop/Athena_Welcome_Demo/sifive_hifive1_revb_sifive_welcome/freedom-metal/src/cpu.c:9
        return (struct metal_cpu *)__metal_cpu_table[hartid];
200124ac:	800017b7          	lui	a5,0x80001
200124b0:	fec42703          	lw	a4,-20(s0)
200124b4:	070a                	slli	a4,a4,0x2
200124b6:	ab478793          	addi	a5,a5,-1356 # 80000ab4 <metal_segment_heap_target_end+0xfffff314>
200124ba:	97ba                	add	a5,a5,a4
200124bc:	439c                	lw	a5,0(a5)
200124be:	a011                	j	200124c2 <metal_cpu_get+0x26>
C:/Users/nandg/Desktop/Athena_Welcome_Demo/sifive_hifive1_revb_sifive_welcome/freedom-metal/src/cpu.c:11
    }
    return NULL;
200124c0:	4781                	li	a5,0
C:/Users/nandg/Desktop/Athena_Welcome_Demo/sifive_hifive1_revb_sifive_welcome/freedom-metal/src/cpu.c:12
}
200124c2:	853e                	mv	a0,a5
200124c4:	4472                	lw	s0,28(sp)
200124c6:	6105                	addi	sp,sp,32
200124c8:	8082                	ret

200124ca <metal_cpu_get_current_hartid>:
metal_cpu_get_current_hartid():
C:/Users/nandg/Desktop/Athena_Welcome_Demo/sifive_hifive1_revb_sifive_welcome/freedom-metal/src/cpu.c:14

int metal_cpu_get_current_hartid() {
200124ca:	1101                	addi	sp,sp,-32
200124cc:	ce22                	sw	s0,28(sp)
200124ce:	1000                	addi	s0,sp,32
C:/Users/nandg/Desktop/Athena_Welcome_Demo/sifive_hifive1_revb_sifive_welcome/freedom-metal/src/cpu.c:17
#ifdef __riscv
    int mhartid;
    __asm__ volatile("csrr %0, mhartid" : "=r"(mhartid));
200124d0:	f14027f3          	csrr	a5,mhartid
200124d4:	fef42623          	sw	a5,-20(s0)
C:/Users/nandg/Desktop/Athena_Welcome_Demo/sifive_hifive1_revb_sifive_welcome/freedom-metal/src/cpu.c:18
    return mhartid;
200124d8:	fec42783          	lw	a5,-20(s0)
C:/Users/nandg/Desktop/Athena_Welcome_Demo/sifive_hifive1_revb_sifive_welcome/freedom-metal/src/cpu.c:20
#endif
}
200124dc:	853e                	mv	a0,a5
200124de:	4472                	lw	s0,28(sp)
200124e0:	6105                	addi	sp,sp,32
200124e2:	8082                	ret

200124e4 <metal_interrupt_init>:
metal_interrupt_init():
C:/Users/nandg/Desktop/Athena_Welcome_Demo/sifive_hifive1_revb_sifive_welcome/freedom-metal/metal/interrupt.h:130
 * before any interrupts are registered or enabled with the handler. It
 * is invalid to initialize an interrupt controller more than once.
 *
 * @param controller The handle for the interrupt controller
 */
__inline__ void metal_interrupt_init(struct metal_interrupt *controller) {
200124e4:	1101                	addi	sp,sp,-32
200124e6:	ce06                	sw	ra,28(sp)
200124e8:	cc22                	sw	s0,24(sp)
200124ea:	1000                	addi	s0,sp,32
200124ec:	fea42623          	sw	a0,-20(s0)
C:/Users/nandg/Desktop/Athena_Welcome_Demo/sifive_hifive1_revb_sifive_welcome/freedom-metal/metal/interrupt.h:131
    controller->vtable->interrupt_init(controller);
200124f0:	fec42783          	lw	a5,-20(s0)
200124f4:	439c                	lw	a5,0(a5)
200124f6:	439c                	lw	a5,0(a5)
200124f8:	fec42503          	lw	a0,-20(s0)
200124fc:	9782                	jalr	a5
C:/Users/nandg/Desktop/Athena_Welcome_Demo/sifive_hifive1_revb_sifive_welcome/freedom-metal/metal/interrupt.h:132
}
200124fe:	0001                	nop
20012500:	40f2                	lw	ra,28(sp)
20012502:	4462                	lw	s0,24(sp)
20012504:	6105                	addi	sp,sp,32
20012506:	8082                	ret

20012508 <metal_interrupt_register_handler>:
metal_interrupt_register_handler():
C:/Users/nandg/Desktop/Athena_Welcome_Demo/sifive_hifive1_revb_sifive_welcome/freedom-metal/metal/interrupt.h:240
 * @return 0 upon success
 */
__inline__ int
metal_interrupt_register_handler(struct metal_interrupt *controller, int id,
                                 metal_interrupt_handler_t handler,
                                 void *priv_data) {
20012508:	1101                	addi	sp,sp,-32
2001250a:	ce06                	sw	ra,28(sp)
2001250c:	cc22                	sw	s0,24(sp)
2001250e:	1000                	addi	s0,sp,32
20012510:	fea42623          	sw	a0,-20(s0)
20012514:	feb42423          	sw	a1,-24(s0)
20012518:	fec42223          	sw	a2,-28(s0)
2001251c:	fed42023          	sw	a3,-32(s0)
C:/Users/nandg/Desktop/Athena_Welcome_Demo/sifive_hifive1_revb_sifive_welcome/freedom-metal/metal/interrupt.h:241
    return controller->vtable->interrupt_register(controller, id, handler,
20012520:	fec42783          	lw	a5,-20(s0)
20012524:	439c                	lw	a5,0(a5)
20012526:	4fdc                	lw	a5,28(a5)
20012528:	fe042683          	lw	a3,-32(s0)
2001252c:	fe442603          	lw	a2,-28(s0)
20012530:	fe842583          	lw	a1,-24(s0)
20012534:	fec42503          	lw	a0,-20(s0)
20012538:	9782                	jalr	a5
2001253a:	87aa                	mv	a5,a0
C:/Users/nandg/Desktop/Athena_Welcome_Demo/sifive_hifive1_revb_sifive_welcome/freedom-metal/metal/interrupt.h:243
                                                  priv_data);
}
2001253c:	853e                	mv	a0,a5
2001253e:	40f2                	lw	ra,28(sp)
20012540:	4462                	lw	s0,24(sp)
20012542:	6105                	addi	sp,sp,32
20012544:	8082                	ret

20012546 <metal_interrupt_enable>:
metal_interrupt_enable():
C:/Users/nandg/Desktop/Athena_Welcome_Demo/sifive_hifive1_revb_sifive_welcome/freedom-metal/metal/interrupt.h:267
 * @param controller The handle for the interrupt controller
 * @param id The interrupt ID to enable
 * @return 0 upon success
 */
__inline__ int metal_interrupt_enable(struct metal_interrupt *controller,
                                      int id) {
20012546:	1101                	addi	sp,sp,-32
20012548:	ce06                	sw	ra,28(sp)
2001254a:	cc22                	sw	s0,24(sp)
2001254c:	1000                	addi	s0,sp,32
2001254e:	fea42623          	sw	a0,-20(s0)
20012552:	feb42423          	sw	a1,-24(s0)
C:/Users/nandg/Desktop/Athena_Welcome_Demo/sifive_hifive1_revb_sifive_welcome/freedom-metal/metal/interrupt.h:268
    return controller->vtable->interrupt_enable(controller, id);
20012556:	fec42783          	lw	a5,-20(s0)
2001255a:	439c                	lw	a5,0(a5)
2001255c:	53dc                	lw	a5,36(a5)
2001255e:	fe842583          	lw	a1,-24(s0)
20012562:	fec42503          	lw	a0,-20(s0)
20012566:	9782                	jalr	a5
20012568:	87aa                	mv	a5,a0
C:/Users/nandg/Desktop/Athena_Welcome_Demo/sifive_hifive1_revb_sifive_welcome/freedom-metal/metal/interrupt.h:269
}
2001256a:	853e                	mv	a0,a5
2001256c:	40f2                	lw	ra,28(sp)
2001256e:	4462                	lw	s0,24(sp)
20012570:	6105                	addi	sp,sp,32
20012572:	8082                	ret

20012574 <metal_interrupt_disable>:
metal_interrupt_disable():
C:/Users/nandg/Desktop/Athena_Welcome_Demo/sifive_hifive1_revb_sifive_welcome/freedom-metal/metal/interrupt.h:278
 * @param controller The handle for the interrupt controller
 * @param id The interrupt ID to disable
 * @return 0 upon success
 */
__inline__ int metal_interrupt_disable(struct metal_interrupt *controller,
                                       int id) {
20012574:	1101                	addi	sp,sp,-32
20012576:	ce06                	sw	ra,28(sp)
20012578:	cc22                	sw	s0,24(sp)
2001257a:	1000                	addi	s0,sp,32
2001257c:	fea42623          	sw	a0,-20(s0)
20012580:	feb42423          	sw	a1,-24(s0)
C:/Users/nandg/Desktop/Athena_Welcome_Demo/sifive_hifive1_revb_sifive_welcome/freedom-metal/metal/interrupt.h:279
    return controller->vtable->interrupt_disable(controller, id);
20012584:	fec42783          	lw	a5,-20(s0)
20012588:	439c                	lw	a5,0(a5)
2001258a:	579c                	lw	a5,40(a5)
2001258c:	fe842583          	lw	a1,-24(s0)
20012590:	fec42503          	lw	a0,-20(s0)
20012594:	9782                	jalr	a5
20012596:	87aa                	mv	a5,a0
C:/Users/nandg/Desktop/Athena_Welcome_Demo/sifive_hifive1_revb_sifive_welcome/freedom-metal/metal/interrupt.h:280
}
20012598:	853e                	mv	a0,a5
2001259a:	40f2                	lw	ra,28(sp)
2001259c:	4462                	lw	s0,24(sp)
2001259e:	6105                	addi	sp,sp,32
200125a0:	8082                	ret

200125a2 <metal_led_enable>:
metal_led_enable():
C:/Users/nandg/Desktop/Athena_Welcome_Demo/sifive_hifive1_revb_sifive_welcome/freedom-metal/metal/led.h:49

/*!
 * @brief Enable an LED
 * @param led The handle for the LED
 */
__inline__ void metal_led_enable(struct metal_led *led) {
200125a2:	1101                	addi	sp,sp,-32
200125a4:	ce06                	sw	ra,28(sp)
200125a6:	cc22                	sw	s0,24(sp)
200125a8:	1000                	addi	s0,sp,32
200125aa:	fea42623          	sw	a0,-20(s0)
C:/Users/nandg/Desktop/Athena_Welcome_Demo/sifive_hifive1_revb_sifive_welcome/freedom-metal/metal/led.h:50
    led->vtable->led_enable(led);
200125ae:	fec42783          	lw	a5,-20(s0)
200125b2:	439c                	lw	a5,0(a5)
200125b4:	43dc                	lw	a5,4(a5)
200125b6:	fec42503          	lw	a0,-20(s0)
200125ba:	9782                	jalr	a5
C:/Users/nandg/Desktop/Athena_Welcome_Demo/sifive_hifive1_revb_sifive_welcome/freedom-metal/metal/led.h:51
}
200125bc:	0001                	nop
200125be:	40f2                	lw	ra,28(sp)
200125c0:	4462                	lw	s0,24(sp)
200125c2:	6105                	addi	sp,sp,32
200125c4:	8082                	ret

200125c6 <metal_led_on>:
metal_led_on():
C:/Users/nandg/Desktop/Athena_Welcome_Demo/sifive_hifive1_revb_sifive_welcome/freedom-metal/metal/led.h:57

/*!
 * @brief Turn an LED on
 * @param led The handle for the LED
 */
__inline__ void metal_led_on(struct metal_led *led) {
200125c6:	1101                	addi	sp,sp,-32
200125c8:	ce06                	sw	ra,28(sp)
200125ca:	cc22                	sw	s0,24(sp)
200125cc:	1000                	addi	s0,sp,32
200125ce:	fea42623          	sw	a0,-20(s0)
C:/Users/nandg/Desktop/Athena_Welcome_Demo/sifive_hifive1_revb_sifive_welcome/freedom-metal/metal/led.h:58
    led->vtable->led_on(led);
200125d2:	fec42783          	lw	a5,-20(s0)
200125d6:	439c                	lw	a5,0(a5)
200125d8:	479c                	lw	a5,8(a5)
200125da:	fec42503          	lw	a0,-20(s0)
200125de:	9782                	jalr	a5
C:/Users/nandg/Desktop/Athena_Welcome_Demo/sifive_hifive1_revb_sifive_welcome/freedom-metal/metal/led.h:59
}
200125e0:	0001                	nop
200125e2:	40f2                	lw	ra,28(sp)
200125e4:	4462                	lw	s0,24(sp)
200125e6:	6105                	addi	sp,sp,32
200125e8:	8082                	ret

200125ea <metal_led_off>:
metal_led_off():
C:/Users/nandg/Desktop/Athena_Welcome_Demo/sifive_hifive1_revb_sifive_welcome/freedom-metal/metal/led.h:65

/*!
 * @brief Turn an LED off
 * @param led The handle for the LED
 */
__inline__ void metal_led_off(struct metal_led *led) {
200125ea:	1101                	addi	sp,sp,-32
200125ec:	ce06                	sw	ra,28(sp)
200125ee:	cc22                	sw	s0,24(sp)
200125f0:	1000                	addi	s0,sp,32
200125f2:	fea42623          	sw	a0,-20(s0)
C:/Users/nandg/Desktop/Athena_Welcome_Demo/sifive_hifive1_revb_sifive_welcome/freedom-metal/metal/led.h:66
    led->vtable->led_off(led);
200125f6:	fec42783          	lw	a5,-20(s0)
200125fa:	439c                	lw	a5,0(a5)
200125fc:	47dc                	lw	a5,12(a5)
200125fe:	fec42503          	lw	a0,-20(s0)
20012602:	9782                	jalr	a5
C:/Users/nandg/Desktop/Athena_Welcome_Demo/sifive_hifive1_revb_sifive_welcome/freedom-metal/metal/led.h:67
}
20012604:	0001                	nop
20012606:	40f2                	lw	ra,28(sp)
20012608:	4462                	lw	s0,24(sp)
2001260a:	6105                	addi	sp,sp,32
2001260c:	8082                	ret

2001260e <metal_led_get_rgb>:
metal_led_get_rgb():
C:/Users/nandg/Desktop/Athena_Welcome_Demo/sifive_hifive1_revb_sifive_welcome/freedom-metal/src/led.c:8

#include <metal/led.h>
#include <metal/machine.h>
#include <string.h>

struct metal_led *metal_led_get_rgb(char *label, char *color) {
2001260e:	7175                	addi	sp,sp,-144
20012610:	c706                	sw	ra,140(sp)
20012612:	c522                	sw	s0,136(sp)
20012614:	0900                	addi	s0,sp,144
20012616:	f6a42e23          	sw	a0,-132(s0)
2001261a:	f6b42c23          	sw	a1,-136(s0)
C:/Users/nandg/Desktop/Athena_Welcome_Demo/sifive_hifive1_revb_sifive_welcome/freedom-metal/src/led.c:13
    int i;
    struct metal_led *led;
    char led_label[100];

    if ((__METAL_DT_MAX_LEDS == 0) || (label == NULL) || (color == NULL)) {
2001261e:	f7c42783          	lw	a5,-132(s0)
20012622:	c781                	beqz	a5,2001262a <metal_led_get_rgb+0x1c>
C:/Users/nandg/Desktop/Athena_Welcome_Demo/sifive_hifive1_revb_sifive_welcome/freedom-metal/src/led.c:13 (discriminator 1)
20012624:	f7842783          	lw	a5,-136(s0)
20012628:	e399                	bnez	a5,2001262e <metal_led_get_rgb+0x20>
C:/Users/nandg/Desktop/Athena_Welcome_Demo/sifive_hifive1_revb_sifive_welcome/freedom-metal/src/led.c:14
        return NULL;
2001262a:	4781                	li	a5,0
2001262c:	a0bd                	j	2001269a <metal_led_get_rgb+0x8c>
C:/Users/nandg/Desktop/Athena_Welcome_Demo/sifive_hifive1_revb_sifive_welcome/freedom-metal/src/led.c:17
    }

    strcpy(led_label, label);
2001262e:	f8440793          	addi	a5,s0,-124
20012632:	f7c42583          	lw	a1,-132(s0)
20012636:	853e                	mv	a0,a5
20012638:	01a050ef          	jal	ra,20017652 <strcpy>
C:/Users/nandg/Desktop/Athena_Welcome_Demo/sifive_hifive1_revb_sifive_welcome/freedom-metal/src/led.c:18
    strcat(led_label, color);
2001263c:	f8440793          	addi	a5,s0,-124
20012640:	f7842583          	lw	a1,-136(s0)
20012644:	853e                	mv	a0,a5
20012646:	6d3040ef          	jal	ra,20017518 <strcat>
C:/Users/nandg/Desktop/Athena_Welcome_Demo/sifive_hifive1_revb_sifive_welcome/freedom-metal/src/led.c:19
    for (i = 0; i < __METAL_DT_MAX_LEDS; i++) {
2001264a:	fe042623          	sw	zero,-20(s0)
2001264e:	a081                	j	2001268e <metal_led_get_rgb+0x80>
C:/Users/nandg/Desktop/Athena_Welcome_Demo/sifive_hifive1_revb_sifive_welcome/freedom-metal/src/led.c:20
        led = (struct metal_led *)__metal_led_table[i];
20012650:	800007b7          	lui	a5,0x80000
20012654:	06078713          	addi	a4,a5,96 # 80000060 <metal_segment_heap_target_end+0xffffe8c0>
20012658:	fec42783          	lw	a5,-20(s0)
2001265c:	078a                	slli	a5,a5,0x2
2001265e:	97ba                	add	a5,a5,a4
20012660:	439c                	lw	a5,0(a5)
20012662:	fef42423          	sw	a5,-24(s0)
C:/Users/nandg/Desktop/Athena_Welcome_Demo/sifive_hifive1_revb_sifive_welcome/freedom-metal/src/led.c:21
        if (led->vtable->led_exist(led, led_label)) {
20012666:	fe842783          	lw	a5,-24(s0)
2001266a:	439c                	lw	a5,0(a5)
2001266c:	4398                	lw	a4,0(a5)
2001266e:	f8440793          	addi	a5,s0,-124
20012672:	85be                	mv	a1,a5
20012674:	fe842503          	lw	a0,-24(s0)
20012678:	9702                	jalr	a4
2001267a:	87aa                	mv	a5,a0
2001267c:	c781                	beqz	a5,20012684 <metal_led_get_rgb+0x76>
C:/Users/nandg/Desktop/Athena_Welcome_Demo/sifive_hifive1_revb_sifive_welcome/freedom-metal/src/led.c:22
            return led;
2001267e:	fe842783          	lw	a5,-24(s0)
20012682:	a821                	j	2001269a <metal_led_get_rgb+0x8c>
C:/Users/nandg/Desktop/Athena_Welcome_Demo/sifive_hifive1_revb_sifive_welcome/freedom-metal/src/led.c:19 (discriminator 2)
    for (i = 0; i < __METAL_DT_MAX_LEDS; i++) {
20012684:	fec42783          	lw	a5,-20(s0)
20012688:	0785                	addi	a5,a5,1
2001268a:	fef42623          	sw	a5,-20(s0)
C:/Users/nandg/Desktop/Athena_Welcome_Demo/sifive_hifive1_revb_sifive_welcome/freedom-metal/src/led.c:19 (discriminator 1)
2001268e:	fec42703          	lw	a4,-20(s0)
20012692:	4789                	li	a5,2
20012694:	fae7dee3          	bge	a5,a4,20012650 <metal_led_get_rgb+0x42>
C:/Users/nandg/Desktop/Athena_Welcome_Demo/sifive_hifive1_revb_sifive_welcome/freedom-metal/src/led.c:25
        }
    }
    return NULL;
20012698:	4781                	li	a5,0
C:/Users/nandg/Desktop/Athena_Welcome_Demo/sifive_hifive1_revb_sifive_welcome/freedom-metal/src/led.c:26 (discriminator 1)
}
2001269a:	853e                	mv	a0,a5
2001269c:	40ba                	lw	ra,140(sp)
2001269e:	442a                	lw	s0,136(sp)
200126a0:	6149                	addi	sp,sp,144
200126a2:	8082                	ret

200126a4 <__metal_driver_sifive_clint0_control_base>:
__metal_driver_sifive_clint0_control_base():
C:\Users\nandg\Desktop\Athena_Welcome_Demo\sifive_hifive1_revb_sifive_welcome\bsp\build\debug/./metal/machine.h:233
/* --------------------- fixed_factor_clock ------------ */


/* --------------------- sifive_clint0 ------------ */
static __inline__ unsigned long __metal_driver_sifive_clint0_control_base(struct metal_interrupt *controller)
{
200126a4:	1101                	addi	sp,sp,-32
200126a6:	ce22                	sw	s0,28(sp)
200126a8:	1000                	addi	s0,sp,32
200126aa:	fea42623          	sw	a0,-20(s0)
C:\Users\nandg\Desktop\Athena_Welcome_Demo\sifive_hifive1_revb_sifive_welcome\bsp\build\debug/./metal/machine.h:234
	if ((uintptr_t)controller == (uintptr_t)&__metal_dt_clint_2000000) {
200126ae:	fec42703          	lw	a4,-20(s0)
200126b2:	800017b7          	lui	a5,0x80001
200126b6:	ab878793          	addi	a5,a5,-1352 # 80000ab8 <metal_segment_heap_target_end+0xfffff318>
200126ba:	00f71563          	bne	a4,a5,200126c4 <__metal_driver_sifive_clint0_control_base+0x20>
C:\Users\nandg\Desktop\Athena_Welcome_Demo\sifive_hifive1_revb_sifive_welcome\bsp\build\debug/./metal/machine.h:235
		return METAL_RISCV_CLINT0_2000000_BASE_ADDRESS;
200126be:	020007b7          	lui	a5,0x2000
200126c2:	a011                	j	200126c6 <__metal_driver_sifive_clint0_control_base+0x22>
C:\Users\nandg\Desktop\Athena_Welcome_Demo\sifive_hifive1_revb_sifive_welcome\bsp\build\debug/./metal/machine.h:238
	}
	else {
		return 0;
200126c4:	4781                	li	a5,0
C:\Users\nandg\Desktop\Athena_Welcome_Demo\sifive_hifive1_revb_sifive_welcome\bsp\build\debug/./metal/machine.h:240
	}
}
200126c6:	853e                	mv	a0,a5
200126c8:	4472                	lw	s0,28(sp)
200126ca:	6105                	addi	sp,sp,32
200126cc:	8082                	ret

200126ce <__metal_driver_sifive_clint0_num_interrupts>:
__metal_driver_sifive_clint0_num_interrupts():
C:\Users\nandg\Desktop\Athena_Welcome_Demo\sifive_hifive1_revb_sifive_welcome\bsp\build\debug/./metal/machine.h:253
		return 0;
	}
}

static __inline__ int __metal_driver_sifive_clint0_num_interrupts(struct metal_interrupt *controller)
{
200126ce:	1101                	addi	sp,sp,-32
200126d0:	ce22                	sw	s0,28(sp)
200126d2:	1000                	addi	s0,sp,32
200126d4:	fea42623          	sw	a0,-20(s0)
C:\Users\nandg\Desktop\Athena_Welcome_Demo\sifive_hifive1_revb_sifive_welcome\bsp\build\debug/./metal/machine.h:254
	if ((uintptr_t)controller == (uintptr_t)&__metal_dt_clint_2000000) {
200126d8:	fec42703          	lw	a4,-20(s0)
200126dc:	800017b7          	lui	a5,0x80001
200126e0:	ab878793          	addi	a5,a5,-1352 # 80000ab8 <metal_segment_heap_target_end+0xfffff318>
200126e4:	00f71463          	bne	a4,a5,200126ec <__metal_driver_sifive_clint0_num_interrupts+0x1e>
C:\Users\nandg\Desktop\Athena_Welcome_Demo\sifive_hifive1_revb_sifive_welcome\bsp\build\debug/./metal/machine.h:255
		return METAL_MAX_CLINT_INTERRUPTS;
200126e8:	4789                	li	a5,2
200126ea:	a011                	j	200126ee <__metal_driver_sifive_clint0_num_interrupts+0x20>
C:\Users\nandg\Desktop\Athena_Welcome_Demo\sifive_hifive1_revb_sifive_welcome\bsp\build\debug/./metal/machine.h:258
	}
	else {
		return 0;
200126ec:	4781                	li	a5,0
C:\Users\nandg\Desktop\Athena_Welcome_Demo\sifive_hifive1_revb_sifive_welcome\bsp\build\debug/./metal/machine.h:260
	}
}
200126ee:	853e                	mv	a0,a5
200126f0:	4472                	lw	s0,28(sp)
200126f2:	6105                	addi	sp,sp,32
200126f4:	8082                	ret

200126f6 <__metal_driver_sifive_clint0_interrupt_parents>:
__metal_driver_sifive_clint0_interrupt_parents():
C:\Users\nandg\Desktop\Athena_Welcome_Demo\sifive_hifive1_revb_sifive_welcome\bsp\build\debug/./metal/machine.h:263

static __inline__ struct metal_interrupt * __metal_driver_sifive_clint0_interrupt_parents(struct metal_interrupt *controller, int idx)
{
200126f6:	1101                	addi	sp,sp,-32
200126f8:	ce22                	sw	s0,28(sp)
200126fa:	1000                	addi	s0,sp,32
200126fc:	fea42623          	sw	a0,-20(s0)
20012700:	feb42423          	sw	a1,-24(s0)
C:\Users\nandg\Desktop\Athena_Welcome_Demo\sifive_hifive1_revb_sifive_welcome\bsp\build\debug/./metal/machine.h:264
	if (idx == 0) {
20012704:	fe842783          	lw	a5,-24(s0)
20012708:	e791                	bnez	a5,20012714 <__metal_driver_sifive_clint0_interrupt_parents+0x1e>
C:\Users\nandg\Desktop\Athena_Welcome_Demo\sifive_hifive1_revb_sifive_welcome\bsp\build\debug/./metal/machine.h:265
		return (struct metal_interrupt *)&__metal_dt_cpu_0_interrupt_controller.controller;
2001270a:	800007b7          	lui	a5,0x80000
2001270e:	0a078793          	addi	a5,a5,160 # 800000a0 <metal_segment_heap_target_end+0xffffe900>
20012712:	a821                	j	2001272a <__metal_driver_sifive_clint0_interrupt_parents+0x34>
C:\Users\nandg\Desktop\Athena_Welcome_Demo\sifive_hifive1_revb_sifive_welcome\bsp\build\debug/./metal/machine.h:267
	}
	else if (idx == 1) {
20012714:	fe842703          	lw	a4,-24(s0)
20012718:	4785                	li	a5,1
2001271a:	00f71763          	bne	a4,a5,20012728 <__metal_driver_sifive_clint0_interrupt_parents+0x32>
C:\Users\nandg\Desktop\Athena_Welcome_Demo\sifive_hifive1_revb_sifive_welcome\bsp\build\debug/./metal/machine.h:268
		return (struct metal_interrupt *)&__metal_dt_cpu_0_interrupt_controller.controller;
2001271e:	800007b7          	lui	a5,0x80000
20012722:	0a078793          	addi	a5,a5,160 # 800000a0 <metal_segment_heap_target_end+0xffffe900>
20012726:	a011                	j	2001272a <__metal_driver_sifive_clint0_interrupt_parents+0x34>
C:\Users\nandg\Desktop\Athena_Welcome_Demo\sifive_hifive1_revb_sifive_welcome\bsp\build\debug/./metal/machine.h:271
	}
	else {
		return NULL;
20012728:	4781                	li	a5,0
C:\Users\nandg\Desktop\Athena_Welcome_Demo\sifive_hifive1_revb_sifive_welcome\bsp\build\debug/./metal/machine.h:273
	}
}
2001272a:	853e                	mv	a0,a5
2001272c:	4472                	lw	s0,28(sp)
2001272e:	6105                	addi	sp,sp,32
20012730:	8082                	ret

20012732 <__metal_driver_sifive_clint0_interrupt_lines>:
__metal_driver_sifive_clint0_interrupt_lines():
C:\Users\nandg\Desktop\Athena_Welcome_Demo\sifive_hifive1_revb_sifive_welcome\bsp\build\debug/./metal/machine.h:276

static __inline__ int __metal_driver_sifive_clint0_interrupt_lines(struct metal_interrupt *controller, int idx)
{
20012732:	1101                	addi	sp,sp,-32
20012734:	ce22                	sw	s0,28(sp)
20012736:	1000                	addi	s0,sp,32
20012738:	fea42623          	sw	a0,-20(s0)
2001273c:	feb42423          	sw	a1,-24(s0)
C:\Users\nandg\Desktop\Athena_Welcome_Demo\sifive_hifive1_revb_sifive_welcome\bsp\build\debug/./metal/machine.h:277
	if (idx == 0) {
20012740:	fe842783          	lw	a5,-24(s0)
20012744:	e399                	bnez	a5,2001274a <__metal_driver_sifive_clint0_interrupt_lines+0x18>
C:\Users\nandg\Desktop\Athena_Welcome_Demo\sifive_hifive1_revb_sifive_welcome\bsp\build\debug/./metal/machine.h:278
		return 3;
20012746:	478d                	li	a5,3
20012748:	a809                	j	2001275a <__metal_driver_sifive_clint0_interrupt_lines+0x28>
C:\Users\nandg\Desktop\Athena_Welcome_Demo\sifive_hifive1_revb_sifive_welcome\bsp\build\debug/./metal/machine.h:280
	}
	else if (idx == 1) {
2001274a:	fe842703          	lw	a4,-24(s0)
2001274e:	4785                	li	a5,1
20012750:	00f71463          	bne	a4,a5,20012758 <__metal_driver_sifive_clint0_interrupt_lines+0x26>
C:\Users\nandg\Desktop\Athena_Welcome_Demo\sifive_hifive1_revb_sifive_welcome\bsp\build\debug/./metal/machine.h:281
		return 7;
20012754:	479d                	li	a5,7
20012756:	a011                	j	2001275a <__metal_driver_sifive_clint0_interrupt_lines+0x28>
C:\Users\nandg\Desktop\Athena_Welcome_Demo\sifive_hifive1_revb_sifive_welcome\bsp\build\debug/./metal/machine.h:284
	}
	else {
		return 0;
20012758:	4781                	li	a5,0
C:\Users\nandg\Desktop\Athena_Welcome_Demo\sifive_hifive1_revb_sifive_welcome\bsp\build\debug/./metal/machine.h:286
	}
}
2001275a:	853e                	mv	a0,a5
2001275c:	4472                	lw	s0,28(sp)
2001275e:	6105                	addi	sp,sp,32
20012760:	8082                	ret

20012762 <__metal_clint0_mtime_get>:
__metal_clint0_mtime_get():
C:/Users/nandg/Desktop/Athena_Welcome_Demo/sifive_hifive1_revb_sifive_welcome/freedom-metal/src/drivers/riscv_clint0.c:14
#include <metal/drivers/riscv_clint0.h>
#include <metal/io.h>
#include <metal/machine.h>

unsigned long long
__metal_clint0_mtime_get(struct __metal_driver_riscv_clint0 *clint) {
20012762:	715d                	addi	sp,sp,-80
20012764:	c686                	sw	ra,76(sp)
20012766:	c4a2                	sw	s0,72(sp)
20012768:	c2ca                	sw	s2,68(sp)
2001276a:	c0ce                	sw	s3,64(sp)
2001276c:	de52                	sw	s4,60(sp)
2001276e:	dc56                	sw	s5,56(sp)
20012770:	da5a                	sw	s6,52(sp)
20012772:	d85e                	sw	s7,48(sp)
20012774:	d662                	sw	s8,44(sp)
20012776:	d466                	sw	s9,40(sp)
20012778:	0880                	addi	s0,sp,80
2001277a:	faa42e23          	sw	a0,-68(s0)
C:/Users/nandg/Desktop/Athena_Welcome_Demo/sifive_hifive1_revb_sifive_welcome/freedom-metal/src/drivers/riscv_clint0.c:17
    __metal_io_u32 lo, hi;
    unsigned long control_base =
        __metal_driver_sifive_clint0_control_base(&clint->controller);
2001277e:	fbc42783          	lw	a5,-68(s0)
20012782:	853e                	mv	a0,a5
20012784:	3705                	jal	200126a4 <__metal_driver_sifive_clint0_control_base>
20012786:	fca42623          	sw	a0,-52(s0)
C:/Users/nandg/Desktop/Athena_Welcome_Demo/sifive_hifive1_revb_sifive_welcome/freedom-metal/src/drivers/riscv_clint0.c:21 (discriminator 1)

    /* Guard against rollover when reading */
    do {
        hi = __METAL_ACCESS_ONCE(
2001278a:	fcc42703          	lw	a4,-52(s0)
2001278e:	67b1                	lui	a5,0xc
20012790:	17f1                	addi	a5,a5,-4
20012792:	97ba                	add	a5,a5,a4
20012794:	439c                	lw	a5,0(a5)
20012796:	fcf42423          	sw	a5,-56(s0)
C:/Users/nandg/Desktop/Athena_Welcome_Demo/sifive_hifive1_revb_sifive_welcome/freedom-metal/src/drivers/riscv_clint0.c:23 (discriminator 1)
            (__metal_io_u32 *)(control_base + METAL_RISCV_CLINT0_MTIME + 4));
        lo = __METAL_ACCESS_ONCE(
2001279a:	fcc42703          	lw	a4,-52(s0)
2001279e:	67b1                	lui	a5,0xc
200127a0:	17e1                	addi	a5,a5,-8
200127a2:	97ba                	add	a5,a5,a4
200127a4:	439c                	lw	a5,0(a5)
200127a6:	fcf42223          	sw	a5,-60(s0)
C:/Users/nandg/Desktop/Athena_Welcome_Demo/sifive_hifive1_revb_sifive_welcome/freedom-metal/src/drivers/riscv_clint0.c:25 (discriminator 1)
            (__metal_io_u32 *)(control_base + METAL_RISCV_CLINT0_MTIME));
    } while (__METAL_ACCESS_ONCE((__metal_io_u32 *)(control_base +
200127aa:	fcc42703          	lw	a4,-52(s0)
200127ae:	67b1                	lui	a5,0xc
200127b0:	17f1                	addi	a5,a5,-4
200127b2:	97ba                	add	a5,a5,a4
200127b4:	439c                	lw	a5,0(a5)
200127b6:	fc842703          	lw	a4,-56(s0)
200127ba:	fcf718e3          	bne	a4,a5,2001278a <__metal_clint0_mtime_get+0x28>
C:/Users/nandg/Desktop/Athena_Welcome_Demo/sifive_hifive1_revb_sifive_welcome/freedom-metal/src/drivers/riscv_clint0.c:29
                                                    METAL_RISCV_CLINT0_MTIME +
                                                    4)) != hi);

    return (((unsigned long long)hi) << 32) | lo;
200127be:	fc842783          	lw	a5,-56(s0)
200127c2:	8c3e                	mv	s8,a5
200127c4:	4c81                	li	s9,0
200127c6:	000c1993          	slli	s3,s8,0x0
200127ca:	4901                	li	s2,0
200127cc:	fc442783          	lw	a5,-60(s0)
200127d0:	8a3e                	mv	s4,a5
200127d2:	4a81                	li	s5,0
200127d4:	01496b33          	or	s6,s2,s4
200127d8:	0159ebb3          	or	s7,s3,s5
200127dc:	875a                	mv	a4,s6
200127de:	87de                	mv	a5,s7
C:/Users/nandg/Desktop/Athena_Welcome_Demo/sifive_hifive1_revb_sifive_welcome/freedom-metal/src/drivers/riscv_clint0.c:30
}
200127e0:	853a                	mv	a0,a4
200127e2:	85be                	mv	a1,a5
200127e4:	40b6                	lw	ra,76(sp)
200127e6:	4426                	lw	s0,72(sp)
200127e8:	4916                	lw	s2,68(sp)
200127ea:	4986                	lw	s3,64(sp)
200127ec:	5a72                	lw	s4,60(sp)
200127ee:	5ae2                	lw	s5,56(sp)
200127f0:	5b52                	lw	s6,52(sp)
200127f2:	5bc2                	lw	s7,48(sp)
200127f4:	5c32                	lw	s8,44(sp)
200127f6:	5ca2                	lw	s9,40(sp)
200127f8:	6161                	addi	sp,sp,80
200127fa:	8082                	ret

200127fc <__metal_driver_riscv_clint0_mtimecmp_set>:
__metal_driver_riscv_clint0_mtimecmp_set():
C:/Users/nandg/Desktop/Athena_Welcome_Demo/sifive_hifive1_revb_sifive_welcome/freedom-metal/src/drivers/riscv_clint0.c:34

int __metal_driver_riscv_clint0_mtimecmp_set(struct metal_interrupt *controller,
                                             int hartid,
                                             unsigned long long time) {
200127fc:	7179                	addi	sp,sp,-48
200127fe:	d606                	sw	ra,44(sp)
20012800:	d422                	sw	s0,40(sp)
20012802:	d24a                	sw	s2,36(sp)
20012804:	d04e                	sw	s3,32(sp)
20012806:	1800                	addi	s0,sp,48
20012808:	fca42e23          	sw	a0,-36(s0)
2001280c:	fcb42c23          	sw	a1,-40(s0)
20012810:	fcc42823          	sw	a2,-48(s0)
20012814:	fcd42a23          	sw	a3,-44(s0)
C:/Users/nandg/Desktop/Athena_Welcome_Demo/sifive_hifive1_revb_sifive_welcome/freedom-metal/src/drivers/riscv_clint0.c:35
    struct __metal_driver_riscv_clint0 *clint =
20012818:	fdc42783          	lw	a5,-36(s0)
2001281c:	fef42623          	sw	a5,-20(s0)
C:/Users/nandg/Desktop/Athena_Welcome_Demo/sifive_hifive1_revb_sifive_welcome/freedom-metal/src/drivers/riscv_clint0.c:38
        (struct __metal_driver_riscv_clint0 *)(controller);
    unsigned long control_base =
        __metal_driver_sifive_clint0_control_base(&clint->controller);
20012820:	fec42783          	lw	a5,-20(s0)
20012824:	853e                	mv	a0,a5
20012826:	3dbd                	jal	200126a4 <__metal_driver_sifive_clint0_control_base>
20012828:	fea42423          	sw	a0,-24(s0)
C:/Users/nandg/Desktop/Athena_Welcome_Demo/sifive_hifive1_revb_sifive_welcome/freedom-metal/src/drivers/riscv_clint0.c:45
     * and are NOT internally latched for multiword transfers.
     * Need to be careful about sequencing to avoid triggering
     * spurious interrupts: For that set the high word to a max
     * value first.
     */
    __METAL_ACCESS_ONCE((__metal_io_u32 *)(control_base + (8 * hartid) +
2001282c:	fd842783          	lw	a5,-40(s0)
20012830:	078e                	slli	a5,a5,0x3
20012832:	873e                	mv	a4,a5
20012834:	fe842783          	lw	a5,-24(s0)
20012838:	973e                	add	a4,a4,a5
2001283a:	6791                	lui	a5,0x4
2001283c:	0791                	addi	a5,a5,4
2001283e:	97ba                	add	a5,a5,a4
20012840:	873e                	mv	a4,a5
C:/Users/nandg/Desktop/Athena_Welcome_Demo/sifive_hifive1_revb_sifive_welcome/freedom-metal/src/drivers/riscv_clint0.c:47
                                           METAL_RISCV_CLINT0_MTIMECMP_BASE +
                                           4)) = 0xFFFFFFFF;
20012842:	57fd                	li	a5,-1
20012844:	c31c                	sw	a5,0(a4)
C:/Users/nandg/Desktop/Athena_Welcome_Demo/sifive_hifive1_revb_sifive_welcome/freedom-metal/src/drivers/riscv_clint0.c:48
    __METAL_ACCESS_ONCE((__metal_io_u32 *)(control_base + (8 * hartid) +
20012846:	fd842783          	lw	a5,-40(s0)
2001284a:	078e                	slli	a5,a5,0x3
2001284c:	873e                	mv	a4,a5
2001284e:	fe842783          	lw	a5,-24(s0)
20012852:	973e                	add	a4,a4,a5
20012854:	6791                	lui	a5,0x4
20012856:	97ba                	add	a5,a5,a4
20012858:	873e                	mv	a4,a5
C:/Users/nandg/Desktop/Athena_Welcome_Demo/sifive_hifive1_revb_sifive_welcome/freedom-metal/src/drivers/riscv_clint0.c:50
                                           METAL_RISCV_CLINT0_MTIMECMP_BASE)) =
        (__metal_io_u32)time;
2001285a:	fd042783          	lw	a5,-48(s0)
C:/Users/nandg/Desktop/Athena_Welcome_Demo/sifive_hifive1_revb_sifive_welcome/freedom-metal/src/drivers/riscv_clint0.c:49
                                           METAL_RISCV_CLINT0_MTIMECMP_BASE)) =
2001285e:	c31c                	sw	a5,0(a4)
C:/Users/nandg/Desktop/Athena_Welcome_Demo/sifive_hifive1_revb_sifive_welcome/freedom-metal/src/drivers/riscv_clint0.c:53
    __METAL_ACCESS_ONCE((__metal_io_u32 *)(control_base + (8 * hartid) +
                                           METAL_RISCV_CLINT0_MTIMECMP_BASE +
                                           4)) = (__metal_io_u32)(time >> 32);
20012860:	fd442783          	lw	a5,-44(s0)
20012864:	0007d913          	srli	s2,a5,0x0
20012868:	4981                	li	s3,0
C:/Users/nandg/Desktop/Athena_Welcome_Demo/sifive_hifive1_revb_sifive_welcome/freedom-metal/src/drivers/riscv_clint0.c:51
    __METAL_ACCESS_ONCE((__metal_io_u32 *)(control_base + (8 * hartid) +
2001286a:	fd842783          	lw	a5,-40(s0)
2001286e:	078e                	slli	a5,a5,0x3
20012870:	873e                	mv	a4,a5
20012872:	fe842783          	lw	a5,-24(s0)
20012876:	973e                	add	a4,a4,a5
20012878:	6791                	lui	a5,0x4
2001287a:	0791                	addi	a5,a5,4
2001287c:	97ba                	add	a5,a5,a4
C:/Users/nandg/Desktop/Athena_Welcome_Demo/sifive_hifive1_revb_sifive_welcome/freedom-metal/src/drivers/riscv_clint0.c:53
                                           4)) = (__metal_io_u32)(time >> 32);
2001287e:	874a                	mv	a4,s2
20012880:	c398                	sw	a4,0(a5)
C:/Users/nandg/Desktop/Athena_Welcome_Demo/sifive_hifive1_revb_sifive_welcome/freedom-metal/src/drivers/riscv_clint0.c:54
    return 0;
20012882:	4781                	li	a5,0
C:/Users/nandg/Desktop/Athena_Welcome_Demo/sifive_hifive1_revb_sifive_welcome/freedom-metal/src/drivers/riscv_clint0.c:55
}
20012884:	853e                	mv	a0,a5
20012886:	50b2                	lw	ra,44(sp)
20012888:	5422                	lw	s0,40(sp)
2001288a:	5912                	lw	s2,36(sp)
2001288c:	5982                	lw	s3,32(sp)
2001288e:	6145                	addi	sp,sp,48
20012890:	8082                	ret

20012892 <_get_cpu_intc>:
_get_cpu_intc():
C:/Users/nandg/Desktop/Athena_Welcome_Demo/sifive_hifive1_revb_sifive_welcome/freedom-metal/src/drivers/riscv_clint0.c:57

static struct metal_interrupt *_get_cpu_intc() {
20012892:	1101                	addi	sp,sp,-32
20012894:	ce06                	sw	ra,28(sp)
20012896:	cc22                	sw	s0,24(sp)
20012898:	1000                	addi	s0,sp,32
C:/Users/nandg/Desktop/Athena_Welcome_Demo/sifive_hifive1_revb_sifive_welcome/freedom-metal/src/drivers/riscv_clint0.c:58
    int hartid = 0;
2001289a:	fe042623          	sw	zero,-20(s0)
C:/Users/nandg/Desktop/Athena_Welcome_Demo/sifive_hifive1_revb_sifive_welcome/freedom-metal/src/drivers/riscv_clint0.c:59
    __asm__ volatile("csrr %[hartid], mhartid"
2001289e:	f14027f3          	csrr	a5,mhartid
200128a2:	fef42623          	sw	a5,-20(s0)
C:/Users/nandg/Desktop/Athena_Welcome_Demo/sifive_hifive1_revb_sifive_welcome/freedom-metal/src/drivers/riscv_clint0.c:62
                     : [hartid] "=r"(hartid)::"memory");

    struct metal_cpu *cpu = metal_cpu_get(hartid);
200128a6:	fec42783          	lw	a5,-20(s0)
200128aa:	853e                	mv	a0,a5
200128ac:	3ec5                	jal	2001249c <metal_cpu_get>
200128ae:	fea42423          	sw	a0,-24(s0)
C:/Users/nandg/Desktop/Athena_Welcome_Demo/sifive_hifive1_revb_sifive_welcome/freedom-metal/src/drivers/riscv_clint0.c:64

    return metal_cpu_interrupt_controller(cpu);
200128b2:	fe842503          	lw	a0,-24(s0)
200128b6:	36c1                	jal	20012476 <metal_cpu_interrupt_controller>
200128b8:	87aa                	mv	a5,a0
C:/Users/nandg/Desktop/Athena_Welcome_Demo/sifive_hifive1_revb_sifive_welcome/freedom-metal/src/drivers/riscv_clint0.c:65
}
200128ba:	853e                	mv	a0,a5
200128bc:	40f2                	lw	ra,28(sp)
200128be:	4462                	lw	s0,24(sp)
200128c0:	6105                	addi	sp,sp,32
200128c2:	8082                	ret

200128c4 <__metal_driver_riscv_clint0_init>:
__metal_driver_riscv_clint0_init():
C:/Users/nandg/Desktop/Athena_Welcome_Demo/sifive_hifive1_revb_sifive_welcome/freedom-metal/src/drivers/riscv_clint0.c:67

void __metal_driver_riscv_clint0_init(struct metal_interrupt *controller) {
200128c4:	7139                	addi	sp,sp,-64
200128c6:	de06                	sw	ra,60(sp)
200128c8:	dc22                	sw	s0,56(sp)
200128ca:	0080                	addi	s0,sp,64
200128cc:	fca42623          	sw	a0,-52(s0)
C:/Users/nandg/Desktop/Athena_Welcome_Demo/sifive_hifive1_revb_sifive_welcome/freedom-metal/src/drivers/riscv_clint0.c:69
    int num_interrupts =
        __metal_driver_sifive_clint0_num_interrupts(controller);
200128d0:	fcc42503          	lw	a0,-52(s0)
200128d4:	3bed                	jal	200126ce <__metal_driver_sifive_clint0_num_interrupts>
200128d6:	fea42423          	sw	a0,-24(s0)
C:/Users/nandg/Desktop/Athena_Welcome_Demo/sifive_hifive1_revb_sifive_welcome/freedom-metal/src/drivers/riscv_clint0.c:70
    struct __metal_driver_riscv_clint0 *clint =
200128da:	fcc42783          	lw	a5,-52(s0)
200128de:	fef42223          	sw	a5,-28(s0)
C:/Users/nandg/Desktop/Athena_Welcome_Demo/sifive_hifive1_revb_sifive_welcome/freedom-metal/src/drivers/riscv_clint0.c:73
        (struct __metal_driver_riscv_clint0 *)(controller);

    if (!clint->init_done) {
200128e2:	fe442783          	lw	a5,-28(s0)
200128e6:	43dc                	lw	a5,4(a5)
200128e8:	efa9                	bnez	a5,20012942 <__metal_driver_riscv_clint0_init+0x7e>
C:/Users/nandg/Desktop/Athena_Welcome_Demo/sifive_hifive1_revb_sifive_welcome/freedom-metal/src/drivers/riscv_clint0.c:76
        /* Register its interrupts with with parent controller, aka sw and
         * timerto its default isr */
        for (int i = 0; i < num_interrupts; i++) {
200128ea:	fe042623          	sw	zero,-20(s0)
200128ee:	a081                	j	2001292e <__metal_driver_riscv_clint0_init+0x6a>
C:/Users/nandg/Desktop/Athena_Welcome_Demo/sifive_hifive1_revb_sifive_welcome/freedom-metal/src/drivers/riscv_clint0.c:78 (discriminator 3)
            struct metal_interrupt *intc =
                __metal_driver_sifive_clint0_interrupt_parents(controller, i);
200128f0:	fec42583          	lw	a1,-20(s0)
200128f4:	fcc42503          	lw	a0,-52(s0)
200128f8:	3bfd                	jal	200126f6 <__metal_driver_sifive_clint0_interrupt_parents>
200128fa:	fea42023          	sw	a0,-32(s0)
C:/Users/nandg/Desktop/Athena_Welcome_Demo/sifive_hifive1_revb_sifive_welcome/freedom-metal/src/drivers/riscv_clint0.c:80 (discriminator 3)
            int line =
                __metal_driver_sifive_clint0_interrupt_lines(controller, i);
200128fe:	fec42583          	lw	a1,-20(s0)
20012902:	fcc42503          	lw	a0,-52(s0)
20012906:	3535                	jal	20012732 <__metal_driver_sifive_clint0_interrupt_lines>
20012908:	fca42e23          	sw	a0,-36(s0)
C:/Users/nandg/Desktop/Athena_Welcome_Demo/sifive_hifive1_revb_sifive_welcome/freedom-metal/src/drivers/riscv_clint0.c:81 (discriminator 3)
            intc->vtable->interrupt_register(intc, line, NULL, controller);
2001290c:	fe042783          	lw	a5,-32(s0)
20012910:	439c                	lw	a5,0(a5)
20012912:	4fdc                	lw	a5,28(a5)
20012914:	fcc42683          	lw	a3,-52(s0)
20012918:	4601                	li	a2,0
2001291a:	fdc42583          	lw	a1,-36(s0)
2001291e:	fe042503          	lw	a0,-32(s0)
20012922:	9782                	jalr	a5
C:/Users/nandg/Desktop/Athena_Welcome_Demo/sifive_hifive1_revb_sifive_welcome/freedom-metal/src/drivers/riscv_clint0.c:76 (discriminator 3)
        for (int i = 0; i < num_interrupts; i++) {
20012924:	fec42783          	lw	a5,-20(s0)
20012928:	0785                	addi	a5,a5,1
2001292a:	fef42623          	sw	a5,-20(s0)
C:/Users/nandg/Desktop/Athena_Welcome_Demo/sifive_hifive1_revb_sifive_welcome/freedom-metal/src/drivers/riscv_clint0.c:76 (discriminator 1)
2001292e:	fec42703          	lw	a4,-20(s0)
20012932:	fe842783          	lw	a5,-24(s0)
20012936:	faf74de3          	blt	a4,a5,200128f0 <__metal_driver_riscv_clint0_init+0x2c>
C:/Users/nandg/Desktop/Athena_Welcome_Demo/sifive_hifive1_revb_sifive_welcome/freedom-metal/src/drivers/riscv_clint0.c:83
        }
        clint->init_done = 1;
2001293a:	fe442783          	lw	a5,-28(s0)
2001293e:	4705                	li	a4,1
20012940:	c3d8                	sw	a4,4(a5)
C:/Users/nandg/Desktop/Athena_Welcome_Demo/sifive_hifive1_revb_sifive_welcome/freedom-metal/src/drivers/riscv_clint0.c:85
    }
}
20012942:	0001                	nop
20012944:	50f2                	lw	ra,60(sp)
20012946:	5462                	lw	s0,56(sp)
20012948:	6121                	addi	sp,sp,64
2001294a:	8082                	ret

2001294c <__metal_driver_riscv_clint0_register>:
__metal_driver_riscv_clint0_register():
C:/Users/nandg/Desktop/Athena_Welcome_Demo/sifive_hifive1_revb_sifive_welcome/freedom-metal/src/drivers/riscv_clint0.c:89

int __metal_driver_riscv_clint0_register(struct metal_interrupt *controller,
                                         int id, metal_interrupt_handler_t isr,
                                         void *priv) {
2001294c:	7139                	addi	sp,sp,-64
2001294e:	de06                	sw	ra,60(sp)
20012950:	dc22                	sw	s0,56(sp)
20012952:	0080                	addi	s0,sp,64
20012954:	fca42623          	sw	a0,-52(s0)
20012958:	fcb42423          	sw	a1,-56(s0)
2001295c:	fcc42223          	sw	a2,-60(s0)
20012960:	fcd42023          	sw	a3,-64(s0)
C:/Users/nandg/Desktop/Athena_Welcome_Demo/sifive_hifive1_revb_sifive_welcome/freedom-metal/src/drivers/riscv_clint0.c:90
    int rc = -1;
20012964:	57fd                	li	a5,-1
20012966:	fef42623          	sw	a5,-20(s0)
C:/Users/nandg/Desktop/Athena_Welcome_Demo/sifive_hifive1_revb_sifive_welcome/freedom-metal/src/drivers/riscv_clint0.c:91
    metal_vector_mode mode = __metal_controller_interrupt_vector_mode();
2001296a:	470010ef          	jal	ra,20013dda <__metal_controller_interrupt_vector_mode>
2001296e:	fea42023          	sw	a0,-32(s0)
C:/Users/nandg/Desktop/Athena_Welcome_Demo/sifive_hifive1_revb_sifive_welcome/freedom-metal/src/drivers/riscv_clint0.c:92
    struct metal_interrupt *intc = NULL;
20012972:	fe042423          	sw	zero,-24(s0)
C:/Users/nandg/Desktop/Athena_Welcome_Demo/sifive_hifive1_revb_sifive_welcome/freedom-metal/src/drivers/riscv_clint0.c:93
    struct metal_interrupt *cpu_intc = _get_cpu_intc();
20012976:	3f31                	jal	20012892 <_get_cpu_intc>
20012978:	fca42e23          	sw	a0,-36(s0)
C:/Users/nandg/Desktop/Athena_Welcome_Demo/sifive_hifive1_revb_sifive_welcome/freedom-metal/src/drivers/riscv_clint0.c:95
    int num_interrupts =
        __metal_driver_sifive_clint0_num_interrupts(controller);
2001297c:	fcc42503          	lw	a0,-52(s0)
20012980:	33b9                	jal	200126ce <__metal_driver_sifive_clint0_num_interrupts>
20012982:	fca42c23          	sw	a0,-40(s0)
C:/Users/nandg/Desktop/Athena_Welcome_Demo/sifive_hifive1_revb_sifive_welcome/freedom-metal/src/drivers/riscv_clint0.c:97

    if ((mode != METAL_VECTOR_MODE) && (mode != METAL_DIRECT_MODE)) {
20012986:	fe042703          	lw	a4,-32(s0)
2001298a:	4785                	li	a5,1
2001298c:	00f70863          	beq	a4,a5,2001299c <__metal_driver_riscv_clint0_register+0x50>
C:/Users/nandg/Desktop/Athena_Welcome_Demo/sifive_hifive1_revb_sifive_welcome/freedom-metal/src/drivers/riscv_clint0.c:97 (discriminator 1)
20012990:	fe042783          	lw	a5,-32(s0)
20012994:	c781                	beqz	a5,2001299c <__metal_driver_riscv_clint0_register+0x50>
C:/Users/nandg/Desktop/Athena_Welcome_Demo/sifive_hifive1_revb_sifive_welcome/freedom-metal/src/drivers/riscv_clint0.c:98
        return rc;
20012996:	fec42783          	lw	a5,-20(s0)
2001299a:	a049                	j	20012a1c <__metal_driver_riscv_clint0_register+0xd0>
C:/Users/nandg/Desktop/Athena_Welcome_Demo/sifive_hifive1_revb_sifive_welcome/freedom-metal/src/drivers/riscv_clint0.c:101
    }

    for (int i = 0; i < num_interrupts; i++) {
2001299c:	fe042223          	sw	zero,-28(s0)
200129a0:	a091                	j	200129e4 <__metal_driver_riscv_clint0_register+0x98>
C:/Users/nandg/Desktop/Athena_Welcome_Demo/sifive_hifive1_revb_sifive_welcome/freedom-metal/src/drivers/riscv_clint0.c:102
        int line = __metal_driver_sifive_clint0_interrupt_lines(controller, i);
200129a2:	fe442583          	lw	a1,-28(s0)
200129a6:	fcc42503          	lw	a0,-52(s0)
200129aa:	3361                	jal	20012732 <__metal_driver_sifive_clint0_interrupt_lines>
200129ac:	fca42a23          	sw	a0,-44(s0)
C:/Users/nandg/Desktop/Athena_Welcome_Demo/sifive_hifive1_revb_sifive_welcome/freedom-metal/src/drivers/riscv_clint0.c:103
        intc = __metal_driver_sifive_clint0_interrupt_parents(controller, i);
200129b0:	fe442583          	lw	a1,-28(s0)
200129b4:	fcc42503          	lw	a0,-52(s0)
200129b8:	3b3d                	jal	200126f6 <__metal_driver_sifive_clint0_interrupt_parents>
200129ba:	fea42423          	sw	a0,-24(s0)
C:/Users/nandg/Desktop/Athena_Welcome_Demo/sifive_hifive1_revb_sifive_welcome/freedom-metal/src/drivers/riscv_clint0.c:104
        if (cpu_intc == intc && id == line) {
200129be:	fdc42703          	lw	a4,-36(s0)
200129c2:	fe842783          	lw	a5,-24(s0)
200129c6:	00f71863          	bne	a4,a5,200129d6 <__metal_driver_riscv_clint0_register+0x8a>
C:/Users/nandg/Desktop/Athena_Welcome_Demo/sifive_hifive1_revb_sifive_welcome/freedom-metal/src/drivers/riscv_clint0.c:104 (discriminator 1)
200129ca:	fc842703          	lw	a4,-56(s0)
200129ce:	fd442783          	lw	a5,-44(s0)
200129d2:	02f70063          	beq	a4,a5,200129f2 <__metal_driver_riscv_clint0_register+0xa6>
C:/Users/nandg/Desktop/Athena_Welcome_Demo/sifive_hifive1_revb_sifive_welcome/freedom-metal/src/drivers/riscv_clint0.c:107 (discriminator 2)
            break;
        }
        intc = NULL;
200129d6:	fe042423          	sw	zero,-24(s0)
C:/Users/nandg/Desktop/Athena_Welcome_Demo/sifive_hifive1_revb_sifive_welcome/freedom-metal/src/drivers/riscv_clint0.c:101 (discriminator 2)
    for (int i = 0; i < num_interrupts; i++) {
200129da:	fe442783          	lw	a5,-28(s0)
200129de:	0785                	addi	a5,a5,1
200129e0:	fef42223          	sw	a5,-28(s0)
C:/Users/nandg/Desktop/Athena_Welcome_Demo/sifive_hifive1_revb_sifive_welcome/freedom-metal/src/drivers/riscv_clint0.c:101 (discriminator 1)
200129e4:	fe442703          	lw	a4,-28(s0)
200129e8:	fd842783          	lw	a5,-40(s0)
200129ec:	faf74be3          	blt	a4,a5,200129a2 <__metal_driver_riscv_clint0_register+0x56>
200129f0:	a011                	j	200129f4 <__metal_driver_riscv_clint0_register+0xa8>
C:/Users/nandg/Desktop/Athena_Welcome_Demo/sifive_hifive1_revb_sifive_welcome/freedom-metal/src/drivers/riscv_clint0.c:105
            break;
200129f2:	0001                	nop
C:/Users/nandg/Desktop/Athena_Welcome_Demo/sifive_hifive1_revb_sifive_welcome/freedom-metal/src/drivers/riscv_clint0.c:111
    }

    /* Register its interrupts with parent controller */
    if (intc) {
200129f4:	fe842783          	lw	a5,-24(s0)
200129f8:	c385                	beqz	a5,20012a18 <__metal_driver_riscv_clint0_register+0xcc>
C:/Users/nandg/Desktop/Athena_Welcome_Demo/sifive_hifive1_revb_sifive_welcome/freedom-metal/src/drivers/riscv_clint0.c:112
        rc = intc->vtable->interrupt_register(intc, id, isr, priv);
200129fa:	fe842783          	lw	a5,-24(s0)
200129fe:	439c                	lw	a5,0(a5)
20012a00:	4fdc                	lw	a5,28(a5)
20012a02:	fc042683          	lw	a3,-64(s0)
20012a06:	fc442603          	lw	a2,-60(s0)
20012a0a:	fc842583          	lw	a1,-56(s0)
20012a0e:	fe842503          	lw	a0,-24(s0)
20012a12:	9782                	jalr	a5
20012a14:	fea42623          	sw	a0,-20(s0)
C:/Users/nandg/Desktop/Athena_Welcome_Demo/sifive_hifive1_revb_sifive_welcome/freedom-metal/src/drivers/riscv_clint0.c:114
    }
    return rc;
20012a18:	fec42783          	lw	a5,-20(s0)
C:/Users/nandg/Desktop/Athena_Welcome_Demo/sifive_hifive1_revb_sifive_welcome/freedom-metal/src/drivers/riscv_clint0.c:115
}
20012a1c:	853e                	mv	a0,a5
20012a1e:	50f2                	lw	ra,60(sp)
20012a20:	5462                	lw	s0,56(sp)
20012a22:	6121                	addi	sp,sp,64
20012a24:	8082                	ret

20012a26 <__metal_driver_riscv_clint0_vector_register>:
__metal_driver_riscv_clint0_vector_register():
C:/Users/nandg/Desktop/Athena_Welcome_Demo/sifive_hifive1_revb_sifive_welcome/freedom-metal/src/drivers/riscv_clint0.c:119

int __metal_driver_riscv_clint0_vector_register(
    struct metal_interrupt *controller, int id,
    metal_interrupt_vector_handler_t isr, void *priv) {
20012a26:	7179                	addi	sp,sp,-48
20012a28:	d622                	sw	s0,44(sp)
20012a2a:	1800                	addi	s0,sp,48
20012a2c:	fca42e23          	sw	a0,-36(s0)
20012a30:	fcb42c23          	sw	a1,-40(s0)
20012a34:	fcc42a23          	sw	a2,-44(s0)
20012a38:	fcd42823          	sw	a3,-48(s0)
C:/Users/nandg/Desktop/Athena_Welcome_Demo/sifive_hifive1_revb_sifive_welcome/freedom-metal/src/drivers/riscv_clint0.c:121
    /* Not supported. User can override the 'weak' handler with their own */
    int rc = -1;
20012a3c:	57fd                	li	a5,-1
20012a3e:	fef42623          	sw	a5,-20(s0)
C:/Users/nandg/Desktop/Athena_Welcome_Demo/sifive_hifive1_revb_sifive_welcome/freedom-metal/src/drivers/riscv_clint0.c:122
    return rc;
20012a42:	fec42783          	lw	a5,-20(s0)
C:/Users/nandg/Desktop/Athena_Welcome_Demo/sifive_hifive1_revb_sifive_welcome/freedom-metal/src/drivers/riscv_clint0.c:123
}
20012a46:	853e                	mv	a0,a5
20012a48:	5432                	lw	s0,44(sp)
20012a4a:	6145                	addi	sp,sp,48
20012a4c:	8082                	ret

20012a4e <__metal_driver_riscv_clint0_get_vector_mode>:
__metal_driver_riscv_clint0_get_vector_mode():
C:/Users/nandg/Desktop/Athena_Welcome_Demo/sifive_hifive1_revb_sifive_welcome/freedom-metal/src/drivers/riscv_clint0.c:126

metal_vector_mode __metal_driver_riscv_clint0_get_vector_mode(
    struct metal_interrupt *controller) {
20012a4e:	1101                	addi	sp,sp,-32
20012a50:	ce06                	sw	ra,28(sp)
20012a52:	cc22                	sw	s0,24(sp)
20012a54:	1000                	addi	s0,sp,32
20012a56:	fea42623          	sw	a0,-20(s0)
C:/Users/nandg/Desktop/Athena_Welcome_Demo/sifive_hifive1_revb_sifive_welcome/freedom-metal/src/drivers/riscv_clint0.c:127
    return __metal_controller_interrupt_vector_mode();
20012a5a:	380010ef          	jal	ra,20013dda <__metal_controller_interrupt_vector_mode>
20012a5e:	87aa                	mv	a5,a0
C:/Users/nandg/Desktop/Athena_Welcome_Demo/sifive_hifive1_revb_sifive_welcome/freedom-metal/src/drivers/riscv_clint0.c:128
}
20012a60:	853e                	mv	a0,a5
20012a62:	40f2                	lw	ra,28(sp)
20012a64:	4462                	lw	s0,24(sp)
20012a66:	6105                	addi	sp,sp,32
20012a68:	8082                	ret

20012a6a <__metal_driver_riscv_clint0_set_vector_mode>:
__metal_driver_riscv_clint0_set_vector_mode():
C:/Users/nandg/Desktop/Athena_Welcome_Demo/sifive_hifive1_revb_sifive_welcome/freedom-metal/src/drivers/riscv_clint0.c:131

int __metal_driver_riscv_clint0_set_vector_mode(
    struct metal_interrupt *controller, metal_vector_mode mode) {
20012a6a:	7179                	addi	sp,sp,-48
20012a6c:	d606                	sw	ra,44(sp)
20012a6e:	d422                	sw	s0,40(sp)
20012a70:	1800                	addi	s0,sp,48
20012a72:	fca42e23          	sw	a0,-36(s0)
20012a76:	fcb42c23          	sw	a1,-40(s0)
C:/Users/nandg/Desktop/Athena_Welcome_Demo/sifive_hifive1_revb_sifive_welcome/freedom-metal/src/drivers/riscv_clint0.c:132
    int rc = -1;
20012a7a:	57fd                	li	a5,-1
20012a7c:	fef42623          	sw	a5,-20(s0)
C:/Users/nandg/Desktop/Athena_Welcome_Demo/sifive_hifive1_revb_sifive_welcome/freedom-metal/src/drivers/riscv_clint0.c:133
    struct metal_interrupt *intc = _get_cpu_intc();
20012a80:	3d09                	jal	20012892 <_get_cpu_intc>
20012a82:	fea42423          	sw	a0,-24(s0)
C:/Users/nandg/Desktop/Athena_Welcome_Demo/sifive_hifive1_revb_sifive_welcome/freedom-metal/src/drivers/riscv_clint0.c:135

    if (intc) {
20012a86:	fe842783          	lw	a5,-24(s0)
20012a8a:	c395                	beqz	a5,20012aae <__metal_driver_riscv_clint0_set_vector_mode+0x44>
C:/Users/nandg/Desktop/Athena_Welcome_Demo/sifive_hifive1_revb_sifive_welcome/freedom-metal/src/drivers/riscv_clint0.c:138
        /* Valid vector modes are VECTOR and DIRECT, anything else is invalid
         * (-1) */
        switch (mode) {
20012a8c:	fd842703          	lw	a4,-40(s0)
20012a90:	4785                	li	a5,1
20012a92:	02e7e063          	bltu	a5,a4,20012ab2 <__metal_driver_riscv_clint0_set_vector_mode+0x48>
C:/Users/nandg/Desktop/Athena_Welcome_Demo/sifive_hifive1_revb_sifive_welcome/freedom-metal/src/drivers/riscv_clint0.c:141
        case METAL_VECTOR_MODE:
        case METAL_DIRECT_MODE:
            rc = intc->vtable->interrupt_set_vector_mode(intc, mode);
20012a96:	fe842783          	lw	a5,-24(s0)
20012a9a:	439c                	lw	a5,0(a5)
20012a9c:	43dc                	lw	a5,4(a5)
20012a9e:	fd842583          	lw	a1,-40(s0)
20012aa2:	fe842503          	lw	a0,-24(s0)
20012aa6:	9782                	jalr	a5
20012aa8:	fea42623          	sw	a0,-20(s0)
C:/Users/nandg/Desktop/Athena_Welcome_Demo/sifive_hifive1_revb_sifive_welcome/freedom-metal/src/drivers/riscv_clint0.c:142
            break;
20012aac:	a021                	j	20012ab4 <__metal_driver_riscv_clint0_set_vector_mode+0x4a>
C:/Users/nandg/Desktop/Athena_Welcome_Demo/sifive_hifive1_revb_sifive_welcome/freedom-metal/src/drivers/riscv_clint0.c:146
        default:
            break;
        }
    }
20012aae:	0001                	nop
20012ab0:	a011                	j	20012ab4 <__metal_driver_riscv_clint0_set_vector_mode+0x4a>
C:/Users/nandg/Desktop/Athena_Welcome_Demo/sifive_hifive1_revb_sifive_welcome/freedom-metal/src/drivers/riscv_clint0.c:144
            break;
20012ab2:	0001                	nop
C:/Users/nandg/Desktop/Athena_Welcome_Demo/sifive_hifive1_revb_sifive_welcome/freedom-metal/src/drivers/riscv_clint0.c:147
    return rc;
20012ab4:	fec42783          	lw	a5,-20(s0)
C:/Users/nandg/Desktop/Athena_Welcome_Demo/sifive_hifive1_revb_sifive_welcome/freedom-metal/src/drivers/riscv_clint0.c:148
}
20012ab8:	853e                	mv	a0,a5
20012aba:	50b2                	lw	ra,44(sp)
20012abc:	5422                	lw	s0,40(sp)
20012abe:	6145                	addi	sp,sp,48
20012ac0:	8082                	ret

20012ac2 <__metal_driver_riscv_clint0_enable>:
__metal_driver_riscv_clint0_enable():
C:/Users/nandg/Desktop/Athena_Welcome_Demo/sifive_hifive1_revb_sifive_welcome/freedom-metal/src/drivers/riscv_clint0.c:151

int __metal_driver_riscv_clint0_enable(struct metal_interrupt *controller,
                                       int id) {
20012ac2:	7139                	addi	sp,sp,-64
20012ac4:	de06                	sw	ra,60(sp)
20012ac6:	dc22                	sw	s0,56(sp)
20012ac8:	0080                	addi	s0,sp,64
20012aca:	fca42623          	sw	a0,-52(s0)
20012ace:	fcb42423          	sw	a1,-56(s0)
C:/Users/nandg/Desktop/Athena_Welcome_Demo/sifive_hifive1_revb_sifive_welcome/freedom-metal/src/drivers/riscv_clint0.c:152
    int rc = -1;
20012ad2:	57fd                	li	a5,-1
20012ad4:	fef42623          	sw	a5,-20(s0)
C:/Users/nandg/Desktop/Athena_Welcome_Demo/sifive_hifive1_revb_sifive_welcome/freedom-metal/src/drivers/riscv_clint0.c:154

    if (id) {
20012ad8:	fc842783          	lw	a5,-56(s0)
20012adc:	c7c9                	beqz	a5,20012b66 <__metal_driver_riscv_clint0_enable+0xa4>
C:/Users/nandg/Desktop/Athena_Welcome_Demo/sifive_hifive1_revb_sifive_welcome/freedom-metal/src/drivers/riscv_clint0.c:155
        struct metal_interrupt *intc = NULL;
20012ade:	fe042423          	sw	zero,-24(s0)
C:/Users/nandg/Desktop/Athena_Welcome_Demo/sifive_hifive1_revb_sifive_welcome/freedom-metal/src/drivers/riscv_clint0.c:156
        struct metal_interrupt *cpu_intc = _get_cpu_intc();
20012ae2:	3b45                	jal	20012892 <_get_cpu_intc>
20012ae4:	fea42023          	sw	a0,-32(s0)
C:/Users/nandg/Desktop/Athena_Welcome_Demo/sifive_hifive1_revb_sifive_welcome/freedom-metal/src/drivers/riscv_clint0.c:158
        int num_interrupts =
            __metal_driver_sifive_clint0_num_interrupts(controller);
20012ae8:	fcc42503          	lw	a0,-52(s0)
20012aec:	36cd                	jal	200126ce <__metal_driver_sifive_clint0_num_interrupts>
20012aee:	fca42e23          	sw	a0,-36(s0)
C:/Users/nandg/Desktop/Athena_Welcome_Demo/sifive_hifive1_revb_sifive_welcome/freedom-metal/src/drivers/riscv_clint0.c:160

        for (int i = 0; i < num_interrupts; i++) {
20012af2:	fe042223          	sw	zero,-28(s0)
20012af6:	a091                	j	20012b3a <__metal_driver_riscv_clint0_enable+0x78>
C:/Users/nandg/Desktop/Athena_Welcome_Demo/sifive_hifive1_revb_sifive_welcome/freedom-metal/src/drivers/riscv_clint0.c:162
            int line =
                __metal_driver_sifive_clint0_interrupt_lines(controller, i);
20012af8:	fe442583          	lw	a1,-28(s0)
20012afc:	fcc42503          	lw	a0,-52(s0)
20012b00:	390d                	jal	20012732 <__metal_driver_sifive_clint0_interrupt_lines>
20012b02:	fca42c23          	sw	a0,-40(s0)
C:/Users/nandg/Desktop/Athena_Welcome_Demo/sifive_hifive1_revb_sifive_welcome/freedom-metal/src/drivers/riscv_clint0.c:164
            intc =
                __metal_driver_sifive_clint0_interrupt_parents(controller, i);
20012b06:	fe442583          	lw	a1,-28(s0)
20012b0a:	fcc42503          	lw	a0,-52(s0)
20012b0e:	36e5                	jal	200126f6 <__metal_driver_sifive_clint0_interrupt_parents>
20012b10:	fea42423          	sw	a0,-24(s0)
C:/Users/nandg/Desktop/Athena_Welcome_Demo/sifive_hifive1_revb_sifive_welcome/freedom-metal/src/drivers/riscv_clint0.c:165
            if (cpu_intc == intc && id == line) {
20012b14:	fe042703          	lw	a4,-32(s0)
20012b18:	fe842783          	lw	a5,-24(s0)
20012b1c:	00f71863          	bne	a4,a5,20012b2c <__metal_driver_riscv_clint0_enable+0x6a>
C:/Users/nandg/Desktop/Athena_Welcome_Demo/sifive_hifive1_revb_sifive_welcome/freedom-metal/src/drivers/riscv_clint0.c:165 (discriminator 1)
20012b20:	fc842703          	lw	a4,-56(s0)
20012b24:	fd842783          	lw	a5,-40(s0)
20012b28:	02f70063          	beq	a4,a5,20012b48 <__metal_driver_riscv_clint0_enable+0x86>
C:/Users/nandg/Desktop/Athena_Welcome_Demo/sifive_hifive1_revb_sifive_welcome/freedom-metal/src/drivers/riscv_clint0.c:168 (discriminator 2)
                break;
            }
            intc = NULL;
20012b2c:	fe042423          	sw	zero,-24(s0)
C:/Users/nandg/Desktop/Athena_Welcome_Demo/sifive_hifive1_revb_sifive_welcome/freedom-metal/src/drivers/riscv_clint0.c:160 (discriminator 2)
        for (int i = 0; i < num_interrupts; i++) {
20012b30:	fe442783          	lw	a5,-28(s0)
20012b34:	0785                	addi	a5,a5,1
20012b36:	fef42223          	sw	a5,-28(s0)
C:/Users/nandg/Desktop/Athena_Welcome_Demo/sifive_hifive1_revb_sifive_welcome/freedom-metal/src/drivers/riscv_clint0.c:160 (discriminator 1)
20012b3a:	fe442703          	lw	a4,-28(s0)
20012b3e:	fdc42783          	lw	a5,-36(s0)
20012b42:	faf74be3          	blt	a4,a5,20012af8 <__metal_driver_riscv_clint0_enable+0x36>
20012b46:	a011                	j	20012b4a <__metal_driver_riscv_clint0_enable+0x88>
C:/Users/nandg/Desktop/Athena_Welcome_Demo/sifive_hifive1_revb_sifive_welcome/freedom-metal/src/drivers/riscv_clint0.c:166
                break;
20012b48:	0001                	nop
C:/Users/nandg/Desktop/Athena_Welcome_Demo/sifive_hifive1_revb_sifive_welcome/freedom-metal/src/drivers/riscv_clint0.c:172
        }

        /* Enable its interrupts with parent controller */
        if (intc) {
20012b4a:	fe842783          	lw	a5,-24(s0)
20012b4e:	cf81                	beqz	a5,20012b66 <__metal_driver_riscv_clint0_enable+0xa4>
C:/Users/nandg/Desktop/Athena_Welcome_Demo/sifive_hifive1_revb_sifive_welcome/freedom-metal/src/drivers/riscv_clint0.c:173
            rc = intc->vtable->interrupt_enable(intc, id);
20012b50:	fe842783          	lw	a5,-24(s0)
20012b54:	439c                	lw	a5,0(a5)
20012b56:	53dc                	lw	a5,36(a5)
20012b58:	fc842583          	lw	a1,-56(s0)
20012b5c:	fe842503          	lw	a0,-24(s0)
20012b60:	9782                	jalr	a5
20012b62:	fea42623          	sw	a0,-20(s0)
C:/Users/nandg/Desktop/Athena_Welcome_Demo/sifive_hifive1_revb_sifive_welcome/freedom-metal/src/drivers/riscv_clint0.c:177
        }
    }

    return rc;
20012b66:	fec42783          	lw	a5,-20(s0)
C:/Users/nandg/Desktop/Athena_Welcome_Demo/sifive_hifive1_revb_sifive_welcome/freedom-metal/src/drivers/riscv_clint0.c:178
}
20012b6a:	853e                	mv	a0,a5
20012b6c:	50f2                	lw	ra,60(sp)
20012b6e:	5462                	lw	s0,56(sp)
20012b70:	6121                	addi	sp,sp,64
20012b72:	8082                	ret

20012b74 <__metal_driver_riscv_clint0_disable>:
__metal_driver_riscv_clint0_disable():
C:/Users/nandg/Desktop/Athena_Welcome_Demo/sifive_hifive1_revb_sifive_welcome/freedom-metal/src/drivers/riscv_clint0.c:181

int __metal_driver_riscv_clint0_disable(struct metal_interrupt *controller,
                                        int id) {
20012b74:	7139                	addi	sp,sp,-64
20012b76:	de06                	sw	ra,60(sp)
20012b78:	dc22                	sw	s0,56(sp)
20012b7a:	0080                	addi	s0,sp,64
20012b7c:	fca42623          	sw	a0,-52(s0)
20012b80:	fcb42423          	sw	a1,-56(s0)
C:/Users/nandg/Desktop/Athena_Welcome_Demo/sifive_hifive1_revb_sifive_welcome/freedom-metal/src/drivers/riscv_clint0.c:182
    int rc = -1;
20012b84:	57fd                	li	a5,-1
20012b86:	fef42623          	sw	a5,-20(s0)
C:/Users/nandg/Desktop/Athena_Welcome_Demo/sifive_hifive1_revb_sifive_welcome/freedom-metal/src/drivers/riscv_clint0.c:184

    if (id) {
20012b8a:	fc842783          	lw	a5,-56(s0)
20012b8e:	cbc1                	beqz	a5,20012c1e <__metal_driver_riscv_clint0_disable+0xaa>
C:/Users/nandg/Desktop/Athena_Welcome_Demo/sifive_hifive1_revb_sifive_welcome/freedom-metal/src/drivers/riscv_clint0.c:185
        struct metal_interrupt *intc = NULL;
20012b90:	fe042423          	sw	zero,-24(s0)
C:/Users/nandg/Desktop/Athena_Welcome_Demo/sifive_hifive1_revb_sifive_welcome/freedom-metal/src/drivers/riscv_clint0.c:186
        struct metal_interrupt *cpu_intc = _get_cpu_intc();
20012b94:	39fd                	jal	20012892 <_get_cpu_intc>
20012b96:	fea42023          	sw	a0,-32(s0)
C:/Users/nandg/Desktop/Athena_Welcome_Demo/sifive_hifive1_revb_sifive_welcome/freedom-metal/src/drivers/riscv_clint0.c:188
        int num_interrupts =
            __metal_driver_sifive_clint0_num_interrupts(controller);
20012b9a:	fcc42503          	lw	a0,-52(s0)
20012b9e:	b31ff0ef          	jal	ra,200126ce <__metal_driver_sifive_clint0_num_interrupts>
20012ba2:	fca42e23          	sw	a0,-36(s0)
C:/Users/nandg/Desktop/Athena_Welcome_Demo/sifive_hifive1_revb_sifive_welcome/freedom-metal/src/drivers/riscv_clint0.c:190

        for (int i = 0; i < num_interrupts; i++) {
20012ba6:	fe042223          	sw	zero,-28(s0)
20012baa:	a0a1                	j	20012bf2 <__metal_driver_riscv_clint0_disable+0x7e>
C:/Users/nandg/Desktop/Athena_Welcome_Demo/sifive_hifive1_revb_sifive_welcome/freedom-metal/src/drivers/riscv_clint0.c:192
            int line =
                __metal_driver_sifive_clint0_interrupt_lines(controller, i);
20012bac:	fe442583          	lw	a1,-28(s0)
20012bb0:	fcc42503          	lw	a0,-52(s0)
20012bb4:	b7fff0ef          	jal	ra,20012732 <__metal_driver_sifive_clint0_interrupt_lines>
20012bb8:	fca42c23          	sw	a0,-40(s0)
C:/Users/nandg/Desktop/Athena_Welcome_Demo/sifive_hifive1_revb_sifive_welcome/freedom-metal/src/drivers/riscv_clint0.c:194
            intc =
                __metal_driver_sifive_clint0_interrupt_parents(controller, i);
20012bbc:	fe442583          	lw	a1,-28(s0)
20012bc0:	fcc42503          	lw	a0,-52(s0)
20012bc4:	b33ff0ef          	jal	ra,200126f6 <__metal_driver_sifive_clint0_interrupt_parents>
20012bc8:	fea42423          	sw	a0,-24(s0)
C:/Users/nandg/Desktop/Athena_Welcome_Demo/sifive_hifive1_revb_sifive_welcome/freedom-metal/src/drivers/riscv_clint0.c:195
            if (cpu_intc == intc && id == line) {
20012bcc:	fe042703          	lw	a4,-32(s0)
20012bd0:	fe842783          	lw	a5,-24(s0)
20012bd4:	00f71863          	bne	a4,a5,20012be4 <__metal_driver_riscv_clint0_disable+0x70>
C:/Users/nandg/Desktop/Athena_Welcome_Demo/sifive_hifive1_revb_sifive_welcome/freedom-metal/src/drivers/riscv_clint0.c:195 (discriminator 1)
20012bd8:	fc842703          	lw	a4,-56(s0)
20012bdc:	fd842783          	lw	a5,-40(s0)
20012be0:	02f70063          	beq	a4,a5,20012c00 <__metal_driver_riscv_clint0_disable+0x8c>
C:/Users/nandg/Desktop/Athena_Welcome_Demo/sifive_hifive1_revb_sifive_welcome/freedom-metal/src/drivers/riscv_clint0.c:198 (discriminator 2)
                break;
            }
            intc = NULL;
20012be4:	fe042423          	sw	zero,-24(s0)
C:/Users/nandg/Desktop/Athena_Welcome_Demo/sifive_hifive1_revb_sifive_welcome/freedom-metal/src/drivers/riscv_clint0.c:190 (discriminator 2)
        for (int i = 0; i < num_interrupts; i++) {
20012be8:	fe442783          	lw	a5,-28(s0)
20012bec:	0785                	addi	a5,a5,1
20012bee:	fef42223          	sw	a5,-28(s0)
C:/Users/nandg/Desktop/Athena_Welcome_Demo/sifive_hifive1_revb_sifive_welcome/freedom-metal/src/drivers/riscv_clint0.c:190 (discriminator 1)
20012bf2:	fe442703          	lw	a4,-28(s0)
20012bf6:	fdc42783          	lw	a5,-36(s0)
20012bfa:	faf749e3          	blt	a4,a5,20012bac <__metal_driver_riscv_clint0_disable+0x38>
20012bfe:	a011                	j	20012c02 <__metal_driver_riscv_clint0_disable+0x8e>
C:/Users/nandg/Desktop/Athena_Welcome_Demo/sifive_hifive1_revb_sifive_welcome/freedom-metal/src/drivers/riscv_clint0.c:196
                break;
20012c00:	0001                	nop
C:/Users/nandg/Desktop/Athena_Welcome_Demo/sifive_hifive1_revb_sifive_welcome/freedom-metal/src/drivers/riscv_clint0.c:202
        }

        /* Disable its interrupts with parent controller */
        if (intc) {
20012c02:	fe842783          	lw	a5,-24(s0)
20012c06:	cf81                	beqz	a5,20012c1e <__metal_driver_riscv_clint0_disable+0xaa>
C:/Users/nandg/Desktop/Athena_Welcome_Demo/sifive_hifive1_revb_sifive_welcome/freedom-metal/src/drivers/riscv_clint0.c:203
            rc = intc->vtable->interrupt_disable(intc, id);
20012c08:	fe842783          	lw	a5,-24(s0)
20012c0c:	439c                	lw	a5,0(a5)
20012c0e:	579c                	lw	a5,40(a5)
20012c10:	fc842583          	lw	a1,-56(s0)
20012c14:	fe842503          	lw	a0,-24(s0)
20012c18:	9782                	jalr	a5
20012c1a:	fea42623          	sw	a0,-20(s0)
C:/Users/nandg/Desktop/Athena_Welcome_Demo/sifive_hifive1_revb_sifive_welcome/freedom-metal/src/drivers/riscv_clint0.c:207
        }
    }

    return rc;
20012c1e:	fec42783          	lw	a5,-20(s0)
C:/Users/nandg/Desktop/Athena_Welcome_Demo/sifive_hifive1_revb_sifive_welcome/freedom-metal/src/drivers/riscv_clint0.c:208
}
20012c22:	853e                	mv	a0,a5
20012c24:	50f2                	lw	ra,60(sp)
20012c26:	5462                	lw	s0,56(sp)
20012c28:	6121                	addi	sp,sp,64
20012c2a:	8082                	ret

20012c2c <__metal_driver_riscv_clint0_command_request>:
__metal_driver_riscv_clint0_command_request():
C:/Users/nandg/Desktop/Athena_Welcome_Demo/sifive_hifive1_revb_sifive_welcome/freedom-metal/src/drivers/riscv_clint0.c:211

int __metal_driver_riscv_clint0_command_request(
    struct metal_interrupt *controller, int command, void *data) {
20012c2c:	7179                	addi	sp,sp,-48
20012c2e:	d606                	sw	ra,44(sp)
20012c30:	d422                	sw	s0,40(sp)
20012c32:	1800                	addi	s0,sp,48
20012c34:	fca42e23          	sw	a0,-36(s0)
20012c38:	fcb42c23          	sw	a1,-40(s0)
20012c3c:	fcc42a23          	sw	a2,-44(s0)
C:/Users/nandg/Desktop/Athena_Welcome_Demo/sifive_hifive1_revb_sifive_welcome/freedom-metal/src/drivers/riscv_clint0.c:213
    int hartid;
    int rc = -1;
20012c40:	57fd                	li	a5,-1
20012c42:	fef42623          	sw	a5,-20(s0)
C:/Users/nandg/Desktop/Athena_Welcome_Demo/sifive_hifive1_revb_sifive_welcome/freedom-metal/src/drivers/riscv_clint0.c:214
    struct __metal_driver_riscv_clint0 *clint =
20012c46:	fdc42783          	lw	a5,-36(s0)
20012c4a:	fef42423          	sw	a5,-24(s0)
C:/Users/nandg/Desktop/Athena_Welcome_Demo/sifive_hifive1_revb_sifive_welcome/freedom-metal/src/drivers/riscv_clint0.c:217
        (struct __metal_driver_riscv_clint0 *)(controller);
    unsigned long control_base =
        __metal_driver_sifive_clint0_control_base(controller);
20012c4e:	fdc42503          	lw	a0,-36(s0)
20012c52:	a53ff0ef          	jal	ra,200126a4 <__metal_driver_sifive_clint0_control_base>
20012c56:	fea42223          	sw	a0,-28(s0)
C:/Users/nandg/Desktop/Athena_Welcome_Demo/sifive_hifive1_revb_sifive_welcome/freedom-metal/src/drivers/riscv_clint0.c:219

    switch (command) {
20012c5a:	fd842703          	lw	a4,-40(s0)
20012c5e:	4791                	li	a5,4
20012c60:	0cf70163          	beq	a4,a5,20012d22 <__metal_driver_riscv_clint0_command_request+0xf6>
20012c64:	fd842703          	lw	a4,-40(s0)
20012c68:	4791                	li	a5,4
20012c6a:	0ee7c163          	blt	a5,a4,20012d4c <__metal_driver_riscv_clint0_command_request+0x120>
20012c6e:	fd842703          	lw	a4,-40(s0)
20012c72:	478d                	li	a5,3
20012c74:	06f70663          	beq	a4,a5,20012ce0 <__metal_driver_riscv_clint0_command_request+0xb4>
20012c78:	fd842703          	lw	a4,-40(s0)
20012c7c:	478d                	li	a5,3
20012c7e:	0ce7c763          	blt	a5,a4,20012d4c <__metal_driver_riscv_clint0_command_request+0x120>
20012c82:	fd842703          	lw	a4,-40(s0)
20012c86:	4785                	li	a5,1
20012c88:	00f70863          	beq	a4,a5,20012c98 <__metal_driver_riscv_clint0_command_request+0x6c>
20012c8c:	fd842703          	lw	a4,-40(s0)
20012c90:	4789                	li	a5,2
20012c92:	02f70363          	beq	a4,a5,20012cb8 <__metal_driver_riscv_clint0_command_request+0x8c>
C:/Users/nandg/Desktop/Athena_Welcome_Demo/sifive_hifive1_revb_sifive_welcome/freedom-metal/src/drivers/riscv_clint0.c:263
            rc = __METAL_ACCESS_ONCE(
                (__metal_io_u32 *)(control_base + (hartid * 4)));
        }
        break;
    default:
        break;
20012c96:	a85d                	j	20012d4c <__metal_driver_riscv_clint0_command_request+0x120>
C:/Users/nandg/Desktop/Athena_Welcome_Demo/sifive_hifive1_revb_sifive_welcome/freedom-metal/src/drivers/riscv_clint0.c:221
        if (data) {
20012c98:	fd442783          	lw	a5,-44(s0)
20012c9c:	cbd5                	beqz	a5,20012d50 <__metal_driver_riscv_clint0_command_request+0x124>
C:/Users/nandg/Desktop/Athena_Welcome_Demo/sifive_hifive1_revb_sifive_welcome/freedom-metal/src/drivers/riscv_clint0.c:222
            *(unsigned long long *)data = __metal_clint0_mtime_get(clint);
20012c9e:	fe842503          	lw	a0,-24(s0)
20012ca2:	ac1ff0ef          	jal	ra,20012762 <__metal_clint0_mtime_get>
20012ca6:	872a                	mv	a4,a0
20012ca8:	87ae                	mv	a5,a1
20012caa:	fd442683          	lw	a3,-44(s0)
20012cae:	c298                	sw	a4,0(a3)
20012cb0:	c2dc                	sw	a5,4(a3)
C:/Users/nandg/Desktop/Athena_Welcome_Demo/sifive_hifive1_revb_sifive_welcome/freedom-metal/src/drivers/riscv_clint0.c:223
            rc = 0;
20012cb2:	fe042623          	sw	zero,-20(s0)
C:/Users/nandg/Desktop/Athena_Welcome_Demo/sifive_hifive1_revb_sifive_welcome/freedom-metal/src/drivers/riscv_clint0.c:225
        break;
20012cb6:	a869                	j	20012d50 <__metal_driver_riscv_clint0_command_request+0x124>
C:/Users/nandg/Desktop/Athena_Welcome_Demo/sifive_hifive1_revb_sifive_welcome/freedom-metal/src/drivers/riscv_clint0.c:227
        if (data) {
20012cb8:	fd442783          	lw	a5,-44(s0)
20012cbc:	cfc1                	beqz	a5,20012d54 <__metal_driver_riscv_clint0_command_request+0x128>
C:/Users/nandg/Desktop/Athena_Welcome_Demo/sifive_hifive1_revb_sifive_welcome/freedom-metal/src/drivers/riscv_clint0.c:228
            hartid = *(int *)data;
20012cbe:	fd442783          	lw	a5,-44(s0)
20012cc2:	439c                	lw	a5,0(a5)
20012cc4:	fef42023          	sw	a5,-32(s0)
C:/Users/nandg/Desktop/Athena_Welcome_Demo/sifive_hifive1_revb_sifive_welcome/freedom-metal/src/drivers/riscv_clint0.c:229
            __METAL_ACCESS_ONCE((
20012cc8:	fe042783          	lw	a5,-32(s0)
20012ccc:	078a                	slli	a5,a5,0x2
20012cce:	873e                	mv	a4,a5
20012cd0:	fe442783          	lw	a5,-28(s0)
20012cd4:	97ba                	add	a5,a5,a4
C:/Users/nandg/Desktop/Athena_Welcome_Demo/sifive_hifive1_revb_sifive_welcome/freedom-metal/src/drivers/riscv_clint0.c:230
                __metal_io_u32 *)(control_base + (hartid * 4))) = METAL_DISABLE;
20012cd6:	0007a023          	sw	zero,0(a5) # 4000 <__heap_size+0x3800>
C:/Users/nandg/Desktop/Athena_Welcome_Demo/sifive_hifive1_revb_sifive_welcome/freedom-metal/src/drivers/riscv_clint0.c:231
            rc = 0;
20012cda:	fe042623          	sw	zero,-20(s0)
C:/Users/nandg/Desktop/Athena_Welcome_Demo/sifive_hifive1_revb_sifive_welcome/freedom-metal/src/drivers/riscv_clint0.c:233
        break;
20012cde:	a89d                	j	20012d54 <__metal_driver_riscv_clint0_command_request+0x128>
C:/Users/nandg/Desktop/Athena_Welcome_Demo/sifive_hifive1_revb_sifive_welcome/freedom-metal/src/drivers/riscv_clint0.c:235
        if (data) {
20012ce0:	fd442783          	lw	a5,-44(s0)
20012ce4:	cbb5                	beqz	a5,20012d58 <__metal_driver_riscv_clint0_command_request+0x12c>
C:/Users/nandg/Desktop/Athena_Welcome_Demo/sifive_hifive1_revb_sifive_welcome/freedom-metal/src/drivers/riscv_clint0.c:236
            hartid = *(int *)data;
20012ce6:	fd442783          	lw	a5,-44(s0)
20012cea:	439c                	lw	a5,0(a5)
20012cec:	fef42023          	sw	a5,-32(s0)
C:/Users/nandg/Desktop/Athena_Welcome_Demo/sifive_hifive1_revb_sifive_welcome/freedom-metal/src/drivers/riscv_clint0.c:237
            __METAL_ACCESS_ONCE(
20012cf0:	fe042783          	lw	a5,-32(s0)
20012cf4:	078a                	slli	a5,a5,0x2
20012cf6:	873e                	mv	a4,a5
20012cf8:	fe442783          	lw	a5,-28(s0)
20012cfc:	97ba                	add	a5,a5,a4
20012cfe:	873e                	mv	a4,a5
C:/Users/nandg/Desktop/Athena_Welcome_Demo/sifive_hifive1_revb_sifive_welcome/freedom-metal/src/drivers/riscv_clint0.c:238
                (__metal_io_u32 *)(control_base + (hartid * 4))) = METAL_ENABLE;
20012d00:	4785                	li	a5,1
20012d02:	c31c                	sw	a5,0(a4)
C:/Users/nandg/Desktop/Athena_Welcome_Demo/sifive_hifive1_revb_sifive_welcome/freedom-metal/src/drivers/riscv_clint0.c:248
            __METAL_IO_FENCE(o, i);
20012d04:	0480000f          	fence	o,i
C:/Users/nandg/Desktop/Athena_Welcome_Demo/sifive_hifive1_revb_sifive_welcome/freedom-metal/src/drivers/riscv_clint0.c:249
            rc = __METAL_ACCESS_ONCE(
20012d08:	fe042783          	lw	a5,-32(s0)
20012d0c:	078a                	slli	a5,a5,0x2
20012d0e:	873e                	mv	a4,a5
20012d10:	fe442783          	lw	a5,-28(s0)
20012d14:	97ba                	add	a5,a5,a4
20012d16:	439c                	lw	a5,0(a5)
20012d18:	fef42623          	sw	a5,-20(s0)
C:/Users/nandg/Desktop/Athena_Welcome_Demo/sifive_hifive1_revb_sifive_welcome/freedom-metal/src/drivers/riscv_clint0.c:251
            rc = 0;
20012d1c:	fe042623          	sw	zero,-20(s0)
C:/Users/nandg/Desktop/Athena_Welcome_Demo/sifive_hifive1_revb_sifive_welcome/freedom-metal/src/drivers/riscv_clint0.c:253
        break;
20012d20:	a825                	j	20012d58 <__metal_driver_riscv_clint0_command_request+0x12c>
C:/Users/nandg/Desktop/Athena_Welcome_Demo/sifive_hifive1_revb_sifive_welcome/freedom-metal/src/drivers/riscv_clint0.c:255
        rc = 0;
20012d22:	fe042623          	sw	zero,-20(s0)
C:/Users/nandg/Desktop/Athena_Welcome_Demo/sifive_hifive1_revb_sifive_welcome/freedom-metal/src/drivers/riscv_clint0.c:256
        if (data) {
20012d26:	fd442783          	lw	a5,-44(s0)
20012d2a:	cb8d                	beqz	a5,20012d5c <__metal_driver_riscv_clint0_command_request+0x130>
C:/Users/nandg/Desktop/Athena_Welcome_Demo/sifive_hifive1_revb_sifive_welcome/freedom-metal/src/drivers/riscv_clint0.c:257
            hartid = *(int *)data;
20012d2c:	fd442783          	lw	a5,-44(s0)
20012d30:	439c                	lw	a5,0(a5)
20012d32:	fef42023          	sw	a5,-32(s0)
C:/Users/nandg/Desktop/Athena_Welcome_Demo/sifive_hifive1_revb_sifive_welcome/freedom-metal/src/drivers/riscv_clint0.c:258
            rc = __METAL_ACCESS_ONCE(
20012d36:	fe042783          	lw	a5,-32(s0)
20012d3a:	078a                	slli	a5,a5,0x2
20012d3c:	873e                	mv	a4,a5
20012d3e:	fe442783          	lw	a5,-28(s0)
20012d42:	97ba                	add	a5,a5,a4
20012d44:	439c                	lw	a5,0(a5)
20012d46:	fef42623          	sw	a5,-20(s0)
C:/Users/nandg/Desktop/Athena_Welcome_Demo/sifive_hifive1_revb_sifive_welcome/freedom-metal/src/drivers/riscv_clint0.c:261
        break;
20012d4a:	a809                	j	20012d5c <__metal_driver_riscv_clint0_command_request+0x130>
C:/Users/nandg/Desktop/Athena_Welcome_Demo/sifive_hifive1_revb_sifive_welcome/freedom-metal/src/drivers/riscv_clint0.c:263
        break;
20012d4c:	0001                	nop
20012d4e:	a801                	j	20012d5e <__metal_driver_riscv_clint0_command_request+0x132>
C:/Users/nandg/Desktop/Athena_Welcome_Demo/sifive_hifive1_revb_sifive_welcome/freedom-metal/src/drivers/riscv_clint0.c:225
        break;
20012d50:	0001                	nop
20012d52:	a031                	j	20012d5e <__metal_driver_riscv_clint0_command_request+0x132>
C:/Users/nandg/Desktop/Athena_Welcome_Demo/sifive_hifive1_revb_sifive_welcome/freedom-metal/src/drivers/riscv_clint0.c:233
        break;
20012d54:	0001                	nop
20012d56:	a021                	j	20012d5e <__metal_driver_riscv_clint0_command_request+0x132>
C:/Users/nandg/Desktop/Athena_Welcome_Demo/sifive_hifive1_revb_sifive_welcome/freedom-metal/src/drivers/riscv_clint0.c:253
        break;
20012d58:	0001                	nop
20012d5a:	a011                	j	20012d5e <__metal_driver_riscv_clint0_command_request+0x132>
C:/Users/nandg/Desktop/Athena_Welcome_Demo/sifive_hifive1_revb_sifive_welcome/freedom-metal/src/drivers/riscv_clint0.c:261
        break;
20012d5c:	0001                	nop
C:/Users/nandg/Desktop/Athena_Welcome_Demo/sifive_hifive1_revb_sifive_welcome/freedom-metal/src/drivers/riscv_clint0.c:266
    }

    return rc;
20012d5e:	fec42783          	lw	a5,-20(s0)
C:/Users/nandg/Desktop/Athena_Welcome_Demo/sifive_hifive1_revb_sifive_welcome/freedom-metal/src/drivers/riscv_clint0.c:267
}
20012d62:	853e                	mv	a0,a5
20012d64:	50b2                	lw	ra,44(sp)
20012d66:	5422                	lw	s0,40(sp)
20012d68:	6145                	addi	sp,sp,48
20012d6a:	8082                	ret

20012d6c <__metal_driver_riscv_clint0_clear_interrupt>:
__metal_driver_riscv_clint0_clear_interrupt():
C:/Users/nandg/Desktop/Athena_Welcome_Demo/sifive_hifive1_revb_sifive_welcome/freedom-metal/src/drivers/riscv_clint0.c:270

int __metal_driver_riscv_clint0_clear_interrupt(
    struct metal_interrupt *controller, int id) {
20012d6c:	7179                	addi	sp,sp,-48
20012d6e:	d606                	sw	ra,44(sp)
20012d70:	d422                	sw	s0,40(sp)
20012d72:	1800                	addi	s0,sp,48
20012d74:	fca42e23          	sw	a0,-36(s0)
20012d78:	fcb42c23          	sw	a1,-40(s0)
C:/Users/nandg/Desktop/Athena_Welcome_Demo/sifive_hifive1_revb_sifive_welcome/freedom-metal/src/drivers/riscv_clint0.c:271
    int hartid = metal_cpu_get_current_hartid();
20012d7c:	f4eff0ef          	jal	ra,200124ca <metal_cpu_get_current_hartid>
20012d80:	87aa                	mv	a5,a0
20012d82:	fef42623          	sw	a5,-20(s0)
C:/Users/nandg/Desktop/Athena_Welcome_Demo/sifive_hifive1_revb_sifive_welcome/freedom-metal/src/drivers/riscv_clint0.c:272
    return __metal_driver_riscv_clint0_command_request(
20012d86:	fec40793          	addi	a5,s0,-20
20012d8a:	863e                	mv	a2,a5
20012d8c:	4589                	li	a1,2
20012d8e:	fdc42503          	lw	a0,-36(s0)
20012d92:	3d69                	jal	20012c2c <__metal_driver_riscv_clint0_command_request>
20012d94:	87aa                	mv	a5,a0
C:/Users/nandg/Desktop/Athena_Welcome_Demo/sifive_hifive1_revb_sifive_welcome/freedom-metal/src/drivers/riscv_clint0.c:274
        controller, METAL_SOFTWARE_IPI_CLEAR, &hartid);
}
20012d96:	853e                	mv	a0,a5
20012d98:	50b2                	lw	ra,44(sp)
20012d9a:	5422                	lw	s0,40(sp)
20012d9c:	6145                	addi	sp,sp,48
20012d9e:	8082                	ret

20012da0 <__metal_driver_riscv_clint0_set_interrupt>:
__metal_driver_riscv_clint0_set_interrupt():
C:/Users/nandg/Desktop/Athena_Welcome_Demo/sifive_hifive1_revb_sifive_welcome/freedom-metal/src/drivers/riscv_clint0.c:277

int __metal_driver_riscv_clint0_set_interrupt(
    struct metal_interrupt *controller, int id) {
20012da0:	7179                	addi	sp,sp,-48
20012da2:	d606                	sw	ra,44(sp)
20012da4:	d422                	sw	s0,40(sp)
20012da6:	1800                	addi	s0,sp,48
20012da8:	fca42e23          	sw	a0,-36(s0)
20012dac:	fcb42c23          	sw	a1,-40(s0)
C:/Users/nandg/Desktop/Athena_Welcome_Demo/sifive_hifive1_revb_sifive_welcome/freedom-metal/src/drivers/riscv_clint0.c:278
    int hartid = metal_cpu_get_current_hartid();
20012db0:	f1aff0ef          	jal	ra,200124ca <metal_cpu_get_current_hartid>
20012db4:	87aa                	mv	a5,a0
20012db6:	fef42623          	sw	a5,-20(s0)
C:/Users/nandg/Desktop/Athena_Welcome_Demo/sifive_hifive1_revb_sifive_welcome/freedom-metal/src/drivers/riscv_clint0.c:279
    return __metal_driver_riscv_clint0_command_request(
20012dba:	fec40793          	addi	a5,s0,-20
20012dbe:	863e                	mv	a2,a5
20012dc0:	458d                	li	a1,3
20012dc2:	fdc42503          	lw	a0,-36(s0)
20012dc6:	359d                	jal	20012c2c <__metal_driver_riscv_clint0_command_request>
20012dc8:	87aa                	mv	a5,a0
C:/Users/nandg/Desktop/Athena_Welcome_Demo/sifive_hifive1_revb_sifive_welcome/freedom-metal/src/drivers/riscv_clint0.c:281
        controller, METAL_SOFTWARE_IPI_SET, &hartid);
}
20012dca:	853e                	mv	a0,a5
20012dcc:	50b2                	lw	ra,44(sp)
20012dce:	5422                	lw	s0,40(sp)
20012dd0:	6145                	addi	sp,sp,48
20012dd2:	8082                	ret

20012dd4 <__metal_driver_cpu_hartid>:
__metal_driver_cpu_hartid():
C:\Users\nandg\Desktop\Athena_Welcome_Demo\sifive_hifive1_revb_sifive_welcome\bsp\build\debug/./metal/machine.h:292



/* --------------------- cpu ------------ */
static __inline__ int __metal_driver_cpu_hartid(struct metal_cpu *cpu)
{
20012dd4:	1101                	addi	sp,sp,-32
20012dd6:	ce22                	sw	s0,28(sp)
20012dd8:	1000                	addi	s0,sp,32
20012dda:	fea42623          	sw	a0,-20(s0)
C:\Users\nandg\Desktop\Athena_Welcome_Demo\sifive_hifive1_revb_sifive_welcome\bsp\build\debug/./metal/machine.h:293
	if ((uintptr_t)cpu == (uintptr_t)&__metal_dt_cpu_0) {
20012dde:	fec42703          	lw	a4,-20(s0)
20012de2:	81018793          	addi	a5,gp,-2032 # 80000ac0 <__metal_dt_cpu_0>
20012de6:	00f71463          	bne	a4,a5,20012dee <__metal_driver_cpu_hartid+0x1a>
C:\Users\nandg\Desktop\Athena_Welcome_Demo\sifive_hifive1_revb_sifive_welcome\bsp\build\debug/./metal/machine.h:294
		return 0;
20012dea:	4781                	li	a5,0
20012dec:	a011                	j	20012df0 <__metal_driver_cpu_hartid+0x1c>
C:\Users\nandg\Desktop\Athena_Welcome_Demo\sifive_hifive1_revb_sifive_welcome\bsp\build\debug/./metal/machine.h:297
	}
	else {
		return -1;
20012dee:	57fd                	li	a5,-1
C:\Users\nandg\Desktop\Athena_Welcome_Demo\sifive_hifive1_revb_sifive_welcome\bsp\build\debug/./metal/machine.h:299
	}
}
20012df0:	853e                	mv	a0,a5
20012df2:	4472                	lw	s0,28(sp)
20012df4:	6105                	addi	sp,sp,32
20012df6:	8082                	ret

20012df8 <__metal_driver_cpu_timebase>:
__metal_driver_cpu_timebase():
C:\Users\nandg\Desktop\Athena_Welcome_Demo\sifive_hifive1_revb_sifive_welcome\bsp\build\debug/./metal/machine.h:302

static __inline__ int __metal_driver_cpu_timebase(struct metal_cpu *cpu)
{
20012df8:	1101                	addi	sp,sp,-32
20012dfa:	ce22                	sw	s0,28(sp)
20012dfc:	1000                	addi	s0,sp,32
20012dfe:	fea42623          	sw	a0,-20(s0)
C:\Users\nandg\Desktop\Athena_Welcome_Demo\sifive_hifive1_revb_sifive_welcome\bsp\build\debug/./metal/machine.h:303
	if ((uintptr_t)cpu == (uintptr_t)&__metal_dt_cpu_0) {
20012e02:	fec42703          	lw	a4,-20(s0)
20012e06:	81018793          	addi	a5,gp,-2032 # 80000ac0 <__metal_dt_cpu_0>
20012e0a:	00f71763          	bne	a4,a5,20012e18 <__metal_driver_cpu_timebase+0x20>
C:\Users\nandg\Desktop\Athena_Welcome_Demo\sifive_hifive1_revb_sifive_welcome\bsp\build\debug/./metal/machine.h:304
		return 16000000;
20012e0e:	00f427b7          	lui	a5,0xf42
20012e12:	40078793          	addi	a5,a5,1024 # f42400 <__heap_size+0xf41c00>
20012e16:	a011                	j	20012e1a <__metal_driver_cpu_timebase+0x22>
C:\Users\nandg\Desktop\Athena_Welcome_Demo\sifive_hifive1_revb_sifive_welcome\bsp\build\debug/./metal/machine.h:307
	}
	else {
		return 0;
20012e18:	4781                	li	a5,0
C:\Users\nandg\Desktop\Athena_Welcome_Demo\sifive_hifive1_revb_sifive_welcome\bsp\build\debug/./metal/machine.h:309
	}
}
20012e1a:	853e                	mv	a0,a5
20012e1c:	4472                	lw	s0,28(sp)
20012e1e:	6105                	addi	sp,sp,32
20012e20:	8082                	ret

20012e22 <__metal_driver_cpu_interrupt_controller>:
__metal_driver_cpu_interrupt_controller():
C:\Users\nandg\Desktop\Athena_Welcome_Demo\sifive_hifive1_revb_sifive_welcome\bsp\build\debug/./metal/machine.h:312

static __inline__ struct metal_interrupt * __metal_driver_cpu_interrupt_controller(struct metal_cpu *cpu)
{
20012e22:	1101                	addi	sp,sp,-32
20012e24:	ce22                	sw	s0,28(sp)
20012e26:	1000                	addi	s0,sp,32
20012e28:	fea42623          	sw	a0,-20(s0)
C:\Users\nandg\Desktop\Athena_Welcome_Demo\sifive_hifive1_revb_sifive_welcome\bsp\build\debug/./metal/machine.h:313
	if ((uintptr_t)cpu == (uintptr_t)&__metal_dt_cpu_0) {
20012e2c:	fec42703          	lw	a4,-20(s0)
20012e30:	81018793          	addi	a5,gp,-2032 # 80000ac0 <__metal_dt_cpu_0>
20012e34:	00f71763          	bne	a4,a5,20012e42 <__metal_driver_cpu_interrupt_controller+0x20>
C:\Users\nandg\Desktop\Athena_Welcome_Demo\sifive_hifive1_revb_sifive_welcome\bsp\build\debug/./metal/machine.h:314
		return &__metal_dt_cpu_0_interrupt_controller.controller;
20012e38:	800007b7          	lui	a5,0x80000
20012e3c:	0a078793          	addi	a5,a5,160 # 800000a0 <metal_segment_heap_target_end+0xffffe900>
20012e40:	a011                	j	20012e44 <__metal_driver_cpu_interrupt_controller+0x22>
C:\Users\nandg\Desktop\Athena_Welcome_Demo\sifive_hifive1_revb_sifive_welcome\bsp\build\debug/./metal/machine.h:317
	}
	else {
		return NULL;
20012e42:	4781                	li	a5,0
C:\Users\nandg\Desktop\Athena_Welcome_Demo\sifive_hifive1_revb_sifive_welcome\bsp\build\debug/./metal/machine.h:319
	}
}
20012e44:	853e                	mv	a0,a5
20012e46:	4472                	lw	s0,28(sp)
20012e48:	6105                	addi	sp,sp,32
20012e4a:	8082                	ret

20012e4c <__metal_driver_cpu_buserror>:
__metal_driver_cpu_buserror():
C:\Users\nandg\Desktop\Athena_Welcome_Demo\sifive_hifive1_revb_sifive_welcome\bsp\build\debug/./metal/machine.h:332
		return 0;
	}
}

static __inline__ struct metal_buserror * __metal_driver_cpu_buserror(struct metal_cpu *cpu)
{
20012e4c:	1101                	addi	sp,sp,-32
20012e4e:	ce22                	sw	s0,28(sp)
20012e50:	1000                	addi	s0,sp,32
20012e52:	fea42623          	sw	a0,-20(s0)
C:\Users\nandg\Desktop\Athena_Welcome_Demo\sifive_hifive1_revb_sifive_welcome\bsp\build\debug/./metal/machine.h:333
	if ((uintptr_t)cpu == (uintptr_t)&__metal_dt_cpu_0) {
20012e56:	fec42703          	lw	a4,-20(s0)
20012e5a:	81018793          	addi	a5,gp,-2032 # 80000ac0 <__metal_dt_cpu_0>
20012e5e:	00f71463          	bne	a4,a5,20012e66 <__metal_driver_cpu_buserror+0x1a>
C:\Users\nandg\Desktop\Athena_Welcome_Demo\sifive_hifive1_revb_sifive_welcome\bsp\build\debug/./metal/machine.h:334
		return NULL;
20012e62:	4781                	li	a5,0
20012e64:	a011                	j	20012e68 <__metal_driver_cpu_buserror+0x1c>
C:\Users\nandg\Desktop\Athena_Welcome_Demo\sifive_hifive1_revb_sifive_welcome\bsp\build\debug/./metal/machine.h:337
	}
	else {
		return NULL;
20012e66:	4781                	li	a5,0
C:\Users\nandg\Desktop\Athena_Welcome_Demo\sifive_hifive1_revb_sifive_welcome\bsp\build\debug/./metal/machine.h:339
	}
}
20012e68:	853e                	mv	a0,a5
20012e6a:	4472                	lw	s0,28(sp)
20012e6c:	6105                	addi	sp,sp,32
20012e6e:	8082                	ret

20012e70 <__metal_driver_cpu_get>:
__metal_driver_cpu_get():
C:/Users/nandg/Desktop/Athena_Welcome_Demo/sifive_hifive1_revb_sifive_welcome/freedom-metal/src/drivers/riscv_cpu.c:25
extern void __metal_vector_table();
unsigned long long __metal_driver_cpu_mtime_get(struct metal_cpu *cpu);
int __metal_driver_cpu_mtimecmp_set(struct metal_cpu *cpu,
                                    unsigned long long time);

struct metal_cpu *__metal_driver_cpu_get(int hartid) {
20012e70:	1101                	addi	sp,sp,-32
20012e72:	ce22                	sw	s0,28(sp)
20012e74:	1000                	addi	s0,sp,32
20012e76:	fea42623          	sw	a0,-20(s0)
C:/Users/nandg/Desktop/Athena_Welcome_Demo/sifive_hifive1_revb_sifive_welcome/freedom-metal/src/drivers/riscv_cpu.c:26
    if (hartid < __METAL_DT_MAX_HARTS) {
20012e7a:	fec42783          	lw	a5,-20(s0)
20012e7e:	00f04c63          	bgtz	a5,20012e96 <__metal_driver_cpu_get+0x26>
C:/Users/nandg/Desktop/Athena_Welcome_Demo/sifive_hifive1_revb_sifive_welcome/freedom-metal/src/drivers/riscv_cpu.c:27
        return &(__metal_cpu_table[hartid]->cpu);
20012e82:	800017b7          	lui	a5,0x80001
20012e86:	fec42703          	lw	a4,-20(s0)
20012e8a:	070a                	slli	a4,a4,0x2
20012e8c:	ab478793          	addi	a5,a5,-1356 # 80000ab4 <metal_segment_heap_target_end+0xfffff314>
20012e90:	97ba                	add	a5,a5,a4
20012e92:	439c                	lw	a5,0(a5)
20012e94:	a011                	j	20012e98 <__metal_driver_cpu_get+0x28>
C:/Users/nandg/Desktop/Athena_Welcome_Demo/sifive_hifive1_revb_sifive_welcome/freedom-metal/src/drivers/riscv_cpu.c:29
    }
    return (struct metal_cpu *)NULL;
20012e96:	4781                	li	a5,0
C:/Users/nandg/Desktop/Athena_Welcome_Demo/sifive_hifive1_revb_sifive_welcome/freedom-metal/src/drivers/riscv_cpu.c:30
}
20012e98:	853e                	mv	a0,a5
20012e9a:	4472                	lw	s0,28(sp)
20012e9c:	6105                	addi	sp,sp,32
20012e9e:	8082                	ret

20012ea0 <__metal_myhart_id>:
__metal_myhart_id():
C:/Users/nandg/Desktop/Athena_Welcome_Demo/sifive_hifive1_revb_sifive_welcome/freedom-metal/src/drivers/riscv_cpu.c:32

uintptr_t __metal_myhart_id(void) {
20012ea0:	1101                	addi	sp,sp,-32
20012ea2:	ce22                	sw	s0,28(sp)
20012ea4:	1000                	addi	s0,sp,32
C:/Users/nandg/Desktop/Athena_Welcome_Demo/sifive_hifive1_revb_sifive_welcome/freedom-metal/src/drivers/riscv_cpu.c:34
    uintptr_t myhart;
    __asm__ volatile("csrr %0, mhartid" : "=r"(myhart));
20012ea6:	f14027f3          	csrr	a5,mhartid
20012eaa:	fef42623          	sw	a5,-20(s0)
C:/Users/nandg/Desktop/Athena_Welcome_Demo/sifive_hifive1_revb_sifive_welcome/freedom-metal/src/drivers/riscv_cpu.c:35
    return myhart;
20012eae:	fec42783          	lw	a5,-20(s0)
C:/Users/nandg/Desktop/Athena_Welcome_Demo/sifive_hifive1_revb_sifive_welcome/freedom-metal/src/drivers/riscv_cpu.c:36
}
20012eb2:	853e                	mv	a0,a5
20012eb4:	4472                	lw	s0,28(sp)
20012eb6:	6105                	addi	sp,sp,32
20012eb8:	8082                	ret

20012eba <__metal_interrupt_global_enable>:
__metal_interrupt_global_enable():
C:/Users/nandg/Desktop/Athena_Welcome_Demo/sifive_hifive1_revb_sifive_welcome/freedom-metal/src/drivers/riscv_cpu.c:45
    for (ptr = base; ptr < (base + size); ptr++) {
        *ptr = 0;
    }
}

void __metal_interrupt_global_enable(void) {
20012eba:	1101                	addi	sp,sp,-32
20012ebc:	ce22                	sw	s0,28(sp)
20012ebe:	1000                	addi	s0,sp,32
C:/Users/nandg/Desktop/Athena_Welcome_Demo/sifive_hifive1_revb_sifive_welcome/freedom-metal/src/drivers/riscv_cpu.c:47
    uintptr_t m;
    __asm__ volatile("csrrs %0, mstatus, %1"
20012ec0:	47a1                	li	a5,8
20012ec2:	3007a7f3          	csrrs	a5,mstatus,a5
20012ec6:	fef42623          	sw	a5,-20(s0)
C:/Users/nandg/Desktop/Athena_Welcome_Demo/sifive_hifive1_revb_sifive_welcome/freedom-metal/src/drivers/riscv_cpu.c:50
                     : "=r"(m)
                     : "r"(METAL_MIE_INTERRUPT));
}
20012eca:	0001                	nop
20012ecc:	4472                	lw	s0,28(sp)
20012ece:	6105                	addi	sp,sp,32
20012ed0:	8082                	ret

20012ed2 <__metal_interrupt_global_disable>:
__metal_interrupt_global_disable():
C:/Users/nandg/Desktop/Athena_Welcome_Demo/sifive_hifive1_revb_sifive_welcome/freedom-metal/src/drivers/riscv_cpu.c:52

void __metal_interrupt_global_disable(void) {
20012ed2:	1101                	addi	sp,sp,-32
20012ed4:	ce22                	sw	s0,28(sp)
20012ed6:	1000                	addi	s0,sp,32
C:/Users/nandg/Desktop/Athena_Welcome_Demo/sifive_hifive1_revb_sifive_welcome/freedom-metal/src/drivers/riscv_cpu.c:54
    uintptr_t m;
    __asm__ volatile("csrrc %0, mstatus, %1"
20012ed8:	47a1                	li	a5,8
20012eda:	3007b7f3          	csrrc	a5,mstatus,a5
20012ede:	fef42623          	sw	a5,-20(s0)
C:/Users/nandg/Desktop/Athena_Welcome_Demo/sifive_hifive1_revb_sifive_welcome/freedom-metal/src/drivers/riscv_cpu.c:57
                     : "=r"(m)
                     : "r"(METAL_MIE_INTERRUPT));
}
20012ee2:	0001                	nop
20012ee4:	4472                	lw	s0,28(sp)
20012ee6:	6105                	addi	sp,sp,32
20012ee8:	8082                	ret

20012eea <__metal_interrupt_software_enable>:
__metal_interrupt_software_enable():
C:/Users/nandg/Desktop/Athena_Welcome_Demo/sifive_hifive1_revb_sifive_welcome/freedom-metal/src/drivers/riscv_cpu.c:59

void __metal_interrupt_software_enable(void) {
20012eea:	1101                	addi	sp,sp,-32
20012eec:	ce22                	sw	s0,28(sp)
20012eee:	1000                	addi	s0,sp,32
C:/Users/nandg/Desktop/Athena_Welcome_Demo/sifive_hifive1_revb_sifive_welcome/freedom-metal/src/drivers/riscv_cpu.c:61
    uintptr_t m;
    __asm__ volatile("csrrs %0, mie, %1"
20012ef0:	47a1                	li	a5,8
20012ef2:	3047a7f3          	csrrs	a5,mie,a5
20012ef6:	fef42623          	sw	a5,-20(s0)
C:/Users/nandg/Desktop/Athena_Welcome_Demo/sifive_hifive1_revb_sifive_welcome/freedom-metal/src/drivers/riscv_cpu.c:64
                     : "=r"(m)
                     : "r"(METAL_LOCAL_INTERRUPT_SW));
}
20012efa:	0001                	nop
20012efc:	4472                	lw	s0,28(sp)
20012efe:	6105                	addi	sp,sp,32
20012f00:	8082                	ret

20012f02 <__metal_interrupt_software_disable>:
__metal_interrupt_software_disable():
C:/Users/nandg/Desktop/Athena_Welcome_Demo/sifive_hifive1_revb_sifive_welcome/freedom-metal/src/drivers/riscv_cpu.c:66

void __metal_interrupt_software_disable(void) {
20012f02:	1101                	addi	sp,sp,-32
20012f04:	ce22                	sw	s0,28(sp)
20012f06:	1000                	addi	s0,sp,32
C:/Users/nandg/Desktop/Athena_Welcome_Demo/sifive_hifive1_revb_sifive_welcome/freedom-metal/src/drivers/riscv_cpu.c:68
    uintptr_t m;
    __asm__ volatile("csrrc %0, mie, %1"
20012f08:	47a1                	li	a5,8
20012f0a:	3047b7f3          	csrrc	a5,mie,a5
20012f0e:	fef42623          	sw	a5,-20(s0)
C:/Users/nandg/Desktop/Athena_Welcome_Demo/sifive_hifive1_revb_sifive_welcome/freedom-metal/src/drivers/riscv_cpu.c:71
                     : "=r"(m)
                     : "r"(METAL_LOCAL_INTERRUPT_SW));
}
20012f12:	0001                	nop
20012f14:	4472                	lw	s0,28(sp)
20012f16:	6105                	addi	sp,sp,32
20012f18:	8082                	ret

20012f1a <__metal_interrupt_timer_enable>:
__metal_interrupt_timer_enable():
C:/Users/nandg/Desktop/Athena_Welcome_Demo/sifive_hifive1_revb_sifive_welcome/freedom-metal/src/drivers/riscv_cpu.c:73

void __metal_interrupt_timer_enable(void) {
20012f1a:	1101                	addi	sp,sp,-32
20012f1c:	ce22                	sw	s0,28(sp)
20012f1e:	1000                	addi	s0,sp,32
C:/Users/nandg/Desktop/Athena_Welcome_Demo/sifive_hifive1_revb_sifive_welcome/freedom-metal/src/drivers/riscv_cpu.c:75
    uintptr_t m;
    __asm__ volatile("csrrs %0, mie, %1"
20012f20:	08000793          	li	a5,128
20012f24:	3047a7f3          	csrrs	a5,mie,a5
20012f28:	fef42623          	sw	a5,-20(s0)
C:/Users/nandg/Desktop/Athena_Welcome_Demo/sifive_hifive1_revb_sifive_welcome/freedom-metal/src/drivers/riscv_cpu.c:78
                     : "=r"(m)
                     : "r"(METAL_LOCAL_INTERRUPT_TMR));
}
20012f2c:	0001                	nop
20012f2e:	4472                	lw	s0,28(sp)
20012f30:	6105                	addi	sp,sp,32
20012f32:	8082                	ret

20012f34 <__metal_interrupt_timer_disable>:
__metal_interrupt_timer_disable():
C:/Users/nandg/Desktop/Athena_Welcome_Demo/sifive_hifive1_revb_sifive_welcome/freedom-metal/src/drivers/riscv_cpu.c:80

void __metal_interrupt_timer_disable(void) {
20012f34:	1101                	addi	sp,sp,-32
20012f36:	ce22                	sw	s0,28(sp)
20012f38:	1000                	addi	s0,sp,32
C:/Users/nandg/Desktop/Athena_Welcome_Demo/sifive_hifive1_revb_sifive_welcome/freedom-metal/src/drivers/riscv_cpu.c:82
    uintptr_t m;
    __asm__ volatile("csrrc %0, mie, %1"
20012f3a:	08000793          	li	a5,128
20012f3e:	3047b7f3          	csrrc	a5,mie,a5
20012f42:	fef42623          	sw	a5,-20(s0)
C:/Users/nandg/Desktop/Athena_Welcome_Demo/sifive_hifive1_revb_sifive_welcome/freedom-metal/src/drivers/riscv_cpu.c:85
                     : "=r"(m)
                     : "r"(METAL_LOCAL_INTERRUPT_TMR));
}
20012f46:	0001                	nop
20012f48:	4472                	lw	s0,28(sp)
20012f4a:	6105                	addi	sp,sp,32
20012f4c:	8082                	ret

20012f4e <__metal_interrupt_external_enable>:
__metal_interrupt_external_enable():
C:/Users/nandg/Desktop/Athena_Welcome_Demo/sifive_hifive1_revb_sifive_welcome/freedom-metal/src/drivers/riscv_cpu.c:87

void __metal_interrupt_external_enable(void) {
20012f4e:	1101                	addi	sp,sp,-32
20012f50:	ce22                	sw	s0,28(sp)
20012f52:	1000                	addi	s0,sp,32
C:/Users/nandg/Desktop/Athena_Welcome_Demo/sifive_hifive1_revb_sifive_welcome/freedom-metal/src/drivers/riscv_cpu.c:89
    uintptr_t m;
    __asm__ volatile("csrrs %0, mie, %1"
20012f54:	6785                	lui	a5,0x1
20012f56:	80078793          	addi	a5,a5,-2048 # 800 <__heap_size>
20012f5a:	3047a7f3          	csrrs	a5,mie,a5
20012f5e:	fef42623          	sw	a5,-20(s0)
C:/Users/nandg/Desktop/Athena_Welcome_Demo/sifive_hifive1_revb_sifive_welcome/freedom-metal/src/drivers/riscv_cpu.c:92
                     : "=r"(m)
                     : "r"(METAL_LOCAL_INTERRUPT_EXT));
}
20012f62:	0001                	nop
20012f64:	4472                	lw	s0,28(sp)
20012f66:	6105                	addi	sp,sp,32
20012f68:	8082                	ret

20012f6a <__metal_interrupt_external_disable>:
__metal_interrupt_external_disable():
C:/Users/nandg/Desktop/Athena_Welcome_Demo/sifive_hifive1_revb_sifive_welcome/freedom-metal/src/drivers/riscv_cpu.c:94

void __metal_interrupt_external_disable(void) {
20012f6a:	1101                	addi	sp,sp,-32
20012f6c:	ce22                	sw	s0,28(sp)
20012f6e:	1000                	addi	s0,sp,32
C:/Users/nandg/Desktop/Athena_Welcome_Demo/sifive_hifive1_revb_sifive_welcome/freedom-metal/src/drivers/riscv_cpu.c:96
    unsigned long m;
    __asm__ volatile("csrrc %0, mie, %1"
20012f70:	6785                	lui	a5,0x1
20012f72:	80078793          	addi	a5,a5,-2048 # 800 <__heap_size>
20012f76:	3047b7f3          	csrrc	a5,mie,a5
20012f7a:	fef42623          	sw	a5,-20(s0)
C:/Users/nandg/Desktop/Athena_Welcome_Demo/sifive_hifive1_revb_sifive_welcome/freedom-metal/src/drivers/riscv_cpu.c:99
                     : "=r"(m)
                     : "r"(METAL_LOCAL_INTERRUPT_EXT));
}
20012f7e:	0001                	nop
20012f80:	4472                	lw	s0,28(sp)
20012f82:	6105                	addi	sp,sp,32
20012f84:	8082                	ret

20012f86 <__metal_interrupt_local_enable>:
__metal_interrupt_local_enable():
C:/Users/nandg/Desktop/Athena_Welcome_Demo/sifive_hifive1_revb_sifive_welcome/freedom-metal/src/drivers/riscv_cpu.c:101

void __metal_interrupt_local_enable(int id) {
20012f86:	7179                	addi	sp,sp,-48
20012f88:	d622                	sw	s0,44(sp)
20012f8a:	1800                	addi	s0,sp,48
20012f8c:	fca42e23          	sw	a0,-36(s0)
C:/Users/nandg/Desktop/Athena_Welcome_Demo/sifive_hifive1_revb_sifive_welcome/freedom-metal/src/drivers/riscv_cpu.c:102
    uintptr_t b = 1 << id;
20012f90:	fdc42783          	lw	a5,-36(s0)
20012f94:	4705                	li	a4,1
20012f96:	00f717b3          	sll	a5,a4,a5
20012f9a:	fef42623          	sw	a5,-20(s0)
C:/Users/nandg/Desktop/Athena_Welcome_Demo/sifive_hifive1_revb_sifive_welcome/freedom-metal/src/drivers/riscv_cpu.c:104
    uintptr_t m;
    __asm__ volatile("csrrs %0, mie, %1" : "=r"(m) : "r"(b));
20012f9e:	fec42783          	lw	a5,-20(s0)
20012fa2:	3047a7f3          	csrrs	a5,mie,a5
20012fa6:	fef42423          	sw	a5,-24(s0)
C:/Users/nandg/Desktop/Athena_Welcome_Demo/sifive_hifive1_revb_sifive_welcome/freedom-metal/src/drivers/riscv_cpu.c:105
}
20012faa:	0001                	nop
20012fac:	5432                	lw	s0,44(sp)
20012fae:	6145                	addi	sp,sp,48
20012fb0:	8082                	ret

20012fb2 <__metal_interrupt_local_disable>:
__metal_interrupt_local_disable():
C:/Users/nandg/Desktop/Athena_Welcome_Demo/sifive_hifive1_revb_sifive_welcome/freedom-metal/src/drivers/riscv_cpu.c:107

void __metal_interrupt_local_disable(int id) {
20012fb2:	7179                	addi	sp,sp,-48
20012fb4:	d622                	sw	s0,44(sp)
20012fb6:	1800                	addi	s0,sp,48
20012fb8:	fca42e23          	sw	a0,-36(s0)
C:/Users/nandg/Desktop/Athena_Welcome_Demo/sifive_hifive1_revb_sifive_welcome/freedom-metal/src/drivers/riscv_cpu.c:108
    uintptr_t b = 1 << id;
20012fbc:	fdc42783          	lw	a5,-36(s0)
20012fc0:	4705                	li	a4,1
20012fc2:	00f717b3          	sll	a5,a4,a5
20012fc6:	fef42623          	sw	a5,-20(s0)
C:/Users/nandg/Desktop/Athena_Welcome_Demo/sifive_hifive1_revb_sifive_welcome/freedom-metal/src/drivers/riscv_cpu.c:110
    uintptr_t m;
    __asm__ volatile("csrrc %0, mie, %1" : "=r"(m) : "r"(b));
20012fca:	fec42783          	lw	a5,-20(s0)
20012fce:	3047b7f3          	csrrc	a5,mie,a5
20012fd2:	fef42423          	sw	a5,-24(s0)
C:/Users/nandg/Desktop/Athena_Welcome_Demo/sifive_hifive1_revb_sifive_welcome/freedom-metal/src/drivers/riscv_cpu.c:111
}
20012fd6:	0001                	nop
20012fd8:	5432                	lw	s0,44(sp)
20012fda:	6145                	addi	sp,sp,48
20012fdc:	8082                	ret

20012fde <__metal_default_exception_handler>:
__metal_default_exception_handler():
C:/Users/nandg/Desktop/Athena_Welcome_Demo/sifive_hifive1_revb_sifive_welcome/freedom-metal/src/drivers/riscv_cpu.c:113

void __metal_default_exception_handler(struct metal_cpu *cpu, int ecode) {
20012fde:	1101                	addi	sp,sp,-32
20012fe0:	ce06                	sw	ra,28(sp)
20012fe2:	cc22                	sw	s0,24(sp)
20012fe4:	1000                	addi	s0,sp,32
20012fe6:	fea42623          	sw	a0,-20(s0)
20012fea:	feb42423          	sw	a1,-24(s0)
C:/Users/nandg/Desktop/Athena_Welcome_Demo/sifive_hifive1_revb_sifive_welcome/freedom-metal/src/drivers/riscv_cpu.c:114
    metal_shutdown(100);
20012fee:	06400513          	li	a0,100
20012ff2:	086040ef          	jal	ra,20017078 <metal_shutdown>

20012ff6 <__metal_default_interrupt_handler>:
__metal_default_interrupt_handler():
C:/Users/nandg/Desktop/Athena_Welcome_Demo/sifive_hifive1_revb_sifive_welcome/freedom-metal/src/drivers/riscv_cpu.c:117
}

void __metal_default_interrupt_handler(int id, void *priv) {
20012ff6:	1101                	addi	sp,sp,-32
20012ff8:	ce06                	sw	ra,28(sp)
20012ffa:	cc22                	sw	s0,24(sp)
20012ffc:	1000                	addi	s0,sp,32
20012ffe:	fea42623          	sw	a0,-20(s0)
20013002:	feb42423          	sw	a1,-24(s0)
C:/Users/nandg/Desktop/Athena_Welcome_Demo/sifive_hifive1_revb_sifive_welcome/freedom-metal/src/drivers/riscv_cpu.c:118
    metal_shutdown(200);
20013006:	0c800513          	li	a0,200
2001300a:	06e040ef          	jal	ra,20017078 <metal_shutdown>

2001300e <metal_interrupt_vector_handler>:
metal_interrupt_vector_handler():
C:/Users/nandg/Desktop/Athena_Welcome_Demo/sifive_hifive1_revb_sifive_welcome/freedom-metal/src/drivers/riscv_cpu.c:122
}

/* The metal_interrupt_vector_handler() function can be redefined. */
void __attribute__((weak, interrupt)) metal_interrupt_vector_handler(void) {
2001300e:	715d                	addi	sp,sp,-80
20013010:	c686                	sw	ra,76(sp)
20013012:	c496                	sw	t0,72(sp)
20013014:	c29a                	sw	t1,68(sp)
20013016:	c09e                	sw	t2,64(sp)
20013018:	de22                	sw	s0,60(sp)
2001301a:	dc2a                	sw	a0,56(sp)
2001301c:	da2e                	sw	a1,52(sp)
2001301e:	d832                	sw	a2,48(sp)
20013020:	d636                	sw	a3,44(sp)
20013022:	d43a                	sw	a4,40(sp)
20013024:	d23e                	sw	a5,36(sp)
20013026:	d042                	sw	a6,32(sp)
20013028:	ce46                	sw	a7,28(sp)
2001302a:	cc72                	sw	t3,24(sp)
2001302c:	ca76                	sw	t4,20(sp)
2001302e:	c87a                	sw	t5,16(sp)
20013030:	c67e                	sw	t6,12(sp)
20013032:	0880                	addi	s0,sp,80
C:/Users/nandg/Desktop/Athena_Welcome_Demo/sifive_hifive1_revb_sifive_welcome/freedom-metal/src/drivers/riscv_cpu.c:123
    metal_shutdown(300);
20013034:	12c00513          	li	a0,300
20013038:	040040ef          	jal	ra,20017078 <metal_shutdown>

2001303c <metal_software_interrupt_vector_handler>:
metal_software_interrupt_vector_handler():
C:/Users/nandg/Desktop/Athena_Welcome_Demo/sifive_hifive1_revb_sifive_welcome/freedom-metal/src/drivers/riscv_cpu.c:128
}

/* The metal_software_interrupt_vector_handler() function can be redefined. */
void __attribute__((weak, interrupt))
metal_software_interrupt_vector_handler(void) {
2001303c:	711d                	addi	sp,sp,-96
2001303e:	ce86                	sw	ra,92(sp)
20013040:	cc96                	sw	t0,88(sp)
20013042:	ca9a                	sw	t1,84(sp)
20013044:	c89e                	sw	t2,80(sp)
20013046:	c6a2                	sw	s0,76(sp)
20013048:	c4aa                	sw	a0,72(sp)
2001304a:	c2ae                	sw	a1,68(sp)
2001304c:	c0b2                	sw	a2,64(sp)
2001304e:	de36                	sw	a3,60(sp)
20013050:	dc3a                	sw	a4,56(sp)
20013052:	da3e                	sw	a5,52(sp)
20013054:	d842                	sw	a6,48(sp)
20013056:	d646                	sw	a7,44(sp)
20013058:	d472                	sw	t3,40(sp)
2001305a:	d276                	sw	t4,36(sp)
2001305c:	d07a                	sw	t5,32(sp)
2001305e:	ce7e                	sw	t6,28(sp)
20013060:	1080                	addi	s0,sp,96
C:/Users/nandg/Desktop/Athena_Welcome_Demo/sifive_hifive1_revb_sifive_welcome/freedom-metal/src/drivers/riscv_cpu.c:129
    __METAL_IRQ_VECTOR_HANDLER(METAL_INTERRUPT_ID_SW);
20013062:	3d3d                	jal	20012ea0 <__metal_myhart_id>
20013064:	872a                	mv	a4,a0
20013066:	800017b7          	lui	a5,0x80001
2001306a:	070a                	slli	a4,a4,0x2
2001306c:	ab478793          	addi	a5,a5,-1356 # 80000ab4 <metal_segment_heap_target_end+0xfffff314>
20013070:	97ba                	add	a5,a5,a4
20013072:	439c                	lw	a5,0(a5)
20013074:	faf42623          	sw	a5,-84(s0)
20013078:	fac42783          	lw	a5,-84(s0)
2001307c:	c785                	beqz	a5,200130a4 <metal_software_interrupt_vector_handler+0x68>
C:/Users/nandg/Desktop/Athena_Welcome_Demo/sifive_hifive1_revb_sifive_welcome/freedom-metal/src/drivers/riscv_cpu.c:129 (discriminator 1)
2001307e:	fac42503          	lw	a0,-84(s0)
20013082:	3345                	jal	20012e22 <__metal_driver_cpu_interrupt_controller>
20013084:	faa42423          	sw	a0,-88(s0)
20013088:	fa842783          	lw	a5,-88(s0)
2001308c:	0e07a783          	lw	a5,224(a5)
20013090:	faf42223          	sw	a5,-92(s0)
20013094:	fa842783          	lw	a5,-88(s0)
20013098:	0d87a783          	lw	a5,216(a5)
2001309c:	fa442583          	lw	a1,-92(s0)
200130a0:	450d                	li	a0,3
200130a2:	9782                	jalr	a5
C:/Users/nandg/Desktop/Athena_Welcome_Demo/sifive_hifive1_revb_sifive_welcome/freedom-metal/src/drivers/riscv_cpu.c:130
}
200130a4:	0001                	nop
200130a6:	40f6                	lw	ra,92(sp)
200130a8:	42e6                	lw	t0,88(sp)
200130aa:	4356                	lw	t1,84(sp)
200130ac:	43c6                	lw	t2,80(sp)
200130ae:	4436                	lw	s0,76(sp)
200130b0:	4526                	lw	a0,72(sp)
200130b2:	4596                	lw	a1,68(sp)
200130b4:	4606                	lw	a2,64(sp)
200130b6:	56f2                	lw	a3,60(sp)
200130b8:	5762                	lw	a4,56(sp)
200130ba:	57d2                	lw	a5,52(sp)
200130bc:	5842                	lw	a6,48(sp)
200130be:	58b2                	lw	a7,44(sp)
200130c0:	5e22                	lw	t3,40(sp)
200130c2:	5e92                	lw	t4,36(sp)
200130c4:	5f02                	lw	t5,32(sp)
200130c6:	4ff2                	lw	t6,28(sp)
200130c8:	6125                	addi	sp,sp,96
200130ca:	30200073          	mret

200130ce <__metal_default_sw_handler>:
__metal_default_sw_handler():
C:/Users/nandg/Desktop/Athena_Welcome_Demo/sifive_hifive1_revb_sifive_welcome/freedom-metal/src/drivers/riscv_cpu.c:132

void __metal_default_sw_handler(int id, void *priv) {
200130ce:	7179                	addi	sp,sp,-48
200130d0:	d606                	sw	ra,44(sp)
200130d2:	d422                	sw	s0,40(sp)
200130d4:	1800                	addi	s0,sp,48
200130d6:	fca42e23          	sw	a0,-36(s0)
200130da:	fcb42c23          	sw	a1,-40(s0)
C:/Users/nandg/Desktop/Athena_Welcome_Demo/sifive_hifive1_revb_sifive_welcome/freedom-metal/src/drivers/riscv_cpu.c:135
    uintptr_t mcause;
    struct __metal_driver_riscv_cpu_intc *intc;
    struct __metal_driver_cpu *cpu = __metal_cpu_table[__metal_myhart_id()];
200130de:	33c9                	jal	20012ea0 <__metal_myhart_id>
200130e0:	872a                	mv	a4,a0
200130e2:	800017b7          	lui	a5,0x80001
200130e6:	070a                	slli	a4,a4,0x2
200130e8:	ab478793          	addi	a5,a5,-1356 # 80000ab4 <metal_segment_heap_target_end+0xfffff314>
200130ec:	97ba                	add	a5,a5,a4
200130ee:	439c                	lw	a5,0(a5)
200130f0:	fef42623          	sw	a5,-20(s0)
C:/Users/nandg/Desktop/Athena_Welcome_Demo/sifive_hifive1_revb_sifive_welcome/freedom-metal/src/drivers/riscv_cpu.c:137

    __asm__ volatile("csrr %0, mcause" : "=r"(mcause));
200130f4:	342027f3          	csrr	a5,mcause
200130f8:	fef42423          	sw	a5,-24(s0)
C:/Users/nandg/Desktop/Athena_Welcome_Demo/sifive_hifive1_revb_sifive_welcome/freedom-metal/src/drivers/riscv_cpu.c:138
    if (cpu) {
200130fc:	fec42783          	lw	a5,-20(s0)
20013100:	c795                	beqz	a5,2001312c <__metal_default_sw_handler+0x5e>
C:/Users/nandg/Desktop/Athena_Welcome_Demo/sifive_hifive1_revb_sifive_welcome/freedom-metal/src/drivers/riscv_cpu.c:140
        intc = (struct __metal_driver_riscv_cpu_intc *)
            __metal_driver_cpu_interrupt_controller((struct metal_cpu *)cpu);
20013102:	fec42503          	lw	a0,-20(s0)
20013106:	3b31                	jal	20012e22 <__metal_driver_cpu_interrupt_controller>
20013108:	fea42223          	sw	a0,-28(s0)
C:/Users/nandg/Desktop/Athena_Welcome_Demo/sifive_hifive1_revb_sifive_welcome/freedom-metal/src/drivers/riscv_cpu.c:141
        intc->metal_exception_table[mcause & METAL_MCAUSE_CAUSE](
2001310c:	fe842783          	lw	a5,-24(s0)
20013110:	3ff7f793          	andi	a5,a5,1023
20013114:	fe442703          	lw	a4,-28(s0)
20013118:	0e878793          	addi	a5,a5,232
2001311c:	078a                	slli	a5,a5,0x2
2001311e:	97ba                	add	a5,a5,a4
20013120:	439c                	lw	a5,0(a5)
20013122:	fdc42583          	lw	a1,-36(s0)
20013126:	fec42503          	lw	a0,-20(s0)
2001312a:	9782                	jalr	a5
C:/Users/nandg/Desktop/Athena_Welcome_Demo/sifive_hifive1_revb_sifive_welcome/freedom-metal/src/drivers/riscv_cpu.c:144
            (struct metal_cpu *)cpu, id);
    }
}
2001312c:	0001                	nop
2001312e:	50b2                	lw	ra,44(sp)
20013130:	5422                	lw	s0,40(sp)
20013132:	6145                	addi	sp,sp,48
20013134:	8082                	ret

20013136 <metal_timer_interrupt_vector_handler>:
metal_timer_interrupt_vector_handler():
C:/Users/nandg/Desktop/Athena_Welcome_Demo/sifive_hifive1_revb_sifive_welcome/freedom-metal/src/drivers/riscv_cpu.c:148

/* The metal_timer_interrupt_vector_handler() function can be redefined. */
void __attribute__((weak, interrupt))
metal_timer_interrupt_vector_handler(void) {
20013136:	711d                	addi	sp,sp,-96
20013138:	ce86                	sw	ra,92(sp)
2001313a:	cc96                	sw	t0,88(sp)
2001313c:	ca9a                	sw	t1,84(sp)
2001313e:	c89e                	sw	t2,80(sp)
20013140:	c6a2                	sw	s0,76(sp)
20013142:	c4aa                	sw	a0,72(sp)
20013144:	c2ae                	sw	a1,68(sp)
20013146:	c0b2                	sw	a2,64(sp)
20013148:	de36                	sw	a3,60(sp)
2001314a:	dc3a                	sw	a4,56(sp)
2001314c:	da3e                	sw	a5,52(sp)
2001314e:	d842                	sw	a6,48(sp)
20013150:	d646                	sw	a7,44(sp)
20013152:	d472                	sw	t3,40(sp)
20013154:	d276                	sw	t4,36(sp)
20013156:	d07a                	sw	t5,32(sp)
20013158:	ce7e                	sw	t6,28(sp)
2001315a:	1080                	addi	s0,sp,96
C:/Users/nandg/Desktop/Athena_Welcome_Demo/sifive_hifive1_revb_sifive_welcome/freedom-metal/src/drivers/riscv_cpu.c:149
    __METAL_IRQ_VECTOR_HANDLER(METAL_INTERRUPT_ID_TMR);
2001315c:	3391                	jal	20012ea0 <__metal_myhart_id>
2001315e:	872a                	mv	a4,a0
20013160:	800017b7          	lui	a5,0x80001
20013164:	070a                	slli	a4,a4,0x2
20013166:	ab478793          	addi	a5,a5,-1356 # 80000ab4 <metal_segment_heap_target_end+0xfffff314>
2001316a:	97ba                	add	a5,a5,a4
2001316c:	439c                	lw	a5,0(a5)
2001316e:	faf42623          	sw	a5,-84(s0)
20013172:	fac42783          	lw	a5,-84(s0)
20013176:	c785                	beqz	a5,2001319e <metal_timer_interrupt_vector_handler+0x68>
C:/Users/nandg/Desktop/Athena_Welcome_Demo/sifive_hifive1_revb_sifive_welcome/freedom-metal/src/drivers/riscv_cpu.c:149 (discriminator 1)
20013178:	fac42503          	lw	a0,-84(s0)
2001317c:	315d                	jal	20012e22 <__metal_driver_cpu_interrupt_controller>
2001317e:	faa42423          	sw	a0,-88(s0)
20013182:	fa842783          	lw	a5,-88(s0)
20013186:	1407a783          	lw	a5,320(a5)
2001318a:	faf42223          	sw	a5,-92(s0)
2001318e:	fa842783          	lw	a5,-88(s0)
20013192:	1387a783          	lw	a5,312(a5)
20013196:	fa442583          	lw	a1,-92(s0)
2001319a:	451d                	li	a0,7
2001319c:	9782                	jalr	a5
C:/Users/nandg/Desktop/Athena_Welcome_Demo/sifive_hifive1_revb_sifive_welcome/freedom-metal/src/drivers/riscv_cpu.c:150
}
2001319e:	0001                	nop
200131a0:	40f6                	lw	ra,92(sp)
200131a2:	42e6                	lw	t0,88(sp)
200131a4:	4356                	lw	t1,84(sp)
200131a6:	43c6                	lw	t2,80(sp)
200131a8:	4436                	lw	s0,76(sp)
200131aa:	4526                	lw	a0,72(sp)
200131ac:	4596                	lw	a1,68(sp)
200131ae:	4606                	lw	a2,64(sp)
200131b0:	56f2                	lw	a3,60(sp)
200131b2:	5762                	lw	a4,56(sp)
200131b4:	57d2                	lw	a5,52(sp)
200131b6:	5842                	lw	a6,48(sp)
200131b8:	58b2                	lw	a7,44(sp)
200131ba:	5e22                	lw	t3,40(sp)
200131bc:	5e92                	lw	t4,36(sp)
200131be:	5f02                	lw	t5,32(sp)
200131c0:	4ff2                	lw	t6,28(sp)
200131c2:	6125                	addi	sp,sp,96
200131c4:	30200073          	mret

200131c8 <__metal_default_beu_handler>:
__metal_default_beu_handler():
C:/Users/nandg/Desktop/Athena_Welcome_Demo/sifive_hifive1_revb_sifive_welcome/freedom-metal/src/drivers/riscv_cpu.c:152

void __metal_default_beu_handler(int id, void *priv) {}
200131c8:	1101                	addi	sp,sp,-32
200131ca:	ce22                	sw	s0,28(sp)
200131cc:	1000                	addi	s0,sp,32
200131ce:	fea42623          	sw	a0,-20(s0)
200131d2:	feb42423          	sw	a1,-24(s0)
200131d6:	0001                	nop
200131d8:	4472                	lw	s0,28(sp)
200131da:	6105                	addi	sp,sp,32
200131dc:	8082                	ret

200131de <__metal_default_timer_handler>:
__metal_default_timer_handler():
C:/Users/nandg/Desktop/Athena_Welcome_Demo/sifive_hifive1_revb_sifive_welcome/freedom-metal/src/drivers/riscv_cpu.c:154

void __metal_default_timer_handler(int id, void *priv) {
200131de:	7179                	addi	sp,sp,-48
200131e0:	d606                	sw	ra,44(sp)
200131e2:	d422                	sw	s0,40(sp)
200131e4:	1800                	addi	s0,sp,48
200131e6:	fca42e23          	sw	a0,-36(s0)
200131ea:	fcb42c23          	sw	a1,-40(s0)
C:/Users/nandg/Desktop/Athena_Welcome_Demo/sifive_hifive1_revb_sifive_welcome/freedom-metal/src/drivers/riscv_cpu.c:155
    struct metal_cpu *cpu = __metal_driver_cpu_get(__metal_myhart_id());
200131ee:	394d                	jal	20012ea0 <__metal_myhart_id>
200131f0:	87aa                	mv	a5,a0
200131f2:	853e                	mv	a0,a5
200131f4:	39b5                	jal	20012e70 <__metal_driver_cpu_get>
200131f6:	fea42623          	sw	a0,-20(s0)
C:/Users/nandg/Desktop/Athena_Welcome_Demo/sifive_hifive1_revb_sifive_welcome/freedom-metal/src/drivers/riscv_cpu.c:156
    unsigned long long time = __metal_driver_cpu_mtime_get(cpu);
200131fa:	fec42503          	lw	a0,-20(s0)
200131fe:	2a8010ef          	jal	ra,200144a6 <__metal_driver_cpu_mtime_get>
20013202:	fea42023          	sw	a0,-32(s0)
20013206:	feb42223          	sw	a1,-28(s0)
C:/Users/nandg/Desktop/Athena_Welcome_Demo/sifive_hifive1_revb_sifive_welcome/freedom-metal/src/drivers/riscv_cpu.c:159

    /* Set a 10 cycle timer */
    __metal_driver_cpu_mtimecmp_set(cpu, time + 10);
2001320a:	fe042703          	lw	a4,-32(s0)
2001320e:	fe442783          	lw	a5,-28(s0)
20013212:	4529                	li	a0,10
20013214:	4581                	li	a1,0
20013216:	00a70633          	add	a2,a4,a0
2001321a:	8832                	mv	a6,a2
2001321c:	00e83833          	sltu	a6,a6,a4
20013220:	00b786b3          	add	a3,a5,a1
20013224:	00d807b3          	add	a5,a6,a3
20013228:	86be                	mv	a3,a5
2001322a:	8732                	mv	a4,a2
2001322c:	87b6                	mv	a5,a3
2001322e:	85ba                	mv	a1,a4
20013230:	863e                	mv	a2,a5
20013232:	fec42503          	lw	a0,-20(s0)
20013236:	2d6010ef          	jal	ra,2001450c <__metal_driver_cpu_mtimecmp_set>
C:/Users/nandg/Desktop/Athena_Welcome_Demo/sifive_hifive1_revb_sifive_welcome/freedom-metal/src/drivers/riscv_cpu.c:160
}
2001323a:	0001                	nop
2001323c:	50b2                	lw	ra,44(sp)
2001323e:	5422                	lw	s0,40(sp)
20013240:	6145                	addi	sp,sp,48
20013242:	8082                	ret
	...

20013280 <__metal_exception_handler>:
__metal_exception_handler():
C:/Users/nandg/Desktop/Athena_Welcome_Demo/sifive_hifive1_revb_sifive_welcome/freedom-metal/src/drivers/riscv_cpu.c:169
metal_external_interrupt_vector_handler(void) {
    __METAL_IRQ_VECTOR_HANDLER(METAL_INTERRUPT_ID_EXT);
}

void __metal_exception_handler(void) __attribute__((interrupt, aligned(128)));
void __metal_exception_handler(void) {
20013280:	7119                	addi	sp,sp,-128
20013282:	de86                	sw	ra,124(sp)
20013284:	dc96                	sw	t0,120(sp)
20013286:	da9a                	sw	t1,116(sp)
20013288:	d89e                	sw	t2,112(sp)
2001328a:	d6a2                	sw	s0,108(sp)
2001328c:	d4aa                	sw	a0,104(sp)
2001328e:	d2ae                	sw	a1,100(sp)
20013290:	d0b2                	sw	a2,96(sp)
20013292:	ceb6                	sw	a3,92(sp)
20013294:	ccba                	sw	a4,88(sp)
20013296:	cabe                	sw	a5,84(sp)
20013298:	c8c2                	sw	a6,80(sp)
2001329a:	c6c6                	sw	a7,76(sp)
2001329c:	c4f2                	sw	t3,72(sp)
2001329e:	c2f6                	sw	t4,68(sp)
200132a0:	c0fa                	sw	t5,64(sp)
200132a2:	de7e                	sw	t6,60(sp)
200132a4:	0100                	addi	s0,sp,128
C:/Users/nandg/Desktop/Athena_Welcome_Demo/sifive_hifive1_revb_sifive_welcome/freedom-metal/src/drivers/riscv_cpu.c:174
    int id;
    void *priv;
    uintptr_t mcause, mepc, mtval, mtvec;
    struct __metal_driver_riscv_cpu_intc *intc;
    struct __metal_driver_cpu *cpu = __metal_cpu_table[__metal_myhart_id()];
200132a6:	bfbff0ef          	jal	ra,20012ea0 <__metal_myhart_id>
200132aa:	872a                	mv	a4,a0
200132ac:	800017b7          	lui	a5,0x80001
200132b0:	070a                	slli	a4,a4,0x2
200132b2:	ab478793          	addi	a5,a5,-1356 # 80000ab4 <metal_segment_heap_target_end+0xfffff314>
200132b6:	97ba                	add	a5,a5,a4
200132b8:	439c                	lw	a5,0(a5)
200132ba:	faf42623          	sw	a5,-84(s0)
C:/Users/nandg/Desktop/Athena_Welcome_Demo/sifive_hifive1_revb_sifive_welcome/freedom-metal/src/drivers/riscv_cpu.c:176

    __asm__ volatile("csrr %0, mcause" : "=r"(mcause));
200132be:	342027f3          	csrr	a5,mcause
200132c2:	faf42423          	sw	a5,-88(s0)
C:/Users/nandg/Desktop/Athena_Welcome_Demo/sifive_hifive1_revb_sifive_welcome/freedom-metal/src/drivers/riscv_cpu.c:177
    __asm__ volatile("csrr %0, mepc" : "=r"(mepc));
200132c6:	341027f3          	csrr	a5,mepc
200132ca:	faf42223          	sw	a5,-92(s0)
C:/Users/nandg/Desktop/Athena_Welcome_Demo/sifive_hifive1_revb_sifive_welcome/freedom-metal/src/drivers/riscv_cpu.c:178
    __asm__ volatile("csrr %0, mtval" : "=r"(mtval));
200132ce:	343027f3          	csrr	a5,mtval
200132d2:	faf42023          	sw	a5,-96(s0)
C:/Users/nandg/Desktop/Athena_Welcome_Demo/sifive_hifive1_revb_sifive_welcome/freedom-metal/src/drivers/riscv_cpu.c:179
    __asm__ volatile("csrr %0, mtvec" : "=r"(mtvec));
200132d6:	305027f3          	csrr	a5,mtvec
200132da:	f8f42e23          	sw	a5,-100(s0)
C:/Users/nandg/Desktop/Athena_Welcome_Demo/sifive_hifive1_revb_sifive_welcome/freedom-metal/src/drivers/riscv_cpu.c:181

    if (cpu) {
200132de:	fac42783          	lw	a5,-84(s0)
200132e2:	cbfd                	beqz	a5,200133d8 <__metal_exception_handler+0x158>
C:/Users/nandg/Desktop/Athena_Welcome_Demo/sifive_hifive1_revb_sifive_welcome/freedom-metal/src/drivers/riscv_cpu.c:183
        intc = (struct __metal_driver_riscv_cpu_intc *)
            __metal_driver_cpu_interrupt_controller((struct metal_cpu *)cpu);
200132e4:	fac42503          	lw	a0,-84(s0)
200132e8:	b3bff0ef          	jal	ra,20012e22 <__metal_driver_cpu_interrupt_controller>
200132ec:	f8a42c23          	sw	a0,-104(s0)
C:/Users/nandg/Desktop/Athena_Welcome_Demo/sifive_hifive1_revb_sifive_welcome/freedom-metal/src/drivers/riscv_cpu.c:184
        id = mcause & METAL_MCAUSE_CAUSE;
200132f0:	fa842783          	lw	a5,-88(s0)
200132f4:	3ff7f793          	andi	a5,a5,1023
200132f8:	f8f42a23          	sw	a5,-108(s0)
C:/Users/nandg/Desktop/Athena_Welcome_Demo/sifive_hifive1_revb_sifive_welcome/freedom-metal/src/drivers/riscv_cpu.c:185
        if (mcause & METAL_MCAUSE_INTR) {
200132fc:	fa842783          	lw	a5,-88(s0)
20013300:	0a07de63          	bgez	a5,200133bc <__metal_exception_handler+0x13c>
C:/Users/nandg/Desktop/Athena_Welcome_Demo/sifive_hifive1_revb_sifive_welcome/freedom-metal/src/drivers/riscv_cpu.c:186
            if (id == METAL_INTERRUPT_ID_BEU) {
20013304:	f9442703          	lw	a4,-108(s0)
20013308:	08000793          	li	a5,128
2001330c:	02f71263          	bne	a4,a5,20013330 <__metal_exception_handler+0xb0>
C:/Users/nandg/Desktop/Athena_Welcome_Demo/sifive_hifive1_revb_sifive_welcome/freedom-metal/src/drivers/riscv_cpu.c:187
                priv = intc->metal_int_beu.exint_data;
20013310:	f9842783          	lw	a5,-104(s0)
20013314:	3987a783          	lw	a5,920(a5)
20013318:	f8f42623          	sw	a5,-116(s0)
C:/Users/nandg/Desktop/Athena_Welcome_Demo/sifive_hifive1_revb_sifive_welcome/freedom-metal/src/drivers/riscv_cpu.c:188
                intc->metal_int_beu.handler(id, priv);
2001331c:	f9842783          	lw	a5,-104(s0)
20013320:	3907a783          	lw	a5,912(a5)
20013324:	f8c42583          	lw	a1,-116(s0)
20013328:	f9442503          	lw	a0,-108(s0)
2001332c:	9782                	jalr	a5
C:/Users/nandg/Desktop/Athena_Welcome_Demo/sifive_hifive1_revb_sifive_welcome/freedom-metal/src/drivers/riscv_cpu.c:189
                return;
2001332e:	a06d                	j	200133d8 <__metal_exception_handler+0x158>
C:/Users/nandg/Desktop/Athena_Welcome_Demo/sifive_hifive1_revb_sifive_welcome/freedom-metal/src/drivers/riscv_cpu.c:191
            }
            if ((id < METAL_INTERRUPT_ID_CSW) ||
20013330:	f9442703          	lw	a4,-108(s0)
20013334:	47ad                	li	a5,11
20013336:	00e7d763          	bge	a5,a4,20013344 <__metal_exception_handler+0xc4>
C:/Users/nandg/Desktop/Athena_Welcome_Demo/sifive_hifive1_revb_sifive_welcome/freedom-metal/src/drivers/riscv_cpu.c:192 (discriminator 1)
                ((mtvec & METAL_MTVEC_MASK) == METAL_MTVEC_DIRECT)) {
2001333a:	f9c42783          	lw	a5,-100(s0)
2001333e:	03f7f793          	andi	a5,a5,63
C:/Users/nandg/Desktop/Athena_Welcome_Demo/sifive_hifive1_revb_sifive_welcome/freedom-metal/src/drivers/riscv_cpu.c:191 (discriminator 1)
            if ((id < METAL_INTERRUPT_ID_CSW) ||
20013342:	ef9d                	bnez	a5,20013380 <__metal_exception_handler+0x100>
C:/Users/nandg/Desktop/Athena_Welcome_Demo/sifive_hifive1_revb_sifive_welcome/freedom-metal/src/drivers/riscv_cpu.c:193
                priv = intc->metal_int_table[id].exint_data;
20013344:	f9842683          	lw	a3,-104(s0)
20013348:	f9442703          	lw	a4,-108(s0)
2001334c:	87ba                	mv	a5,a4
2001334e:	0786                	slli	a5,a5,0x1
20013350:	97ba                	add	a5,a5,a4
20013352:	078e                	slli	a5,a5,0x3
20013354:	97b6                	add	a5,a5,a3
20013356:	0987a783          	lw	a5,152(a5)
2001335a:	f8f42623          	sw	a5,-116(s0)
C:/Users/nandg/Desktop/Athena_Welcome_Demo/sifive_hifive1_revb_sifive_welcome/freedom-metal/src/drivers/riscv_cpu.c:194
                intc->metal_int_table[id].handler(id, priv);
2001335e:	f9842683          	lw	a3,-104(s0)
20013362:	f9442703          	lw	a4,-108(s0)
20013366:	87ba                	mv	a5,a4
20013368:	0786                	slli	a5,a5,0x1
2001336a:	97ba                	add	a5,a5,a4
2001336c:	078e                	slli	a5,a5,0x3
2001336e:	97b6                	add	a5,a5,a3
20013370:	0907a783          	lw	a5,144(a5)
20013374:	f8c42583          	lw	a1,-116(s0)
20013378:	f9442503          	lw	a0,-108(s0)
2001337c:	9782                	jalr	a5
C:/Users/nandg/Desktop/Athena_Welcome_Demo/sifive_hifive1_revb_sifive_welcome/freedom-metal/src/drivers/riscv_cpu.c:195
                return;
2001337e:	a8a9                	j	200133d8 <__metal_exception_handler+0x158>
C:/Users/nandg/Desktop/Athena_Welcome_Demo/sifive_hifive1_revb_sifive_welcome/freedom-metal/src/drivers/riscv_cpu.c:197
            }
            if ((mtvec & METAL_MTVEC_MASK) == METAL_MTVEC_CLIC) {
20013380:	f9c42783          	lw	a5,-100(s0)
20013384:	03f7f713          	andi	a4,a5,63
20013388:	4789                	li	a5,2
2001338a:	04f71763          	bne	a4,a5,200133d8 <__metal_exception_handler+0x158>
C:/Users/nandg/Desktop/Athena_Welcome_Demo/sifive_hifive1_revb_sifive_welcome/freedom-metal/src/drivers/riscv_cpu.c:201
                uintptr_t mtvt;
                metal_interrupt_handler_t mtvt_handler;

                __asm__ volatile("csrr %0, 0x307" : "=r"(mtvt));
2001338e:	307027f3          	csrr	a5,mtvt
20013392:	f8f42823          	sw	a5,-112(s0)
C:/Users/nandg/Desktop/Athena_Welcome_Demo/sifive_hifive1_revb_sifive_welcome/freedom-metal/src/drivers/riscv_cpu.c:202
                priv = intc->metal_int_table[METAL_INTERRUPT_ID_SW].sub_int;
20013396:	f9842783          	lw	a5,-104(s0)
2001339a:	0dc7a783          	lw	a5,220(a5)
2001339e:	f8f42623          	sw	a5,-116(s0)
C:/Users/nandg/Desktop/Athena_Welcome_Demo/sifive_hifive1_revb_sifive_welcome/freedom-metal/src/drivers/riscv_cpu.c:203
                mtvt_handler = (metal_interrupt_handler_t) * (uintptr_t *)mtvt;
200133a2:	f9042783          	lw	a5,-112(s0)
200133a6:	439c                	lw	a5,0(a5)
200133a8:	f8f42423          	sw	a5,-120(s0)
C:/Users/nandg/Desktop/Athena_Welcome_Demo/sifive_hifive1_revb_sifive_welcome/freedom-metal/src/drivers/riscv_cpu.c:204
                mtvt_handler(id, priv);
200133ac:	f8842783          	lw	a5,-120(s0)
200133b0:	f8c42583          	lw	a1,-116(s0)
200133b4:	f9442503          	lw	a0,-108(s0)
200133b8:	9782                	jalr	a5
C:/Users/nandg/Desktop/Athena_Welcome_Demo/sifive_hifive1_revb_sifive_welcome/freedom-metal/src/drivers/riscv_cpu.c:205
                return;
200133ba:	a839                	j	200133d8 <__metal_exception_handler+0x158>
C:/Users/nandg/Desktop/Athena_Welcome_Demo/sifive_hifive1_revb_sifive_welcome/freedom-metal/src/drivers/riscv_cpu.c:208
            }
        } else {
            intc->metal_exception_table[id]((struct metal_cpu *)cpu, id);
200133bc:	f9842703          	lw	a4,-104(s0)
200133c0:	f9442783          	lw	a5,-108(s0)
200133c4:	0e878793          	addi	a5,a5,232
200133c8:	078a                	slli	a5,a5,0x2
200133ca:	97ba                	add	a5,a5,a4
200133cc:	439c                	lw	a5,0(a5)
200133ce:	f9442583          	lw	a1,-108(s0)
200133d2:	fac42503          	lw	a0,-84(s0)
200133d6:	9782                	jalr	a5
C:/Users/nandg/Desktop/Athena_Welcome_Demo/sifive_hifive1_revb_sifive_welcome/freedom-metal/src/drivers/riscv_cpu.c:211
        }
    }
}
200133d8:	50f6                	lw	ra,124(sp)
200133da:	52e6                	lw	t0,120(sp)
200133dc:	5356                	lw	t1,116(sp)
200133de:	53c6                	lw	t2,112(sp)
200133e0:	5436                	lw	s0,108(sp)
200133e2:	5526                	lw	a0,104(sp)
200133e4:	5596                	lw	a1,100(sp)
200133e6:	5606                	lw	a2,96(sp)
200133e8:	46f6                	lw	a3,92(sp)
200133ea:	4766                	lw	a4,88(sp)
200133ec:	47d6                	lw	a5,84(sp)
200133ee:	4846                	lw	a6,80(sp)
200133f0:	48b6                	lw	a7,76(sp)
200133f2:	4e26                	lw	t3,72(sp)
200133f4:	4e96                	lw	t4,68(sp)
200133f6:	4f06                	lw	t5,64(sp)
200133f8:	5ff2                	lw	t6,60(sp)
200133fa:	6109                	addi	sp,sp,128
200133fc:	30200073          	mret
	...

2001347a <metal_lc0_interrupt_vector_handler>:
metal_lc0_interrupt_vector_handler():
C:/Users/nandg/Desktop/Athena_Welcome_Demo/sifive_hifive1_revb_sifive_welcome/freedom-metal/src/drivers/riscv_cpu.c:214

/* The metal_lc0_interrupt_vector_handler() function can be redefined. */
void __attribute__((weak, interrupt)) metal_lc0_interrupt_vector_handler(void) {
2001347a:	711d                	addi	sp,sp,-96
2001347c:	ce86                	sw	ra,92(sp)
2001347e:	cc96                	sw	t0,88(sp)
20013480:	ca9a                	sw	t1,84(sp)
20013482:	c89e                	sw	t2,80(sp)
20013484:	c6a2                	sw	s0,76(sp)
20013486:	c4aa                	sw	a0,72(sp)
20013488:	c2ae                	sw	a1,68(sp)
2001348a:	c0b2                	sw	a2,64(sp)
2001348c:	de36                	sw	a3,60(sp)
2001348e:	dc3a                	sw	a4,56(sp)
20013490:	da3e                	sw	a5,52(sp)
20013492:	d842                	sw	a6,48(sp)
20013494:	d646                	sw	a7,44(sp)
20013496:	d472                	sw	t3,40(sp)
20013498:	d276                	sw	t4,36(sp)
2001349a:	d07a                	sw	t5,32(sp)
2001349c:	ce7e                	sw	t6,28(sp)
2001349e:	1080                	addi	s0,sp,96
C:/Users/nandg/Desktop/Athena_Welcome_Demo/sifive_hifive1_revb_sifive_welcome/freedom-metal/src/drivers/riscv_cpu.c:215
    __METAL_IRQ_VECTOR_HANDLER(METAL_INTERRUPT_ID_LC0);
200134a0:	a01ff0ef          	jal	ra,20012ea0 <__metal_myhart_id>
200134a4:	872a                	mv	a4,a0
200134a6:	800017b7          	lui	a5,0x80001
200134aa:	070a                	slli	a4,a4,0x2
200134ac:	ab478793          	addi	a5,a5,-1356 # 80000ab4 <metal_segment_heap_target_end+0xfffff314>
200134b0:	97ba                	add	a5,a5,a4
200134b2:	439c                	lw	a5,0(a5)
200134b4:	faf42623          	sw	a5,-84(s0)
200134b8:	fac42783          	lw	a5,-84(s0)
200134bc:	c78d                	beqz	a5,200134e6 <metal_lc0_interrupt_vector_handler+0x6c>
C:/Users/nandg/Desktop/Athena_Welcome_Demo/sifive_hifive1_revb_sifive_welcome/freedom-metal/src/drivers/riscv_cpu.c:215 (discriminator 1)
200134be:	fac42503          	lw	a0,-84(s0)
200134c2:	961ff0ef          	jal	ra,20012e22 <__metal_driver_cpu_interrupt_controller>
200134c6:	faa42423          	sw	a0,-88(s0)
200134ca:	fa842783          	lw	a5,-88(s0)
200134ce:	2187a783          	lw	a5,536(a5)
200134d2:	faf42223          	sw	a5,-92(s0)
200134d6:	fa842783          	lw	a5,-88(s0)
200134da:	2107a783          	lw	a5,528(a5)
200134de:	fa442583          	lw	a1,-92(s0)
200134e2:	4541                	li	a0,16
200134e4:	9782                	jalr	a5
C:/Users/nandg/Desktop/Athena_Welcome_Demo/sifive_hifive1_revb_sifive_welcome/freedom-metal/src/drivers/riscv_cpu.c:216
}
200134e6:	0001                	nop
200134e8:	40f6                	lw	ra,92(sp)
200134ea:	42e6                	lw	t0,88(sp)
200134ec:	4356                	lw	t1,84(sp)
200134ee:	43c6                	lw	t2,80(sp)
200134f0:	4436                	lw	s0,76(sp)
200134f2:	4526                	lw	a0,72(sp)
200134f4:	4596                	lw	a1,68(sp)
200134f6:	4606                	lw	a2,64(sp)
200134f8:	56f2                	lw	a3,60(sp)
200134fa:	5762                	lw	a4,56(sp)
200134fc:	57d2                	lw	a5,52(sp)
200134fe:	5842                	lw	a6,48(sp)
20013500:	58b2                	lw	a7,44(sp)
20013502:	5e22                	lw	t3,40(sp)
20013504:	5e92                	lw	t4,36(sp)
20013506:	5f02                	lw	t5,32(sp)
20013508:	4ff2                	lw	t6,28(sp)
2001350a:	6125                	addi	sp,sp,96
2001350c:	30200073          	mret

20013510 <metal_lc1_interrupt_vector_handler>:
metal_lc1_interrupt_vector_handler():
C:/Users/nandg/Desktop/Athena_Welcome_Demo/sifive_hifive1_revb_sifive_welcome/freedom-metal/src/drivers/riscv_cpu.c:219

/* The metal_lc1_interrupt_vector_handler() function can be redefined. */
void __attribute__((weak, interrupt)) metal_lc1_interrupt_vector_handler(void) {
20013510:	711d                	addi	sp,sp,-96
20013512:	ce86                	sw	ra,92(sp)
20013514:	cc96                	sw	t0,88(sp)
20013516:	ca9a                	sw	t1,84(sp)
20013518:	c89e                	sw	t2,80(sp)
2001351a:	c6a2                	sw	s0,76(sp)
2001351c:	c4aa                	sw	a0,72(sp)
2001351e:	c2ae                	sw	a1,68(sp)
20013520:	c0b2                	sw	a2,64(sp)
20013522:	de36                	sw	a3,60(sp)
20013524:	dc3a                	sw	a4,56(sp)
20013526:	da3e                	sw	a5,52(sp)
20013528:	d842                	sw	a6,48(sp)
2001352a:	d646                	sw	a7,44(sp)
2001352c:	d472                	sw	t3,40(sp)
2001352e:	d276                	sw	t4,36(sp)
20013530:	d07a                	sw	t5,32(sp)
20013532:	ce7e                	sw	t6,28(sp)
20013534:	1080                	addi	s0,sp,96
C:/Users/nandg/Desktop/Athena_Welcome_Demo/sifive_hifive1_revb_sifive_welcome/freedom-metal/src/drivers/riscv_cpu.c:220
    __METAL_IRQ_VECTOR_HANDLER(METAL_INTERRUPT_ID_LC1);
20013536:	96bff0ef          	jal	ra,20012ea0 <__metal_myhart_id>
2001353a:	872a                	mv	a4,a0
2001353c:	800017b7          	lui	a5,0x80001
20013540:	070a                	slli	a4,a4,0x2
20013542:	ab478793          	addi	a5,a5,-1356 # 80000ab4 <metal_segment_heap_target_end+0xfffff314>
20013546:	97ba                	add	a5,a5,a4
20013548:	439c                	lw	a5,0(a5)
2001354a:	faf42623          	sw	a5,-84(s0)
2001354e:	fac42783          	lw	a5,-84(s0)
20013552:	c78d                	beqz	a5,2001357c <metal_lc1_interrupt_vector_handler+0x6c>
C:/Users/nandg/Desktop/Athena_Welcome_Demo/sifive_hifive1_revb_sifive_welcome/freedom-metal/src/drivers/riscv_cpu.c:220 (discriminator 1)
20013554:	fac42503          	lw	a0,-84(s0)
20013558:	8cbff0ef          	jal	ra,20012e22 <__metal_driver_cpu_interrupt_controller>
2001355c:	faa42423          	sw	a0,-88(s0)
20013560:	fa842783          	lw	a5,-88(s0)
20013564:	2307a783          	lw	a5,560(a5)
20013568:	faf42223          	sw	a5,-92(s0)
2001356c:	fa842783          	lw	a5,-88(s0)
20013570:	2287a783          	lw	a5,552(a5)
20013574:	fa442583          	lw	a1,-92(s0)
20013578:	4545                	li	a0,17
2001357a:	9782                	jalr	a5
C:/Users/nandg/Desktop/Athena_Welcome_Demo/sifive_hifive1_revb_sifive_welcome/freedom-metal/src/drivers/riscv_cpu.c:221
}
2001357c:	0001                	nop
2001357e:	40f6                	lw	ra,92(sp)
20013580:	42e6                	lw	t0,88(sp)
20013582:	4356                	lw	t1,84(sp)
20013584:	43c6                	lw	t2,80(sp)
20013586:	4436                	lw	s0,76(sp)
20013588:	4526                	lw	a0,72(sp)
2001358a:	4596                	lw	a1,68(sp)
2001358c:	4606                	lw	a2,64(sp)
2001358e:	56f2                	lw	a3,60(sp)
20013590:	5762                	lw	a4,56(sp)
20013592:	57d2                	lw	a5,52(sp)
20013594:	5842                	lw	a6,48(sp)
20013596:	58b2                	lw	a7,44(sp)
20013598:	5e22                	lw	t3,40(sp)
2001359a:	5e92                	lw	t4,36(sp)
2001359c:	5f02                	lw	t5,32(sp)
2001359e:	4ff2                	lw	t6,28(sp)
200135a0:	6125                	addi	sp,sp,96
200135a2:	30200073          	mret

200135a6 <metal_lc2_interrupt_vector_handler>:
metal_lc2_interrupt_vector_handler():
C:/Users/nandg/Desktop/Athena_Welcome_Demo/sifive_hifive1_revb_sifive_welcome/freedom-metal/src/drivers/riscv_cpu.c:224

/* The metal_lc2_interrupt_vector_handler() function can be redefined. */
void __attribute__((weak, interrupt)) metal_lc2_interrupt_vector_handler(void) {
200135a6:	711d                	addi	sp,sp,-96
200135a8:	ce86                	sw	ra,92(sp)
200135aa:	cc96                	sw	t0,88(sp)
200135ac:	ca9a                	sw	t1,84(sp)
200135ae:	c89e                	sw	t2,80(sp)
200135b0:	c6a2                	sw	s0,76(sp)
200135b2:	c4aa                	sw	a0,72(sp)
200135b4:	c2ae                	sw	a1,68(sp)
200135b6:	c0b2                	sw	a2,64(sp)
200135b8:	de36                	sw	a3,60(sp)
200135ba:	dc3a                	sw	a4,56(sp)
200135bc:	da3e                	sw	a5,52(sp)
200135be:	d842                	sw	a6,48(sp)
200135c0:	d646                	sw	a7,44(sp)
200135c2:	d472                	sw	t3,40(sp)
200135c4:	d276                	sw	t4,36(sp)
200135c6:	d07a                	sw	t5,32(sp)
200135c8:	ce7e                	sw	t6,28(sp)
200135ca:	1080                	addi	s0,sp,96
C:/Users/nandg/Desktop/Athena_Welcome_Demo/sifive_hifive1_revb_sifive_welcome/freedom-metal/src/drivers/riscv_cpu.c:225
    __METAL_IRQ_VECTOR_HANDLER(METAL_INTERRUPT_ID_LC2);
200135cc:	8d5ff0ef          	jal	ra,20012ea0 <__metal_myhart_id>
200135d0:	872a                	mv	a4,a0
200135d2:	800017b7          	lui	a5,0x80001
200135d6:	070a                	slli	a4,a4,0x2
200135d8:	ab478793          	addi	a5,a5,-1356 # 80000ab4 <metal_segment_heap_target_end+0xfffff314>
200135dc:	97ba                	add	a5,a5,a4
200135de:	439c                	lw	a5,0(a5)
200135e0:	faf42623          	sw	a5,-84(s0)
200135e4:	fac42783          	lw	a5,-84(s0)
200135e8:	c78d                	beqz	a5,20013612 <metal_lc2_interrupt_vector_handler+0x6c>
C:/Users/nandg/Desktop/Athena_Welcome_Demo/sifive_hifive1_revb_sifive_welcome/freedom-metal/src/drivers/riscv_cpu.c:225 (discriminator 1)
200135ea:	fac42503          	lw	a0,-84(s0)
200135ee:	835ff0ef          	jal	ra,20012e22 <__metal_driver_cpu_interrupt_controller>
200135f2:	faa42423          	sw	a0,-88(s0)
200135f6:	fa842783          	lw	a5,-88(s0)
200135fa:	2487a783          	lw	a5,584(a5)
200135fe:	faf42223          	sw	a5,-92(s0)
20013602:	fa842783          	lw	a5,-88(s0)
20013606:	2407a783          	lw	a5,576(a5)
2001360a:	fa442583          	lw	a1,-92(s0)
2001360e:	4549                	li	a0,18
20013610:	9782                	jalr	a5
C:/Users/nandg/Desktop/Athena_Welcome_Demo/sifive_hifive1_revb_sifive_welcome/freedom-metal/src/drivers/riscv_cpu.c:226
}
20013612:	0001                	nop
20013614:	40f6                	lw	ra,92(sp)
20013616:	42e6                	lw	t0,88(sp)
20013618:	4356                	lw	t1,84(sp)
2001361a:	43c6                	lw	t2,80(sp)
2001361c:	4436                	lw	s0,76(sp)
2001361e:	4526                	lw	a0,72(sp)
20013620:	4596                	lw	a1,68(sp)
20013622:	4606                	lw	a2,64(sp)
20013624:	56f2                	lw	a3,60(sp)
20013626:	5762                	lw	a4,56(sp)
20013628:	57d2                	lw	a5,52(sp)
2001362a:	5842                	lw	a6,48(sp)
2001362c:	58b2                	lw	a7,44(sp)
2001362e:	5e22                	lw	t3,40(sp)
20013630:	5e92                	lw	t4,36(sp)
20013632:	5f02                	lw	t5,32(sp)
20013634:	4ff2                	lw	t6,28(sp)
20013636:	6125                	addi	sp,sp,96
20013638:	30200073          	mret

2001363c <metal_lc3_interrupt_vector_handler>:
metal_lc3_interrupt_vector_handler():
C:/Users/nandg/Desktop/Athena_Welcome_Demo/sifive_hifive1_revb_sifive_welcome/freedom-metal/src/drivers/riscv_cpu.c:229

/* The metal_lc3_interrupt_vector_handler() function can be redefined. */
void __attribute__((weak, interrupt)) metal_lc3_interrupt_vector_handler(void) {
2001363c:	711d                	addi	sp,sp,-96
2001363e:	ce86                	sw	ra,92(sp)
20013640:	cc96                	sw	t0,88(sp)
20013642:	ca9a                	sw	t1,84(sp)
20013644:	c89e                	sw	t2,80(sp)
20013646:	c6a2                	sw	s0,76(sp)
20013648:	c4aa                	sw	a0,72(sp)
2001364a:	c2ae                	sw	a1,68(sp)
2001364c:	c0b2                	sw	a2,64(sp)
2001364e:	de36                	sw	a3,60(sp)
20013650:	dc3a                	sw	a4,56(sp)
20013652:	da3e                	sw	a5,52(sp)
20013654:	d842                	sw	a6,48(sp)
20013656:	d646                	sw	a7,44(sp)
20013658:	d472                	sw	t3,40(sp)
2001365a:	d276                	sw	t4,36(sp)
2001365c:	d07a                	sw	t5,32(sp)
2001365e:	ce7e                	sw	t6,28(sp)
20013660:	1080                	addi	s0,sp,96
C:/Users/nandg/Desktop/Athena_Welcome_Demo/sifive_hifive1_revb_sifive_welcome/freedom-metal/src/drivers/riscv_cpu.c:230
    __METAL_IRQ_VECTOR_HANDLER(METAL_INTERRUPT_ID_LC3);
20013662:	83fff0ef          	jal	ra,20012ea0 <__metal_myhart_id>
20013666:	872a                	mv	a4,a0
20013668:	800017b7          	lui	a5,0x80001
2001366c:	070a                	slli	a4,a4,0x2
2001366e:	ab478793          	addi	a5,a5,-1356 # 80000ab4 <metal_segment_heap_target_end+0xfffff314>
20013672:	97ba                	add	a5,a5,a4
20013674:	439c                	lw	a5,0(a5)
20013676:	faf42623          	sw	a5,-84(s0)
2001367a:	fac42783          	lw	a5,-84(s0)
2001367e:	c78d                	beqz	a5,200136a8 <metal_lc3_interrupt_vector_handler+0x6c>
C:/Users/nandg/Desktop/Athena_Welcome_Demo/sifive_hifive1_revb_sifive_welcome/freedom-metal/src/drivers/riscv_cpu.c:230 (discriminator 1)
20013680:	fac42503          	lw	a0,-84(s0)
20013684:	f9eff0ef          	jal	ra,20012e22 <__metal_driver_cpu_interrupt_controller>
20013688:	faa42423          	sw	a0,-88(s0)
2001368c:	fa842783          	lw	a5,-88(s0)
20013690:	2607a783          	lw	a5,608(a5)
20013694:	faf42223          	sw	a5,-92(s0)
20013698:	fa842783          	lw	a5,-88(s0)
2001369c:	2587a783          	lw	a5,600(a5)
200136a0:	fa442583          	lw	a1,-92(s0)
200136a4:	454d                	li	a0,19
200136a6:	9782                	jalr	a5
C:/Users/nandg/Desktop/Athena_Welcome_Demo/sifive_hifive1_revb_sifive_welcome/freedom-metal/src/drivers/riscv_cpu.c:231
}
200136a8:	0001                	nop
200136aa:	40f6                	lw	ra,92(sp)
200136ac:	42e6                	lw	t0,88(sp)
200136ae:	4356                	lw	t1,84(sp)
200136b0:	43c6                	lw	t2,80(sp)
200136b2:	4436                	lw	s0,76(sp)
200136b4:	4526                	lw	a0,72(sp)
200136b6:	4596                	lw	a1,68(sp)
200136b8:	4606                	lw	a2,64(sp)
200136ba:	56f2                	lw	a3,60(sp)
200136bc:	5762                	lw	a4,56(sp)
200136be:	57d2                	lw	a5,52(sp)
200136c0:	5842                	lw	a6,48(sp)
200136c2:	58b2                	lw	a7,44(sp)
200136c4:	5e22                	lw	t3,40(sp)
200136c6:	5e92                	lw	t4,36(sp)
200136c8:	5f02                	lw	t5,32(sp)
200136ca:	4ff2                	lw	t6,28(sp)
200136cc:	6125                	addi	sp,sp,96
200136ce:	30200073          	mret

200136d2 <metal_lc4_interrupt_vector_handler>:
metal_lc4_interrupt_vector_handler():
C:/Users/nandg/Desktop/Athena_Welcome_Demo/sifive_hifive1_revb_sifive_welcome/freedom-metal/src/drivers/riscv_cpu.c:234

/* The metal_lc4_interrupt_vector_handler() function can be redefined. */
void __attribute__((weak, interrupt)) metal_lc4_interrupt_vector_handler(void) {
200136d2:	711d                	addi	sp,sp,-96
200136d4:	ce86                	sw	ra,92(sp)
200136d6:	cc96                	sw	t0,88(sp)
200136d8:	ca9a                	sw	t1,84(sp)
200136da:	c89e                	sw	t2,80(sp)
200136dc:	c6a2                	sw	s0,76(sp)
200136de:	c4aa                	sw	a0,72(sp)
200136e0:	c2ae                	sw	a1,68(sp)
200136e2:	c0b2                	sw	a2,64(sp)
200136e4:	de36                	sw	a3,60(sp)
200136e6:	dc3a                	sw	a4,56(sp)
200136e8:	da3e                	sw	a5,52(sp)
200136ea:	d842                	sw	a6,48(sp)
200136ec:	d646                	sw	a7,44(sp)
200136ee:	d472                	sw	t3,40(sp)
200136f0:	d276                	sw	t4,36(sp)
200136f2:	d07a                	sw	t5,32(sp)
200136f4:	ce7e                	sw	t6,28(sp)
200136f6:	1080                	addi	s0,sp,96
C:/Users/nandg/Desktop/Athena_Welcome_Demo/sifive_hifive1_revb_sifive_welcome/freedom-metal/src/drivers/riscv_cpu.c:235
    __METAL_IRQ_VECTOR_HANDLER(METAL_INTERRUPT_ID_LC4);
200136f8:	fa8ff0ef          	jal	ra,20012ea0 <__metal_myhart_id>
200136fc:	872a                	mv	a4,a0
200136fe:	800017b7          	lui	a5,0x80001
20013702:	070a                	slli	a4,a4,0x2
20013704:	ab478793          	addi	a5,a5,-1356 # 80000ab4 <metal_segment_heap_target_end+0xfffff314>
20013708:	97ba                	add	a5,a5,a4
2001370a:	439c                	lw	a5,0(a5)
2001370c:	faf42623          	sw	a5,-84(s0)
20013710:	fac42783          	lw	a5,-84(s0)
20013714:	c78d                	beqz	a5,2001373e <metal_lc4_interrupt_vector_handler+0x6c>
C:/Users/nandg/Desktop/Athena_Welcome_Demo/sifive_hifive1_revb_sifive_welcome/freedom-metal/src/drivers/riscv_cpu.c:235 (discriminator 1)
20013716:	fac42503          	lw	a0,-84(s0)
2001371a:	f08ff0ef          	jal	ra,20012e22 <__metal_driver_cpu_interrupt_controller>
2001371e:	faa42423          	sw	a0,-88(s0)
20013722:	fa842783          	lw	a5,-88(s0)
20013726:	2787a783          	lw	a5,632(a5)
2001372a:	faf42223          	sw	a5,-92(s0)
2001372e:	fa842783          	lw	a5,-88(s0)
20013732:	2707a783          	lw	a5,624(a5)
20013736:	fa442583          	lw	a1,-92(s0)
2001373a:	4551                	li	a0,20
2001373c:	9782                	jalr	a5
C:/Users/nandg/Desktop/Athena_Welcome_Demo/sifive_hifive1_revb_sifive_welcome/freedom-metal/src/drivers/riscv_cpu.c:236
}
2001373e:	0001                	nop
20013740:	40f6                	lw	ra,92(sp)
20013742:	42e6                	lw	t0,88(sp)
20013744:	4356                	lw	t1,84(sp)
20013746:	43c6                	lw	t2,80(sp)
20013748:	4436                	lw	s0,76(sp)
2001374a:	4526                	lw	a0,72(sp)
2001374c:	4596                	lw	a1,68(sp)
2001374e:	4606                	lw	a2,64(sp)
20013750:	56f2                	lw	a3,60(sp)
20013752:	5762                	lw	a4,56(sp)
20013754:	57d2                	lw	a5,52(sp)
20013756:	5842                	lw	a6,48(sp)
20013758:	58b2                	lw	a7,44(sp)
2001375a:	5e22                	lw	t3,40(sp)
2001375c:	5e92                	lw	t4,36(sp)
2001375e:	5f02                	lw	t5,32(sp)
20013760:	4ff2                	lw	t6,28(sp)
20013762:	6125                	addi	sp,sp,96
20013764:	30200073          	mret

20013768 <metal_lc5_interrupt_vector_handler>:
metal_lc5_interrupt_vector_handler():
C:/Users/nandg/Desktop/Athena_Welcome_Demo/sifive_hifive1_revb_sifive_welcome/freedom-metal/src/drivers/riscv_cpu.c:239

/* The metal_lc5_interrupt_vector_handler() function can be redefined. */
void __attribute__((weak, interrupt)) metal_lc5_interrupt_vector_handler(void) {
20013768:	711d                	addi	sp,sp,-96
2001376a:	ce86                	sw	ra,92(sp)
2001376c:	cc96                	sw	t0,88(sp)
2001376e:	ca9a                	sw	t1,84(sp)
20013770:	c89e                	sw	t2,80(sp)
20013772:	c6a2                	sw	s0,76(sp)
20013774:	c4aa                	sw	a0,72(sp)
20013776:	c2ae                	sw	a1,68(sp)
20013778:	c0b2                	sw	a2,64(sp)
2001377a:	de36                	sw	a3,60(sp)
2001377c:	dc3a                	sw	a4,56(sp)
2001377e:	da3e                	sw	a5,52(sp)
20013780:	d842                	sw	a6,48(sp)
20013782:	d646                	sw	a7,44(sp)
20013784:	d472                	sw	t3,40(sp)
20013786:	d276                	sw	t4,36(sp)
20013788:	d07a                	sw	t5,32(sp)
2001378a:	ce7e                	sw	t6,28(sp)
2001378c:	1080                	addi	s0,sp,96
C:/Users/nandg/Desktop/Athena_Welcome_Demo/sifive_hifive1_revb_sifive_welcome/freedom-metal/src/drivers/riscv_cpu.c:240
    __METAL_IRQ_VECTOR_HANDLER(METAL_INTERRUPT_ID_LC5);
2001378e:	f12ff0ef          	jal	ra,20012ea0 <__metal_myhart_id>
20013792:	872a                	mv	a4,a0
20013794:	800017b7          	lui	a5,0x80001
20013798:	070a                	slli	a4,a4,0x2
2001379a:	ab478793          	addi	a5,a5,-1356 # 80000ab4 <metal_segment_heap_target_end+0xfffff314>
2001379e:	97ba                	add	a5,a5,a4
200137a0:	439c                	lw	a5,0(a5)
200137a2:	faf42623          	sw	a5,-84(s0)
200137a6:	fac42783          	lw	a5,-84(s0)
200137aa:	c78d                	beqz	a5,200137d4 <metal_lc5_interrupt_vector_handler+0x6c>
C:/Users/nandg/Desktop/Athena_Welcome_Demo/sifive_hifive1_revb_sifive_welcome/freedom-metal/src/drivers/riscv_cpu.c:240 (discriminator 1)
200137ac:	fac42503          	lw	a0,-84(s0)
200137b0:	e72ff0ef          	jal	ra,20012e22 <__metal_driver_cpu_interrupt_controller>
200137b4:	faa42423          	sw	a0,-88(s0)
200137b8:	fa842783          	lw	a5,-88(s0)
200137bc:	2907a783          	lw	a5,656(a5)
200137c0:	faf42223          	sw	a5,-92(s0)
200137c4:	fa842783          	lw	a5,-88(s0)
200137c8:	2887a783          	lw	a5,648(a5)
200137cc:	fa442583          	lw	a1,-92(s0)
200137d0:	4555                	li	a0,21
200137d2:	9782                	jalr	a5
C:/Users/nandg/Desktop/Athena_Welcome_Demo/sifive_hifive1_revb_sifive_welcome/freedom-metal/src/drivers/riscv_cpu.c:241
}
200137d4:	0001                	nop
200137d6:	40f6                	lw	ra,92(sp)
200137d8:	42e6                	lw	t0,88(sp)
200137da:	4356                	lw	t1,84(sp)
200137dc:	43c6                	lw	t2,80(sp)
200137de:	4436                	lw	s0,76(sp)
200137e0:	4526                	lw	a0,72(sp)
200137e2:	4596                	lw	a1,68(sp)
200137e4:	4606                	lw	a2,64(sp)
200137e6:	56f2                	lw	a3,60(sp)
200137e8:	5762                	lw	a4,56(sp)
200137ea:	57d2                	lw	a5,52(sp)
200137ec:	5842                	lw	a6,48(sp)
200137ee:	58b2                	lw	a7,44(sp)
200137f0:	5e22                	lw	t3,40(sp)
200137f2:	5e92                	lw	t4,36(sp)
200137f4:	5f02                	lw	t5,32(sp)
200137f6:	4ff2                	lw	t6,28(sp)
200137f8:	6125                	addi	sp,sp,96
200137fa:	30200073          	mret

200137fe <metal_lc6_interrupt_vector_handler>:
metal_lc6_interrupt_vector_handler():
C:/Users/nandg/Desktop/Athena_Welcome_Demo/sifive_hifive1_revb_sifive_welcome/freedom-metal/src/drivers/riscv_cpu.c:244

/* The metal_lc6_interrupt_vector_handler() function can be redefined. */
void __attribute__((weak, interrupt)) metal_lc6_interrupt_vector_handler(void) {
200137fe:	711d                	addi	sp,sp,-96
20013800:	ce86                	sw	ra,92(sp)
20013802:	cc96                	sw	t0,88(sp)
20013804:	ca9a                	sw	t1,84(sp)
20013806:	c89e                	sw	t2,80(sp)
20013808:	c6a2                	sw	s0,76(sp)
2001380a:	c4aa                	sw	a0,72(sp)
2001380c:	c2ae                	sw	a1,68(sp)
2001380e:	c0b2                	sw	a2,64(sp)
20013810:	de36                	sw	a3,60(sp)
20013812:	dc3a                	sw	a4,56(sp)
20013814:	da3e                	sw	a5,52(sp)
20013816:	d842                	sw	a6,48(sp)
20013818:	d646                	sw	a7,44(sp)
2001381a:	d472                	sw	t3,40(sp)
2001381c:	d276                	sw	t4,36(sp)
2001381e:	d07a                	sw	t5,32(sp)
20013820:	ce7e                	sw	t6,28(sp)
20013822:	1080                	addi	s0,sp,96
C:/Users/nandg/Desktop/Athena_Welcome_Demo/sifive_hifive1_revb_sifive_welcome/freedom-metal/src/drivers/riscv_cpu.c:245
    __METAL_IRQ_VECTOR_HANDLER(METAL_INTERRUPT_ID_LC6);
20013824:	e7cff0ef          	jal	ra,20012ea0 <__metal_myhart_id>
20013828:	872a                	mv	a4,a0
2001382a:	800017b7          	lui	a5,0x80001
2001382e:	070a                	slli	a4,a4,0x2
20013830:	ab478793          	addi	a5,a5,-1356 # 80000ab4 <metal_segment_heap_target_end+0xfffff314>
20013834:	97ba                	add	a5,a5,a4
20013836:	439c                	lw	a5,0(a5)
20013838:	faf42623          	sw	a5,-84(s0)
2001383c:	fac42783          	lw	a5,-84(s0)
20013840:	c78d                	beqz	a5,2001386a <metal_lc6_interrupt_vector_handler+0x6c>
C:/Users/nandg/Desktop/Athena_Welcome_Demo/sifive_hifive1_revb_sifive_welcome/freedom-metal/src/drivers/riscv_cpu.c:245 (discriminator 1)
20013842:	fac42503          	lw	a0,-84(s0)
20013846:	ddcff0ef          	jal	ra,20012e22 <__metal_driver_cpu_interrupt_controller>
2001384a:	faa42423          	sw	a0,-88(s0)
2001384e:	fa842783          	lw	a5,-88(s0)
20013852:	2a87a783          	lw	a5,680(a5)
20013856:	faf42223          	sw	a5,-92(s0)
2001385a:	fa842783          	lw	a5,-88(s0)
2001385e:	2a07a783          	lw	a5,672(a5)
20013862:	fa442583          	lw	a1,-92(s0)
20013866:	4559                	li	a0,22
20013868:	9782                	jalr	a5
C:/Users/nandg/Desktop/Athena_Welcome_Demo/sifive_hifive1_revb_sifive_welcome/freedom-metal/src/drivers/riscv_cpu.c:246
}
2001386a:	0001                	nop
2001386c:	40f6                	lw	ra,92(sp)
2001386e:	42e6                	lw	t0,88(sp)
20013870:	4356                	lw	t1,84(sp)
20013872:	43c6                	lw	t2,80(sp)
20013874:	4436                	lw	s0,76(sp)
20013876:	4526                	lw	a0,72(sp)
20013878:	4596                	lw	a1,68(sp)
2001387a:	4606                	lw	a2,64(sp)
2001387c:	56f2                	lw	a3,60(sp)
2001387e:	5762                	lw	a4,56(sp)
20013880:	57d2                	lw	a5,52(sp)
20013882:	5842                	lw	a6,48(sp)
20013884:	58b2                	lw	a7,44(sp)
20013886:	5e22                	lw	t3,40(sp)
20013888:	5e92                	lw	t4,36(sp)
2001388a:	5f02                	lw	t5,32(sp)
2001388c:	4ff2                	lw	t6,28(sp)
2001388e:	6125                	addi	sp,sp,96
20013890:	30200073          	mret

20013894 <metal_lc7_interrupt_vector_handler>:
metal_lc7_interrupt_vector_handler():
C:/Users/nandg/Desktop/Athena_Welcome_Demo/sifive_hifive1_revb_sifive_welcome/freedom-metal/src/drivers/riscv_cpu.c:249

/* The metal_lc7_interrupt_vector_handler() function can be redefined. */
void __attribute__((weak, interrupt)) metal_lc7_interrupt_vector_handler(void) {
20013894:	711d                	addi	sp,sp,-96
20013896:	ce86                	sw	ra,92(sp)
20013898:	cc96                	sw	t0,88(sp)
2001389a:	ca9a                	sw	t1,84(sp)
2001389c:	c89e                	sw	t2,80(sp)
2001389e:	c6a2                	sw	s0,76(sp)
200138a0:	c4aa                	sw	a0,72(sp)
200138a2:	c2ae                	sw	a1,68(sp)
200138a4:	c0b2                	sw	a2,64(sp)
200138a6:	de36                	sw	a3,60(sp)
200138a8:	dc3a                	sw	a4,56(sp)
200138aa:	da3e                	sw	a5,52(sp)
200138ac:	d842                	sw	a6,48(sp)
200138ae:	d646                	sw	a7,44(sp)
200138b0:	d472                	sw	t3,40(sp)
200138b2:	d276                	sw	t4,36(sp)
200138b4:	d07a                	sw	t5,32(sp)
200138b6:	ce7e                	sw	t6,28(sp)
200138b8:	1080                	addi	s0,sp,96
C:/Users/nandg/Desktop/Athena_Welcome_Demo/sifive_hifive1_revb_sifive_welcome/freedom-metal/src/drivers/riscv_cpu.c:250
    __METAL_IRQ_VECTOR_HANDLER(METAL_INTERRUPT_ID_LC7);
200138ba:	de6ff0ef          	jal	ra,20012ea0 <__metal_myhart_id>
200138be:	872a                	mv	a4,a0
200138c0:	800017b7          	lui	a5,0x80001
200138c4:	070a                	slli	a4,a4,0x2
200138c6:	ab478793          	addi	a5,a5,-1356 # 80000ab4 <metal_segment_heap_target_end+0xfffff314>
200138ca:	97ba                	add	a5,a5,a4
200138cc:	439c                	lw	a5,0(a5)
200138ce:	faf42623          	sw	a5,-84(s0)
200138d2:	fac42783          	lw	a5,-84(s0)
200138d6:	c78d                	beqz	a5,20013900 <metal_lc7_interrupt_vector_handler+0x6c>
C:/Users/nandg/Desktop/Athena_Welcome_Demo/sifive_hifive1_revb_sifive_welcome/freedom-metal/src/drivers/riscv_cpu.c:250 (discriminator 1)
200138d8:	fac42503          	lw	a0,-84(s0)
200138dc:	d46ff0ef          	jal	ra,20012e22 <__metal_driver_cpu_interrupt_controller>
200138e0:	faa42423          	sw	a0,-88(s0)
200138e4:	fa842783          	lw	a5,-88(s0)
200138e8:	2c07a783          	lw	a5,704(a5)
200138ec:	faf42223          	sw	a5,-92(s0)
200138f0:	fa842783          	lw	a5,-88(s0)
200138f4:	2b87a783          	lw	a5,696(a5)
200138f8:	fa442583          	lw	a1,-92(s0)
200138fc:	455d                	li	a0,23
200138fe:	9782                	jalr	a5
C:/Users/nandg/Desktop/Athena_Welcome_Demo/sifive_hifive1_revb_sifive_welcome/freedom-metal/src/drivers/riscv_cpu.c:251
}
20013900:	0001                	nop
20013902:	40f6                	lw	ra,92(sp)
20013904:	42e6                	lw	t0,88(sp)
20013906:	4356                	lw	t1,84(sp)
20013908:	43c6                	lw	t2,80(sp)
2001390a:	4436                	lw	s0,76(sp)
2001390c:	4526                	lw	a0,72(sp)
2001390e:	4596                	lw	a1,68(sp)
20013910:	4606                	lw	a2,64(sp)
20013912:	56f2                	lw	a3,60(sp)
20013914:	5762                	lw	a4,56(sp)
20013916:	57d2                	lw	a5,52(sp)
20013918:	5842                	lw	a6,48(sp)
2001391a:	58b2                	lw	a7,44(sp)
2001391c:	5e22                	lw	t3,40(sp)
2001391e:	5e92                	lw	t4,36(sp)
20013920:	5f02                	lw	t5,32(sp)
20013922:	4ff2                	lw	t6,28(sp)
20013924:	6125                	addi	sp,sp,96
20013926:	30200073          	mret

2001392a <metal_lc8_interrupt_vector_handler>:
metal_lc8_interrupt_vector_handler():
C:/Users/nandg/Desktop/Athena_Welcome_Demo/sifive_hifive1_revb_sifive_welcome/freedom-metal/src/drivers/riscv_cpu.c:254

/* The metal_lc8_interrupt_vector_handler() function can be redefined. */
void __attribute__((weak, interrupt)) metal_lc8_interrupt_vector_handler(void) {
2001392a:	711d                	addi	sp,sp,-96
2001392c:	ce86                	sw	ra,92(sp)
2001392e:	cc96                	sw	t0,88(sp)
20013930:	ca9a                	sw	t1,84(sp)
20013932:	c89e                	sw	t2,80(sp)
20013934:	c6a2                	sw	s0,76(sp)
20013936:	c4aa                	sw	a0,72(sp)
20013938:	c2ae                	sw	a1,68(sp)
2001393a:	c0b2                	sw	a2,64(sp)
2001393c:	de36                	sw	a3,60(sp)
2001393e:	dc3a                	sw	a4,56(sp)
20013940:	da3e                	sw	a5,52(sp)
20013942:	d842                	sw	a6,48(sp)
20013944:	d646                	sw	a7,44(sp)
20013946:	d472                	sw	t3,40(sp)
20013948:	d276                	sw	t4,36(sp)
2001394a:	d07a                	sw	t5,32(sp)
2001394c:	ce7e                	sw	t6,28(sp)
2001394e:	1080                	addi	s0,sp,96
C:/Users/nandg/Desktop/Athena_Welcome_Demo/sifive_hifive1_revb_sifive_welcome/freedom-metal/src/drivers/riscv_cpu.c:255
    __METAL_IRQ_VECTOR_HANDLER(METAL_INTERRUPT_ID_LC8);
20013950:	d50ff0ef          	jal	ra,20012ea0 <__metal_myhart_id>
20013954:	872a                	mv	a4,a0
20013956:	800017b7          	lui	a5,0x80001
2001395a:	070a                	slli	a4,a4,0x2
2001395c:	ab478793          	addi	a5,a5,-1356 # 80000ab4 <metal_segment_heap_target_end+0xfffff314>
20013960:	97ba                	add	a5,a5,a4
20013962:	439c                	lw	a5,0(a5)
20013964:	faf42623          	sw	a5,-84(s0)
20013968:	fac42783          	lw	a5,-84(s0)
2001396c:	c78d                	beqz	a5,20013996 <metal_lc8_interrupt_vector_handler+0x6c>
C:/Users/nandg/Desktop/Athena_Welcome_Demo/sifive_hifive1_revb_sifive_welcome/freedom-metal/src/drivers/riscv_cpu.c:255 (discriminator 1)
2001396e:	fac42503          	lw	a0,-84(s0)
20013972:	cb0ff0ef          	jal	ra,20012e22 <__metal_driver_cpu_interrupt_controller>
20013976:	faa42423          	sw	a0,-88(s0)
2001397a:	fa842783          	lw	a5,-88(s0)
2001397e:	2d87a783          	lw	a5,728(a5)
20013982:	faf42223          	sw	a5,-92(s0)
20013986:	fa842783          	lw	a5,-88(s0)
2001398a:	2d07a783          	lw	a5,720(a5)
2001398e:	fa442583          	lw	a1,-92(s0)
20013992:	4561                	li	a0,24
20013994:	9782                	jalr	a5
C:/Users/nandg/Desktop/Athena_Welcome_Demo/sifive_hifive1_revb_sifive_welcome/freedom-metal/src/drivers/riscv_cpu.c:256
}
20013996:	0001                	nop
20013998:	40f6                	lw	ra,92(sp)
2001399a:	42e6                	lw	t0,88(sp)
2001399c:	4356                	lw	t1,84(sp)
2001399e:	43c6                	lw	t2,80(sp)
200139a0:	4436                	lw	s0,76(sp)
200139a2:	4526                	lw	a0,72(sp)
200139a4:	4596                	lw	a1,68(sp)
200139a6:	4606                	lw	a2,64(sp)
200139a8:	56f2                	lw	a3,60(sp)
200139aa:	5762                	lw	a4,56(sp)
200139ac:	57d2                	lw	a5,52(sp)
200139ae:	5842                	lw	a6,48(sp)
200139b0:	58b2                	lw	a7,44(sp)
200139b2:	5e22                	lw	t3,40(sp)
200139b4:	5e92                	lw	t4,36(sp)
200139b6:	5f02                	lw	t5,32(sp)
200139b8:	4ff2                	lw	t6,28(sp)
200139ba:	6125                	addi	sp,sp,96
200139bc:	30200073          	mret

200139c0 <metal_lc9_interrupt_vector_handler>:
metal_lc9_interrupt_vector_handler():
C:/Users/nandg/Desktop/Athena_Welcome_Demo/sifive_hifive1_revb_sifive_welcome/freedom-metal/src/drivers/riscv_cpu.c:259

/* The metal_lc9_interrupt_vector_handler() function can be redefined. */
void __attribute__((weak, interrupt)) metal_lc9_interrupt_vector_handler(void) {
200139c0:	711d                	addi	sp,sp,-96
200139c2:	ce86                	sw	ra,92(sp)
200139c4:	cc96                	sw	t0,88(sp)
200139c6:	ca9a                	sw	t1,84(sp)
200139c8:	c89e                	sw	t2,80(sp)
200139ca:	c6a2                	sw	s0,76(sp)
200139cc:	c4aa                	sw	a0,72(sp)
200139ce:	c2ae                	sw	a1,68(sp)
200139d0:	c0b2                	sw	a2,64(sp)
200139d2:	de36                	sw	a3,60(sp)
200139d4:	dc3a                	sw	a4,56(sp)
200139d6:	da3e                	sw	a5,52(sp)
200139d8:	d842                	sw	a6,48(sp)
200139da:	d646                	sw	a7,44(sp)
200139dc:	d472                	sw	t3,40(sp)
200139de:	d276                	sw	t4,36(sp)
200139e0:	d07a                	sw	t5,32(sp)
200139e2:	ce7e                	sw	t6,28(sp)
200139e4:	1080                	addi	s0,sp,96
C:/Users/nandg/Desktop/Athena_Welcome_Demo/sifive_hifive1_revb_sifive_welcome/freedom-metal/src/drivers/riscv_cpu.c:260
    __METAL_IRQ_VECTOR_HANDLER(METAL_INTERRUPT_ID_LC9);
200139e6:	cbaff0ef          	jal	ra,20012ea0 <__metal_myhart_id>
200139ea:	872a                	mv	a4,a0
200139ec:	800017b7          	lui	a5,0x80001
200139f0:	070a                	slli	a4,a4,0x2
200139f2:	ab478793          	addi	a5,a5,-1356 # 80000ab4 <metal_segment_heap_target_end+0xfffff314>
200139f6:	97ba                	add	a5,a5,a4
200139f8:	439c                	lw	a5,0(a5)
200139fa:	faf42623          	sw	a5,-84(s0)
200139fe:	fac42783          	lw	a5,-84(s0)
20013a02:	c78d                	beqz	a5,20013a2c <metal_lc9_interrupt_vector_handler+0x6c>
C:/Users/nandg/Desktop/Athena_Welcome_Demo/sifive_hifive1_revb_sifive_welcome/freedom-metal/src/drivers/riscv_cpu.c:260 (discriminator 1)
20013a04:	fac42503          	lw	a0,-84(s0)
20013a08:	c1aff0ef          	jal	ra,20012e22 <__metal_driver_cpu_interrupt_controller>
20013a0c:	faa42423          	sw	a0,-88(s0)
20013a10:	fa842783          	lw	a5,-88(s0)
20013a14:	2f07a783          	lw	a5,752(a5)
20013a18:	faf42223          	sw	a5,-92(s0)
20013a1c:	fa842783          	lw	a5,-88(s0)
20013a20:	2e87a783          	lw	a5,744(a5)
20013a24:	fa442583          	lw	a1,-92(s0)
20013a28:	4565                	li	a0,25
20013a2a:	9782                	jalr	a5
C:/Users/nandg/Desktop/Athena_Welcome_Demo/sifive_hifive1_revb_sifive_welcome/freedom-metal/src/drivers/riscv_cpu.c:261
}
20013a2c:	0001                	nop
20013a2e:	40f6                	lw	ra,92(sp)
20013a30:	42e6                	lw	t0,88(sp)
20013a32:	4356                	lw	t1,84(sp)
20013a34:	43c6                	lw	t2,80(sp)
20013a36:	4436                	lw	s0,76(sp)
20013a38:	4526                	lw	a0,72(sp)
20013a3a:	4596                	lw	a1,68(sp)
20013a3c:	4606                	lw	a2,64(sp)
20013a3e:	56f2                	lw	a3,60(sp)
20013a40:	5762                	lw	a4,56(sp)
20013a42:	57d2                	lw	a5,52(sp)
20013a44:	5842                	lw	a6,48(sp)
20013a46:	58b2                	lw	a7,44(sp)
20013a48:	5e22                	lw	t3,40(sp)
20013a4a:	5e92                	lw	t4,36(sp)
20013a4c:	5f02                	lw	t5,32(sp)
20013a4e:	4ff2                	lw	t6,28(sp)
20013a50:	6125                	addi	sp,sp,96
20013a52:	30200073          	mret

20013a56 <metal_lc10_interrupt_vector_handler>:
metal_lc10_interrupt_vector_handler():
C:/Users/nandg/Desktop/Athena_Welcome_Demo/sifive_hifive1_revb_sifive_welcome/freedom-metal/src/drivers/riscv_cpu.c:265

/* The metal_lc10_interrupt_vector_handler() function can be redefined. */
void __attribute__((weak, interrupt))
metal_lc10_interrupt_vector_handler(void) {
20013a56:	711d                	addi	sp,sp,-96
20013a58:	ce86                	sw	ra,92(sp)
20013a5a:	cc96                	sw	t0,88(sp)
20013a5c:	ca9a                	sw	t1,84(sp)
20013a5e:	c89e                	sw	t2,80(sp)
20013a60:	c6a2                	sw	s0,76(sp)
20013a62:	c4aa                	sw	a0,72(sp)
20013a64:	c2ae                	sw	a1,68(sp)
20013a66:	c0b2                	sw	a2,64(sp)
20013a68:	de36                	sw	a3,60(sp)
20013a6a:	dc3a                	sw	a4,56(sp)
20013a6c:	da3e                	sw	a5,52(sp)
20013a6e:	d842                	sw	a6,48(sp)
20013a70:	d646                	sw	a7,44(sp)
20013a72:	d472                	sw	t3,40(sp)
20013a74:	d276                	sw	t4,36(sp)
20013a76:	d07a                	sw	t5,32(sp)
20013a78:	ce7e                	sw	t6,28(sp)
20013a7a:	1080                	addi	s0,sp,96
C:/Users/nandg/Desktop/Athena_Welcome_Demo/sifive_hifive1_revb_sifive_welcome/freedom-metal/src/drivers/riscv_cpu.c:266
    __METAL_IRQ_VECTOR_HANDLER(METAL_INTERRUPT_ID_LC10);
20013a7c:	c24ff0ef          	jal	ra,20012ea0 <__metal_myhart_id>
20013a80:	872a                	mv	a4,a0
20013a82:	800017b7          	lui	a5,0x80001
20013a86:	070a                	slli	a4,a4,0x2
20013a88:	ab478793          	addi	a5,a5,-1356 # 80000ab4 <metal_segment_heap_target_end+0xfffff314>
20013a8c:	97ba                	add	a5,a5,a4
20013a8e:	439c                	lw	a5,0(a5)
20013a90:	faf42623          	sw	a5,-84(s0)
20013a94:	fac42783          	lw	a5,-84(s0)
20013a98:	c78d                	beqz	a5,20013ac2 <metal_lc10_interrupt_vector_handler+0x6c>
C:/Users/nandg/Desktop/Athena_Welcome_Demo/sifive_hifive1_revb_sifive_welcome/freedom-metal/src/drivers/riscv_cpu.c:266 (discriminator 1)
20013a9a:	fac42503          	lw	a0,-84(s0)
20013a9e:	b84ff0ef          	jal	ra,20012e22 <__metal_driver_cpu_interrupt_controller>
20013aa2:	faa42423          	sw	a0,-88(s0)
20013aa6:	fa842783          	lw	a5,-88(s0)
20013aaa:	3087a783          	lw	a5,776(a5)
20013aae:	faf42223          	sw	a5,-92(s0)
20013ab2:	fa842783          	lw	a5,-88(s0)
20013ab6:	3007a783          	lw	a5,768(a5)
20013aba:	fa442583          	lw	a1,-92(s0)
20013abe:	4569                	li	a0,26
20013ac0:	9782                	jalr	a5
C:/Users/nandg/Desktop/Athena_Welcome_Demo/sifive_hifive1_revb_sifive_welcome/freedom-metal/src/drivers/riscv_cpu.c:267
}
20013ac2:	0001                	nop
20013ac4:	40f6                	lw	ra,92(sp)
20013ac6:	42e6                	lw	t0,88(sp)
20013ac8:	4356                	lw	t1,84(sp)
20013aca:	43c6                	lw	t2,80(sp)
20013acc:	4436                	lw	s0,76(sp)
20013ace:	4526                	lw	a0,72(sp)
20013ad0:	4596                	lw	a1,68(sp)
20013ad2:	4606                	lw	a2,64(sp)
20013ad4:	56f2                	lw	a3,60(sp)
20013ad6:	5762                	lw	a4,56(sp)
20013ad8:	57d2                	lw	a5,52(sp)
20013ada:	5842                	lw	a6,48(sp)
20013adc:	58b2                	lw	a7,44(sp)
20013ade:	5e22                	lw	t3,40(sp)
20013ae0:	5e92                	lw	t4,36(sp)
20013ae2:	5f02                	lw	t5,32(sp)
20013ae4:	4ff2                	lw	t6,28(sp)
20013ae6:	6125                	addi	sp,sp,96
20013ae8:	30200073          	mret

20013aec <metal_lc11_interrupt_vector_handler>:
metal_lc11_interrupt_vector_handler():
C:/Users/nandg/Desktop/Athena_Welcome_Demo/sifive_hifive1_revb_sifive_welcome/freedom-metal/src/drivers/riscv_cpu.c:271

/* The metal_lc11_interrupt_vector_handler() function can be redefined. */
void __attribute__((weak, interrupt))
metal_lc11_interrupt_vector_handler(void) {
20013aec:	711d                	addi	sp,sp,-96
20013aee:	ce86                	sw	ra,92(sp)
20013af0:	cc96                	sw	t0,88(sp)
20013af2:	ca9a                	sw	t1,84(sp)
20013af4:	c89e                	sw	t2,80(sp)
20013af6:	c6a2                	sw	s0,76(sp)
20013af8:	c4aa                	sw	a0,72(sp)
20013afa:	c2ae                	sw	a1,68(sp)
20013afc:	c0b2                	sw	a2,64(sp)
20013afe:	de36                	sw	a3,60(sp)
20013b00:	dc3a                	sw	a4,56(sp)
20013b02:	da3e                	sw	a5,52(sp)
20013b04:	d842                	sw	a6,48(sp)
20013b06:	d646                	sw	a7,44(sp)
20013b08:	d472                	sw	t3,40(sp)
20013b0a:	d276                	sw	t4,36(sp)
20013b0c:	d07a                	sw	t5,32(sp)
20013b0e:	ce7e                	sw	t6,28(sp)
20013b10:	1080                	addi	s0,sp,96
C:/Users/nandg/Desktop/Athena_Welcome_Demo/sifive_hifive1_revb_sifive_welcome/freedom-metal/src/drivers/riscv_cpu.c:272
    __METAL_IRQ_VECTOR_HANDLER(METAL_INTERRUPT_ID_LC11);
20013b12:	b8eff0ef          	jal	ra,20012ea0 <__metal_myhart_id>
20013b16:	872a                	mv	a4,a0
20013b18:	800017b7          	lui	a5,0x80001
20013b1c:	070a                	slli	a4,a4,0x2
20013b1e:	ab478793          	addi	a5,a5,-1356 # 80000ab4 <metal_segment_heap_target_end+0xfffff314>
20013b22:	97ba                	add	a5,a5,a4
20013b24:	439c                	lw	a5,0(a5)
20013b26:	faf42623          	sw	a5,-84(s0)
20013b2a:	fac42783          	lw	a5,-84(s0)
20013b2e:	c78d                	beqz	a5,20013b58 <metal_lc11_interrupt_vector_handler+0x6c>
C:/Users/nandg/Desktop/Athena_Welcome_Demo/sifive_hifive1_revb_sifive_welcome/freedom-metal/src/drivers/riscv_cpu.c:272 (discriminator 1)
20013b30:	fac42503          	lw	a0,-84(s0)
20013b34:	aeeff0ef          	jal	ra,20012e22 <__metal_driver_cpu_interrupt_controller>
20013b38:	faa42423          	sw	a0,-88(s0)
20013b3c:	fa842783          	lw	a5,-88(s0)
20013b40:	3207a783          	lw	a5,800(a5)
20013b44:	faf42223          	sw	a5,-92(s0)
20013b48:	fa842783          	lw	a5,-88(s0)
20013b4c:	3187a783          	lw	a5,792(a5)
20013b50:	fa442583          	lw	a1,-92(s0)
20013b54:	456d                	li	a0,27
20013b56:	9782                	jalr	a5
C:/Users/nandg/Desktop/Athena_Welcome_Demo/sifive_hifive1_revb_sifive_welcome/freedom-metal/src/drivers/riscv_cpu.c:273
}
20013b58:	0001                	nop
20013b5a:	40f6                	lw	ra,92(sp)
20013b5c:	42e6                	lw	t0,88(sp)
20013b5e:	4356                	lw	t1,84(sp)
20013b60:	43c6                	lw	t2,80(sp)
20013b62:	4436                	lw	s0,76(sp)
20013b64:	4526                	lw	a0,72(sp)
20013b66:	4596                	lw	a1,68(sp)
20013b68:	4606                	lw	a2,64(sp)
20013b6a:	56f2                	lw	a3,60(sp)
20013b6c:	5762                	lw	a4,56(sp)
20013b6e:	57d2                	lw	a5,52(sp)
20013b70:	5842                	lw	a6,48(sp)
20013b72:	58b2                	lw	a7,44(sp)
20013b74:	5e22                	lw	t3,40(sp)
20013b76:	5e92                	lw	t4,36(sp)
20013b78:	5f02                	lw	t5,32(sp)
20013b7a:	4ff2                	lw	t6,28(sp)
20013b7c:	6125                	addi	sp,sp,96
20013b7e:	30200073          	mret

20013b82 <metal_lc12_interrupt_vector_handler>:
metal_lc12_interrupt_vector_handler():
C:/Users/nandg/Desktop/Athena_Welcome_Demo/sifive_hifive1_revb_sifive_welcome/freedom-metal/src/drivers/riscv_cpu.c:277

/* The metal_lc12_interrupt_vector_handler() function can be redefined. */
void __attribute__((weak, interrupt))
metal_lc12_interrupt_vector_handler(void) {
20013b82:	711d                	addi	sp,sp,-96
20013b84:	ce86                	sw	ra,92(sp)
20013b86:	cc96                	sw	t0,88(sp)
20013b88:	ca9a                	sw	t1,84(sp)
20013b8a:	c89e                	sw	t2,80(sp)
20013b8c:	c6a2                	sw	s0,76(sp)
20013b8e:	c4aa                	sw	a0,72(sp)
20013b90:	c2ae                	sw	a1,68(sp)
20013b92:	c0b2                	sw	a2,64(sp)
20013b94:	de36                	sw	a3,60(sp)
20013b96:	dc3a                	sw	a4,56(sp)
20013b98:	da3e                	sw	a5,52(sp)
20013b9a:	d842                	sw	a6,48(sp)
20013b9c:	d646                	sw	a7,44(sp)
20013b9e:	d472                	sw	t3,40(sp)
20013ba0:	d276                	sw	t4,36(sp)
20013ba2:	d07a                	sw	t5,32(sp)
20013ba4:	ce7e                	sw	t6,28(sp)
20013ba6:	1080                	addi	s0,sp,96
C:/Users/nandg/Desktop/Athena_Welcome_Demo/sifive_hifive1_revb_sifive_welcome/freedom-metal/src/drivers/riscv_cpu.c:278
    __METAL_IRQ_VECTOR_HANDLER(METAL_INTERRUPT_ID_LC12);
20013ba8:	af8ff0ef          	jal	ra,20012ea0 <__metal_myhart_id>
20013bac:	872a                	mv	a4,a0
20013bae:	800017b7          	lui	a5,0x80001
20013bb2:	070a                	slli	a4,a4,0x2
20013bb4:	ab478793          	addi	a5,a5,-1356 # 80000ab4 <metal_segment_heap_target_end+0xfffff314>
20013bb8:	97ba                	add	a5,a5,a4
20013bba:	439c                	lw	a5,0(a5)
20013bbc:	faf42623          	sw	a5,-84(s0)
20013bc0:	fac42783          	lw	a5,-84(s0)
20013bc4:	c78d                	beqz	a5,20013bee <metal_lc12_interrupt_vector_handler+0x6c>
C:/Users/nandg/Desktop/Athena_Welcome_Demo/sifive_hifive1_revb_sifive_welcome/freedom-metal/src/drivers/riscv_cpu.c:278 (discriminator 1)
20013bc6:	fac42503          	lw	a0,-84(s0)
20013bca:	a58ff0ef          	jal	ra,20012e22 <__metal_driver_cpu_interrupt_controller>
20013bce:	faa42423          	sw	a0,-88(s0)
20013bd2:	fa842783          	lw	a5,-88(s0)
20013bd6:	3387a783          	lw	a5,824(a5)
20013bda:	faf42223          	sw	a5,-92(s0)
20013bde:	fa842783          	lw	a5,-88(s0)
20013be2:	3307a783          	lw	a5,816(a5)
20013be6:	fa442583          	lw	a1,-92(s0)
20013bea:	4571                	li	a0,28
20013bec:	9782                	jalr	a5
C:/Users/nandg/Desktop/Athena_Welcome_Demo/sifive_hifive1_revb_sifive_welcome/freedom-metal/src/drivers/riscv_cpu.c:279
}
20013bee:	0001                	nop
20013bf0:	40f6                	lw	ra,92(sp)
20013bf2:	42e6                	lw	t0,88(sp)
20013bf4:	4356                	lw	t1,84(sp)
20013bf6:	43c6                	lw	t2,80(sp)
20013bf8:	4436                	lw	s0,76(sp)
20013bfa:	4526                	lw	a0,72(sp)
20013bfc:	4596                	lw	a1,68(sp)
20013bfe:	4606                	lw	a2,64(sp)
20013c00:	56f2                	lw	a3,60(sp)
20013c02:	5762                	lw	a4,56(sp)
20013c04:	57d2                	lw	a5,52(sp)
20013c06:	5842                	lw	a6,48(sp)
20013c08:	58b2                	lw	a7,44(sp)
20013c0a:	5e22                	lw	t3,40(sp)
20013c0c:	5e92                	lw	t4,36(sp)
20013c0e:	5f02                	lw	t5,32(sp)
20013c10:	4ff2                	lw	t6,28(sp)
20013c12:	6125                	addi	sp,sp,96
20013c14:	30200073          	mret

20013c18 <metal_lc13_interrupt_vector_handler>:
metal_lc13_interrupt_vector_handler():
C:/Users/nandg/Desktop/Athena_Welcome_Demo/sifive_hifive1_revb_sifive_welcome/freedom-metal/src/drivers/riscv_cpu.c:283

/* The metal_lc13_interrupt_vector_handler() function can be redefined. */
void __attribute__((weak, interrupt))
metal_lc13_interrupt_vector_handler(void) {
20013c18:	711d                	addi	sp,sp,-96
20013c1a:	ce86                	sw	ra,92(sp)
20013c1c:	cc96                	sw	t0,88(sp)
20013c1e:	ca9a                	sw	t1,84(sp)
20013c20:	c89e                	sw	t2,80(sp)
20013c22:	c6a2                	sw	s0,76(sp)
20013c24:	c4aa                	sw	a0,72(sp)
20013c26:	c2ae                	sw	a1,68(sp)
20013c28:	c0b2                	sw	a2,64(sp)
20013c2a:	de36                	sw	a3,60(sp)
20013c2c:	dc3a                	sw	a4,56(sp)
20013c2e:	da3e                	sw	a5,52(sp)
20013c30:	d842                	sw	a6,48(sp)
20013c32:	d646                	sw	a7,44(sp)
20013c34:	d472                	sw	t3,40(sp)
20013c36:	d276                	sw	t4,36(sp)
20013c38:	d07a                	sw	t5,32(sp)
20013c3a:	ce7e                	sw	t6,28(sp)
20013c3c:	1080                	addi	s0,sp,96
C:/Users/nandg/Desktop/Athena_Welcome_Demo/sifive_hifive1_revb_sifive_welcome/freedom-metal/src/drivers/riscv_cpu.c:284
    __METAL_IRQ_VECTOR_HANDLER(METAL_INTERRUPT_ID_LC13);
20013c3e:	a62ff0ef          	jal	ra,20012ea0 <__metal_myhart_id>
20013c42:	872a                	mv	a4,a0
20013c44:	800017b7          	lui	a5,0x80001
20013c48:	070a                	slli	a4,a4,0x2
20013c4a:	ab478793          	addi	a5,a5,-1356 # 80000ab4 <metal_segment_heap_target_end+0xfffff314>
20013c4e:	97ba                	add	a5,a5,a4
20013c50:	439c                	lw	a5,0(a5)
20013c52:	faf42623          	sw	a5,-84(s0)
20013c56:	fac42783          	lw	a5,-84(s0)
20013c5a:	c78d                	beqz	a5,20013c84 <metal_lc13_interrupt_vector_handler+0x6c>
C:/Users/nandg/Desktop/Athena_Welcome_Demo/sifive_hifive1_revb_sifive_welcome/freedom-metal/src/drivers/riscv_cpu.c:284 (discriminator 1)
20013c5c:	fac42503          	lw	a0,-84(s0)
20013c60:	9c2ff0ef          	jal	ra,20012e22 <__metal_driver_cpu_interrupt_controller>
20013c64:	faa42423          	sw	a0,-88(s0)
20013c68:	fa842783          	lw	a5,-88(s0)
20013c6c:	3507a783          	lw	a5,848(a5)
20013c70:	faf42223          	sw	a5,-92(s0)
20013c74:	fa842783          	lw	a5,-88(s0)
20013c78:	3487a783          	lw	a5,840(a5)
20013c7c:	fa442583          	lw	a1,-92(s0)
20013c80:	4575                	li	a0,29
20013c82:	9782                	jalr	a5
C:/Users/nandg/Desktop/Athena_Welcome_Demo/sifive_hifive1_revb_sifive_welcome/freedom-metal/src/drivers/riscv_cpu.c:285
}
20013c84:	0001                	nop
20013c86:	40f6                	lw	ra,92(sp)
20013c88:	42e6                	lw	t0,88(sp)
20013c8a:	4356                	lw	t1,84(sp)
20013c8c:	43c6                	lw	t2,80(sp)
20013c8e:	4436                	lw	s0,76(sp)
20013c90:	4526                	lw	a0,72(sp)
20013c92:	4596                	lw	a1,68(sp)
20013c94:	4606                	lw	a2,64(sp)
20013c96:	56f2                	lw	a3,60(sp)
20013c98:	5762                	lw	a4,56(sp)
20013c9a:	57d2                	lw	a5,52(sp)
20013c9c:	5842                	lw	a6,48(sp)
20013c9e:	58b2                	lw	a7,44(sp)
20013ca0:	5e22                	lw	t3,40(sp)
20013ca2:	5e92                	lw	t4,36(sp)
20013ca4:	5f02                	lw	t5,32(sp)
20013ca6:	4ff2                	lw	t6,28(sp)
20013ca8:	6125                	addi	sp,sp,96
20013caa:	30200073          	mret

20013cae <metal_lc14_interrupt_vector_handler>:
metal_lc14_interrupt_vector_handler():
C:/Users/nandg/Desktop/Athena_Welcome_Demo/sifive_hifive1_revb_sifive_welcome/freedom-metal/src/drivers/riscv_cpu.c:289

/* The metal_lc14_interrupt_vector_handler() function can be redefined. */
void __attribute__((weak, interrupt))
metal_lc14_interrupt_vector_handler(void) {
20013cae:	711d                	addi	sp,sp,-96
20013cb0:	ce86                	sw	ra,92(sp)
20013cb2:	cc96                	sw	t0,88(sp)
20013cb4:	ca9a                	sw	t1,84(sp)
20013cb6:	c89e                	sw	t2,80(sp)
20013cb8:	c6a2                	sw	s0,76(sp)
20013cba:	c4aa                	sw	a0,72(sp)
20013cbc:	c2ae                	sw	a1,68(sp)
20013cbe:	c0b2                	sw	a2,64(sp)
20013cc0:	de36                	sw	a3,60(sp)
20013cc2:	dc3a                	sw	a4,56(sp)
20013cc4:	da3e                	sw	a5,52(sp)
20013cc6:	d842                	sw	a6,48(sp)
20013cc8:	d646                	sw	a7,44(sp)
20013cca:	d472                	sw	t3,40(sp)
20013ccc:	d276                	sw	t4,36(sp)
20013cce:	d07a                	sw	t5,32(sp)
20013cd0:	ce7e                	sw	t6,28(sp)
20013cd2:	1080                	addi	s0,sp,96
C:/Users/nandg/Desktop/Athena_Welcome_Demo/sifive_hifive1_revb_sifive_welcome/freedom-metal/src/drivers/riscv_cpu.c:290
    __METAL_IRQ_VECTOR_HANDLER(METAL_INTERRUPT_ID_LC14);
20013cd4:	9ccff0ef          	jal	ra,20012ea0 <__metal_myhart_id>
20013cd8:	872a                	mv	a4,a0
20013cda:	800017b7          	lui	a5,0x80001
20013cde:	070a                	slli	a4,a4,0x2
20013ce0:	ab478793          	addi	a5,a5,-1356 # 80000ab4 <metal_segment_heap_target_end+0xfffff314>
20013ce4:	97ba                	add	a5,a5,a4
20013ce6:	439c                	lw	a5,0(a5)
20013ce8:	faf42623          	sw	a5,-84(s0)
20013cec:	fac42783          	lw	a5,-84(s0)
20013cf0:	c78d                	beqz	a5,20013d1a <metal_lc14_interrupt_vector_handler+0x6c>
C:/Users/nandg/Desktop/Athena_Welcome_Demo/sifive_hifive1_revb_sifive_welcome/freedom-metal/src/drivers/riscv_cpu.c:290 (discriminator 1)
20013cf2:	fac42503          	lw	a0,-84(s0)
20013cf6:	92cff0ef          	jal	ra,20012e22 <__metal_driver_cpu_interrupt_controller>
20013cfa:	faa42423          	sw	a0,-88(s0)
20013cfe:	fa842783          	lw	a5,-88(s0)
20013d02:	3687a783          	lw	a5,872(a5)
20013d06:	faf42223          	sw	a5,-92(s0)
20013d0a:	fa842783          	lw	a5,-88(s0)
20013d0e:	3607a783          	lw	a5,864(a5)
20013d12:	fa442583          	lw	a1,-92(s0)
20013d16:	4579                	li	a0,30
20013d18:	9782                	jalr	a5
C:/Users/nandg/Desktop/Athena_Welcome_Demo/sifive_hifive1_revb_sifive_welcome/freedom-metal/src/drivers/riscv_cpu.c:291
}
20013d1a:	0001                	nop
20013d1c:	40f6                	lw	ra,92(sp)
20013d1e:	42e6                	lw	t0,88(sp)
20013d20:	4356                	lw	t1,84(sp)
20013d22:	43c6                	lw	t2,80(sp)
20013d24:	4436                	lw	s0,76(sp)
20013d26:	4526                	lw	a0,72(sp)
20013d28:	4596                	lw	a1,68(sp)
20013d2a:	4606                	lw	a2,64(sp)
20013d2c:	56f2                	lw	a3,60(sp)
20013d2e:	5762                	lw	a4,56(sp)
20013d30:	57d2                	lw	a5,52(sp)
20013d32:	5842                	lw	a6,48(sp)
20013d34:	58b2                	lw	a7,44(sp)
20013d36:	5e22                	lw	t3,40(sp)
20013d38:	5e92                	lw	t4,36(sp)
20013d3a:	5f02                	lw	t5,32(sp)
20013d3c:	4ff2                	lw	t6,28(sp)
20013d3e:	6125                	addi	sp,sp,96
20013d40:	30200073          	mret

20013d44 <metal_lc15_interrupt_vector_handler>:
metal_lc15_interrupt_vector_handler():
C:/Users/nandg/Desktop/Athena_Welcome_Demo/sifive_hifive1_revb_sifive_welcome/freedom-metal/src/drivers/riscv_cpu.c:295

/* The metal_lc15_interrupt_vector_handler() function can be redefined. */
void __attribute__((weak, interrupt))
metal_lc15_interrupt_vector_handler(void) {
20013d44:	711d                	addi	sp,sp,-96
20013d46:	ce86                	sw	ra,92(sp)
20013d48:	cc96                	sw	t0,88(sp)
20013d4a:	ca9a                	sw	t1,84(sp)
20013d4c:	c89e                	sw	t2,80(sp)
20013d4e:	c6a2                	sw	s0,76(sp)
20013d50:	c4aa                	sw	a0,72(sp)
20013d52:	c2ae                	sw	a1,68(sp)
20013d54:	c0b2                	sw	a2,64(sp)
20013d56:	de36                	sw	a3,60(sp)
20013d58:	dc3a                	sw	a4,56(sp)
20013d5a:	da3e                	sw	a5,52(sp)
20013d5c:	d842                	sw	a6,48(sp)
20013d5e:	d646                	sw	a7,44(sp)
20013d60:	d472                	sw	t3,40(sp)
20013d62:	d276                	sw	t4,36(sp)
20013d64:	d07a                	sw	t5,32(sp)
20013d66:	ce7e                	sw	t6,28(sp)
20013d68:	1080                	addi	s0,sp,96
C:/Users/nandg/Desktop/Athena_Welcome_Demo/sifive_hifive1_revb_sifive_welcome/freedom-metal/src/drivers/riscv_cpu.c:296
    __METAL_IRQ_VECTOR_HANDLER(METAL_INTERRUPT_ID_LC15);
20013d6a:	936ff0ef          	jal	ra,20012ea0 <__metal_myhart_id>
20013d6e:	872a                	mv	a4,a0
20013d70:	800017b7          	lui	a5,0x80001
20013d74:	070a                	slli	a4,a4,0x2
20013d76:	ab478793          	addi	a5,a5,-1356 # 80000ab4 <metal_segment_heap_target_end+0xfffff314>
20013d7a:	97ba                	add	a5,a5,a4
20013d7c:	439c                	lw	a5,0(a5)
20013d7e:	faf42623          	sw	a5,-84(s0)
20013d82:	fac42783          	lw	a5,-84(s0)
20013d86:	c78d                	beqz	a5,20013db0 <metal_lc15_interrupt_vector_handler+0x6c>
C:/Users/nandg/Desktop/Athena_Welcome_Demo/sifive_hifive1_revb_sifive_welcome/freedom-metal/src/drivers/riscv_cpu.c:296 (discriminator 1)
20013d88:	fac42503          	lw	a0,-84(s0)
20013d8c:	896ff0ef          	jal	ra,20012e22 <__metal_driver_cpu_interrupt_controller>
20013d90:	faa42423          	sw	a0,-88(s0)
20013d94:	fa842783          	lw	a5,-88(s0)
20013d98:	3807a783          	lw	a5,896(a5)
20013d9c:	faf42223          	sw	a5,-92(s0)
20013da0:	fa842783          	lw	a5,-88(s0)
20013da4:	3787a783          	lw	a5,888(a5)
20013da8:	fa442583          	lw	a1,-92(s0)
20013dac:	457d                	li	a0,31
20013dae:	9782                	jalr	a5
C:/Users/nandg/Desktop/Athena_Welcome_Demo/sifive_hifive1_revb_sifive_welcome/freedom-metal/src/drivers/riscv_cpu.c:297
}
20013db0:	0001                	nop
20013db2:	40f6                	lw	ra,92(sp)
20013db4:	42e6                	lw	t0,88(sp)
20013db6:	4356                	lw	t1,84(sp)
20013db8:	43c6                	lw	t2,80(sp)
20013dba:	4436                	lw	s0,76(sp)
20013dbc:	4526                	lw	a0,72(sp)
20013dbe:	4596                	lw	a1,68(sp)
20013dc0:	4606                	lw	a2,64(sp)
20013dc2:	56f2                	lw	a3,60(sp)
20013dc4:	5762                	lw	a4,56(sp)
20013dc6:	57d2                	lw	a5,52(sp)
20013dc8:	5842                	lw	a6,48(sp)
20013dca:	58b2                	lw	a7,44(sp)
20013dcc:	5e22                	lw	t3,40(sp)
20013dce:	5e92                	lw	t4,36(sp)
20013dd0:	5f02                	lw	t5,32(sp)
20013dd2:	4ff2                	lw	t6,28(sp)
20013dd4:	6125                	addi	sp,sp,96
20013dd6:	30200073          	mret

20013dda <__metal_controller_interrupt_vector_mode>:
__metal_controller_interrupt_vector_mode():
C:/Users/nandg/Desktop/Athena_Welcome_Demo/sifive_hifive1_revb_sifive_welcome/freedom-metal/src/drivers/riscv_cpu.c:299

metal_vector_mode __metal_controller_interrupt_vector_mode(void) {
20013dda:	1101                	addi	sp,sp,-32
20013ddc:	ce22                	sw	s0,28(sp)
20013dde:	1000                	addi	s0,sp,32
C:/Users/nandg/Desktop/Athena_Welcome_Demo/sifive_hifive1_revb_sifive_welcome/freedom-metal/src/drivers/riscv_cpu.c:302
    uintptr_t val;

    __asm__ volatile("csrr %0, mtvec" : "=r"(val));
20013de0:	305027f3          	csrr	a5,mtvec
20013de4:	fef42623          	sw	a5,-20(s0)
C:/Users/nandg/Desktop/Athena_Welcome_Demo/sifive_hifive1_revb_sifive_welcome/freedom-metal/src/drivers/riscv_cpu.c:303
    val &= METAL_MTVEC_MASK;
20013de8:	fec42783          	lw	a5,-20(s0)
20013dec:	03f7f793          	andi	a5,a5,63
20013df0:	fef42623          	sw	a5,-20(s0)
C:/Users/nandg/Desktop/Athena_Welcome_Demo/sifive_hifive1_revb_sifive_welcome/freedom-metal/src/drivers/riscv_cpu.c:305

    switch (val) {
20013df4:	fec42703          	lw	a4,-20(s0)
20013df8:	478d                	li	a5,3
20013dfa:	02f70363          	beq	a4,a5,20013e20 <__metal_controller_interrupt_vector_mode+0x46>
20013dfe:	fec42703          	lw	a4,-20(s0)
20013e02:	478d                	li	a5,3
20013e04:	02e7e263          	bltu	a5,a4,20013e28 <__metal_controller_interrupt_vector_mode+0x4e>
20013e08:	fec42703          	lw	a4,-20(s0)
20013e0c:	4785                	li	a5,1
20013e0e:	00f70b63          	beq	a4,a5,20013e24 <__metal_controller_interrupt_vector_mode+0x4a>
20013e12:	fec42703          	lw	a4,-20(s0)
20013e16:	4789                	li	a5,2
20013e18:	00f71863          	bne	a4,a5,20013e28 <__metal_controller_interrupt_vector_mode+0x4e>
C:/Users/nandg/Desktop/Athena_Welcome_Demo/sifive_hifive1_revb_sifive_welcome/freedom-metal/src/drivers/riscv_cpu.c:307
    case METAL_MTVEC_CLIC:
        return METAL_SELECTIVE_VECTOR_MODE;
20013e1c:	478d                	li	a5,3
20013e1e:	a031                	j	20013e2a <__metal_controller_interrupt_vector_mode+0x50>
C:/Users/nandg/Desktop/Athena_Welcome_Demo/sifive_hifive1_revb_sifive_welcome/freedom-metal/src/drivers/riscv_cpu.c:309
    case METAL_MTVEC_CLIC_VECTORED:
        return METAL_HARDWARE_VECTOR_MODE;
20013e20:	4791                	li	a5,4
20013e22:	a021                	j	20013e2a <__metal_controller_interrupt_vector_mode+0x50>
C:/Users/nandg/Desktop/Athena_Welcome_Demo/sifive_hifive1_revb_sifive_welcome/freedom-metal/src/drivers/riscv_cpu.c:311
    case METAL_MTVEC_VECTORED:
        return METAL_VECTOR_MODE;
20013e24:	4785                	li	a5,1
20013e26:	a011                	j	20013e2a <__metal_controller_interrupt_vector_mode+0x50>
C:/Users/nandg/Desktop/Athena_Welcome_Demo/sifive_hifive1_revb_sifive_welcome/freedom-metal/src/drivers/riscv_cpu.c:313
    }
    return METAL_DIRECT_MODE;
20013e28:	4781                	li	a5,0
C:/Users/nandg/Desktop/Athena_Welcome_Demo/sifive_hifive1_revb_sifive_welcome/freedom-metal/src/drivers/riscv_cpu.c:314
}
20013e2a:	853e                	mv	a0,a5
20013e2c:	4472                	lw	s0,28(sp)
20013e2e:	6105                	addi	sp,sp,32
20013e30:	8082                	ret

20013e32 <__metal_controller_interrupt_vector>:
__metal_controller_interrupt_vector():
C:/Users/nandg/Desktop/Athena_Welcome_Demo/sifive_hifive1_revb_sifive_welcome/freedom-metal/src/drivers/riscv_cpu.c:317

void __metal_controller_interrupt_vector(metal_vector_mode mode,
                                         void *vec_table) {
20013e32:	7179                	addi	sp,sp,-48
20013e34:	d622                	sw	s0,44(sp)
20013e36:	1800                	addi	s0,sp,48
20013e38:	fca42e23          	sw	a0,-36(s0)
20013e3c:	fcb42c23          	sw	a1,-40(s0)
C:/Users/nandg/Desktop/Athena_Welcome_Demo/sifive_hifive1_revb_sifive_welcome/freedom-metal/src/drivers/riscv_cpu.c:320
    uintptr_t trap_entry, val;

    __asm__ volatile("csrr %0, mtvec" : "=r"(val));
20013e40:	305027f3          	csrr	a5,mtvec
20013e44:	fef42623          	sw	a5,-20(s0)
C:/Users/nandg/Desktop/Athena_Welcome_Demo/sifive_hifive1_revb_sifive_welcome/freedom-metal/src/drivers/riscv_cpu.c:321
    val &= ~(METAL_MTVEC_CLIC_VECTORED | METAL_MTVEC_CLIC_RESERVED);
20013e48:	fec42783          	lw	a5,-20(s0)
20013e4c:	fc07f793          	andi	a5,a5,-64
20013e50:	fef42623          	sw	a5,-20(s0)
C:/Users/nandg/Desktop/Athena_Welcome_Demo/sifive_hifive1_revb_sifive_welcome/freedom-metal/src/drivers/riscv_cpu.c:322
    trap_entry = (uintptr_t)vec_table;
20013e54:	fd842783          	lw	a5,-40(s0)
20013e58:	fef42423          	sw	a5,-24(s0)
C:/Users/nandg/Desktop/Athena_Welcome_Demo/sifive_hifive1_revb_sifive_welcome/freedom-metal/src/drivers/riscv_cpu.c:324

    switch (mode) {
20013e5c:	fdc42703          	lw	a4,-36(s0)
20013e60:	4791                	li	a5,4
20013e62:	04f70563          	beq	a4,a5,20013eac <__metal_controller_interrupt_vector+0x7a>
20013e66:	fdc42703          	lw	a4,-36(s0)
20013e6a:	4791                	li	a5,4
20013e6c:	06e7e863          	bltu	a5,a4,20013edc <__metal_controller_interrupt_vector+0xaa>
20013e70:	fdc42703          	lw	a4,-36(s0)
20013e74:	478d                	li	a5,3
20013e76:	06e7e363          	bltu	a5,a4,20013edc <__metal_controller_interrupt_vector+0xaa>
20013e7a:	fdc42703          	lw	a4,-36(s0)
20013e7e:	4789                	li	a5,2
20013e80:	00f77b63          	bgeu	a4,a5,20013e96 <__metal_controller_interrupt_vector+0x64>
20013e84:	fdc42783          	lw	a5,-36(s0)
20013e88:	c7a1                	beqz	a5,20013ed0 <__metal_controller_interrupt_vector+0x9e>
20013e8a:	fdc42703          	lw	a4,-36(s0)
20013e8e:	4785                	li	a5,1
20013e90:	02f70963          	beq	a4,a5,20013ec2 <__metal_controller_interrupt_vector+0x90>
C:/Users/nandg/Desktop/Athena_Welcome_Demo/sifive_hifive1_revb_sifive_welcome/freedom-metal/src/drivers/riscv_cpu.c:344
    case METAL_DIRECT_MODE:
        __asm__ volatile(
            "csrw mtvec, %0" ::"r"(trap_entry & ~METAL_MTVEC_CLIC_VECTORED));
        break;
    }
}
20013e94:	a0a1                	j	20013edc <__metal_controller_interrupt_vector+0xaa>
C:/Users/nandg/Desktop/Athena_Welcome_Demo/sifive_hifive1_revb_sifive_welcome/freedom-metal/src/drivers/riscv_cpu.c:327
        __asm__ volatile("csrw 0x307, %0" ::"r"(trap_entry));
20013e96:	fe842783          	lw	a5,-24(s0)
20013e9a:	30779073          	csrw	mtvt,a5
C:/Users/nandg/Desktop/Athena_Welcome_Demo/sifive_hifive1_revb_sifive_welcome/freedom-metal/src/drivers/riscv_cpu.c:328
        __asm__ volatile("csrw mtvec, %0" ::"r"(val | METAL_MTVEC_CLIC));
20013e9e:	fec42783          	lw	a5,-20(s0)
20013ea2:	0027e793          	ori	a5,a5,2
20013ea6:	30579073          	csrw	mtvec,a5
C:/Users/nandg/Desktop/Athena_Welcome_Demo/sifive_hifive1_revb_sifive_welcome/freedom-metal/src/drivers/riscv_cpu.c:329
        break;
20013eaa:	a80d                	j	20013edc <__metal_controller_interrupt_vector+0xaa>
C:/Users/nandg/Desktop/Athena_Welcome_Demo/sifive_hifive1_revb_sifive_welcome/freedom-metal/src/drivers/riscv_cpu.c:331
        __asm__ volatile("csrw 0x307, %0" ::"r"(trap_entry));
20013eac:	fe842783          	lw	a5,-24(s0)
20013eb0:	30779073          	csrw	mtvt,a5
C:/Users/nandg/Desktop/Athena_Welcome_Demo/sifive_hifive1_revb_sifive_welcome/freedom-metal/src/drivers/riscv_cpu.c:333
            "csrw mtvec, %0" ::"r"(val | METAL_MTVEC_CLIC_VECTORED));
20013eb4:	fec42783          	lw	a5,-20(s0)
20013eb8:	0037e793          	ori	a5,a5,3
C:/Users/nandg/Desktop/Athena_Welcome_Demo/sifive_hifive1_revb_sifive_welcome/freedom-metal/src/drivers/riscv_cpu.c:332
        __asm__ volatile(
20013ebc:	30579073          	csrw	mtvec,a5
C:/Users/nandg/Desktop/Athena_Welcome_Demo/sifive_hifive1_revb_sifive_welcome/freedom-metal/src/drivers/riscv_cpu.c:334
        break;
20013ec0:	a831                	j	20013edc <__metal_controller_interrupt_vector+0xaa>
C:/Users/nandg/Desktop/Athena_Welcome_Demo/sifive_hifive1_revb_sifive_welcome/freedom-metal/src/drivers/riscv_cpu.c:337
            "csrw mtvec, %0" ::"r"(trap_entry | METAL_MTVEC_VECTORED));
20013ec2:	fe842783          	lw	a5,-24(s0)
20013ec6:	0017e793          	ori	a5,a5,1
C:/Users/nandg/Desktop/Athena_Welcome_Demo/sifive_hifive1_revb_sifive_welcome/freedom-metal/src/drivers/riscv_cpu.c:336
        __asm__ volatile(
20013eca:	30579073          	csrw	mtvec,a5
C:/Users/nandg/Desktop/Athena_Welcome_Demo/sifive_hifive1_revb_sifive_welcome/freedom-metal/src/drivers/riscv_cpu.c:338
        break;
20013ece:	a039                	j	20013edc <__metal_controller_interrupt_vector+0xaa>
C:/Users/nandg/Desktop/Athena_Welcome_Demo/sifive_hifive1_revb_sifive_welcome/freedom-metal/src/drivers/riscv_cpu.c:341
            "csrw mtvec, %0" ::"r"(trap_entry & ~METAL_MTVEC_CLIC_VECTORED));
20013ed0:	fe842783          	lw	a5,-24(s0)
20013ed4:	9bf1                	andi	a5,a5,-4
C:/Users/nandg/Desktop/Athena_Welcome_Demo/sifive_hifive1_revb_sifive_welcome/freedom-metal/src/drivers/riscv_cpu.c:340
        __asm__ volatile(
20013ed6:	30579073          	csrw	mtvec,a5
C:/Users/nandg/Desktop/Athena_Welcome_Demo/sifive_hifive1_revb_sifive_welcome/freedom-metal/src/drivers/riscv_cpu.c:342
        break;
20013eda:	0001                	nop
C:/Users/nandg/Desktop/Athena_Welcome_Demo/sifive_hifive1_revb_sifive_welcome/freedom-metal/src/drivers/riscv_cpu.c:344
}
20013edc:	0001                	nop
20013ede:	5432                	lw	s0,44(sp)
20013ee0:	6145                	addi	sp,sp,48
20013ee2:	8082                	ret

20013ee4 <__metal_valid_interrupt_id>:
__metal_valid_interrupt_id():
C:/Users/nandg/Desktop/Athena_Welcome_Demo/sifive_hifive1_revb_sifive_welcome/freedom-metal/src/drivers/riscv_cpu.c:346

int __metal_valid_interrupt_id(int id) {
20013ee4:	1101                	addi	sp,sp,-32
20013ee6:	ce22                	sw	s0,28(sp)
20013ee8:	1000                	addi	s0,sp,32
20013eea:	fea42623          	sw	a0,-20(s0)
C:/Users/nandg/Desktop/Athena_Welcome_Demo/sifive_hifive1_revb_sifive_welcome/freedom-metal/src/drivers/riscv_cpu.c:347
    switch (id) {
20013eee:	fec42703          	lw	a4,-20(s0)
20013ef2:	47fd                	li	a5,31
20013ef4:	02e7c663          	blt	a5,a4,20013f20 <__metal_valid_interrupt_id+0x3c>
20013ef8:	fec42703          	lw	a4,-20(s0)
20013efc:	478d                	li	a5,3
20013efe:	02f74963          	blt	a4,a5,20013f30 <__metal_valid_interrupt_id+0x4c>
20013f02:	fec42783          	lw	a5,-20(s0)
20013f06:	4705                	li	a4,1
20013f08:	00f71733          	sll	a4,a4,a5
20013f0c:	77c5                	lui	a5,0xffff1
20013f0e:	88878793          	addi	a5,a5,-1912 # ffff0888 <metal_segment_heap_target_end+0x7ffef0e8>
20013f12:	8ff9                	and	a5,a5,a4
20013f14:	00f037b3          	snez	a5,a5
20013f18:	0ff7f793          	zext.b	a5,a5
20013f1c:	eb81                	bnez	a5,20013f2c <__metal_valid_interrupt_id+0x48>
C:/Users/nandg/Desktop/Athena_Welcome_Demo/sifive_hifive1_revb_sifive_welcome/freedom-metal/src/drivers/riscv_cpu.c:370
    case METAL_INTERRUPT_ID_LC14:
    case METAL_INTERRUPT_ID_LC15:
    case METAL_INTERRUPT_ID_BEU:
        return 1;
    default:
        break;
20013f1e:	a809                	j	20013f30 <__metal_valid_interrupt_id+0x4c>
C:/Users/nandg/Desktop/Athena_Welcome_Demo/sifive_hifive1_revb_sifive_welcome/freedom-metal/src/drivers/riscv_cpu.c:347
    switch (id) {
20013f20:	fec42703          	lw	a4,-20(s0)
20013f24:	08000793          	li	a5,128
20013f28:	00f71463          	bne	a4,a5,20013f30 <__metal_valid_interrupt_id+0x4c>
C:/Users/nandg/Desktop/Athena_Welcome_Demo/sifive_hifive1_revb_sifive_welcome/freedom-metal/src/drivers/riscv_cpu.c:368
        return 1;
20013f2c:	4785                	li	a5,1
20013f2e:	a019                	j	20013f34 <__metal_valid_interrupt_id+0x50>
C:/Users/nandg/Desktop/Athena_Welcome_Demo/sifive_hifive1_revb_sifive_welcome/freedom-metal/src/drivers/riscv_cpu.c:370
        break;
20013f30:	0001                	nop
C:/Users/nandg/Desktop/Athena_Welcome_Demo/sifive_hifive1_revb_sifive_welcome/freedom-metal/src/drivers/riscv_cpu.c:373
    }

    return 0;
20013f32:	4781                	li	a5,0
C:/Users/nandg/Desktop/Athena_Welcome_Demo/sifive_hifive1_revb_sifive_welcome/freedom-metal/src/drivers/riscv_cpu.c:374
}
20013f34:	853e                	mv	a0,a5
20013f36:	4472                	lw	s0,28(sp)
20013f38:	6105                	addi	sp,sp,32
20013f3a:	8082                	ret

20013f3c <__metal_local_interrupt_enable>:
__metal_local_interrupt_enable():
C:/Users/nandg/Desktop/Athena_Welcome_Demo/sifive_hifive1_revb_sifive_welcome/freedom-metal/src/drivers/riscv_cpu.c:377

int __metal_local_interrupt_enable(struct metal_interrupt *controller,
                                   metal_interrupt_id_e id, int enable) {
20013f3c:	7179                	addi	sp,sp,-48
20013f3e:	d606                	sw	ra,44(sp)
20013f40:	d422                	sw	s0,40(sp)
20013f42:	1800                	addi	s0,sp,48
20013f44:	fca42e23          	sw	a0,-36(s0)
20013f48:	fcb42c23          	sw	a1,-40(s0)
20013f4c:	fcc42a23          	sw	a2,-44(s0)
C:/Users/nandg/Desktop/Athena_Welcome_Demo/sifive_hifive1_revb_sifive_welcome/freedom-metal/src/drivers/riscv_cpu.c:378
    int rc = 0;
20013f50:	fe042623          	sw	zero,-20(s0)
C:/Users/nandg/Desktop/Athena_Welcome_Demo/sifive_hifive1_revb_sifive_welcome/freedom-metal/src/drivers/riscv_cpu.c:380

    if (!controller) {
20013f54:	fdc42783          	lw	a5,-36(s0)
20013f58:	e399                	bnez	a5,20013f5e <__metal_local_interrupt_enable+0x22>
C:/Users/nandg/Desktop/Athena_Welcome_Demo/sifive_hifive1_revb_sifive_welcome/freedom-metal/src/drivers/riscv_cpu.c:381
        return -1;
20013f5a:	57fd                	li	a5,-1
20013f5c:	a849                	j	20013fee <__metal_local_interrupt_enable+0xb2>
20013f5e:	fd842703          	lw	a4,-40(s0)
20013f62:	47fd                	li	a5,31
20013f64:	08e7e063          	bltu	a5,a4,20013fe4 <__metal_local_interrupt_enable+0xa8>
20013f68:	fd842783          	lw	a5,-40(s0)
20013f6c:	00279713          	slli	a4,a5,0x2
20013f70:	200117b7          	lui	a5,0x20011
20013f74:	89478793          	addi	a5,a5,-1900 # 20010894 <__metal_driver_vtable_riscv_clint0+0x64>
20013f78:	97ba                	add	a5,a5,a4
20013f7a:	439c                	lw	a5,0(a5)
20013f7c:	8782                	jr	a5
C:/Users/nandg/Desktop/Athena_Welcome_Demo/sifive_hifive1_revb_sifive_welcome/freedom-metal/src/drivers/riscv_cpu.c:386
    }

    switch (id) {
    case METAL_INTERRUPT_ID_BASE:
        if (enable) {
20013f7e:	fd442783          	lw	a5,-44(s0)
20013f82:	c781                	beqz	a5,20013f8a <__metal_local_interrupt_enable+0x4e>
C:/Users/nandg/Desktop/Athena_Welcome_Demo/sifive_hifive1_revb_sifive_welcome/freedom-metal/src/drivers/riscv_cpu.c:387
            __metal_interrupt_global_enable();
20013f84:	f37fe0ef          	jal	ra,20012eba <__metal_interrupt_global_enable>
C:/Users/nandg/Desktop/Athena_Welcome_Demo/sifive_hifive1_revb_sifive_welcome/freedom-metal/src/drivers/riscv_cpu.c:391
        } else {
            __metal_interrupt_global_disable();
        }
        break;
20013f88:	a08d                	j	20013fea <__metal_local_interrupt_enable+0xae>
C:/Users/nandg/Desktop/Athena_Welcome_Demo/sifive_hifive1_revb_sifive_welcome/freedom-metal/src/drivers/riscv_cpu.c:389
            __metal_interrupt_global_disable();
20013f8a:	f49fe0ef          	jal	ra,20012ed2 <__metal_interrupt_global_disable>
C:/Users/nandg/Desktop/Athena_Welcome_Demo/sifive_hifive1_revb_sifive_welcome/freedom-metal/src/drivers/riscv_cpu.c:391
        break;
20013f8e:	a8b1                	j	20013fea <__metal_local_interrupt_enable+0xae>
C:/Users/nandg/Desktop/Athena_Welcome_Demo/sifive_hifive1_revb_sifive_welcome/freedom-metal/src/drivers/riscv_cpu.c:393
    case METAL_INTERRUPT_ID_SW:
        if (enable) {
20013f90:	fd442783          	lw	a5,-44(s0)
20013f94:	c781                	beqz	a5,20013f9c <__metal_local_interrupt_enable+0x60>
C:/Users/nandg/Desktop/Athena_Welcome_Demo/sifive_hifive1_revb_sifive_welcome/freedom-metal/src/drivers/riscv_cpu.c:394
            __metal_interrupt_software_enable();
20013f96:	f55fe0ef          	jal	ra,20012eea <__metal_interrupt_software_enable>
C:/Users/nandg/Desktop/Athena_Welcome_Demo/sifive_hifive1_revb_sifive_welcome/freedom-metal/src/drivers/riscv_cpu.c:398
        } else {
            __metal_interrupt_software_disable();
        }
        break;
20013f9a:	a881                	j	20013fea <__metal_local_interrupt_enable+0xae>
C:/Users/nandg/Desktop/Athena_Welcome_Demo/sifive_hifive1_revb_sifive_welcome/freedom-metal/src/drivers/riscv_cpu.c:396
            __metal_interrupt_software_disable();
20013f9c:	f67fe0ef          	jal	ra,20012f02 <__metal_interrupt_software_disable>
C:/Users/nandg/Desktop/Athena_Welcome_Demo/sifive_hifive1_revb_sifive_welcome/freedom-metal/src/drivers/riscv_cpu.c:398
        break;
20013fa0:	a0a9                	j	20013fea <__metal_local_interrupt_enable+0xae>
C:/Users/nandg/Desktop/Athena_Welcome_Demo/sifive_hifive1_revb_sifive_welcome/freedom-metal/src/drivers/riscv_cpu.c:400
    case METAL_INTERRUPT_ID_TMR:
        if (enable) {
20013fa2:	fd442783          	lw	a5,-44(s0)
20013fa6:	c781                	beqz	a5,20013fae <__metal_local_interrupt_enable+0x72>
C:/Users/nandg/Desktop/Athena_Welcome_Demo/sifive_hifive1_revb_sifive_welcome/freedom-metal/src/drivers/riscv_cpu.c:401
            __metal_interrupt_timer_enable();
20013fa8:	f73fe0ef          	jal	ra,20012f1a <__metal_interrupt_timer_enable>
C:/Users/nandg/Desktop/Athena_Welcome_Demo/sifive_hifive1_revb_sifive_welcome/freedom-metal/src/drivers/riscv_cpu.c:405
        } else {
            __metal_interrupt_timer_disable();
        }
        break;
20013fac:	a83d                	j	20013fea <__metal_local_interrupt_enable+0xae>
C:/Users/nandg/Desktop/Athena_Welcome_Demo/sifive_hifive1_revb_sifive_welcome/freedom-metal/src/drivers/riscv_cpu.c:403
            __metal_interrupt_timer_disable();
20013fae:	f87fe0ef          	jal	ra,20012f34 <__metal_interrupt_timer_disable>
C:/Users/nandg/Desktop/Athena_Welcome_Demo/sifive_hifive1_revb_sifive_welcome/freedom-metal/src/drivers/riscv_cpu.c:405
        break;
20013fb2:	a825                	j	20013fea <__metal_local_interrupt_enable+0xae>
C:/Users/nandg/Desktop/Athena_Welcome_Demo/sifive_hifive1_revb_sifive_welcome/freedom-metal/src/drivers/riscv_cpu.c:407
    case METAL_INTERRUPT_ID_EXT:
        if (enable) {
20013fb4:	fd442783          	lw	a5,-44(s0)
20013fb8:	c781                	beqz	a5,20013fc0 <__metal_local_interrupt_enable+0x84>
C:/Users/nandg/Desktop/Athena_Welcome_Demo/sifive_hifive1_revb_sifive_welcome/freedom-metal/src/drivers/riscv_cpu.c:408
            __metal_interrupt_external_enable();
20013fba:	f95fe0ef          	jal	ra,20012f4e <__metal_interrupt_external_enable>
C:/Users/nandg/Desktop/Athena_Welcome_Demo/sifive_hifive1_revb_sifive_welcome/freedom-metal/src/drivers/riscv_cpu.c:412
        } else {
            __metal_interrupt_external_disable();
        }
        break;
20013fbe:	a035                	j	20013fea <__metal_local_interrupt_enable+0xae>
C:/Users/nandg/Desktop/Athena_Welcome_Demo/sifive_hifive1_revb_sifive_welcome/freedom-metal/src/drivers/riscv_cpu.c:410
            __metal_interrupt_external_disable();
20013fc0:	fabfe0ef          	jal	ra,20012f6a <__metal_interrupt_external_disable>
C:/Users/nandg/Desktop/Athena_Welcome_Demo/sifive_hifive1_revb_sifive_welcome/freedom-metal/src/drivers/riscv_cpu.c:412
        break;
20013fc4:	a01d                	j	20013fea <__metal_local_interrupt_enable+0xae>
C:/Users/nandg/Desktop/Athena_Welcome_Demo/sifive_hifive1_revb_sifive_welcome/freedom-metal/src/drivers/riscv_cpu.c:429
    case METAL_INTERRUPT_ID_LC11:
    case METAL_INTERRUPT_ID_LC12:
    case METAL_INTERRUPT_ID_LC13:
    case METAL_INTERRUPT_ID_LC14:
    case METAL_INTERRUPT_ID_LC15:
        if (enable) {
20013fc6:	fd442783          	lw	a5,-44(s0)
20013fca:	c799                	beqz	a5,20013fd8 <__metal_local_interrupt_enable+0x9c>
C:/Users/nandg/Desktop/Athena_Welcome_Demo/sifive_hifive1_revb_sifive_welcome/freedom-metal/src/drivers/riscv_cpu.c:430
            __metal_interrupt_local_enable(id);
20013fcc:	fd842783          	lw	a5,-40(s0)
20013fd0:	853e                	mv	a0,a5
20013fd2:	fb5fe0ef          	jal	ra,20012f86 <__metal_interrupt_local_enable>
C:/Users/nandg/Desktop/Athena_Welcome_Demo/sifive_hifive1_revb_sifive_welcome/freedom-metal/src/drivers/riscv_cpu.c:434
        } else {
            __metal_interrupt_local_disable(id);
        }
        break;
20013fd6:	a811                	j	20013fea <__metal_local_interrupt_enable+0xae>
C:/Users/nandg/Desktop/Athena_Welcome_Demo/sifive_hifive1_revb_sifive_welcome/freedom-metal/src/drivers/riscv_cpu.c:432
            __metal_interrupt_local_disable(id);
20013fd8:	fd842783          	lw	a5,-40(s0)
20013fdc:	853e                	mv	a0,a5
20013fde:	fd5fe0ef          	jal	ra,20012fb2 <__metal_interrupt_local_disable>
C:/Users/nandg/Desktop/Athena_Welcome_Demo/sifive_hifive1_revb_sifive_welcome/freedom-metal/src/drivers/riscv_cpu.c:434
        break;
20013fe2:	a021                	j	20013fea <__metal_local_interrupt_enable+0xae>
C:/Users/nandg/Desktop/Athena_Welcome_Demo/sifive_hifive1_revb_sifive_welcome/freedom-metal/src/drivers/riscv_cpu.c:436
    default:
        rc = -1;
20013fe4:	57fd                	li	a5,-1
20013fe6:	fef42623          	sw	a5,-20(s0)
C:/Users/nandg/Desktop/Athena_Welcome_Demo/sifive_hifive1_revb_sifive_welcome/freedom-metal/src/drivers/riscv_cpu.c:438
    }
    return rc;
20013fea:	fec42783          	lw	a5,-20(s0)
C:/Users/nandg/Desktop/Athena_Welcome_Demo/sifive_hifive1_revb_sifive_welcome/freedom-metal/src/drivers/riscv_cpu.c:439
}
20013fee:	853e                	mv	a0,a5
20013ff0:	50b2                	lw	ra,44(sp)
20013ff2:	5422                	lw	s0,40(sp)
20013ff4:	6145                	addi	sp,sp,48
20013ff6:	8082                	ret

20013ff8 <__metal_exception_register>:
__metal_exception_register():
C:/Users/nandg/Desktop/Athena_Welcome_Demo/sifive_hifive1_revb_sifive_welcome/freedom-metal/src/drivers/riscv_cpu.c:442

int __metal_exception_register(struct metal_interrupt *controller, int ecode,
                               metal_exception_handler_t isr) {
20013ff8:	7179                	addi	sp,sp,-48
20013ffa:	d622                	sw	s0,44(sp)
20013ffc:	1800                	addi	s0,sp,48
20013ffe:	fca42e23          	sw	a0,-36(s0)
20014002:	fcb42c23          	sw	a1,-40(s0)
20014006:	fcc42a23          	sw	a2,-44(s0)
C:/Users/nandg/Desktop/Athena_Welcome_Demo/sifive_hifive1_revb_sifive_welcome/freedom-metal/src/drivers/riscv_cpu.c:443
    struct __metal_driver_riscv_cpu_intc *intc = (void *)(controller);
2001400a:	fdc42783          	lw	a5,-36(s0)
2001400e:	fef42623          	sw	a5,-20(s0)
C:/Users/nandg/Desktop/Athena_Welcome_Demo/sifive_hifive1_revb_sifive_welcome/freedom-metal/src/drivers/riscv_cpu.c:445

    if ((ecode < METAL_MAX_EXCEPTION_CODE) && isr) {
20014012:	fd842703          	lw	a4,-40(s0)
20014016:	47ad                	li	a5,11
20014018:	02e7c263          	blt	a5,a4,2001403c <__metal_exception_register+0x44>
C:/Users/nandg/Desktop/Athena_Welcome_Demo/sifive_hifive1_revb_sifive_welcome/freedom-metal/src/drivers/riscv_cpu.c:445 (discriminator 1)
2001401c:	fd442783          	lw	a5,-44(s0)
20014020:	cf91                	beqz	a5,2001403c <__metal_exception_register+0x44>
C:/Users/nandg/Desktop/Athena_Welcome_Demo/sifive_hifive1_revb_sifive_welcome/freedom-metal/src/drivers/riscv_cpu.c:446
        intc->metal_exception_table[ecode] = isr;
20014022:	fec42703          	lw	a4,-20(s0)
20014026:	fd842783          	lw	a5,-40(s0)
2001402a:	0e878793          	addi	a5,a5,232
2001402e:	078a                	slli	a5,a5,0x2
20014030:	97ba                	add	a5,a5,a4
20014032:	fd442703          	lw	a4,-44(s0)
20014036:	c398                	sw	a4,0(a5)
C:/Users/nandg/Desktop/Athena_Welcome_Demo/sifive_hifive1_revb_sifive_welcome/freedom-metal/src/drivers/riscv_cpu.c:447
        return 0;
20014038:	4781                	li	a5,0
2001403a:	a011                	j	2001403e <__metal_exception_register+0x46>
C:/Users/nandg/Desktop/Athena_Welcome_Demo/sifive_hifive1_revb_sifive_welcome/freedom-metal/src/drivers/riscv_cpu.c:449
    }
    return -1;
2001403c:	57fd                	li	a5,-1
C:/Users/nandg/Desktop/Athena_Welcome_Demo/sifive_hifive1_revb_sifive_welcome/freedom-metal/src/drivers/riscv_cpu.c:450
}
2001403e:	853e                	mv	a0,a5
20014040:	5432                	lw	s0,44(sp)
20014042:	6145                	addi	sp,sp,48
20014044:	8082                	ret

20014046 <__metal_driver_riscv_cpu_controller_interrupt_init>:
__metal_driver_riscv_cpu_controller_interrupt_init():
C:/Users/nandg/Desktop/Athena_Welcome_Demo/sifive_hifive1_revb_sifive_welcome/freedom-metal/src/drivers/riscv_cpu.c:454

extern void early_trap_vector(void);
void __metal_driver_riscv_cpu_controller_interrupt_init(
    struct metal_interrupt *controller) {
20014046:	7179                	addi	sp,sp,-48
20014048:	d606                	sw	ra,44(sp)
2001404a:	d422                	sw	s0,40(sp)
2001404c:	1800                	addi	s0,sp,48
2001404e:	fca42e23          	sw	a0,-36(s0)
C:/Users/nandg/Desktop/Athena_Welcome_Demo/sifive_hifive1_revb_sifive_welcome/freedom-metal/src/drivers/riscv_cpu.c:455
    struct __metal_driver_riscv_cpu_intc *intc = (void *)(controller);
20014052:	fdc42783          	lw	a5,-36(s0)
20014056:	fef42223          	sw	a5,-28(s0)
C:/Users/nandg/Desktop/Athena_Welcome_Demo/sifive_hifive1_revb_sifive_welcome/freedom-metal/src/drivers/riscv_cpu.c:457

    if (!intc->init_done) {
2001405a:	fe442783          	lw	a5,-28(s0)
2001405e:	43dc                	lw	a5,4(a5)
20014060:	e3e1                	bnez	a5,20014120 <__metal_driver_riscv_cpu_controller_interrupt_init+0xda>
C:/Users/nandg/Desktop/Athena_Welcome_Demo/sifive_hifive1_revb_sifive_welcome/freedom-metal/src/drivers/riscv_cpu.c:459
        /* Default to use direct interrupt, setup sw cb table*/
        for (int i = 0; i < METAL_MAX_MI; i++) {
20014062:	fe042623          	sw	zero,-20(s0)
20014066:	a0b9                	j	200140b4 <__metal_driver_riscv_cpu_controller_interrupt_init+0x6e>
C:/Users/nandg/Desktop/Athena_Welcome_Demo/sifive_hifive1_revb_sifive_welcome/freedom-metal/src/drivers/riscv_cpu.c:460 (discriminator 3)
            intc->metal_int_table[i].handler = NULL;
20014068:	fe442683          	lw	a3,-28(s0)
2001406c:	fec42703          	lw	a4,-20(s0)
20014070:	87ba                	mv	a5,a4
20014072:	0786                	slli	a5,a5,0x1
20014074:	97ba                	add	a5,a5,a4
20014076:	078e                	slli	a5,a5,0x3
20014078:	97b6                	add	a5,a5,a3
2001407a:	0807a823          	sw	zero,144(a5)
C:/Users/nandg/Desktop/Athena_Welcome_Demo/sifive_hifive1_revb_sifive_welcome/freedom-metal/src/drivers/riscv_cpu.c:461 (discriminator 3)
            intc->metal_int_table[i].sub_int = NULL;
2001407e:	fe442683          	lw	a3,-28(s0)
20014082:	fec42703          	lw	a4,-20(s0)
20014086:	87ba                	mv	a5,a4
20014088:	0786                	slli	a5,a5,0x1
2001408a:	97ba                	add	a5,a5,a4
2001408c:	078e                	slli	a5,a5,0x3
2001408e:	97b6                	add	a5,a5,a3
20014090:	0807aa23          	sw	zero,148(a5)
C:/Users/nandg/Desktop/Athena_Welcome_Demo/sifive_hifive1_revb_sifive_welcome/freedom-metal/src/drivers/riscv_cpu.c:462 (discriminator 3)
            intc->metal_int_table[i].exint_data = NULL;
20014094:	fe442683          	lw	a3,-28(s0)
20014098:	fec42703          	lw	a4,-20(s0)
2001409c:	87ba                	mv	a5,a4
2001409e:	0786                	slli	a5,a5,0x1
200140a0:	97ba                	add	a5,a5,a4
200140a2:	078e                	slli	a5,a5,0x3
200140a4:	97b6                	add	a5,a5,a3
200140a6:	0807ac23          	sw	zero,152(a5)
C:/Users/nandg/Desktop/Athena_Welcome_Demo/sifive_hifive1_revb_sifive_welcome/freedom-metal/src/drivers/riscv_cpu.c:459 (discriminator 3)
        for (int i = 0; i < METAL_MAX_MI; i++) {
200140aa:	fec42783          	lw	a5,-20(s0)
200140ae:	0785                	addi	a5,a5,1
200140b0:	fef42623          	sw	a5,-20(s0)
C:/Users/nandg/Desktop/Athena_Welcome_Demo/sifive_hifive1_revb_sifive_welcome/freedom-metal/src/drivers/riscv_cpu.c:459 (discriminator 1)
200140b4:	fec42703          	lw	a4,-20(s0)
200140b8:	47fd                	li	a5,31
200140ba:	fae7d7e3          	bge	a5,a4,20014068 <__metal_driver_riscv_cpu_controller_interrupt_init+0x22>
C:/Users/nandg/Desktop/Athena_Welcome_Demo/sifive_hifive1_revb_sifive_welcome/freedom-metal/src/drivers/riscv_cpu.c:465
        }

        for (int i = 0; i < METAL_MAX_ME; i++) {
200140be:	fe042423          	sw	zero,-24(s0)
200140c2:	a01d                	j	200140e8 <__metal_driver_riscv_cpu_controller_interrupt_init+0xa2>
C:/Users/nandg/Desktop/Athena_Welcome_Demo/sifive_hifive1_revb_sifive_welcome/freedom-metal/src/drivers/riscv_cpu.c:466 (discriminator 3)
            intc->metal_exception_table[i] = __metal_default_exception_handler;
200140c4:	fe442703          	lw	a4,-28(s0)
200140c8:	fe842783          	lw	a5,-24(s0)
200140cc:	0e878793          	addi	a5,a5,232
200140d0:	078a                	slli	a5,a5,0x2
200140d2:	97ba                	add	a5,a5,a4
200140d4:	20013737          	lui	a4,0x20013
200140d8:	fde70713          	addi	a4,a4,-34 # 20012fde <__metal_default_exception_handler>
200140dc:	c398                	sw	a4,0(a5)
C:/Users/nandg/Desktop/Athena_Welcome_Demo/sifive_hifive1_revb_sifive_welcome/freedom-metal/src/drivers/riscv_cpu.c:465 (discriminator 3)
        for (int i = 0; i < METAL_MAX_ME; i++) {
200140de:	fe842783          	lw	a5,-24(s0)
200140e2:	0785                	addi	a5,a5,1
200140e4:	fef42423          	sw	a5,-24(s0)
C:/Users/nandg/Desktop/Athena_Welcome_Demo/sifive_hifive1_revb_sifive_welcome/freedom-metal/src/drivers/riscv_cpu.c:465 (discriminator 1)
200140e8:	fe842703          	lw	a4,-24(s0)
200140ec:	47ad                	li	a5,11
200140ee:	fce7dbe3          	bge	a5,a4,200140c4 <__metal_driver_riscv_cpu_controller_interrupt_init+0x7e>
C:/Users/nandg/Desktop/Athena_Welcome_Demo/sifive_hifive1_revb_sifive_welcome/freedom-metal/src/drivers/riscv_cpu.c:475
         * Set the real trap handler if the value of mtvec is equal to
         * early_trap_vector. If mtvec is not equal to early_trap_vector,
         * that means user has own trap handler, then we don't overwrite it.
         */
        uintptr_t mtvec;
        __asm__ volatile("csrr %0, mtvec" : "=r"(mtvec));
200140f2:	305027f3          	csrr	a5,mtvec
200140f6:	fef42023          	sw	a5,-32(s0)
C:/Users/nandg/Desktop/Athena_Welcome_Demo/sifive_hifive1_revb_sifive_welcome/freedom-metal/src/drivers/riscv_cpu.c:476
        if (mtvec == (uintptr_t)&early_trap_vector) {
200140fa:	200107b7          	lui	a5,0x20010
200140fe:	13478793          	addi	a5,a5,308 # 20010134 <early_trap_vector>
20014102:	fe042703          	lw	a4,-32(s0)
20014106:	00f71963          	bne	a4,a5,20014118 <__metal_driver_riscv_cpu_controller_interrupt_init+0xd2>
C:/Users/nandg/Desktop/Athena_Welcome_Demo/sifive_hifive1_revb_sifive_welcome/freedom-metal/src/drivers/riscv_cpu.c:477
            __metal_controller_interrupt_vector(
2001410a:	200137b7          	lui	a5,0x20013
2001410e:	28078593          	addi	a1,a5,640 # 20013280 <__metal_exception_handler>
20014112:	4501                	li	a0,0
20014114:	d1fff0ef          	jal	ra,20013e32 <__metal_controller_interrupt_vector>
C:/Users/nandg/Desktop/Athena_Welcome_Demo/sifive_hifive1_revb_sifive_welcome/freedom-metal/src/drivers/riscv_cpu.c:481
                METAL_DIRECT_MODE,
                (void *)(uintptr_t)&__metal_exception_handler);
        }
        intc->init_done = 1;
20014118:	fe442783          	lw	a5,-28(s0)
2001411c:	4705                	li	a4,1
2001411e:	c3d8                	sw	a4,4(a5)
C:/Users/nandg/Desktop/Athena_Welcome_Demo/sifive_hifive1_revb_sifive_welcome/freedom-metal/src/drivers/riscv_cpu.c:483
    }
}
20014120:	0001                	nop
20014122:	50b2                	lw	ra,44(sp)
20014124:	5422                	lw	s0,40(sp)
20014126:	6145                	addi	sp,sp,48
20014128:	8082                	ret

2001412a <__metal_driver_riscv_cpu_controller_interrupt_register>:
__metal_driver_riscv_cpu_controller_interrupt_register():
C:/Users/nandg/Desktop/Athena_Welcome_Demo/sifive_hifive1_revb_sifive_welcome/freedom-metal/src/drivers/riscv_cpu.c:487

int __metal_driver_riscv_cpu_controller_interrupt_register(
    struct metal_interrupt *controller, int id, metal_interrupt_handler_t isr,
    void *priv) {
2001412a:	7179                	addi	sp,sp,-48
2001412c:	d606                	sw	ra,44(sp)
2001412e:	d422                	sw	s0,40(sp)
20014130:	1800                	addi	s0,sp,48
20014132:	fca42e23          	sw	a0,-36(s0)
20014136:	fcb42c23          	sw	a1,-40(s0)
2001413a:	fcc42a23          	sw	a2,-44(s0)
2001413e:	fcd42823          	sw	a3,-48(s0)
C:/Users/nandg/Desktop/Athena_Welcome_Demo/sifive_hifive1_revb_sifive_welcome/freedom-metal/src/drivers/riscv_cpu.c:488
    int rc = 0;
20014142:	fe042623          	sw	zero,-20(s0)
C:/Users/nandg/Desktop/Athena_Welcome_Demo/sifive_hifive1_revb_sifive_welcome/freedom-metal/src/drivers/riscv_cpu.c:489
    struct __metal_driver_riscv_cpu_intc *intc = (void *)(controller);
20014146:	fdc42783          	lw	a5,-36(s0)
2001414a:	fef42423          	sw	a5,-24(s0)
C:/Users/nandg/Desktop/Athena_Welcome_Demo/sifive_hifive1_revb_sifive_welcome/freedom-metal/src/drivers/riscv_cpu.c:491

    if (!__metal_valid_interrupt_id(id)) {
2001414e:	fd842503          	lw	a0,-40(s0)
20014152:	3b49                	jal	20013ee4 <__metal_valid_interrupt_id>
20014154:	87aa                	mv	a5,a0
20014156:	e399                	bnez	a5,2001415c <__metal_driver_riscv_cpu_controller_interrupt_register+0x32>
C:/Users/nandg/Desktop/Athena_Welcome_Demo/sifive_hifive1_revb_sifive_welcome/freedom-metal/src/drivers/riscv_cpu.c:492
        return -11;
20014158:	57d5                	li	a5,-11
2001415a:	a265                	j	20014302 <__metal_driver_riscv_cpu_controller_interrupt_register+0x1d8>
C:/Users/nandg/Desktop/Athena_Welcome_Demo/sifive_hifive1_revb_sifive_welcome/freedom-metal/src/drivers/riscv_cpu.c:494
    }
    if ((id == METAL_INTERRUPT_ID_BEU) &&
2001415c:	fd842703          	lw	a4,-40(s0)
20014160:	08000793          	li	a5,128
20014164:	00f71863          	bne	a4,a5,20014174 <__metal_driver_riscv_cpu_controller_interrupt_register+0x4a>
C:/Users/nandg/Desktop/Athena_Welcome_Demo/sifive_hifive1_revb_sifive_welcome/freedom-metal/src/drivers/riscv_cpu.c:495 (discriminator 1)
        (__metal_controller_interrupt_vector_mode() != METAL_DIRECT_MODE)) {
20014168:	c73ff0ef          	jal	ra,20013dda <__metal_controller_interrupt_vector_mode>
2001416c:	87aa                	mv	a5,a0
C:/Users/nandg/Desktop/Athena_Welcome_Demo/sifive_hifive1_revb_sifive_welcome/freedom-metal/src/drivers/riscv_cpu.c:494 (discriminator 1)
    if ((id == METAL_INTERRUPT_ID_BEU) &&
2001416e:	c399                	beqz	a5,20014174 <__metal_driver_riscv_cpu_controller_interrupt_register+0x4a>
C:/Users/nandg/Desktop/Athena_Welcome_Demo/sifive_hifive1_revb_sifive_welcome/freedom-metal/src/drivers/riscv_cpu.c:498
        /* Only allow registration of the bus error unit interrupt if
         * interrupt vectoring if off */
        return -13;
20014170:	57cd                	li	a5,-13
20014172:	aa41                	j	20014302 <__metal_driver_riscv_cpu_controller_interrupt_register+0x1d8>
C:/Users/nandg/Desktop/Athena_Welcome_Demo/sifive_hifive1_revb_sifive_welcome/freedom-metal/src/drivers/riscv_cpu.c:501
    }

    if (isr) {
20014174:	fd442783          	lw	a5,-44(s0)
20014178:	cfb9                	beqz	a5,200141d6 <__metal_driver_riscv_cpu_controller_interrupt_register+0xac>
C:/Users/nandg/Desktop/Athena_Welcome_Demo/sifive_hifive1_revb_sifive_welcome/freedom-metal/src/drivers/riscv_cpu.c:502
        if (id == METAL_INTERRUPT_ID_BEU) {
2001417a:	fd842703          	lw	a4,-40(s0)
2001417e:	08000793          	li	a5,128
20014182:	00f71f63          	bne	a4,a5,200141a0 <__metal_driver_riscv_cpu_controller_interrupt_register+0x76>
C:/Users/nandg/Desktop/Athena_Welcome_Demo/sifive_hifive1_revb_sifive_welcome/freedom-metal/src/drivers/riscv_cpu.c:503
            intc->metal_int_beu.handler = isr;
20014186:	fe842783          	lw	a5,-24(s0)
2001418a:	fd442703          	lw	a4,-44(s0)
2001418e:	38e7a823          	sw	a4,912(a5)
C:/Users/nandg/Desktop/Athena_Welcome_Demo/sifive_hifive1_revb_sifive_welcome/freedom-metal/src/drivers/riscv_cpu.c:504
            intc->metal_int_beu.exint_data = priv;
20014192:	fe842783          	lw	a5,-24(s0)
20014196:	fd042703          	lw	a4,-48(s0)
2001419a:	38e7ac23          	sw	a4,920(a5)
2001419e:	a285                	j	200142fe <__metal_driver_riscv_cpu_controller_interrupt_register+0x1d4>
C:/Users/nandg/Desktop/Athena_Welcome_Demo/sifive_hifive1_revb_sifive_welcome/freedom-metal/src/drivers/riscv_cpu.c:506
        } else {
            intc->metal_int_table[id].handler = isr;
200141a0:	fe842683          	lw	a3,-24(s0)
200141a4:	fd842703          	lw	a4,-40(s0)
200141a8:	87ba                	mv	a5,a4
200141aa:	0786                	slli	a5,a5,0x1
200141ac:	97ba                	add	a5,a5,a4
200141ae:	078e                	slli	a5,a5,0x3
200141b0:	97b6                	add	a5,a5,a3
200141b2:	fd442703          	lw	a4,-44(s0)
200141b6:	08e7a823          	sw	a4,144(a5)
C:/Users/nandg/Desktop/Athena_Welcome_Demo/sifive_hifive1_revb_sifive_welcome/freedom-metal/src/drivers/riscv_cpu.c:507
            intc->metal_int_table[id].exint_data = priv;
200141ba:	fe842683          	lw	a3,-24(s0)
200141be:	fd842703          	lw	a4,-40(s0)
200141c2:	87ba                	mv	a5,a4
200141c4:	0786                	slli	a5,a5,0x1
200141c6:	97ba                	add	a5,a5,a4
200141c8:	078e                	slli	a5,a5,0x3
200141ca:	97b6                	add	a5,a5,a3
200141cc:	fd042703          	lw	a4,-48(s0)
200141d0:	08e7ac23          	sw	a4,152(a5)
200141d4:	a22d                	j	200142fe <__metal_driver_riscv_cpu_controller_interrupt_register+0x1d4>
C:/Users/nandg/Desktop/Athena_Welcome_Demo/sifive_hifive1_revb_sifive_welcome/freedom-metal/src/drivers/riscv_cpu.c:510
        }
    } else {
        switch (id) {
200141d6:	fd842703          	lw	a4,-40(s0)
200141da:	08000793          	li	a5,128
200141de:	0cf70163          	beq	a4,a5,200142a0 <__metal_driver_riscv_cpu_controller_interrupt_register+0x176>
200141e2:	fd842703          	lw	a4,-40(s0)
200141e6:	08000793          	li	a5,128
200141ea:	10e7c763          	blt	a5,a4,200142f8 <__metal_driver_riscv_cpu_controller_interrupt_register+0x1ce>
200141ee:	fd842703          	lw	a4,-40(s0)
200141f2:	47fd                	li	a5,31
200141f4:	10e7c263          	blt	a5,a4,200142f8 <__metal_driver_riscv_cpu_controller_interrupt_register+0x1ce>
200141f8:	fd842703          	lw	a4,-40(s0)
200141fc:	47c1                	li	a5,16
200141fe:	0cf75063          	bge	a4,a5,200142be <__metal_driver_riscv_cpu_controller_interrupt_register+0x194>
20014202:	fd842703          	lw	a4,-40(s0)
20014206:	47ad                	li	a5,11
20014208:	0af70b63          	beq	a4,a5,200142be <__metal_driver_riscv_cpu_controller_interrupt_register+0x194>
2001420c:	fd842703          	lw	a4,-40(s0)
20014210:	47ad                	li	a5,11
20014212:	0ee7c363          	blt	a5,a4,200142f8 <__metal_driver_riscv_cpu_controller_interrupt_register+0x1ce>
20014216:	fd842703          	lw	a4,-40(s0)
2001421a:	478d                	li	a5,3
2001421c:	00f70863          	beq	a4,a5,2001422c <__metal_driver_riscv_cpu_controller_interrupt_register+0x102>
20014220:	fd842703          	lw	a4,-40(s0)
20014224:	479d                	li	a5,7
20014226:	04f70063          	beq	a4,a5,20014266 <__metal_driver_riscv_cpu_controller_interrupt_register+0x13c>
2001422a:	a0f9                	j	200142f8 <__metal_driver_riscv_cpu_controller_interrupt_register+0x1ce>
C:/Users/nandg/Desktop/Athena_Welcome_Demo/sifive_hifive1_revb_sifive_welcome/freedom-metal/src/drivers/riscv_cpu.c:512
        case METAL_INTERRUPT_ID_SW:
            intc->metal_int_table[id].handler = __metal_default_sw_handler;
2001422c:	fe842683          	lw	a3,-24(s0)
20014230:	fd842703          	lw	a4,-40(s0)
20014234:	87ba                	mv	a5,a4
20014236:	0786                	slli	a5,a5,0x1
20014238:	97ba                	add	a5,a5,a4
2001423a:	078e                	slli	a5,a5,0x3
2001423c:	97b6                	add	a5,a5,a3
2001423e:	20013737          	lui	a4,0x20013
20014242:	0ce70713          	addi	a4,a4,206 # 200130ce <__metal_default_sw_handler>
20014246:	08e7a823          	sw	a4,144(a5)
C:/Users/nandg/Desktop/Athena_Welcome_Demo/sifive_hifive1_revb_sifive_welcome/freedom-metal/src/drivers/riscv_cpu.c:513
            intc->metal_int_table[id].sub_int = priv;
2001424a:	fe842683          	lw	a3,-24(s0)
2001424e:	fd842703          	lw	a4,-40(s0)
20014252:	87ba                	mv	a5,a4
20014254:	0786                	slli	a5,a5,0x1
20014256:	97ba                	add	a5,a5,a4
20014258:	078e                	slli	a5,a5,0x3
2001425a:	97b6                	add	a5,a5,a3
2001425c:	fd042703          	lw	a4,-48(s0)
20014260:	08e7aa23          	sw	a4,148(a5)
C:/Users/nandg/Desktop/Athena_Welcome_Demo/sifive_hifive1_revb_sifive_welcome/freedom-metal/src/drivers/riscv_cpu.c:514
            break;
20014264:	a869                	j	200142fe <__metal_driver_riscv_cpu_controller_interrupt_register+0x1d4>
C:/Users/nandg/Desktop/Athena_Welcome_Demo/sifive_hifive1_revb_sifive_welcome/freedom-metal/src/drivers/riscv_cpu.c:516
        case METAL_INTERRUPT_ID_TMR:
            intc->metal_int_table[id].handler = __metal_default_timer_handler;
20014266:	fe842683          	lw	a3,-24(s0)
2001426a:	fd842703          	lw	a4,-40(s0)
2001426e:	87ba                	mv	a5,a4
20014270:	0786                	slli	a5,a5,0x1
20014272:	97ba                	add	a5,a5,a4
20014274:	078e                	slli	a5,a5,0x3
20014276:	97b6                	add	a5,a5,a3
20014278:	20013737          	lui	a4,0x20013
2001427c:	1de70713          	addi	a4,a4,478 # 200131de <__metal_default_timer_handler>
20014280:	08e7a823          	sw	a4,144(a5)
C:/Users/nandg/Desktop/Athena_Welcome_Demo/sifive_hifive1_revb_sifive_welcome/freedom-metal/src/drivers/riscv_cpu.c:517
            intc->metal_int_table[id].sub_int = priv;
20014284:	fe842683          	lw	a3,-24(s0)
20014288:	fd842703          	lw	a4,-40(s0)
2001428c:	87ba                	mv	a5,a4
2001428e:	0786                	slli	a5,a5,0x1
20014290:	97ba                	add	a5,a5,a4
20014292:	078e                	slli	a5,a5,0x3
20014294:	97b6                	add	a5,a5,a3
20014296:	fd042703          	lw	a4,-48(s0)
2001429a:	08e7aa23          	sw	a4,148(a5)
C:/Users/nandg/Desktop/Athena_Welcome_Demo/sifive_hifive1_revb_sifive_welcome/freedom-metal/src/drivers/riscv_cpu.c:518
            break;
2001429e:	a085                	j	200142fe <__metal_driver_riscv_cpu_controller_interrupt_register+0x1d4>
C:/Users/nandg/Desktop/Athena_Welcome_Demo/sifive_hifive1_revb_sifive_welcome/freedom-metal/src/drivers/riscv_cpu.c:520
        case METAL_INTERRUPT_ID_BEU:
            intc->metal_int_beu.handler = __metal_default_beu_handler;
200142a0:	fe842783          	lw	a5,-24(s0)
200142a4:	20013737          	lui	a4,0x20013
200142a8:	1c870713          	addi	a4,a4,456 # 200131c8 <__metal_default_beu_handler>
200142ac:	38e7a823          	sw	a4,912(a5)
C:/Users/nandg/Desktop/Athena_Welcome_Demo/sifive_hifive1_revb_sifive_welcome/freedom-metal/src/drivers/riscv_cpu.c:521
            intc->metal_int_beu.exint_data = priv;
200142b0:	fe842783          	lw	a5,-24(s0)
200142b4:	fd042703          	lw	a4,-48(s0)
200142b8:	38e7ac23          	sw	a4,920(a5)
C:/Users/nandg/Desktop/Athena_Welcome_Demo/sifive_hifive1_revb_sifive_welcome/freedom-metal/src/drivers/riscv_cpu.c:522
            break;
200142bc:	a089                	j	200142fe <__metal_driver_riscv_cpu_controller_interrupt_register+0x1d4>
C:/Users/nandg/Desktop/Athena_Welcome_Demo/sifive_hifive1_revb_sifive_welcome/freedom-metal/src/drivers/riscv_cpu.c:540
        case METAL_INTERRUPT_ID_LC11:
        case METAL_INTERRUPT_ID_LC12:
        case METAL_INTERRUPT_ID_LC13:
        case METAL_INTERRUPT_ID_LC14:
        case METAL_INTERRUPT_ID_LC15:
            intc->metal_int_table[id].handler =
200142be:	fe842683          	lw	a3,-24(s0)
200142c2:	fd842703          	lw	a4,-40(s0)
200142c6:	87ba                	mv	a5,a4
200142c8:	0786                	slli	a5,a5,0x1
200142ca:	97ba                	add	a5,a5,a4
200142cc:	078e                	slli	a5,a5,0x3
200142ce:	97b6                	add	a5,a5,a3
200142d0:	20013737          	lui	a4,0x20013
200142d4:	ff670713          	addi	a4,a4,-10 # 20012ff6 <__metal_default_interrupt_handler>
200142d8:	08e7a823          	sw	a4,144(a5)
C:/Users/nandg/Desktop/Athena_Welcome_Demo/sifive_hifive1_revb_sifive_welcome/freedom-metal/src/drivers/riscv_cpu.c:542
                __metal_default_interrupt_handler;
            intc->metal_int_table[id].sub_int = priv;
200142dc:	fe842683          	lw	a3,-24(s0)
200142e0:	fd842703          	lw	a4,-40(s0)
200142e4:	87ba                	mv	a5,a4
200142e6:	0786                	slli	a5,a5,0x1
200142e8:	97ba                	add	a5,a5,a4
200142ea:	078e                	slli	a5,a5,0x3
200142ec:	97b6                	add	a5,a5,a3
200142ee:	fd042703          	lw	a4,-48(s0)
200142f2:	08e7aa23          	sw	a4,148(a5)
C:/Users/nandg/Desktop/Athena_Welcome_Demo/sifive_hifive1_revb_sifive_welcome/freedom-metal/src/drivers/riscv_cpu.c:543
            break;
200142f6:	a021                	j	200142fe <__metal_driver_riscv_cpu_controller_interrupt_register+0x1d4>
C:/Users/nandg/Desktop/Athena_Welcome_Demo/sifive_hifive1_revb_sifive_welcome/freedom-metal/src/drivers/riscv_cpu.c:545
        default:
            rc = -12;
200142f8:	57d1                	li	a5,-12
200142fa:	fef42623          	sw	a5,-20(s0)
C:/Users/nandg/Desktop/Athena_Welcome_Demo/sifive_hifive1_revb_sifive_welcome/freedom-metal/src/drivers/riscv_cpu.c:548
        }
    }
    return rc;
200142fe:	fec42783          	lw	a5,-20(s0)
C:/Users/nandg/Desktop/Athena_Welcome_Demo/sifive_hifive1_revb_sifive_welcome/freedom-metal/src/drivers/riscv_cpu.c:549
}
20014302:	853e                	mv	a0,a5
20014304:	50b2                	lw	ra,44(sp)
20014306:	5422                	lw	s0,40(sp)
20014308:	6145                	addi	sp,sp,48
2001430a:	8082                	ret

2001430c <__metal_driver_riscv_cpu_controller_interrupt_enable>:
__metal_driver_riscv_cpu_controller_interrupt_enable():
C:/Users/nandg/Desktop/Athena_Welcome_Demo/sifive_hifive1_revb_sifive_welcome/freedom-metal/src/drivers/riscv_cpu.c:552

int __metal_driver_riscv_cpu_controller_interrupt_enable(
    struct metal_interrupt *controller, int id) {
2001430c:	1101                	addi	sp,sp,-32
2001430e:	ce06                	sw	ra,28(sp)
20014310:	cc22                	sw	s0,24(sp)
20014312:	1000                	addi	s0,sp,32
20014314:	fea42623          	sw	a0,-20(s0)
20014318:	feb42423          	sw	a1,-24(s0)
C:/Users/nandg/Desktop/Athena_Welcome_Demo/sifive_hifive1_revb_sifive_welcome/freedom-metal/src/drivers/riscv_cpu.c:553
    return __metal_local_interrupt_enable(controller, id, METAL_ENABLE);
2001431c:	fe842783          	lw	a5,-24(s0)
20014320:	4605                	li	a2,1
20014322:	85be                	mv	a1,a5
20014324:	fec42503          	lw	a0,-20(s0)
20014328:	c15ff0ef          	jal	ra,20013f3c <__metal_local_interrupt_enable>
2001432c:	87aa                	mv	a5,a0
C:/Users/nandg/Desktop/Athena_Welcome_Demo/sifive_hifive1_revb_sifive_welcome/freedom-metal/src/drivers/riscv_cpu.c:554
}
2001432e:	853e                	mv	a0,a5
20014330:	40f2                	lw	ra,28(sp)
20014332:	4462                	lw	s0,24(sp)
20014334:	6105                	addi	sp,sp,32
20014336:	8082                	ret

20014338 <__metal_driver_riscv_cpu_controller_interrupt_disable>:
__metal_driver_riscv_cpu_controller_interrupt_disable():
C:/Users/nandg/Desktop/Athena_Welcome_Demo/sifive_hifive1_revb_sifive_welcome/freedom-metal/src/drivers/riscv_cpu.c:557

int __metal_driver_riscv_cpu_controller_interrupt_disable(
    struct metal_interrupt *controller, int id) {
20014338:	1101                	addi	sp,sp,-32
2001433a:	ce06                	sw	ra,28(sp)
2001433c:	cc22                	sw	s0,24(sp)
2001433e:	1000                	addi	s0,sp,32
20014340:	fea42623          	sw	a0,-20(s0)
20014344:	feb42423          	sw	a1,-24(s0)
C:/Users/nandg/Desktop/Athena_Welcome_Demo/sifive_hifive1_revb_sifive_welcome/freedom-metal/src/drivers/riscv_cpu.c:558
    return __metal_local_interrupt_enable(controller, id, METAL_DISABLE);
20014348:	fe842783          	lw	a5,-24(s0)
2001434c:	4601                	li	a2,0
2001434e:	85be                	mv	a1,a5
20014350:	fec42503          	lw	a0,-20(s0)
20014354:	be9ff0ef          	jal	ra,20013f3c <__metal_local_interrupt_enable>
20014358:	87aa                	mv	a5,a0
C:/Users/nandg/Desktop/Athena_Welcome_Demo/sifive_hifive1_revb_sifive_welcome/freedom-metal/src/drivers/riscv_cpu.c:559
}
2001435a:	853e                	mv	a0,a5
2001435c:	40f2                	lw	ra,28(sp)
2001435e:	4462                	lw	s0,24(sp)
20014360:	6105                	addi	sp,sp,32
20014362:	8082                	ret

20014364 <__metal_driver_riscv_cpu_controller_get_vector_mode>:
__metal_driver_riscv_cpu_controller_get_vector_mode():
C:/Users/nandg/Desktop/Athena_Welcome_Demo/sifive_hifive1_revb_sifive_welcome/freedom-metal/src/drivers/riscv_cpu.c:591
    }
    return -1;
}

metal_vector_mode __metal_driver_riscv_cpu_controller_get_vector_mode(
    struct metal_interrupt *controller) {
20014364:	1101                	addi	sp,sp,-32
20014366:	ce06                	sw	ra,28(sp)
20014368:	cc22                	sw	s0,24(sp)
2001436a:	1000                	addi	s0,sp,32
2001436c:	fea42623          	sw	a0,-20(s0)
C:/Users/nandg/Desktop/Athena_Welcome_Demo/sifive_hifive1_revb_sifive_welcome/freedom-metal/src/drivers/riscv_cpu.c:592
    return __metal_controller_interrupt_vector_mode();
20014370:	a6bff0ef          	jal	ra,20013dda <__metal_controller_interrupt_vector_mode>
20014374:	87aa                	mv	a5,a0
C:/Users/nandg/Desktop/Athena_Welcome_Demo/sifive_hifive1_revb_sifive_welcome/freedom-metal/src/drivers/riscv_cpu.c:593
}
20014376:	853e                	mv	a0,a5
20014378:	40f2                	lw	ra,28(sp)
2001437a:	4462                	lw	s0,24(sp)
2001437c:	6105                	addi	sp,sp,32
2001437e:	8082                	ret

20014380 <__metal_driver_riscv_cpu_controller_set_vector_mode>:
__metal_driver_riscv_cpu_controller_set_vector_mode():
C:/Users/nandg/Desktop/Athena_Welcome_Demo/sifive_hifive1_revb_sifive_welcome/freedom-metal/src/drivers/riscv_cpu.c:596

int __metal_driver_riscv_cpu_controller_set_vector_mode(
    struct metal_interrupt *controller, metal_vector_mode mode) {
20014380:	1101                	addi	sp,sp,-32
20014382:	ce06                	sw	ra,28(sp)
20014384:	cc22                	sw	s0,24(sp)
20014386:	1000                	addi	s0,sp,32
20014388:	fea42623          	sw	a0,-20(s0)
2001438c:	feb42423          	sw	a1,-24(s0)
C:/Users/nandg/Desktop/Athena_Welcome_Demo/sifive_hifive1_revb_sifive_welcome/freedom-metal/src/drivers/riscv_cpu.c:598

    if (mode == METAL_DIRECT_MODE) {
20014390:	fe842783          	lw	a5,-24(s0)
20014394:	eb99                	bnez	a5,200143aa <__metal_driver_riscv_cpu_controller_set_vector_mode+0x2a>
C:/Users/nandg/Desktop/Athena_Welcome_Demo/sifive_hifive1_revb_sifive_welcome/freedom-metal/src/drivers/riscv_cpu.c:599
        __metal_controller_interrupt_vector(
20014396:	200137b7          	lui	a5,0x20013
2001439a:	28078593          	addi	a1,a5,640 # 20013280 <__metal_exception_handler>
2001439e:	fe842503          	lw	a0,-24(s0)
200143a2:	a91ff0ef          	jal	ra,20013e32 <__metal_controller_interrupt_vector>
C:/Users/nandg/Desktop/Athena_Welcome_Demo/sifive_hifive1_revb_sifive_welcome/freedom-metal/src/drivers/riscv_cpu.c:601
            mode, (void *)(uintptr_t)&__metal_exception_handler);
        return 0;
200143a6:	4781                	li	a5,0
200143a8:	a00d                	j	200143ca <__metal_driver_riscv_cpu_controller_set_vector_mode+0x4a>
C:/Users/nandg/Desktop/Athena_Welcome_Demo/sifive_hifive1_revb_sifive_welcome/freedom-metal/src/drivers/riscv_cpu.c:603
    }
    if (mode == METAL_VECTOR_MODE) {
200143aa:	fe842703          	lw	a4,-24(s0)
200143ae:	4785                	li	a5,1
200143b0:	00f71c63          	bne	a4,a5,200143c8 <__metal_driver_riscv_cpu_controller_set_vector_mode+0x48>
C:/Users/nandg/Desktop/Athena_Welcome_Demo/sifive_hifive1_revb_sifive_welcome/freedom-metal/src/drivers/riscv_cpu.c:604
        __metal_controller_interrupt_vector(
200143b4:	200177b7          	lui	a5,0x20017
200143b8:	18078593          	addi	a1,a5,384 # 20017180 <__metal_vector_table>
200143bc:	fe842503          	lw	a0,-24(s0)
200143c0:	a73ff0ef          	jal	ra,20013e32 <__metal_controller_interrupt_vector>
C:/Users/nandg/Desktop/Athena_Welcome_Demo/sifive_hifive1_revb_sifive_welcome/freedom-metal/src/drivers/riscv_cpu.c:606
            mode, (void *)(uintptr_t)__metal_vector_table);
        return 0;
200143c4:	4781                	li	a5,0
200143c6:	a011                	j	200143ca <__metal_driver_riscv_cpu_controller_set_vector_mode+0x4a>
C:/Users/nandg/Desktop/Athena_Welcome_Demo/sifive_hifive1_revb_sifive_welcome/freedom-metal/src/drivers/riscv_cpu.c:608
    }
    return -1;
200143c8:	57fd                	li	a5,-1
C:/Users/nandg/Desktop/Athena_Welcome_Demo/sifive_hifive1_revb_sifive_welcome/freedom-metal/src/drivers/riscv_cpu.c:609
}
200143ca:	853e                	mv	a0,a5
200143cc:	40f2                	lw	ra,28(sp)
200143ce:	4462                	lw	s0,24(sp)
200143d0:	6105                	addi	sp,sp,32
200143d2:	8082                	ret

200143d4 <__metal_driver_riscv_cpu_controller_command_request>:
__metal_driver_riscv_cpu_controller_command_request():
C:/Users/nandg/Desktop/Athena_Welcome_Demo/sifive_hifive1_revb_sifive_welcome/freedom-metal/src/drivers/riscv_cpu.c:612

int __metal_driver_riscv_cpu_controller_command_request(
    struct metal_interrupt *controller, int cmd, void *data) {
200143d4:	1101                	addi	sp,sp,-32
200143d6:	ce22                	sw	s0,28(sp)
200143d8:	1000                	addi	s0,sp,32
200143da:	fea42623          	sw	a0,-20(s0)
200143de:	feb42423          	sw	a1,-24(s0)
200143e2:	fec42223          	sw	a2,-28(s0)
C:/Users/nandg/Desktop/Athena_Welcome_Demo/sifive_hifive1_revb_sifive_welcome/freedom-metal/src/drivers/riscv_cpu.c:615
    /* NOP for now, unless local interrupt lines the like of clic, clint, plic
     */
    return 0;
200143e6:	4781                	li	a5,0
C:/Users/nandg/Desktop/Athena_Welcome_Demo/sifive_hifive1_revb_sifive_welcome/freedom-metal/src/drivers/riscv_cpu.c:616
}
200143e8:	853e                	mv	a0,a5
200143ea:	4472                	lw	s0,28(sp)
200143ec:	6105                	addi	sp,sp,32
200143ee:	8082                	ret

200143f0 <__metal_driver_cpu_mcycle_get>:
__metal_driver_cpu_mcycle_get():
C:/Users/nandg/Desktop/Athena_Welcome_Demo/sifive_hifive1_revb_sifive_welcome/freedom-metal/src/drivers/riscv_cpu.c:620

/* CPU driver !!! */

unsigned long long __metal_driver_cpu_mcycle_get(struct metal_cpu *cpu) {
200143f0:	7139                	addi	sp,sp,-64
200143f2:	de22                	sw	s0,60(sp)
200143f4:	0080                	addi	s0,sp,64
200143f6:	fca42623          	sw	a0,-52(s0)
C:/Users/nandg/Desktop/Athena_Welcome_Demo/sifive_hifive1_revb_sifive_welcome/freedom-metal/src/drivers/riscv_cpu.c:621
    unsigned long long val = 0;
200143fa:	4501                	li	a0,0
200143fc:	4581                	li	a1,0
200143fe:	fea42423          	sw	a0,-24(s0)
20014402:	feb42623          	sw	a1,-20(s0)
C:/Users/nandg/Desktop/Athena_Welcome_Demo/sifive_hifive1_revb_sifive_welcome/freedom-metal/src/drivers/riscv_cpu.c:627 (discriminator 1)

#if __riscv_xlen == 32
    unsigned long hi, hi1, lo;

    do {
        __asm__ volatile("csrr %0, mcycleh" : "=r"(hi));
20014406:	b80025f3          	csrr	a1,mcycleh
2001440a:	feb42223          	sw	a1,-28(s0)
C:/Users/nandg/Desktop/Athena_Welcome_Demo/sifive_hifive1_revb_sifive_welcome/freedom-metal/src/drivers/riscv_cpu.c:628 (discriminator 1)
        __asm__ volatile("csrr %0, mcycle" : "=r"(lo));
2001440e:	b00025f3          	csrr	a1,mcycle
20014412:	feb42023          	sw	a1,-32(s0)
C:/Users/nandg/Desktop/Athena_Welcome_Demo/sifive_hifive1_revb_sifive_welcome/freedom-metal/src/drivers/riscv_cpu.c:629 (discriminator 1)
        __asm__ volatile("csrr %0, mcycleh" : "=r"(hi1));
20014416:	b80025f3          	csrr	a1,mcycleh
2001441a:	fcb42e23          	sw	a1,-36(s0)
C:/Users/nandg/Desktop/Athena_Welcome_Demo/sifive_hifive1_revb_sifive_welcome/freedom-metal/src/drivers/riscv_cpu.c:632 (discriminator 1)
        /* hi != hi1 means mcycle overflow during we get value,
         * so we must retry. */
    } while (hi != hi1);
2001441e:	fe442503          	lw	a0,-28(s0)
20014422:	fdc42583          	lw	a1,-36(s0)
20014426:	feb510e3          	bne	a0,a1,20014406 <__metal_driver_cpu_mcycle_get+0x16>
C:/Users/nandg/Desktop/Athena_Welcome_Demo/sifive_hifive1_revb_sifive_welcome/freedom-metal/src/drivers/riscv_cpu.c:634

    val = ((unsigned long long)hi << 32) | lo;
2001442a:	fe442583          	lw	a1,-28(s0)
2001442e:	882e                	mv	a6,a1
20014430:	4881                	li	a7,0
20014432:	00081793          	slli	a5,a6,0x0
20014436:	4701                	li	a4,0
20014438:	fe042583          	lw	a1,-32(s0)
2001443c:	862e                	mv	a2,a1
2001443e:	4681                	li	a3,0
20014440:	00c765b3          	or	a1,a4,a2
20014444:	feb42423          	sw	a1,-24(s0)
20014448:	8fd5                	or	a5,a5,a3
2001444a:	fef42623          	sw	a5,-20(s0)
C:/Users/nandg/Desktop/Athena_Welcome_Demo/sifive_hifive1_revb_sifive_welcome/freedom-metal/src/drivers/riscv_cpu.c:639
#else
    __asm__ volatile("csrr %0, mcycle" : "=r"(val));
#endif

    return val;
2001444e:	fe842703          	lw	a4,-24(s0)
20014452:	fec42783          	lw	a5,-20(s0)
C:/Users/nandg/Desktop/Athena_Welcome_Demo/sifive_hifive1_revb_sifive_welcome/freedom-metal/src/drivers/riscv_cpu.c:640
}
20014456:	853a                	mv	a0,a4
20014458:	85be                	mv	a1,a5
2001445a:	5472                	lw	s0,60(sp)
2001445c:	6121                	addi	sp,sp,64
2001445e:	8082                	ret

20014460 <__metal_driver_cpu_timebase_get>:
__metal_driver_cpu_timebase_get():
C:/Users/nandg/Desktop/Athena_Welcome_Demo/sifive_hifive1_revb_sifive_welcome/freedom-metal/src/drivers/riscv_cpu.c:642

unsigned long long __metal_driver_cpu_timebase_get(struct metal_cpu *cpu) {
20014460:	7179                	addi	sp,sp,-48
20014462:	d606                	sw	ra,44(sp)
20014464:	d422                	sw	s0,40(sp)
20014466:	d24a                	sw	s2,36(sp)
20014468:	d04e                	sw	s3,32(sp)
2001446a:	1800                	addi	s0,sp,48
2001446c:	fca42e23          	sw	a0,-36(s0)
C:/Users/nandg/Desktop/Athena_Welcome_Demo/sifive_hifive1_revb_sifive_welcome/freedom-metal/src/drivers/riscv_cpu.c:644
    int timebase;
    if (!cpu) {
20014470:	fdc42783          	lw	a5,-36(s0)
20014474:	e781                	bnez	a5,2001447c <__metal_driver_cpu_timebase_get+0x1c>
C:/Users/nandg/Desktop/Athena_Welcome_Demo/sifive_hifive1_revb_sifive_welcome/freedom-metal/src/drivers/riscv_cpu.c:645
        return 0;
20014476:	4901                	li	s2,0
20014478:	4981                	li	s3,0
2001447a:	a821                	j	20014492 <__metal_driver_cpu_timebase_get+0x32>
C:/Users/nandg/Desktop/Athena_Welcome_Demo/sifive_hifive1_revb_sifive_welcome/freedom-metal/src/drivers/riscv_cpu.c:648
    }

    timebase = __metal_driver_cpu_timebase((struct metal_cpu *)cpu);
2001447c:	fdc42503          	lw	a0,-36(s0)
20014480:	979fe0ef          	jal	ra,20012df8 <__metal_driver_cpu_timebase>
20014484:	fea42623          	sw	a0,-20(s0)
C:/Users/nandg/Desktop/Athena_Welcome_Demo/sifive_hifive1_revb_sifive_welcome/freedom-metal/src/drivers/riscv_cpu.c:649
    return timebase;
20014488:	fec42783          	lw	a5,-20(s0)
2001448c:	893e                	mv	s2,a5
2001448e:	87fd                	srai	a5,a5,0x1f
20014490:	89be                	mv	s3,a5
C:/Users/nandg/Desktop/Athena_Welcome_Demo/sifive_hifive1_revb_sifive_welcome/freedom-metal/src/drivers/riscv_cpu.c:650
}
20014492:	874a                	mv	a4,s2
20014494:	87ce                	mv	a5,s3
20014496:	853a                	mv	a0,a4
20014498:	85be                	mv	a1,a5
2001449a:	50b2                	lw	ra,44(sp)
2001449c:	5422                	lw	s0,40(sp)
2001449e:	5912                	lw	s2,36(sp)
200144a0:	5982                	lw	s3,32(sp)
200144a2:	6145                	addi	sp,sp,48
200144a4:	8082                	ret

200144a6 <__metal_driver_cpu_mtime_get>:
__metal_driver_cpu_mtime_get():
C:/Users/nandg/Desktop/Athena_Welcome_Demo/sifive_hifive1_revb_sifive_welcome/freedom-metal/src/drivers/riscv_cpu.c:652

unsigned long long __metal_driver_cpu_mtime_get(struct metal_cpu *cpu) {
200144a6:	7179                	addi	sp,sp,-48
200144a8:	d606                	sw	ra,44(sp)
200144aa:	d422                	sw	s0,40(sp)
200144ac:	1800                	addi	s0,sp,48
200144ae:	fca42e23          	sw	a0,-36(s0)
C:/Users/nandg/Desktop/Athena_Welcome_Demo/sifive_hifive1_revb_sifive_welcome/freedom-metal/src/drivers/riscv_cpu.c:653
    unsigned long long time = 0;
200144b2:	4781                	li	a5,0
200144b4:	4801                	li	a6,0
200144b6:	fef42023          	sw	a5,-32(s0)
200144ba:	ff042223          	sw	a6,-28(s0)
C:/Users/nandg/Desktop/Athena_Welcome_Demo/sifive_hifive1_revb_sifive_welcome/freedom-metal/src/drivers/riscv_cpu.c:657
    struct metal_interrupt *tmr_intc;
    struct __metal_driver_riscv_cpu_intc *intc =
        (struct __metal_driver_riscv_cpu_intc *)
            __metal_driver_cpu_interrupt_controller(cpu);
200144be:	fdc42503          	lw	a0,-36(s0)
200144c2:	961fe0ef          	jal	ra,20012e22 <__metal_driver_cpu_interrupt_controller>
200144c6:	fea42623          	sw	a0,-20(s0)
C:/Users/nandg/Desktop/Athena_Welcome_Demo/sifive_hifive1_revb_sifive_welcome/freedom-metal/src/drivers/riscv_cpu.c:659

    if (intc) {
200144ca:	fec42783          	lw	a5,-20(s0)
200144ce:	c78d                	beqz	a5,200144f8 <__metal_driver_cpu_mtime_get+0x52>
C:/Users/nandg/Desktop/Athena_Welcome_Demo/sifive_hifive1_revb_sifive_welcome/freedom-metal/src/drivers/riscv_cpu.c:660
        tmr_intc = intc->metal_int_table[METAL_INTERRUPT_ID_TMR].sub_int;
200144d0:	fec42783          	lw	a5,-20(s0)
200144d4:	13c7a783          	lw	a5,316(a5)
200144d8:	fef42423          	sw	a5,-24(s0)
C:/Users/nandg/Desktop/Athena_Welcome_Demo/sifive_hifive1_revb_sifive_welcome/freedom-metal/src/drivers/riscv_cpu.c:661
        if (tmr_intc) {
200144dc:	fe842783          	lw	a5,-24(s0)
200144e0:	cf81                	beqz	a5,200144f8 <__metal_driver_cpu_mtime_get+0x52>
C:/Users/nandg/Desktop/Athena_Welcome_Demo/sifive_hifive1_revb_sifive_welcome/freedom-metal/src/drivers/riscv_cpu.c:662
            tmr_intc->vtable->command_request(tmr_intc, METAL_TIMER_MTIME_GET,
200144e2:	fe842783          	lw	a5,-24(s0)
200144e6:	439c                	lw	a5,0(a5)
200144e8:	47f8                	lw	a4,76(a5)
200144ea:	fe040793          	addi	a5,s0,-32
200144ee:	863e                	mv	a2,a5
200144f0:	4585                	li	a1,1
200144f2:	fe842503          	lw	a0,-24(s0)
200144f6:	9702                	jalr	a4
C:/Users/nandg/Desktop/Athena_Welcome_Demo/sifive_hifive1_revb_sifive_welcome/freedom-metal/src/drivers/riscv_cpu.c:666
                                              &time);
        }
    }
    return time;
200144f8:	fe042703          	lw	a4,-32(s0)
200144fc:	fe442783          	lw	a5,-28(s0)
C:/Users/nandg/Desktop/Athena_Welcome_Demo/sifive_hifive1_revb_sifive_welcome/freedom-metal/src/drivers/riscv_cpu.c:667
}
20014500:	853a                	mv	a0,a4
20014502:	85be                	mv	a1,a5
20014504:	50b2                	lw	ra,44(sp)
20014506:	5422                	lw	s0,40(sp)
20014508:	6145                	addi	sp,sp,48
2001450a:	8082                	ret

2001450c <__metal_driver_cpu_mtimecmp_set>:
__metal_driver_cpu_mtimecmp_set():
C:/Users/nandg/Desktop/Athena_Welcome_Demo/sifive_hifive1_revb_sifive_welcome/freedom-metal/src/drivers/riscv_cpu.c:670

int __metal_driver_cpu_mtimecmp_set(struct metal_cpu *cpu,
                                    unsigned long long time) {
2001450c:	7179                	addi	sp,sp,-48
2001450e:	d606                	sw	ra,44(sp)
20014510:	d422                	sw	s0,40(sp)
20014512:	d226                	sw	s1,36(sp)
20014514:	1800                	addi	s0,sp,48
20014516:	fca42e23          	sw	a0,-36(s0)
2001451a:	fcb42823          	sw	a1,-48(s0)
2001451e:	fcc42a23          	sw	a2,-44(s0)
C:/Users/nandg/Desktop/Athena_Welcome_Demo/sifive_hifive1_revb_sifive_welcome/freedom-metal/src/drivers/riscv_cpu.c:671
    int rc = -1;
20014522:	57fd                	li	a5,-1
20014524:	fef42623          	sw	a5,-20(s0)
C:/Users/nandg/Desktop/Athena_Welcome_Demo/sifive_hifive1_revb_sifive_welcome/freedom-metal/src/drivers/riscv_cpu.c:675
    struct metal_interrupt *tmr_intc;
    struct __metal_driver_riscv_cpu_intc *intc =
        (struct __metal_driver_riscv_cpu_intc *)
            __metal_driver_cpu_interrupt_controller(cpu);
20014528:	fdc42503          	lw	a0,-36(s0)
2001452c:	8f7fe0ef          	jal	ra,20012e22 <__metal_driver_cpu_interrupt_controller>
20014530:	fea42423          	sw	a0,-24(s0)
C:/Users/nandg/Desktop/Athena_Welcome_Demo/sifive_hifive1_revb_sifive_welcome/freedom-metal/src/drivers/riscv_cpu.c:677

    if (intc) {
20014534:	fe842783          	lw	a5,-24(s0)
20014538:	cf8d                	beqz	a5,20014572 <__metal_driver_cpu_mtimecmp_set+0x66>
C:/Users/nandg/Desktop/Athena_Welcome_Demo/sifive_hifive1_revb_sifive_welcome/freedom-metal/src/drivers/riscv_cpu.c:678
        tmr_intc = intc->metal_int_table[METAL_INTERRUPT_ID_TMR].sub_int;
2001453a:	fe842783          	lw	a5,-24(s0)
2001453e:	13c7a783          	lw	a5,316(a5)
20014542:	fef42223          	sw	a5,-28(s0)
C:/Users/nandg/Desktop/Athena_Welcome_Demo/sifive_hifive1_revb_sifive_welcome/freedom-metal/src/drivers/riscv_cpu.c:679
        if (tmr_intc) {
20014546:	fe442783          	lw	a5,-28(s0)
2001454a:	c785                	beqz	a5,20014572 <__metal_driver_cpu_mtimecmp_set+0x66>
C:/Users/nandg/Desktop/Athena_Welcome_Demo/sifive_hifive1_revb_sifive_welcome/freedom-metal/src/drivers/riscv_cpu.c:680
            rc = tmr_intc->vtable->mtimecmp_set(
2001454c:	fe442783          	lw	a5,-28(s0)
20014550:	439c                	lw	a5,0(a5)
20014552:	4ba4                	lw	s1,80(a5)
20014554:	fdc42503          	lw	a0,-36(s0)
20014558:	87dfe0ef          	jal	ra,20012dd4 <__metal_driver_cpu_hartid>
2001455c:	87aa                	mv	a5,a0
2001455e:	fd042603          	lw	a2,-48(s0)
20014562:	fd442683          	lw	a3,-44(s0)
20014566:	85be                	mv	a1,a5
20014568:	fe442503          	lw	a0,-28(s0)
2001456c:	9482                	jalr	s1
2001456e:	fea42623          	sw	a0,-20(s0)
C:/Users/nandg/Desktop/Athena_Welcome_Demo/sifive_hifive1_revb_sifive_welcome/freedom-metal/src/drivers/riscv_cpu.c:684
                tmr_intc, __metal_driver_cpu_hartid(cpu), time);
        }
    }
    return rc;
20014572:	fec42783          	lw	a5,-20(s0)
C:/Users/nandg/Desktop/Athena_Welcome_Demo/sifive_hifive1_revb_sifive_welcome/freedom-metal/src/drivers/riscv_cpu.c:685
}
20014576:	853e                	mv	a0,a5
20014578:	50b2                	lw	ra,44(sp)
2001457a:	5422                	lw	s0,40(sp)
2001457c:	5492                	lw	s1,36(sp)
2001457e:	6145                	addi	sp,sp,48
20014580:	8082                	ret

20014582 <__metal_driver_cpu_timer_controller_interrupt>:
__metal_driver_cpu_timer_controller_interrupt():
C:/Users/nandg/Desktop/Athena_Welcome_Demo/sifive_hifive1_revb_sifive_welcome/freedom-metal/src/drivers/riscv_cpu.c:688

struct metal_interrupt *
__metal_driver_cpu_timer_controller_interrupt(struct metal_cpu *cpu) {
20014582:	1101                	addi	sp,sp,-32
20014584:	ce22                	sw	s0,28(sp)
20014586:	1000                	addi	s0,sp,32
20014588:	fea42623          	sw	a0,-20(s0)
C:/Users/nandg/Desktop/Athena_Welcome_Demo/sifive_hifive1_revb_sifive_welcome/freedom-metal/src/drivers/riscv_cpu.c:690
#ifdef __METAL_DT_RISCV_CLINT0_HANDLE
    return __METAL_DT_RISCV_CLINT0_HANDLE;
2001458c:	800017b7          	lui	a5,0x80001
20014590:	ab878793          	addi	a5,a5,-1352 # 80000ab8 <metal_segment_heap_target_end+0xfffff318>
C:/Users/nandg/Desktop/Athena_Welcome_Demo/sifive_hifive1_revb_sifive_welcome/freedom-metal/src/drivers/riscv_cpu.c:699
#else
#pragma message("There is no interrupt controller for Timer interrupt")
    return NULL;
#endif
#endif
}
20014594:	853e                	mv	a0,a5
20014596:	4472                	lw	s0,28(sp)
20014598:	6105                	addi	sp,sp,32
2001459a:	8082                	ret

2001459c <__metal_driver_cpu_get_timer_interrupt_id>:
__metal_driver_cpu_get_timer_interrupt_id():
C:/Users/nandg/Desktop/Athena_Welcome_Demo/sifive_hifive1_revb_sifive_welcome/freedom-metal/src/drivers/riscv_cpu.c:701

int __metal_driver_cpu_get_timer_interrupt_id(struct metal_cpu *cpu) {
2001459c:	1101                	addi	sp,sp,-32
2001459e:	ce22                	sw	s0,28(sp)
200145a0:	1000                	addi	s0,sp,32
200145a2:	fea42623          	sw	a0,-20(s0)
C:/Users/nandg/Desktop/Athena_Welcome_Demo/sifive_hifive1_revb_sifive_welcome/freedom-metal/src/drivers/riscv_cpu.c:702
    return METAL_INTERRUPT_ID_TMR;
200145a6:	479d                	li	a5,7
C:/Users/nandg/Desktop/Athena_Welcome_Demo/sifive_hifive1_revb_sifive_welcome/freedom-metal/src/drivers/riscv_cpu.c:703
}
200145a8:	853e                	mv	a0,a5
200145aa:	4472                	lw	s0,28(sp)
200145ac:	6105                	addi	sp,sp,32
200145ae:	8082                	ret

200145b0 <__metal_driver_cpu_sw_controller_interrupt>:
__metal_driver_cpu_sw_controller_interrupt():
C:/Users/nandg/Desktop/Athena_Welcome_Demo/sifive_hifive1_revb_sifive_welcome/freedom-metal/src/drivers/riscv_cpu.c:706

struct metal_interrupt *
__metal_driver_cpu_sw_controller_interrupt(struct metal_cpu *cpu) {
200145b0:	1101                	addi	sp,sp,-32
200145b2:	ce22                	sw	s0,28(sp)
200145b4:	1000                	addi	s0,sp,32
200145b6:	fea42623          	sw	a0,-20(s0)
C:/Users/nandg/Desktop/Athena_Welcome_Demo/sifive_hifive1_revb_sifive_welcome/freedom-metal/src/drivers/riscv_cpu.c:708
#ifdef __METAL_DT_RISCV_CLINT0_HANDLE
    return __METAL_DT_RISCV_CLINT0_HANDLE;
200145ba:	800017b7          	lui	a5,0x80001
200145be:	ab878793          	addi	a5,a5,-1352 # 80000ab8 <metal_segment_heap_target_end+0xfffff318>
C:/Users/nandg/Desktop/Athena_Welcome_Demo/sifive_hifive1_revb_sifive_welcome/freedom-metal/src/drivers/riscv_cpu.c:717
#else
#pragma message("There is no interrupt controller for Software interrupt")
    return NULL;
#endif
#endif
}
200145c2:	853e                	mv	a0,a5
200145c4:	4472                	lw	s0,28(sp)
200145c6:	6105                	addi	sp,sp,32
200145c8:	8082                	ret

200145ca <__metal_driver_cpu_get_sw_interrupt_id>:
__metal_driver_cpu_get_sw_interrupt_id():
C:/Users/nandg/Desktop/Athena_Welcome_Demo/sifive_hifive1_revb_sifive_welcome/freedom-metal/src/drivers/riscv_cpu.c:719

int __metal_driver_cpu_get_sw_interrupt_id(struct metal_cpu *cpu) {
200145ca:	1101                	addi	sp,sp,-32
200145cc:	ce22                	sw	s0,28(sp)
200145ce:	1000                	addi	s0,sp,32
200145d0:	fea42623          	sw	a0,-20(s0)
C:/Users/nandg/Desktop/Athena_Welcome_Demo/sifive_hifive1_revb_sifive_welcome/freedom-metal/src/drivers/riscv_cpu.c:720
    return METAL_INTERRUPT_ID_SW;
200145d4:	478d                	li	a5,3
C:/Users/nandg/Desktop/Athena_Welcome_Demo/sifive_hifive1_revb_sifive_welcome/freedom-metal/src/drivers/riscv_cpu.c:721
}
200145d6:	853e                	mv	a0,a5
200145d8:	4472                	lw	s0,28(sp)
200145da:	6105                	addi	sp,sp,32
200145dc:	8082                	ret

200145de <__metal_driver_cpu_set_sw_ipi>:
__metal_driver_cpu_set_sw_ipi():
C:/Users/nandg/Desktop/Athena_Welcome_Demo/sifive_hifive1_revb_sifive_welcome/freedom-metal/src/drivers/riscv_cpu.c:723

int __metal_driver_cpu_set_sw_ipi(struct metal_cpu *cpu, int hartid) {
200145de:	7179                	addi	sp,sp,-48
200145e0:	d606                	sw	ra,44(sp)
200145e2:	d422                	sw	s0,40(sp)
200145e4:	1800                	addi	s0,sp,48
200145e6:	fca42e23          	sw	a0,-36(s0)
200145ea:	fcb42c23          	sw	a1,-40(s0)
C:/Users/nandg/Desktop/Athena_Welcome_Demo/sifive_hifive1_revb_sifive_welcome/freedom-metal/src/drivers/riscv_cpu.c:724
    int rc = -1;
200145ee:	57fd                	li	a5,-1
200145f0:	fef42623          	sw	a5,-20(s0)
C:/Users/nandg/Desktop/Athena_Welcome_Demo/sifive_hifive1_revb_sifive_welcome/freedom-metal/src/drivers/riscv_cpu.c:728
    struct metal_interrupt *sw_intc;
    struct __metal_driver_riscv_cpu_intc *intc =
        (struct __metal_driver_riscv_cpu_intc *)
            __metal_driver_cpu_interrupt_controller(cpu);
200145f4:	fdc42503          	lw	a0,-36(s0)
200145f8:	82bfe0ef          	jal	ra,20012e22 <__metal_driver_cpu_interrupt_controller>
200145fc:	fea42423          	sw	a0,-24(s0)
C:/Users/nandg/Desktop/Athena_Welcome_Demo/sifive_hifive1_revb_sifive_welcome/freedom-metal/src/drivers/riscv_cpu.c:730

    if (intc) {
20014600:	fe842783          	lw	a5,-24(s0)
20014604:	c79d                	beqz	a5,20014632 <__metal_driver_cpu_set_sw_ipi+0x54>
C:/Users/nandg/Desktop/Athena_Welcome_Demo/sifive_hifive1_revb_sifive_welcome/freedom-metal/src/drivers/riscv_cpu.c:731
        sw_intc = intc->metal_int_table[METAL_INTERRUPT_ID_SW].sub_int;
20014606:	fe842783          	lw	a5,-24(s0)
2001460a:	0dc7a783          	lw	a5,220(a5)
2001460e:	fef42223          	sw	a5,-28(s0)
C:/Users/nandg/Desktop/Athena_Welcome_Demo/sifive_hifive1_revb_sifive_welcome/freedom-metal/src/drivers/riscv_cpu.c:732
        if (sw_intc) {
20014612:	fe442783          	lw	a5,-28(s0)
20014616:	cf91                	beqz	a5,20014632 <__metal_driver_cpu_set_sw_ipi+0x54>
C:/Users/nandg/Desktop/Athena_Welcome_Demo/sifive_hifive1_revb_sifive_welcome/freedom-metal/src/drivers/riscv_cpu.c:733
            rc = sw_intc->vtable->command_request(
20014618:	fe442783          	lw	a5,-28(s0)
2001461c:	439c                	lw	a5,0(a5)
2001461e:	47f8                	lw	a4,76(a5)
20014620:	fd840793          	addi	a5,s0,-40
20014624:	863e                	mv	a2,a5
20014626:	458d                	li	a1,3
20014628:	fe442503          	lw	a0,-28(s0)
2001462c:	9702                	jalr	a4
2001462e:	fea42623          	sw	a0,-20(s0)
C:/Users/nandg/Desktop/Athena_Welcome_Demo/sifive_hifive1_revb_sifive_welcome/freedom-metal/src/drivers/riscv_cpu.c:737
                sw_intc, METAL_SOFTWARE_IPI_SET, &hartid);
        }
    }
    return rc;
20014632:	fec42783          	lw	a5,-20(s0)
C:/Users/nandg/Desktop/Athena_Welcome_Demo/sifive_hifive1_revb_sifive_welcome/freedom-metal/src/drivers/riscv_cpu.c:738
}
20014636:	853e                	mv	a0,a5
20014638:	50b2                	lw	ra,44(sp)
2001463a:	5422                	lw	s0,40(sp)
2001463c:	6145                	addi	sp,sp,48
2001463e:	8082                	ret

20014640 <__metal_driver_cpu_clear_sw_ipi>:
__metal_driver_cpu_clear_sw_ipi():
C:/Users/nandg/Desktop/Athena_Welcome_Demo/sifive_hifive1_revb_sifive_welcome/freedom-metal/src/drivers/riscv_cpu.c:740

int __metal_driver_cpu_clear_sw_ipi(struct metal_cpu *cpu, int hartid) {
20014640:	7179                	addi	sp,sp,-48
20014642:	d606                	sw	ra,44(sp)
20014644:	d422                	sw	s0,40(sp)
20014646:	1800                	addi	s0,sp,48
20014648:	fca42e23          	sw	a0,-36(s0)
2001464c:	fcb42c23          	sw	a1,-40(s0)
C:/Users/nandg/Desktop/Athena_Welcome_Demo/sifive_hifive1_revb_sifive_welcome/freedom-metal/src/drivers/riscv_cpu.c:741
    int rc = -1;
20014650:	57fd                	li	a5,-1
20014652:	fef42623          	sw	a5,-20(s0)
C:/Users/nandg/Desktop/Athena_Welcome_Demo/sifive_hifive1_revb_sifive_welcome/freedom-metal/src/drivers/riscv_cpu.c:745
    struct metal_interrupt *sw_intc;
    struct __metal_driver_riscv_cpu_intc *intc =
        (struct __metal_driver_riscv_cpu_intc *)
            __metal_driver_cpu_interrupt_controller(cpu);
20014656:	fdc42503          	lw	a0,-36(s0)
2001465a:	fc8fe0ef          	jal	ra,20012e22 <__metal_driver_cpu_interrupt_controller>
2001465e:	fea42423          	sw	a0,-24(s0)
C:/Users/nandg/Desktop/Athena_Welcome_Demo/sifive_hifive1_revb_sifive_welcome/freedom-metal/src/drivers/riscv_cpu.c:747

    if (intc) {
20014662:	fe842783          	lw	a5,-24(s0)
20014666:	c79d                	beqz	a5,20014694 <__metal_driver_cpu_clear_sw_ipi+0x54>
C:/Users/nandg/Desktop/Athena_Welcome_Demo/sifive_hifive1_revb_sifive_welcome/freedom-metal/src/drivers/riscv_cpu.c:748
        sw_intc = intc->metal_int_table[METAL_INTERRUPT_ID_SW].sub_int;
20014668:	fe842783          	lw	a5,-24(s0)
2001466c:	0dc7a783          	lw	a5,220(a5)
20014670:	fef42223          	sw	a5,-28(s0)
C:/Users/nandg/Desktop/Athena_Welcome_Demo/sifive_hifive1_revb_sifive_welcome/freedom-metal/src/drivers/riscv_cpu.c:749
        if (sw_intc) {
20014674:	fe442783          	lw	a5,-28(s0)
20014678:	cf91                	beqz	a5,20014694 <__metal_driver_cpu_clear_sw_ipi+0x54>
C:/Users/nandg/Desktop/Athena_Welcome_Demo/sifive_hifive1_revb_sifive_welcome/freedom-metal/src/drivers/riscv_cpu.c:750
            rc = sw_intc->vtable->command_request(
2001467a:	fe442783          	lw	a5,-28(s0)
2001467e:	439c                	lw	a5,0(a5)
20014680:	47f8                	lw	a4,76(a5)
20014682:	fd840793          	addi	a5,s0,-40
20014686:	863e                	mv	a2,a5
20014688:	4589                	li	a1,2
2001468a:	fe442503          	lw	a0,-28(s0)
2001468e:	9702                	jalr	a4
20014690:	fea42623          	sw	a0,-20(s0)
C:/Users/nandg/Desktop/Athena_Welcome_Demo/sifive_hifive1_revb_sifive_welcome/freedom-metal/src/drivers/riscv_cpu.c:754
                sw_intc, METAL_SOFTWARE_IPI_CLEAR, &hartid);
        }
    }
    return rc;
20014694:	fec42783          	lw	a5,-20(s0)
C:/Users/nandg/Desktop/Athena_Welcome_Demo/sifive_hifive1_revb_sifive_welcome/freedom-metal/src/drivers/riscv_cpu.c:755
}
20014698:	853e                	mv	a0,a5
2001469a:	50b2                	lw	ra,44(sp)
2001469c:	5422                	lw	s0,40(sp)
2001469e:	6145                	addi	sp,sp,48
200146a0:	8082                	ret

200146a2 <__metal_driver_cpu_get_msip>:
__metal_driver_cpu_get_msip():
C:/Users/nandg/Desktop/Athena_Welcome_Demo/sifive_hifive1_revb_sifive_welcome/freedom-metal/src/drivers/riscv_cpu.c:757

int __metal_driver_cpu_get_msip(struct metal_cpu *cpu, int hartid) {
200146a2:	7179                	addi	sp,sp,-48
200146a4:	d606                	sw	ra,44(sp)
200146a6:	d422                	sw	s0,40(sp)
200146a8:	1800                	addi	s0,sp,48
200146aa:	fca42e23          	sw	a0,-36(s0)
200146ae:	fcb42c23          	sw	a1,-40(s0)
C:/Users/nandg/Desktop/Athena_Welcome_Demo/sifive_hifive1_revb_sifive_welcome/freedom-metal/src/drivers/riscv_cpu.c:758
    int rc = 0;
200146b2:	fe042623          	sw	zero,-20(s0)
C:/Users/nandg/Desktop/Athena_Welcome_Demo/sifive_hifive1_revb_sifive_welcome/freedom-metal/src/drivers/riscv_cpu.c:762
    struct metal_interrupt *sw_intc;
    struct __metal_driver_riscv_cpu_intc *intc =
        (struct __metal_driver_riscv_cpu_intc *)
            __metal_driver_cpu_interrupt_controller(cpu);
200146b6:	fdc42503          	lw	a0,-36(s0)
200146ba:	f68fe0ef          	jal	ra,20012e22 <__metal_driver_cpu_interrupt_controller>
200146be:	fea42423          	sw	a0,-24(s0)
C:/Users/nandg/Desktop/Athena_Welcome_Demo/sifive_hifive1_revb_sifive_welcome/freedom-metal/src/drivers/riscv_cpu.c:764

    if (intc) {
200146c2:	fe842783          	lw	a5,-24(s0)
200146c6:	c79d                	beqz	a5,200146f4 <__metal_driver_cpu_get_msip+0x52>
C:/Users/nandg/Desktop/Athena_Welcome_Demo/sifive_hifive1_revb_sifive_welcome/freedom-metal/src/drivers/riscv_cpu.c:765
        sw_intc = intc->metal_int_table[METAL_INTERRUPT_ID_SW].sub_int;
200146c8:	fe842783          	lw	a5,-24(s0)
200146cc:	0dc7a783          	lw	a5,220(a5)
200146d0:	fef42223          	sw	a5,-28(s0)
C:/Users/nandg/Desktop/Athena_Welcome_Demo/sifive_hifive1_revb_sifive_welcome/freedom-metal/src/drivers/riscv_cpu.c:766
        if (sw_intc) {
200146d4:	fe442783          	lw	a5,-28(s0)
200146d8:	cf91                	beqz	a5,200146f4 <__metal_driver_cpu_get_msip+0x52>
C:/Users/nandg/Desktop/Athena_Welcome_Demo/sifive_hifive1_revb_sifive_welcome/freedom-metal/src/drivers/riscv_cpu.c:767
            rc = sw_intc->vtable->command_request(
200146da:	fe442783          	lw	a5,-28(s0)
200146de:	439c                	lw	a5,0(a5)
200146e0:	47f8                	lw	a4,76(a5)
200146e2:	fd840793          	addi	a5,s0,-40
200146e6:	863e                	mv	a2,a5
200146e8:	4591                	li	a1,4
200146ea:	fe442503          	lw	a0,-28(s0)
200146ee:	9702                	jalr	a4
200146f0:	fea42623          	sw	a0,-20(s0)
C:/Users/nandg/Desktop/Athena_Welcome_Demo/sifive_hifive1_revb_sifive_welcome/freedom-metal/src/drivers/riscv_cpu.c:771
                sw_intc, METAL_SOFTWARE_MSIP_GET, &hartid);
        }
    }
    return rc;
200146f4:	fec42783          	lw	a5,-20(s0)
C:/Users/nandg/Desktop/Athena_Welcome_Demo/sifive_hifive1_revb_sifive_welcome/freedom-metal/src/drivers/riscv_cpu.c:772
}
200146f8:	853e                	mv	a0,a5
200146fa:	50b2                	lw	ra,44(sp)
200146fc:	5422                	lw	s0,40(sp)
200146fe:	6145                	addi	sp,sp,48
20014700:	8082                	ret

20014702 <__metal_driver_cpu_controller_interrupt>:
__metal_driver_cpu_controller_interrupt():
C:/Users/nandg/Desktop/Athena_Welcome_Demo/sifive_hifive1_revb_sifive_welcome/freedom-metal/src/drivers/riscv_cpu.c:775

struct metal_interrupt *
__metal_driver_cpu_controller_interrupt(struct metal_cpu *cpu) {
20014702:	1101                	addi	sp,sp,-32
20014704:	ce06                	sw	ra,28(sp)
20014706:	cc22                	sw	s0,24(sp)
20014708:	1000                	addi	s0,sp,32
2001470a:	fea42623          	sw	a0,-20(s0)
C:/Users/nandg/Desktop/Athena_Welcome_Demo/sifive_hifive1_revb_sifive_welcome/freedom-metal/src/drivers/riscv_cpu.c:776
    return __metal_driver_cpu_interrupt_controller(cpu);
2001470e:	fec42503          	lw	a0,-20(s0)
20014712:	f10fe0ef          	jal	ra,20012e22 <__metal_driver_cpu_interrupt_controller>
20014716:	87aa                	mv	a5,a0
C:/Users/nandg/Desktop/Athena_Welcome_Demo/sifive_hifive1_revb_sifive_welcome/freedom-metal/src/drivers/riscv_cpu.c:777
}
20014718:	853e                	mv	a0,a5
2001471a:	40f2                	lw	ra,28(sp)
2001471c:	4462                	lw	s0,24(sp)
2001471e:	6105                	addi	sp,sp,32
20014720:	8082                	ret

20014722 <__metal_driver_cpu_exception_register>:
__metal_driver_cpu_exception_register():
C:/Users/nandg/Desktop/Athena_Welcome_Demo/sifive_hifive1_revb_sifive_welcome/freedom-metal/src/drivers/riscv_cpu.c:798
    }
    return -1;
}

int __metal_driver_cpu_exception_register(struct metal_cpu *cpu, int ecode,
                                          metal_exception_handler_t isr) {
20014722:	7179                	addi	sp,sp,-48
20014724:	d606                	sw	ra,44(sp)
20014726:	d422                	sw	s0,40(sp)
20014728:	1800                	addi	s0,sp,48
2001472a:	fca42e23          	sw	a0,-36(s0)
2001472e:	fcb42c23          	sw	a1,-40(s0)
20014732:	fcc42a23          	sw	a2,-44(s0)
C:/Users/nandg/Desktop/Athena_Welcome_Demo/sifive_hifive1_revb_sifive_welcome/freedom-metal/src/drivers/riscv_cpu.c:801
    struct __metal_driver_riscv_cpu_intc *intc =
        (struct __metal_driver_riscv_cpu_intc *)
            __metal_driver_cpu_interrupt_controller(cpu);
20014736:	fdc42503          	lw	a0,-36(s0)
2001473a:	ee8fe0ef          	jal	ra,20012e22 <__metal_driver_cpu_interrupt_controller>
2001473e:	fea42623          	sw	a0,-20(s0)
C:/Users/nandg/Desktop/Athena_Welcome_Demo/sifive_hifive1_revb_sifive_welcome/freedom-metal/src/drivers/riscv_cpu.c:803

    if (intc) {
20014742:	fec42783          	lw	a5,-20(s0)
20014746:	cb99                	beqz	a5,2001475c <__metal_driver_cpu_exception_register+0x3a>
C:/Users/nandg/Desktop/Athena_Welcome_Demo/sifive_hifive1_revb_sifive_welcome/freedom-metal/src/drivers/riscv_cpu.c:804
        return __metal_exception_register((struct metal_interrupt *)intc, ecode,
20014748:	fd442603          	lw	a2,-44(s0)
2001474c:	fd842583          	lw	a1,-40(s0)
20014750:	fec42503          	lw	a0,-20(s0)
20014754:	8a5ff0ef          	jal	ra,20013ff8 <__metal_exception_register>
20014758:	87aa                	mv	a5,a0
2001475a:	a011                	j	2001475e <__metal_driver_cpu_exception_register+0x3c>
C:/Users/nandg/Desktop/Athena_Welcome_Demo/sifive_hifive1_revb_sifive_welcome/freedom-metal/src/drivers/riscv_cpu.c:807
                                          isr);
    }
    return -1;
2001475c:	57fd                	li	a5,-1
C:/Users/nandg/Desktop/Athena_Welcome_Demo/sifive_hifive1_revb_sifive_welcome/freedom-metal/src/drivers/riscv_cpu.c:808
}
2001475e:	853e                	mv	a0,a5
20014760:	50b2                	lw	ra,44(sp)
20014762:	5422                	lw	s0,40(sp)
20014764:	6145                	addi	sp,sp,48
20014766:	8082                	ret

20014768 <__metal_driver_cpu_get_instruction_length>:
__metal_driver_cpu_get_instruction_length():
C:/Users/nandg/Desktop/Athena_Welcome_Demo/sifive_hifive1_revb_sifive_welcome/freedom-metal/src/drivers/riscv_cpu.c:811

int __metal_driver_cpu_get_instruction_length(struct metal_cpu *cpu,
                                              uintptr_t epc) {
20014768:	1101                	addi	sp,sp,-32
2001476a:	ce22                	sw	s0,28(sp)
2001476c:	1000                	addi	s0,sp,32
2001476e:	fea42623          	sw	a0,-20(s0)
20014772:	feb42423          	sw	a1,-24(s0)
C:/Users/nandg/Desktop/Athena_Welcome_Demo/sifive_hifive1_revb_sifive_welcome/freedom-metal/src/drivers/riscv_cpu.c:817
    /**
     * Per ISA compressed instruction has last two bits of opcode set.
     * The encoding '00' '01' '10' are used for compressed instruction.
     * Only enconding '11' isn't regarded as compressed instruction (>16b).
     */
    return ((*(unsigned short *)epc & METAL_INSN_LENGTH_MASK) ==
20014776:	fe842783          	lw	a5,-24(s0)
2001477a:	0007d783          	lhu	a5,0(a5)
2001477e:	0037f713          	andi	a4,a5,3
C:/Users/nandg/Desktop/Athena_Welcome_Demo/sifive_hifive1_revb_sifive_welcome/freedom-metal/src/drivers/riscv_cpu.c:820
            METAL_INSN_NOT_COMPRESSED)
               ? 4
               : 2;
20014782:	478d                	li	a5,3
20014784:	00f71463          	bne	a4,a5,2001478c <__metal_driver_cpu_get_instruction_length+0x24>
C:/Users/nandg/Desktop/Athena_Welcome_Demo/sifive_hifive1_revb_sifive_welcome/freedom-metal/src/drivers/riscv_cpu.c:820 (discriminator 1)
20014788:	4791                	li	a5,4
2001478a:	a011                	j	2001478e <__metal_driver_cpu_get_instruction_length+0x26>
C:/Users/nandg/Desktop/Athena_Welcome_Demo/sifive_hifive1_revb_sifive_welcome/freedom-metal/src/drivers/riscv_cpu.c:820 (discriminator 2)
2001478c:	4789                	li	a5,2
C:/Users/nandg/Desktop/Athena_Welcome_Demo/sifive_hifive1_revb_sifive_welcome/freedom-metal/src/drivers/riscv_cpu.c:821 (discriminator 5)
}
2001478e:	853e                	mv	a0,a5
20014790:	4472                	lw	s0,28(sp)
20014792:	6105                	addi	sp,sp,32
20014794:	8082                	ret

20014796 <__metal_driver_cpu_get_exception_pc>:
__metal_driver_cpu_get_exception_pc():
C:/Users/nandg/Desktop/Athena_Welcome_Demo/sifive_hifive1_revb_sifive_welcome/freedom-metal/src/drivers/riscv_cpu.c:823

uintptr_t __metal_driver_cpu_get_exception_pc(struct metal_cpu *cpu) {
20014796:	7179                	addi	sp,sp,-48
20014798:	d622                	sw	s0,44(sp)
2001479a:	1800                	addi	s0,sp,48
2001479c:	fca42e23          	sw	a0,-36(s0)
C:/Users/nandg/Desktop/Athena_Welcome_Demo/sifive_hifive1_revb_sifive_welcome/freedom-metal/src/drivers/riscv_cpu.c:825
    uintptr_t mepc;
    __asm__ volatile("csrr %0, mepc" : "=r"(mepc));
200147a0:	341027f3          	csrr	a5,mepc
200147a4:	fef42623          	sw	a5,-20(s0)
C:/Users/nandg/Desktop/Athena_Welcome_Demo/sifive_hifive1_revb_sifive_welcome/freedom-metal/src/drivers/riscv_cpu.c:826
    return mepc;
200147a8:	fec42783          	lw	a5,-20(s0)
C:/Users/nandg/Desktop/Athena_Welcome_Demo/sifive_hifive1_revb_sifive_welcome/freedom-metal/src/drivers/riscv_cpu.c:827
}
200147ac:	853e                	mv	a0,a5
200147ae:	5432                	lw	s0,44(sp)
200147b0:	6145                	addi	sp,sp,48
200147b2:	8082                	ret

200147b4 <__metal_driver_cpu_set_exception_pc>:
__metal_driver_cpu_set_exception_pc():
C:/Users/nandg/Desktop/Athena_Welcome_Demo/sifive_hifive1_revb_sifive_welcome/freedom-metal/src/drivers/riscv_cpu.c:829

int __metal_driver_cpu_set_exception_pc(struct metal_cpu *cpu, uintptr_t mepc) {
200147b4:	1101                	addi	sp,sp,-32
200147b6:	ce22                	sw	s0,28(sp)
200147b8:	1000                	addi	s0,sp,32
200147ba:	fea42623          	sw	a0,-20(s0)
200147be:	feb42423          	sw	a1,-24(s0)
C:/Users/nandg/Desktop/Athena_Welcome_Demo/sifive_hifive1_revb_sifive_welcome/freedom-metal/src/drivers/riscv_cpu.c:830
    __asm__ volatile("csrw mepc, %0" ::"r"(mepc));
200147c2:	fe842783          	lw	a5,-24(s0)
200147c6:	34179073          	csrw	mepc,a5
C:/Users/nandg/Desktop/Athena_Welcome_Demo/sifive_hifive1_revb_sifive_welcome/freedom-metal/src/drivers/riscv_cpu.c:831
    return 0;
200147ca:	4781                	li	a5,0
C:/Users/nandg/Desktop/Athena_Welcome_Demo/sifive_hifive1_revb_sifive_welcome/freedom-metal/src/drivers/riscv_cpu.c:832
}
200147cc:	853e                	mv	a0,a5
200147ce:	4472                	lw	s0,28(sp)
200147d0:	6105                	addi	sp,sp,32
200147d2:	8082                	ret

200147d4 <__metal_driver_cpu_get_buserror>:
__metal_driver_cpu_get_buserror():
C:/Users/nandg/Desktop/Athena_Welcome_Demo/sifive_hifive1_revb_sifive_welcome/freedom-metal/src/drivers/riscv_cpu.c:834

struct metal_buserror *__metal_driver_cpu_get_buserror(struct metal_cpu *cpu) {
200147d4:	1101                	addi	sp,sp,-32
200147d6:	ce06                	sw	ra,28(sp)
200147d8:	cc22                	sw	s0,24(sp)
200147da:	1000                	addi	s0,sp,32
200147dc:	fea42623          	sw	a0,-20(s0)
C:/Users/nandg/Desktop/Athena_Welcome_Demo/sifive_hifive1_revb_sifive_welcome/freedom-metal/src/drivers/riscv_cpu.c:835
    return __metal_driver_cpu_buserror(cpu);
200147e0:	fec42503          	lw	a0,-20(s0)
200147e4:	e68fe0ef          	jal	ra,20012e4c <__metal_driver_cpu_buserror>
200147e8:	87aa                	mv	a5,a0
C:/Users/nandg/Desktop/Athena_Welcome_Demo/sifive_hifive1_revb_sifive_welcome/freedom-metal/src/drivers/riscv_cpu.c:836
}
200147ea:	853e                	mv	a0,a5
200147ec:	40f2                	lw	ra,28(sp)
200147ee:	4462                	lw	s0,24(sp)
200147f0:	6105                	addi	sp,sp,32
200147f2:	8082                	ret

200147f4 <__metal_driver_sifive_plic0_control_base>:
__metal_driver_sifive_plic0_control_base():
C:\Users\nandg\Desktop\Athena_Welcome_Demo\sifive_hifive1_revb_sifive_welcome\bsp\build\debug/./metal/machine.h:345



/* --------------------- sifive_plic0 ------------ */
static __inline__ unsigned long __metal_driver_sifive_plic0_control_base(struct metal_interrupt *controller)
{
200147f4:	1101                	addi	sp,sp,-32
200147f6:	ce22                	sw	s0,28(sp)
200147f8:	1000                	addi	s0,sp,32
200147fa:	fea42623          	sw	a0,-20(s0)
C:\Users\nandg\Desktop\Athena_Welcome_Demo\sifive_hifive1_revb_sifive_welcome\bsp\build\debug/./metal/machine.h:346
	if ((uintptr_t)controller == (uintptr_t)&__metal_dt_interrupt_controller_c000000) {
200147fe:	fec42703          	lw	a4,-20(s0)
20014802:	800007b7          	lui	a5,0x80000
20014806:	47078793          	addi	a5,a5,1136 # 80000470 <metal_segment_heap_target_end+0xffffecd0>
2001480a:	00f71563          	bne	a4,a5,20014814 <__metal_driver_sifive_plic0_control_base+0x20>
C:\Users\nandg\Desktop\Athena_Welcome_Demo\sifive_hifive1_revb_sifive_welcome\bsp\build\debug/./metal/machine.h:347
		return METAL_RISCV_PLIC0_C000000_BASE_ADDRESS;
2001480e:	0c0007b7          	lui	a5,0xc000
20014812:	a011                	j	20014816 <__metal_driver_sifive_plic0_control_base+0x22>
C:\Users\nandg\Desktop\Athena_Welcome_Demo\sifive_hifive1_revb_sifive_welcome\bsp\build\debug/./metal/machine.h:350
	}
	else {
		return 0;
20014814:	4781                	li	a5,0
C:\Users\nandg\Desktop\Athena_Welcome_Demo\sifive_hifive1_revb_sifive_welcome\bsp\build\debug/./metal/machine.h:352
	}
}
20014816:	853e                	mv	a0,a5
20014818:	4472                	lw	s0,28(sp)
2001481a:	6105                	addi	sp,sp,32
2001481c:	8082                	ret

2001481e <__metal_driver_sifive_plic0_num_interrupts>:
__metal_driver_sifive_plic0_num_interrupts():
C:\Users\nandg\Desktop\Athena_Welcome_Demo\sifive_hifive1_revb_sifive_welcome\bsp\build\debug/./metal/machine.h:365
		return 0;
	}
}

static __inline__ int __metal_driver_sifive_plic0_num_interrupts(struct metal_interrupt *controller)
{
2001481e:	1101                	addi	sp,sp,-32
20014820:	ce22                	sw	s0,28(sp)
20014822:	1000                	addi	s0,sp,32
20014824:	fea42623          	sw	a0,-20(s0)
C:\Users\nandg\Desktop\Athena_Welcome_Demo\sifive_hifive1_revb_sifive_welcome\bsp\build\debug/./metal/machine.h:366
	if ((uintptr_t)controller == (uintptr_t)&__metal_dt_interrupt_controller_c000000) {
20014828:	fec42703          	lw	a4,-20(s0)
2001482c:	800007b7          	lui	a5,0x80000
20014830:	47078793          	addi	a5,a5,1136 # 80000470 <metal_segment_heap_target_end+0xffffecd0>
20014834:	00f71563          	bne	a4,a5,2001483e <__metal_driver_sifive_plic0_num_interrupts+0x20>
C:\Users\nandg\Desktop\Athena_Welcome_Demo\sifive_hifive1_revb_sifive_welcome\bsp\build\debug/./metal/machine.h:367
		return METAL_RISCV_PLIC0_C000000_RISCV_NDEV;
20014838:	03500793          	li	a5,53
2001483c:	a011                	j	20014840 <__metal_driver_sifive_plic0_num_interrupts+0x22>
C:\Users\nandg\Desktop\Athena_Welcome_Demo\sifive_hifive1_revb_sifive_welcome\bsp\build\debug/./metal/machine.h:370
	}
	else {
		return 0;
2001483e:	4781                	li	a5,0
C:\Users\nandg\Desktop\Athena_Welcome_Demo\sifive_hifive1_revb_sifive_welcome\bsp\build\debug/./metal/machine.h:372
	}
}
20014840:	853e                	mv	a0,a5
20014842:	4472                	lw	s0,28(sp)
20014844:	6105                	addi	sp,sp,32
20014846:	8082                	ret

20014848 <__metal_driver_sifive_plic0_max_priority>:
__metal_driver_sifive_plic0_max_priority():
C:\Users\nandg\Desktop\Athena_Welcome_Demo\sifive_hifive1_revb_sifive_welcome\bsp\build\debug/./metal/machine.h:375

static __inline__ int __metal_driver_sifive_plic0_max_priority(struct metal_interrupt *controller)
{
20014848:	1101                	addi	sp,sp,-32
2001484a:	ce22                	sw	s0,28(sp)
2001484c:	1000                	addi	s0,sp,32
2001484e:	fea42623          	sw	a0,-20(s0)
C:\Users\nandg\Desktop\Athena_Welcome_Demo\sifive_hifive1_revb_sifive_welcome\bsp\build\debug/./metal/machine.h:376
	if ((uintptr_t)controller == (uintptr_t)&__metal_dt_interrupt_controller_c000000) {
20014852:	fec42703          	lw	a4,-20(s0)
20014856:	800007b7          	lui	a5,0x80000
2001485a:	47078793          	addi	a5,a5,1136 # 80000470 <metal_segment_heap_target_end+0xffffecd0>
2001485e:	00f71463          	bne	a4,a5,20014866 <__metal_driver_sifive_plic0_max_priority+0x1e>
C:\Users\nandg\Desktop\Athena_Welcome_Demo\sifive_hifive1_revb_sifive_welcome\bsp\build\debug/./metal/machine.h:377
		return METAL_RISCV_PLIC0_C000000_RISCV_MAX_PRIORITY;
20014862:	479d                	li	a5,7
20014864:	a011                	j	20014868 <__metal_driver_sifive_plic0_max_priority+0x20>
C:\Users\nandg\Desktop\Athena_Welcome_Demo\sifive_hifive1_revb_sifive_welcome\bsp\build\debug/./metal/machine.h:380
	}
	else {
		return 0;
20014866:	4781                	li	a5,0
C:\Users\nandg\Desktop\Athena_Welcome_Demo\sifive_hifive1_revb_sifive_welcome\bsp\build\debug/./metal/machine.h:382
	}
}
20014868:	853e                	mv	a0,a5
2001486a:	4472                	lw	s0,28(sp)
2001486c:	6105                	addi	sp,sp,32
2001486e:	8082                	ret

20014870 <__metal_driver_sifive_plic0_interrupt_parents>:
__metal_driver_sifive_plic0_interrupt_parents():
C:\Users\nandg\Desktop\Athena_Welcome_Demo\sifive_hifive1_revb_sifive_welcome\bsp\build\debug/./metal/machine.h:385

static __inline__ struct metal_interrupt * __metal_driver_sifive_plic0_interrupt_parents(struct metal_interrupt *controller, int idx)
{
20014870:	1101                	addi	sp,sp,-32
20014872:	ce22                	sw	s0,28(sp)
20014874:	1000                	addi	s0,sp,32
20014876:	fea42623          	sw	a0,-20(s0)
2001487a:	feb42423          	sw	a1,-24(s0)
C:\Users\nandg\Desktop\Athena_Welcome_Demo\sifive_hifive1_revb_sifive_welcome\bsp\build\debug/./metal/machine.h:386
	if (idx == 0) {
2001487e:	fe842783          	lw	a5,-24(s0)
20014882:	e791                	bnez	a5,2001488e <__metal_driver_sifive_plic0_interrupt_parents+0x1e>
C:\Users\nandg\Desktop\Athena_Welcome_Demo\sifive_hifive1_revb_sifive_welcome\bsp\build\debug/./metal/machine.h:387
		return (struct metal_interrupt *)&__metal_dt_cpu_0_interrupt_controller.controller;
20014884:	800007b7          	lui	a5,0x80000
20014888:	0a078793          	addi	a5,a5,160 # 800000a0 <metal_segment_heap_target_end+0xffffe900>
2001488c:	a011                	j	20014890 <__metal_driver_sifive_plic0_interrupt_parents+0x20>
C:\Users\nandg\Desktop\Athena_Welcome_Demo\sifive_hifive1_revb_sifive_welcome\bsp\build\debug/./metal/machine.h:390
	}
	else {
		return NULL;
2001488e:	4781                	li	a5,0
C:\Users\nandg\Desktop\Athena_Welcome_Demo\sifive_hifive1_revb_sifive_welcome\bsp\build\debug/./metal/machine.h:392
	}
}
20014890:	853e                	mv	a0,a5
20014892:	4472                	lw	s0,28(sp)
20014894:	6105                	addi	sp,sp,32
20014896:	8082                	ret

20014898 <__metal_driver_sifive_plic0_interrupt_lines>:
__metal_driver_sifive_plic0_interrupt_lines():
C:\Users\nandg\Desktop\Athena_Welcome_Demo\sifive_hifive1_revb_sifive_welcome\bsp\build\debug/./metal/machine.h:395

static __inline__ int __metal_driver_sifive_plic0_interrupt_lines(struct metal_interrupt *controller, int idx)
{
20014898:	1101                	addi	sp,sp,-32
2001489a:	ce22                	sw	s0,28(sp)
2001489c:	1000                	addi	s0,sp,32
2001489e:	fea42623          	sw	a0,-20(s0)
200148a2:	feb42423          	sw	a1,-24(s0)
C:\Users\nandg\Desktop\Athena_Welcome_Demo\sifive_hifive1_revb_sifive_welcome\bsp\build\debug/./metal/machine.h:396
	if (idx == 0) {
200148a6:	fe842783          	lw	a5,-24(s0)
200148aa:	e399                	bnez	a5,200148b0 <__metal_driver_sifive_plic0_interrupt_lines+0x18>
C:\Users\nandg\Desktop\Athena_Welcome_Demo\sifive_hifive1_revb_sifive_welcome\bsp\build\debug/./metal/machine.h:397
		return 11;
200148ac:	47ad                	li	a5,11
200148ae:	a011                	j	200148b2 <__metal_driver_sifive_plic0_interrupt_lines+0x1a>
C:\Users\nandg\Desktop\Athena_Welcome_Demo\sifive_hifive1_revb_sifive_welcome\bsp\build\debug/./metal/machine.h:400
	}
	else {
		return 0;
200148b0:	4781                	li	a5,0
C:\Users\nandg\Desktop\Athena_Welcome_Demo\sifive_hifive1_revb_sifive_welcome\bsp\build\debug/./metal/machine.h:402
	}
}
200148b2:	853e                	mv	a0,a5
200148b4:	4472                	lw	s0,28(sp)
200148b6:	6105                	addi	sp,sp,32
200148b8:	8082                	ret

200148ba <__metal_driver_sifive_plic0_context_ids>:
__metal_driver_sifive_plic0_context_ids():
C:\Users\nandg\Desktop\Athena_Welcome_Demo\sifive_hifive1_revb_sifive_welcome\bsp\build\debug/./metal/machine.h:405

static __inline__ int __metal_driver_sifive_plic0_context_ids(int hartid)
{
200148ba:	1101                	addi	sp,sp,-32
200148bc:	ce22                	sw	s0,28(sp)
200148be:	1000                	addi	s0,sp,32
200148c0:	fea42623          	sw	a0,-20(s0)
C:\Users\nandg\Desktop\Athena_Welcome_Demo\sifive_hifive1_revb_sifive_welcome\bsp\build\debug/./metal/machine.h:406
	if (hartid == 0) {
200148c4:	fec42783          	lw	a5,-20(s0)
200148c8:	e399                	bnez	a5,200148ce <__metal_driver_sifive_plic0_context_ids+0x14>
C:\Users\nandg\Desktop\Athena_Welcome_Demo\sifive_hifive1_revb_sifive_welcome\bsp\build\debug/./metal/machine.h:407
		return 0;
200148ca:	4781                	li	a5,0
200148cc:	a011                	j	200148d0 <__metal_driver_sifive_plic0_context_ids+0x16>
C:\Users\nandg\Desktop\Athena_Welcome_Demo\sifive_hifive1_revb_sifive_welcome\bsp\build\debug/./metal/machine.h:410
	}
	else {
		return -1;
200148ce:	57fd                	li	a5,-1
C:\Users\nandg\Desktop\Athena_Welcome_Demo\sifive_hifive1_revb_sifive_welcome\bsp\build\debug/./metal/machine.h:412
	}
}
200148d0:	853e                	mv	a0,a5
200148d2:	4472                	lw	s0,28(sp)
200148d4:	6105                	addi	sp,sp,32
200148d6:	8082                	ret

200148d8 <__metal_plic0_claim_interrupt>:
__metal_plic0_claim_interrupt():
C:/Users/nandg/Desktop/Athena_Welcome_Demo/sifive_hifive1_revb_sifive_welcome/freedom-metal/src/drivers/riscv_plic0.c:18
#include <metal/machine.h>
#include <metal/shutdown.h>

unsigned int
__metal_plic0_claim_interrupt(struct __metal_driver_riscv_plic0 *plic,
                              int context_id) {
200148d8:	7179                	addi	sp,sp,-48
200148da:	d606                	sw	ra,44(sp)
200148dc:	d422                	sw	s0,40(sp)
200148de:	1800                	addi	s0,sp,48
200148e0:	fca42e23          	sw	a0,-36(s0)
200148e4:	fcb42c23          	sw	a1,-40(s0)
C:/Users/nandg/Desktop/Athena_Welcome_Demo/sifive_hifive1_revb_sifive_welcome/freedom-metal/src/drivers/riscv_plic0.c:19
    unsigned long control_base = __metal_driver_sifive_plic0_control_base(
200148e8:	fdc42503          	lw	a0,-36(s0)
200148ec:	3721                	jal	200147f4 <__metal_driver_sifive_plic0_control_base>
200148ee:	fea42623          	sw	a0,-20(s0)
C:/Users/nandg/Desktop/Athena_Welcome_Demo/sifive_hifive1_revb_sifive_welcome/freedom-metal/src/drivers/riscv_plic0.c:21
        (struct metal_interrupt *)plic);
    return __METAL_ACCESS_ONCE(
200148f2:	fd842783          	lw	a5,-40(s0)
200148f6:	00c79713          	slli	a4,a5,0xc
200148fa:	fec42783          	lw	a5,-20(s0)
200148fe:	973e                	add	a4,a4,a5
20014900:	002007b7          	lui	a5,0x200
20014904:	0791                	addi	a5,a5,4
20014906:	97ba                	add	a5,a5,a4
20014908:	439c                	lw	a5,0(a5)
C:/Users/nandg/Desktop/Athena_Welcome_Demo/sifive_hifive1_revb_sifive_welcome/freedom-metal/src/drivers/riscv_plic0.c:25
        (__metal_io_u32 *)(control_base + METAL_RISCV_PLIC0_CONTEXT_BASE +
                           (context_id * METAL_RISCV_PLIC0_CONTEXT_PER_HART) +
                           METAL_RISCV_PLIC0_CONTEXT_CLAIM));
}
2001490a:	853e                	mv	a0,a5
2001490c:	50b2                	lw	ra,44(sp)
2001490e:	5422                	lw	s0,40(sp)
20014910:	6145                	addi	sp,sp,48
20014912:	8082                	ret

20014914 <__metal_plic0_complete_interrupt>:
__metal_plic0_complete_interrupt():
C:/Users/nandg/Desktop/Athena_Welcome_Demo/sifive_hifive1_revb_sifive_welcome/freedom-metal/src/drivers/riscv_plic0.c:28

void __metal_plic0_complete_interrupt(struct __metal_driver_riscv_plic0 *plic,
                                      int context_id, unsigned int id) {
20014914:	7179                	addi	sp,sp,-48
20014916:	d606                	sw	ra,44(sp)
20014918:	d422                	sw	s0,40(sp)
2001491a:	1800                	addi	s0,sp,48
2001491c:	fca42e23          	sw	a0,-36(s0)
20014920:	fcb42c23          	sw	a1,-40(s0)
20014924:	fcc42a23          	sw	a2,-44(s0)
C:/Users/nandg/Desktop/Athena_Welcome_Demo/sifive_hifive1_revb_sifive_welcome/freedom-metal/src/drivers/riscv_plic0.c:29
    unsigned long control_base = __metal_driver_sifive_plic0_control_base(
20014928:	fdc42503          	lw	a0,-36(s0)
2001492c:	35e1                	jal	200147f4 <__metal_driver_sifive_plic0_control_base>
2001492e:	fea42623          	sw	a0,-20(s0)
C:/Users/nandg/Desktop/Athena_Welcome_Demo/sifive_hifive1_revb_sifive_welcome/freedom-metal/src/drivers/riscv_plic0.c:31
        (struct metal_interrupt *)plic);
    __METAL_ACCESS_ONCE(
20014932:	fd842783          	lw	a5,-40(s0)
20014936:	00c79713          	slli	a4,a5,0xc
2001493a:	fec42783          	lw	a5,-20(s0)
2001493e:	973e                	add	a4,a4,a5
20014940:	002007b7          	lui	a5,0x200
20014944:	0791                	addi	a5,a5,4
20014946:	97ba                	add	a5,a5,a4
20014948:	873e                	mv	a4,a5
C:/Users/nandg/Desktop/Athena_Welcome_Demo/sifive_hifive1_revb_sifive_welcome/freedom-metal/src/drivers/riscv_plic0.c:34
        (__metal_io_u32 *)(control_base + METAL_RISCV_PLIC0_CONTEXT_BASE +
                           (context_id * METAL_RISCV_PLIC0_CONTEXT_PER_HART) +
                           METAL_RISCV_PLIC0_CONTEXT_CLAIM)) = id;
2001494a:	fd442783          	lw	a5,-44(s0)
2001494e:	c31c                	sw	a5,0(a4)
C:/Users/nandg/Desktop/Athena_Welcome_Demo/sifive_hifive1_revb_sifive_welcome/freedom-metal/src/drivers/riscv_plic0.c:35
}
20014950:	0001                	nop
20014952:	50b2                	lw	ra,44(sp)
20014954:	5422                	lw	s0,40(sp)
20014956:	6145                	addi	sp,sp,48
20014958:	8082                	ret

2001495a <__metal_plic0_set_threshold>:
__metal_plic0_set_threshold():
C:/Users/nandg/Desktop/Athena_Welcome_Demo/sifive_hifive1_revb_sifive_welcome/freedom-metal/src/drivers/riscv_plic0.c:38

int __metal_plic0_set_threshold(struct metal_interrupt *controller,
                                int context_id, unsigned int threshold) {
2001495a:	7179                	addi	sp,sp,-48
2001495c:	d606                	sw	ra,44(sp)
2001495e:	d422                	sw	s0,40(sp)
20014960:	1800                	addi	s0,sp,48
20014962:	fca42e23          	sw	a0,-36(s0)
20014966:	fcb42c23          	sw	a1,-40(s0)
2001496a:	fcc42a23          	sw	a2,-44(s0)
C:/Users/nandg/Desktop/Athena_Welcome_Demo/sifive_hifive1_revb_sifive_welcome/freedom-metal/src/drivers/riscv_plic0.c:40
    unsigned long control_base =
        __metal_driver_sifive_plic0_control_base(controller);
2001496e:	fdc42503          	lw	a0,-36(s0)
20014972:	3549                	jal	200147f4 <__metal_driver_sifive_plic0_control_base>
20014974:	fea42623          	sw	a0,-20(s0)
C:/Users/nandg/Desktop/Athena_Welcome_Demo/sifive_hifive1_revb_sifive_welcome/freedom-metal/src/drivers/riscv_plic0.c:41
    __METAL_ACCESS_ONCE(
20014978:	fd842783          	lw	a5,-40(s0)
2001497c:	00c79713          	slli	a4,a5,0xc
20014980:	fec42783          	lw	a5,-20(s0)
20014984:	973e                	add	a4,a4,a5
20014986:	002007b7          	lui	a5,0x200
2001498a:	97ba                	add	a5,a5,a4
2001498c:	873e                	mv	a4,a5
C:/Users/nandg/Desktop/Athena_Welcome_Demo/sifive_hifive1_revb_sifive_welcome/freedom-metal/src/drivers/riscv_plic0.c:44
        (__metal_io_u32 *)(control_base + METAL_RISCV_PLIC0_CONTEXT_BASE +
                           (context_id * METAL_RISCV_PLIC0_CONTEXT_PER_HART) +
                           METAL_RISCV_PLIC0_CONTEXT_THRESHOLD)) = threshold;
2001498e:	fd442783          	lw	a5,-44(s0)
20014992:	c31c                	sw	a5,0(a4)
C:/Users/nandg/Desktop/Athena_Welcome_Demo/sifive_hifive1_revb_sifive_welcome/freedom-metal/src/drivers/riscv_plic0.c:45
    return 0;
20014994:	4781                	li	a5,0
C:/Users/nandg/Desktop/Athena_Welcome_Demo/sifive_hifive1_revb_sifive_welcome/freedom-metal/src/drivers/riscv_plic0.c:46
}
20014996:	853e                	mv	a0,a5
20014998:	50b2                	lw	ra,44(sp)
2001499a:	5422                	lw	s0,40(sp)
2001499c:	6145                	addi	sp,sp,48
2001499e:	8082                	ret

200149a0 <__metal_plic0_get_threshold>:
__metal_plic0_get_threshold():
C:/Users/nandg/Desktop/Athena_Welcome_Demo/sifive_hifive1_revb_sifive_welcome/freedom-metal/src/drivers/riscv_plic0.c:49

unsigned int __metal_plic0_get_threshold(struct metal_interrupt *controller,
                                         int context_id) {
200149a0:	7179                	addi	sp,sp,-48
200149a2:	d606                	sw	ra,44(sp)
200149a4:	d422                	sw	s0,40(sp)
200149a6:	1800                	addi	s0,sp,48
200149a8:	fca42e23          	sw	a0,-36(s0)
200149ac:	fcb42c23          	sw	a1,-40(s0)
C:/Users/nandg/Desktop/Athena_Welcome_Demo/sifive_hifive1_revb_sifive_welcome/freedom-metal/src/drivers/riscv_plic0.c:51
    unsigned long control_base =
        __metal_driver_sifive_plic0_control_base(controller);
200149b0:	fdc42503          	lw	a0,-36(s0)
200149b4:	3581                	jal	200147f4 <__metal_driver_sifive_plic0_control_base>
200149b6:	fea42623          	sw	a0,-20(s0)
C:/Users/nandg/Desktop/Athena_Welcome_Demo/sifive_hifive1_revb_sifive_welcome/freedom-metal/src/drivers/riscv_plic0.c:52
    return __METAL_ACCESS_ONCE(
200149ba:	fd842783          	lw	a5,-40(s0)
200149be:	00c79713          	slli	a4,a5,0xc
200149c2:	fec42783          	lw	a5,-20(s0)
200149c6:	973e                	add	a4,a4,a5
200149c8:	002007b7          	lui	a5,0x200
200149cc:	97ba                	add	a5,a5,a4
200149ce:	439c                	lw	a5,0(a5)
C:/Users/nandg/Desktop/Athena_Welcome_Demo/sifive_hifive1_revb_sifive_welcome/freedom-metal/src/drivers/riscv_plic0.c:56
        (__metal_io_u32 *)(control_base + METAL_RISCV_PLIC0_CONTEXT_BASE +
                           (context_id * METAL_RISCV_PLIC0_CONTEXT_PER_HART) +
                           METAL_RISCV_PLIC0_CONTEXT_THRESHOLD));
}
200149d0:	853e                	mv	a0,a5
200149d2:	50b2                	lw	ra,44(sp)
200149d4:	5422                	lw	s0,40(sp)
200149d6:	6145                	addi	sp,sp,48
200149d8:	8082                	ret

200149da <__metal_driver_riscv_plic0_set_priority>:
__metal_driver_riscv_plic0_set_priority():
C:/Users/nandg/Desktop/Athena_Welcome_Demo/sifive_hifive1_revb_sifive_welcome/freedom-metal/src/drivers/riscv_plic0.c:59

int __metal_driver_riscv_plic0_set_priority(struct metal_interrupt *controller,
                                            int id, unsigned int priority) {
200149da:	7179                	addi	sp,sp,-48
200149dc:	d606                	sw	ra,44(sp)
200149de:	d422                	sw	s0,40(sp)
200149e0:	1800                	addi	s0,sp,48
200149e2:	fca42e23          	sw	a0,-36(s0)
200149e6:	fcb42c23          	sw	a1,-40(s0)
200149ea:	fcc42a23          	sw	a2,-44(s0)
C:/Users/nandg/Desktop/Athena_Welcome_Demo/sifive_hifive1_revb_sifive_welcome/freedom-metal/src/drivers/riscv_plic0.c:60
    unsigned long control_base = __metal_driver_sifive_plic0_control_base(
200149ee:	fdc42503          	lw	a0,-36(s0)
200149f2:	3509                	jal	200147f4 <__metal_driver_sifive_plic0_control_base>
200149f4:	fea42623          	sw	a0,-20(s0)
C:/Users/nandg/Desktop/Athena_Welcome_Demo/sifive_hifive1_revb_sifive_welcome/freedom-metal/src/drivers/riscv_plic0.c:62
        (struct metal_interrupt *)controller);
    unsigned int max_priority = __metal_driver_sifive_plic0_max_priority(
200149f8:	fdc42503          	lw	a0,-36(s0)
200149fc:	35b1                	jal	20014848 <__metal_driver_sifive_plic0_max_priority>
200149fe:	87aa                	mv	a5,a0
20014a00:	fef42423          	sw	a5,-24(s0)
C:/Users/nandg/Desktop/Athena_Welcome_Demo/sifive_hifive1_revb_sifive_welcome/freedom-metal/src/drivers/riscv_plic0.c:64
        (struct metal_interrupt *)controller);
    if ((max_priority) && (priority < max_priority)) {
20014a04:	fe842783          	lw	a5,-24(s0)
20014a08:	c785                	beqz	a5,20014a30 <__metal_driver_riscv_plic0_set_priority+0x56>
C:/Users/nandg/Desktop/Athena_Welcome_Demo/sifive_hifive1_revb_sifive_welcome/freedom-metal/src/drivers/riscv_plic0.c:64 (discriminator 1)
20014a0a:	fd442703          	lw	a4,-44(s0)
20014a0e:	fe842783          	lw	a5,-24(s0)
20014a12:	00f77f63          	bgeu	a4,a5,20014a30 <__metal_driver_riscv_plic0_set_priority+0x56>
C:/Users/nandg/Desktop/Athena_Welcome_Demo/sifive_hifive1_revb_sifive_welcome/freedom-metal/src/drivers/riscv_plic0.c:65
        __METAL_ACCESS_ONCE(
20014a16:	fd842783          	lw	a5,-40(s0)
20014a1a:	078a                	slli	a5,a5,0x2
20014a1c:	873e                	mv	a4,a5
20014a1e:	fec42783          	lw	a5,-20(s0)
20014a22:	97ba                	add	a5,a5,a4
20014a24:	873e                	mv	a4,a5
C:/Users/nandg/Desktop/Athena_Welcome_Demo/sifive_hifive1_revb_sifive_welcome/freedom-metal/src/drivers/riscv_plic0.c:67
            (__metal_io_u32 *)(control_base + METAL_RISCV_PLIC0_PRIORITY_BASE +
                               (id << METAL_PLIC_SOURCE_PRIORITY_SHIFT))) =
20014a26:	fd442783          	lw	a5,-44(s0)
20014a2a:	c31c                	sw	a5,0(a4)
C:/Users/nandg/Desktop/Athena_Welcome_Demo/sifive_hifive1_revb_sifive_welcome/freedom-metal/src/drivers/riscv_plic0.c:69
            priority;
        return 0;
20014a2c:	4781                	li	a5,0
20014a2e:	a011                	j	20014a32 <__metal_driver_riscv_plic0_set_priority+0x58>
C:/Users/nandg/Desktop/Athena_Welcome_Demo/sifive_hifive1_revb_sifive_welcome/freedom-metal/src/drivers/riscv_plic0.c:71
    }
    return -1;
20014a30:	57fd                	li	a5,-1
C:/Users/nandg/Desktop/Athena_Welcome_Demo/sifive_hifive1_revb_sifive_welcome/freedom-metal/src/drivers/riscv_plic0.c:72
}
20014a32:	853e                	mv	a0,a5
20014a34:	50b2                	lw	ra,44(sp)
20014a36:	5422                	lw	s0,40(sp)
20014a38:	6145                	addi	sp,sp,48
20014a3a:	8082                	ret

20014a3c <__metal_driver_riscv_plic0_get_priority>:
__metal_driver_riscv_plic0_get_priority():
C:/Users/nandg/Desktop/Athena_Welcome_Demo/sifive_hifive1_revb_sifive_welcome/freedom-metal/src/drivers/riscv_plic0.c:76

unsigned int
__metal_driver_riscv_plic0_get_priority(struct metal_interrupt *controller,
                                        int id) {
20014a3c:	7179                	addi	sp,sp,-48
20014a3e:	d606                	sw	ra,44(sp)
20014a40:	d422                	sw	s0,40(sp)
20014a42:	1800                	addi	s0,sp,48
20014a44:	fca42e23          	sw	a0,-36(s0)
20014a48:	fcb42c23          	sw	a1,-40(s0)
C:/Users/nandg/Desktop/Athena_Welcome_Demo/sifive_hifive1_revb_sifive_welcome/freedom-metal/src/drivers/riscv_plic0.c:78
    unsigned long control_base =
        __metal_driver_sifive_plic0_control_base(controller);
20014a4c:	fdc42503          	lw	a0,-36(s0)
20014a50:	3355                	jal	200147f4 <__metal_driver_sifive_plic0_control_base>
20014a52:	fea42623          	sw	a0,-20(s0)
C:/Users/nandg/Desktop/Athena_Welcome_Demo/sifive_hifive1_revb_sifive_welcome/freedom-metal/src/drivers/riscv_plic0.c:80

    return __METAL_ACCESS_ONCE(
20014a56:	fd842783          	lw	a5,-40(s0)
20014a5a:	078a                	slli	a5,a5,0x2
20014a5c:	873e                	mv	a4,a5
20014a5e:	fec42783          	lw	a5,-20(s0)
20014a62:	97ba                	add	a5,a5,a4
20014a64:	439c                	lw	a5,0(a5)
C:/Users/nandg/Desktop/Athena_Welcome_Demo/sifive_hifive1_revb_sifive_welcome/freedom-metal/src/drivers/riscv_plic0.c:83
        (__metal_io_u32 *)(control_base + METAL_RISCV_PLIC0_PRIORITY_BASE +
                           (id << METAL_PLIC_SOURCE_PRIORITY_SHIFT)));
}
20014a66:	853e                	mv	a0,a5
20014a68:	50b2                	lw	ra,44(sp)
20014a6a:	5422                	lw	s0,40(sp)
20014a6c:	6145                	addi	sp,sp,48
20014a6e:	8082                	ret

20014a70 <__metal_plic0_enable>:
__metal_plic0_enable():
C:/Users/nandg/Desktop/Athena_Welcome_Demo/sifive_hifive1_revb_sifive_welcome/freedom-metal/src/drivers/riscv_plic0.c:86

int __metal_plic0_enable(struct __metal_driver_riscv_plic0 *plic,
                         int context_id, int id, int enable) {
20014a70:	7179                	addi	sp,sp,-48
20014a72:	d606                	sw	ra,44(sp)
20014a74:	d422                	sw	s0,40(sp)
20014a76:	1800                	addi	s0,sp,48
20014a78:	fca42e23          	sw	a0,-36(s0)
20014a7c:	fcb42c23          	sw	a1,-40(s0)
20014a80:	fcc42a23          	sw	a2,-44(s0)
20014a84:	fcd42823          	sw	a3,-48(s0)
C:/Users/nandg/Desktop/Athena_Welcome_Demo/sifive_hifive1_revb_sifive_welcome/freedom-metal/src/drivers/riscv_plic0.c:88
    unsigned int current;
    unsigned long control_base = __metal_driver_sifive_plic0_control_base(
20014a88:	fdc42503          	lw	a0,-36(s0)
20014a8c:	d69ff0ef          	jal	ra,200147f4 <__metal_driver_sifive_plic0_control_base>
20014a90:	fea42623          	sw	a0,-20(s0)
C:/Users/nandg/Desktop/Athena_Welcome_Demo/sifive_hifive1_revb_sifive_welcome/freedom-metal/src/drivers/riscv_plic0.c:91
        (struct metal_interrupt *)plic);

    current = __METAL_ACCESS_ONCE(
20014a94:	fd842783          	lw	a5,-40(s0)
20014a98:	00779713          	slli	a4,a5,0x7
20014a9c:	fec42783          	lw	a5,-20(s0)
20014aa0:	97ba                	add	a5,a5,a4
20014aa2:	fd442703          	lw	a4,-44(s0)
20014aa6:	8715                	srai	a4,a4,0x5
20014aa8:	070a                	slli	a4,a4,0x2
20014aaa:	973e                	add	a4,a4,a5
20014aac:	6789                	lui	a5,0x2
20014aae:	97ba                	add	a5,a5,a4
20014ab0:	439c                	lw	a5,0(a5)
20014ab2:	fef42423          	sw	a5,-24(s0)
C:/Users/nandg/Desktop/Athena_Welcome_Demo/sifive_hifive1_revb_sifive_welcome/freedom-metal/src/drivers/riscv_plic0.c:100
    __METAL_ACCESS_ONCE(
        (__metal_io_u32 *)(control_base + METAL_RISCV_PLIC0_ENABLE_BASE +
                           (context_id * METAL_RISCV_PLIC0_ENABLE_PER_HART) +
                           ((id >> METAL_PLIC_SOURCE_SHIFT) * 4))) =
        enable ? (current | (1 << (id & METAL_PLIC_SOURCE_MASK)))
               : (current & ~(1 << (id & METAL_PLIC_SOURCE_MASK)));
20014ab6:	fd042783          	lw	a5,-48(s0)
20014aba:	cf81                	beqz	a5,20014ad2 <__metal_plic0_enable+0x62>
C:/Users/nandg/Desktop/Athena_Welcome_Demo/sifive_hifive1_revb_sifive_welcome/freedom-metal/src/drivers/riscv_plic0.c:99 (discriminator 1)
        enable ? (current | (1 << (id & METAL_PLIC_SOURCE_MASK)))
20014abc:	fd442783          	lw	a5,-44(s0)
20014ac0:	8bfd                	andi	a5,a5,31
20014ac2:	4705                	li	a4,1
20014ac4:	00f717b3          	sll	a5,a4,a5
20014ac8:	873e                	mv	a4,a5
C:/Users/nandg/Desktop/Athena_Welcome_Demo/sifive_hifive1_revb_sifive_welcome/freedom-metal/src/drivers/riscv_plic0.c:100 (discriminator 1)
               : (current & ~(1 << (id & METAL_PLIC_SOURCE_MASK)));
20014aca:	fe842783          	lw	a5,-24(s0)
20014ace:	8fd9                	or	a5,a5,a4
20014ad0:	a829                	j	20014aea <__metal_plic0_enable+0x7a>
C:/Users/nandg/Desktop/Athena_Welcome_Demo/sifive_hifive1_revb_sifive_welcome/freedom-metal/src/drivers/riscv_plic0.c:100 (discriminator 2)
20014ad2:	fd442783          	lw	a5,-44(s0)
20014ad6:	8bfd                	andi	a5,a5,31
20014ad8:	4705                	li	a4,1
20014ada:	00f717b3          	sll	a5,a4,a5
20014ade:	fff7c793          	not	a5,a5
20014ae2:	873e                	mv	a4,a5
20014ae4:	fe842783          	lw	a5,-24(s0)
20014ae8:	8ff9                	and	a5,a5,a4
C:/Users/nandg/Desktop/Athena_Welcome_Demo/sifive_hifive1_revb_sifive_welcome/freedom-metal/src/drivers/riscv_plic0.c:95
    __METAL_ACCESS_ONCE(
20014aea:	fd842703          	lw	a4,-40(s0)
20014aee:	00771693          	slli	a3,a4,0x7
20014af2:	fec42703          	lw	a4,-20(s0)
20014af6:	9736                	add	a4,a4,a3
20014af8:	fd442683          	lw	a3,-44(s0)
20014afc:	8695                	srai	a3,a3,0x5
20014afe:	068a                	slli	a3,a3,0x2
20014b00:	96ba                	add	a3,a3,a4
20014b02:	6709                	lui	a4,0x2
20014b04:	9736                	add	a4,a4,a3
C:/Users/nandg/Desktop/Athena_Welcome_Demo/sifive_hifive1_revb_sifive_welcome/freedom-metal/src/drivers/riscv_plic0.c:98
                           ((id >> METAL_PLIC_SOURCE_SHIFT) * 4))) =
20014b06:	c31c                	sw	a5,0(a4)
C:/Users/nandg/Desktop/Athena_Welcome_Demo/sifive_hifive1_revb_sifive_welcome/freedom-metal/src/drivers/riscv_plic0.c:102

    return 0;
20014b08:	4781                	li	a5,0
C:/Users/nandg/Desktop/Athena_Welcome_Demo/sifive_hifive1_revb_sifive_welcome/freedom-metal/src/drivers/riscv_plic0.c:103
}
20014b0a:	853e                	mv	a0,a5
20014b0c:	50b2                	lw	ra,44(sp)
20014b0e:	5422                	lw	s0,40(sp)
20014b10:	6145                	addi	sp,sp,48
20014b12:	8082                	ret

20014b14 <__metal_plic0_default_handler>:
__metal_plic0_default_handler():
C:/Users/nandg/Desktop/Athena_Welcome_Demo/sifive_hifive1_revb_sifive_welcome/freedom-metal/src/drivers/riscv_plic0.c:105

void __metal_plic0_default_handler(int id, void *priv) { metal_shutdown(300); }
20014b14:	1101                	addi	sp,sp,-32
20014b16:	ce06                	sw	ra,28(sp)
20014b18:	cc22                	sw	s0,24(sp)
20014b1a:	1000                	addi	s0,sp,32
20014b1c:	fea42623          	sw	a0,-20(s0)
20014b20:	feb42423          	sw	a1,-24(s0)
20014b24:	12c00513          	li	a0,300
20014b28:	550020ef          	jal	ra,20017078 <metal_shutdown>

20014b2c <__metal_plic0_handler>:
__metal_plic0_handler():
C:/Users/nandg/Desktop/Athena_Welcome_Demo/sifive_hifive1_revb_sifive_welcome/freedom-metal/src/drivers/riscv_plic0.c:107

void __metal_plic0_handler(int id, void *priv) {
20014b2c:	7179                	addi	sp,sp,-48
20014b2e:	d606                	sw	ra,44(sp)
20014b30:	d422                	sw	s0,40(sp)
20014b32:	1800                	addi	s0,sp,48
20014b34:	fca42e23          	sw	a0,-36(s0)
20014b38:	fcb42c23          	sw	a1,-40(s0)
C:/Users/nandg/Desktop/Athena_Welcome_Demo/sifive_hifive1_revb_sifive_welcome/freedom-metal/src/drivers/riscv_plic0.c:108
    struct __metal_driver_riscv_plic0 *plic = priv;
20014b3c:	fd842783          	lw	a5,-40(s0)
20014b40:	fef42623          	sw	a5,-20(s0)
C:/Users/nandg/Desktop/Athena_Welcome_Demo/sifive_hifive1_revb_sifive_welcome/freedom-metal/src/drivers/riscv_plic0.c:110
    int contextid =
        __metal_driver_sifive_plic0_context_ids(__metal_myhart_id());
20014b44:	b5cfe0ef          	jal	ra,20012ea0 <__metal_myhart_id>
20014b48:	87aa                	mv	a5,a0
20014b4a:	853e                	mv	a0,a5
20014b4c:	d6fff0ef          	jal	ra,200148ba <__metal_driver_sifive_plic0_context_ids>
20014b50:	fea42423          	sw	a0,-24(s0)
C:/Users/nandg/Desktop/Athena_Welcome_Demo/sifive_hifive1_revb_sifive_welcome/freedom-metal/src/drivers/riscv_plic0.c:111
    unsigned int idx = __metal_plic0_claim_interrupt(plic, contextid);
20014b54:	fe842583          	lw	a1,-24(s0)
20014b58:	fec42503          	lw	a0,-20(s0)
20014b5c:	d7dff0ef          	jal	ra,200148d8 <__metal_plic0_claim_interrupt>
20014b60:	fea42223          	sw	a0,-28(s0)
C:/Users/nandg/Desktop/Athena_Welcome_Demo/sifive_hifive1_revb_sifive_welcome/freedom-metal/src/drivers/riscv_plic0.c:112
    unsigned int num_interrupts = __metal_driver_sifive_plic0_num_interrupts(
20014b64:	fec42503          	lw	a0,-20(s0)
20014b68:	cb7ff0ef          	jal	ra,2001481e <__metal_driver_sifive_plic0_num_interrupts>
20014b6c:	87aa                	mv	a5,a0
20014b6e:	fef42023          	sw	a5,-32(s0)
C:/Users/nandg/Desktop/Athena_Welcome_Demo/sifive_hifive1_revb_sifive_welcome/freedom-metal/src/drivers/riscv_plic0.c:115
        (struct metal_interrupt *)plic);

    if ((idx < num_interrupts) && (plic->metal_exint_table[idx])) {
20014b72:	fe442703          	lw	a4,-28(s0)
20014b76:	fe042783          	lw	a5,-32(s0)
20014b7a:	04f77263          	bgeu	a4,a5,20014bbe <__metal_plic0_handler+0x92>
C:/Users/nandg/Desktop/Athena_Welcome_Demo/sifive_hifive1_revb_sifive_welcome/freedom-metal/src/drivers/riscv_plic0.c:115 (discriminator 1)
20014b7e:	fec42703          	lw	a4,-20(s0)
20014b82:	fe442783          	lw	a5,-28(s0)
20014b86:	078a                	slli	a5,a5,0x2
20014b88:	97ba                	add	a5,a5,a4
20014b8a:	479c                	lw	a5,8(a5)
20014b8c:	cb8d                	beqz	a5,20014bbe <__metal_plic0_handler+0x92>
C:/Users/nandg/Desktop/Athena_Welcome_Demo/sifive_hifive1_revb_sifive_welcome/freedom-metal/src/drivers/riscv_plic0.c:116
        plic->metal_exint_table[idx](idx,
20014b8e:	fec42703          	lw	a4,-20(s0)
20014b92:	fe442783          	lw	a5,-28(s0)
20014b96:	078a                	slli	a5,a5,0x2
20014b98:	97ba                	add	a5,a5,a4
20014b9a:	0087a803          	lw	a6,8(a5) # 2008 <__heap_size+0x1808>
20014b9e:	fe442603          	lw	a2,-28(s0)
20014ba2:	fec42683          	lw	a3,-20(s0)
20014ba6:	fe442703          	lw	a4,-28(s0)
20014baa:	87ba                	mv	a5,a4
20014bac:	0786                	slli	a5,a5,0x1
20014bae:	97ba                	add	a5,a5,a4
20014bb0:	078e                	slli	a5,a5,0x3
20014bb2:	97b6                	add	a5,a5,a3
20014bb4:	0f07a783          	lw	a5,240(a5)
20014bb8:	85be                	mv	a1,a5
20014bba:	8532                	mv	a0,a2
20014bbc:	9802                	jalr	a6
C:/Users/nandg/Desktop/Athena_Welcome_Demo/sifive_hifive1_revb_sifive_welcome/freedom-metal/src/drivers/riscv_plic0.c:120
                                     plic->metal_exdata_table[idx].exint_data);
    }

    __metal_plic0_complete_interrupt(plic, contextid, idx);
20014bbe:	fe442603          	lw	a2,-28(s0)
20014bc2:	fe842583          	lw	a1,-24(s0)
20014bc6:	fec42503          	lw	a0,-20(s0)
20014bca:	d4bff0ef          	jal	ra,20014914 <__metal_plic0_complete_interrupt>
C:/Users/nandg/Desktop/Athena_Welcome_Demo/sifive_hifive1_revb_sifive_welcome/freedom-metal/src/drivers/riscv_plic0.c:121
}
20014bce:	0001                	nop
20014bd0:	50b2                	lw	ra,44(sp)
20014bd2:	5422                	lw	s0,40(sp)
20014bd4:	6145                	addi	sp,sp,48
20014bd6:	8082                	ret

20014bd8 <__metal_driver_riscv_plic0_init>:
__metal_driver_riscv_plic0_init():
C:/Users/nandg/Desktop/Athena_Welcome_Demo/sifive_hifive1_revb_sifive_welcome/freedom-metal/src/drivers/riscv_plic0.c:123

void __metal_driver_riscv_plic0_init(struct metal_interrupt *controller) {
20014bd8:	7139                	addi	sp,sp,-64
20014bda:	de06                	sw	ra,60(sp)
20014bdc:	dc22                	sw	s0,56(sp)
20014bde:	0080                	addi	s0,sp,64
20014be0:	fca42623          	sw	a0,-52(s0)
C:/Users/nandg/Desktop/Athena_Welcome_Demo/sifive_hifive1_revb_sifive_welcome/freedom-metal/src/drivers/riscv_plic0.c:124
    struct __metal_driver_riscv_plic0 *plic = (void *)(controller);
20014be4:	fcc42783          	lw	a5,-52(s0)
20014be8:	fef42223          	sw	a5,-28(s0)
C:/Users/nandg/Desktop/Athena_Welcome_Demo/sifive_hifive1_revb_sifive_welcome/freedom-metal/src/drivers/riscv_plic0.c:126

    if (!plic->init_done) {
20014bec:	fe442783          	lw	a5,-28(s0)
20014bf0:	43dc                	lw	a5,4(a5)
20014bf2:	12079b63          	bnez	a5,20014d28 <__metal_driver_riscv_plic0_init+0x150>
C:/Users/nandg/Desktop/Athena_Welcome_Demo/sifive_hifive1_revb_sifive_welcome/freedom-metal/src/drivers/riscv_plic0.c:130
        int num_interrupts, line;
        struct metal_interrupt *intc;

        for (int parent = 0; parent < __METAL_PLIC_NUM_PARENTS; parent++) {
20014bf6:	fe042623          	sw	zero,-20(s0)
20014bfa:	aa39                	j	20014d18 <__metal_driver_riscv_plic0_init+0x140>
C:/Users/nandg/Desktop/Athena_Welcome_Demo/sifive_hifive1_revb_sifive_welcome/freedom-metal/src/drivers/riscv_plic0.c:132
            num_interrupts =
                __metal_driver_sifive_plic0_num_interrupts(controller);
20014bfc:	fcc42503          	lw	a0,-52(s0)
20014c00:	c1fff0ef          	jal	ra,2001481e <__metal_driver_sifive_plic0_num_interrupts>
20014c04:	fea42023          	sw	a0,-32(s0)
C:/Users/nandg/Desktop/Athena_Welcome_Demo/sifive_hifive1_revb_sifive_welcome/freedom-metal/src/drivers/riscv_plic0.c:133
            intc = __metal_driver_sifive_plic0_interrupt_parents(controller,
20014c08:	fec42583          	lw	a1,-20(s0)
20014c0c:	fcc42503          	lw	a0,-52(s0)
20014c10:	c61ff0ef          	jal	ra,20014870 <__metal_driver_sifive_plic0_interrupt_parents>
20014c14:	fca42e23          	sw	a0,-36(s0)
C:/Users/nandg/Desktop/Athena_Welcome_Demo/sifive_hifive1_revb_sifive_welcome/freedom-metal/src/drivers/riscv_plic0.c:136
                                                                 parent);
            line =
                __metal_driver_sifive_plic0_interrupt_lines(controller, parent);
20014c18:	fec42583          	lw	a1,-20(s0)
20014c1c:	fcc42503          	lw	a0,-52(s0)
20014c20:	c79ff0ef          	jal	ra,20014898 <__metal_driver_sifive_plic0_interrupt_lines>
20014c24:	fca42c23          	sw	a0,-40(s0)
C:/Users/nandg/Desktop/Athena_Welcome_Demo/sifive_hifive1_revb_sifive_welcome/freedom-metal/src/drivers/riscv_plic0.c:139

            /* Initialize ist parent controller, aka cpu_intc. */
            intc->vtable->interrupt_init(intc);
20014c28:	fdc42783          	lw	a5,-36(s0)
20014c2c:	439c                	lw	a5,0(a5)
20014c2e:	439c                	lw	a5,0(a5)
20014c30:	fdc42503          	lw	a0,-36(s0)
20014c34:	9782                	jalr	a5
C:/Users/nandg/Desktop/Athena_Welcome_Demo/sifive_hifive1_revb_sifive_welcome/freedom-metal/src/drivers/riscv_plic0.c:141

            for (int i = 0; i < PLIC0_MAX_INTERRUPTS; i++) {
20014c36:	fe042423          	sw	zero,-24(s0)
20014c3a:	a88d                	j	20014cac <__metal_driver_riscv_plic0_init+0xd4>
C:/Users/nandg/Desktop/Athena_Welcome_Demo/sifive_hifive1_revb_sifive_welcome/freedom-metal/src/drivers/riscv_plic0.c:142
                __metal_plic0_enable(plic, parent, i, METAL_DISABLE);
20014c3c:	4681                	li	a3,0
20014c3e:	fe842603          	lw	a2,-24(s0)
20014c42:	fec42583          	lw	a1,-20(s0)
20014c46:	fe442503          	lw	a0,-28(s0)
20014c4a:	351d                	jal	20014a70 <__metal_plic0_enable>
C:/Users/nandg/Desktop/Athena_Welcome_Demo/sifive_hifive1_revb_sifive_welcome/freedom-metal/src/drivers/riscv_plic0.c:143
                if (i < num_interrupts) {
20014c4c:	fe842703          	lw	a4,-24(s0)
20014c50:	fe042783          	lw	a5,-32(s0)
20014c54:	04f75763          	bge	a4,a5,20014ca2 <__metal_driver_riscv_plic0_init+0xca>
C:/Users/nandg/Desktop/Athena_Welcome_Demo/sifive_hifive1_revb_sifive_welcome/freedom-metal/src/drivers/riscv_plic0.c:144
                    __metal_driver_riscv_plic0_set_priority(controller, i, 0);
20014c58:	4601                	li	a2,0
20014c5a:	fe842583          	lw	a1,-24(s0)
20014c5e:	fcc42503          	lw	a0,-52(s0)
20014c62:	d79ff0ef          	jal	ra,200149da <__metal_driver_riscv_plic0_set_priority>
C:/Users/nandg/Desktop/Athena_Welcome_Demo/sifive_hifive1_revb_sifive_welcome/freedom-metal/src/drivers/riscv_plic0.c:145
                    plic->metal_exint_table[i] = NULL;
20014c66:	fe442703          	lw	a4,-28(s0)
20014c6a:	fe842783          	lw	a5,-24(s0)
20014c6e:	078a                	slli	a5,a5,0x2
20014c70:	97ba                	add	a5,a5,a4
20014c72:	0007a423          	sw	zero,8(a5)
C:/Users/nandg/Desktop/Athena_Welcome_Demo/sifive_hifive1_revb_sifive_welcome/freedom-metal/src/drivers/riscv_plic0.c:146
                    plic->metal_exdata_table[i].sub_int = NULL;
20014c76:	fe442683          	lw	a3,-28(s0)
20014c7a:	fe842703          	lw	a4,-24(s0)
20014c7e:	87ba                	mv	a5,a4
20014c80:	0786                	slli	a5,a5,0x1
20014c82:	97ba                	add	a5,a5,a4
20014c84:	078e                	slli	a5,a5,0x3
20014c86:	97b6                	add	a5,a5,a3
20014c88:	0e07a623          	sw	zero,236(a5)
C:/Users/nandg/Desktop/Athena_Welcome_Demo/sifive_hifive1_revb_sifive_welcome/freedom-metal/src/drivers/riscv_plic0.c:147
                    plic->metal_exdata_table[i].exint_data = NULL;
20014c8c:	fe442683          	lw	a3,-28(s0)
20014c90:	fe842703          	lw	a4,-24(s0)
20014c94:	87ba                	mv	a5,a4
20014c96:	0786                	slli	a5,a5,0x1
20014c98:	97ba                	add	a5,a5,a4
20014c9a:	078e                	slli	a5,a5,0x3
20014c9c:	97b6                	add	a5,a5,a3
20014c9e:	0e07a823          	sw	zero,240(a5)
C:/Users/nandg/Desktop/Athena_Welcome_Demo/sifive_hifive1_revb_sifive_welcome/freedom-metal/src/drivers/riscv_plic0.c:141 (discriminator 2)
            for (int i = 0; i < PLIC0_MAX_INTERRUPTS; i++) {
20014ca2:	fe842783          	lw	a5,-24(s0)
20014ca6:	0785                	addi	a5,a5,1
20014ca8:	fef42423          	sw	a5,-24(s0)
C:/Users/nandg/Desktop/Athena_Welcome_Demo/sifive_hifive1_revb_sifive_welcome/freedom-metal/src/drivers/riscv_plic0.c:141 (discriminator 1)
20014cac:	fe842703          	lw	a4,-24(s0)
20014cb0:	3ff00793          	li	a5,1023
20014cb4:	f8e7d4e3          	bge	a5,a4,20014c3c <__metal_driver_riscv_plic0_init+0x64>
C:/Users/nandg/Desktop/Athena_Welcome_Demo/sifive_hifive1_revb_sifive_welcome/freedom-metal/src/drivers/riscv_plic0.c:151 (discriminator 2)
                }
            }

            __metal_plic0_set_threshold(controller, parent, 0);
20014cb8:	4601                	li	a2,0
20014cba:	fec42583          	lw	a1,-20(s0)
20014cbe:	fcc42503          	lw	a0,-52(s0)
20014cc2:	c99ff0ef          	jal	ra,2001495a <__metal_plic0_set_threshold>
C:/Users/nandg/Desktop/Athena_Welcome_Demo/sifive_hifive1_revb_sifive_welcome/freedom-metal/src/drivers/riscv_plic0.c:154 (discriminator 2)

            /* Register plic (ext) interrupt with with parent controller */
            intc->vtable->interrupt_register(intc, line, NULL, plic);
20014cc6:	fdc42783          	lw	a5,-36(s0)
20014cca:	439c                	lw	a5,0(a5)
20014ccc:	4fdc                	lw	a5,28(a5)
20014cce:	fe442683          	lw	a3,-28(s0)
20014cd2:	4601                	li	a2,0
20014cd4:	fd842583          	lw	a1,-40(s0)
20014cd8:	fdc42503          	lw	a0,-36(s0)
20014cdc:	9782                	jalr	a5
C:/Users/nandg/Desktop/Athena_Welcome_Demo/sifive_hifive1_revb_sifive_welcome/freedom-metal/src/drivers/riscv_plic0.c:156 (discriminator 2)
            /* Register plic handler for dispatching its device interrupts */
            intc->vtable->interrupt_register(intc, line, __metal_plic0_handler,
20014cde:	fdc42783          	lw	a5,-36(s0)
20014ce2:	439c                	lw	a5,0(a5)
20014ce4:	4fd8                	lw	a4,28(a5)
20014ce6:	fe442683          	lw	a3,-28(s0)
20014cea:	200157b7          	lui	a5,0x20015
20014cee:	b2c78613          	addi	a2,a5,-1236 # 20014b2c <__metal_plic0_handler>
20014cf2:	fd842583          	lw	a1,-40(s0)
20014cf6:	fdc42503          	lw	a0,-36(s0)
20014cfa:	9702                	jalr	a4
C:/Users/nandg/Desktop/Athena_Welcome_Demo/sifive_hifive1_revb_sifive_welcome/freedom-metal/src/drivers/riscv_plic0.c:159 (discriminator 2)
                                             plic);
            /* Enable plic (ext) interrupt with with parent controller */
            intc->vtable->interrupt_enable(intc, line);
20014cfc:	fdc42783          	lw	a5,-36(s0)
20014d00:	439c                	lw	a5,0(a5)
20014d02:	53dc                	lw	a5,36(a5)
20014d04:	fd842583          	lw	a1,-40(s0)
20014d08:	fdc42503          	lw	a0,-36(s0)
20014d0c:	9782                	jalr	a5
C:/Users/nandg/Desktop/Athena_Welcome_Demo/sifive_hifive1_revb_sifive_welcome/freedom-metal/src/drivers/riscv_plic0.c:130 (discriminator 2)
        for (int parent = 0; parent < __METAL_PLIC_NUM_PARENTS; parent++) {
20014d0e:	fec42783          	lw	a5,-20(s0)
20014d12:	0785                	addi	a5,a5,1
20014d14:	fef42623          	sw	a5,-20(s0)
C:/Users/nandg/Desktop/Athena_Welcome_Demo/sifive_hifive1_revb_sifive_welcome/freedom-metal/src/drivers/riscv_plic0.c:130 (discriminator 1)
20014d18:	fec42783          	lw	a5,-20(s0)
20014d1c:	eef050e3          	blez	a5,20014bfc <__metal_driver_riscv_plic0_init+0x24>
C:/Users/nandg/Desktop/Athena_Welcome_Demo/sifive_hifive1_revb_sifive_welcome/freedom-metal/src/drivers/riscv_plic0.c:161
        }
        plic->init_done = 1;
20014d20:	fe442783          	lw	a5,-28(s0)
20014d24:	4705                	li	a4,1
20014d26:	c3d8                	sw	a4,4(a5)
C:/Users/nandg/Desktop/Athena_Welcome_Demo/sifive_hifive1_revb_sifive_welcome/freedom-metal/src/drivers/riscv_plic0.c:163
    }
}
20014d28:	0001                	nop
20014d2a:	50f2                	lw	ra,60(sp)
20014d2c:	5462                	lw	s0,56(sp)
20014d2e:	6121                	addi	sp,sp,64
20014d30:	8082                	ret

20014d32 <__metal_driver_riscv_plic0_register>:
__metal_driver_riscv_plic0_register():
C:/Users/nandg/Desktop/Athena_Welcome_Demo/sifive_hifive1_revb_sifive_welcome/freedom-metal/src/drivers/riscv_plic0.c:167

int __metal_driver_riscv_plic0_register(struct metal_interrupt *controller,
                                        int id, metal_interrupt_handler_t isr,
                                        void *priv) {
20014d32:	7179                	addi	sp,sp,-48
20014d34:	d606                	sw	ra,44(sp)
20014d36:	d422                	sw	s0,40(sp)
20014d38:	1800                	addi	s0,sp,48
20014d3a:	fca42e23          	sw	a0,-36(s0)
20014d3e:	fcb42c23          	sw	a1,-40(s0)
20014d42:	fcc42a23          	sw	a2,-44(s0)
20014d46:	fcd42823          	sw	a3,-48(s0)
C:/Users/nandg/Desktop/Athena_Welcome_Demo/sifive_hifive1_revb_sifive_welcome/freedom-metal/src/drivers/riscv_plic0.c:168
    struct __metal_driver_riscv_plic0 *plic = (void *)(controller);
20014d4a:	fdc42783          	lw	a5,-36(s0)
20014d4e:	fef42623          	sw	a5,-20(s0)
C:/Users/nandg/Desktop/Athena_Welcome_Demo/sifive_hifive1_revb_sifive_welcome/freedom-metal/src/drivers/riscv_plic0.c:170

    if (id >= __metal_driver_sifive_plic0_num_interrupts(controller)) {
20014d52:	fdc42503          	lw	a0,-36(s0)
20014d56:	ac9ff0ef          	jal	ra,2001481e <__metal_driver_sifive_plic0_num_interrupts>
20014d5a:	872a                	mv	a4,a0
20014d5c:	fd842783          	lw	a5,-40(s0)
20014d60:	00e7c463          	blt	a5,a4,20014d68 <__metal_driver_riscv_plic0_register+0x36>
C:/Users/nandg/Desktop/Athena_Welcome_Demo/sifive_hifive1_revb_sifive_welcome/freedom-metal/src/drivers/riscv_plic0.c:171
        return -1;
20014d64:	57fd                	li	a5,-1
20014d66:	a051                	j	20014dea <__metal_driver_riscv_plic0_register+0xb8>
C:/Users/nandg/Desktop/Athena_Welcome_Demo/sifive_hifive1_revb_sifive_welcome/freedom-metal/src/drivers/riscv_plic0.c:174
    }

    if (isr) {
20014d68:	fd442783          	lw	a5,-44(s0)
20014d6c:	cf9d                	beqz	a5,20014daa <__metal_driver_riscv_plic0_register+0x78>
C:/Users/nandg/Desktop/Athena_Welcome_Demo/sifive_hifive1_revb_sifive_welcome/freedom-metal/src/drivers/riscv_plic0.c:175
        __metal_driver_riscv_plic0_set_priority(controller, id, 2);
20014d6e:	4609                	li	a2,2
20014d70:	fd842583          	lw	a1,-40(s0)
20014d74:	fdc42503          	lw	a0,-36(s0)
20014d78:	c63ff0ef          	jal	ra,200149da <__metal_driver_riscv_plic0_set_priority>
C:/Users/nandg/Desktop/Athena_Welcome_Demo/sifive_hifive1_revb_sifive_welcome/freedom-metal/src/drivers/riscv_plic0.c:176
        plic->metal_exint_table[id] = isr;
20014d7c:	fec42703          	lw	a4,-20(s0)
20014d80:	fd842783          	lw	a5,-40(s0)
20014d84:	078a                	slli	a5,a5,0x2
20014d86:	97ba                	add	a5,a5,a4
20014d88:	fd442703          	lw	a4,-44(s0)
20014d8c:	c798                	sw	a4,8(a5)
C:/Users/nandg/Desktop/Athena_Welcome_Demo/sifive_hifive1_revb_sifive_welcome/freedom-metal/src/drivers/riscv_plic0.c:177
        plic->metal_exdata_table[id].exint_data = priv;
20014d8e:	fec42683          	lw	a3,-20(s0)
20014d92:	fd842703          	lw	a4,-40(s0)
20014d96:	87ba                	mv	a5,a4
20014d98:	0786                	slli	a5,a5,0x1
20014d9a:	97ba                	add	a5,a5,a4
20014d9c:	078e                	slli	a5,a5,0x3
20014d9e:	97b6                	add	a5,a5,a3
20014da0:	fd042703          	lw	a4,-48(s0)
20014da4:	0ee7a823          	sw	a4,240(a5)
20014da8:	a081                	j	20014de8 <__metal_driver_riscv_plic0_register+0xb6>
C:/Users/nandg/Desktop/Athena_Welcome_Demo/sifive_hifive1_revb_sifive_welcome/freedom-metal/src/drivers/riscv_plic0.c:179
    } else {
        __metal_driver_riscv_plic0_set_priority(controller, id, 1);
20014daa:	4605                	li	a2,1
20014dac:	fd842583          	lw	a1,-40(s0)
20014db0:	fdc42503          	lw	a0,-36(s0)
20014db4:	c27ff0ef          	jal	ra,200149da <__metal_driver_riscv_plic0_set_priority>
C:/Users/nandg/Desktop/Athena_Welcome_Demo/sifive_hifive1_revb_sifive_welcome/freedom-metal/src/drivers/riscv_plic0.c:180
        plic->metal_exint_table[id] = __metal_plic0_default_handler;
20014db8:	fec42703          	lw	a4,-20(s0)
20014dbc:	fd842783          	lw	a5,-40(s0)
20014dc0:	078a                	slli	a5,a5,0x2
20014dc2:	97ba                	add	a5,a5,a4
20014dc4:	20015737          	lui	a4,0x20015
20014dc8:	b1470713          	addi	a4,a4,-1260 # 20014b14 <__metal_plic0_default_handler>
20014dcc:	c798                	sw	a4,8(a5)
C:/Users/nandg/Desktop/Athena_Welcome_Demo/sifive_hifive1_revb_sifive_welcome/freedom-metal/src/drivers/riscv_plic0.c:181
        plic->metal_exdata_table[id].sub_int = priv;
20014dce:	fec42683          	lw	a3,-20(s0)
20014dd2:	fd842703          	lw	a4,-40(s0)
20014dd6:	87ba                	mv	a5,a4
20014dd8:	0786                	slli	a5,a5,0x1
20014dda:	97ba                	add	a5,a5,a4
20014ddc:	078e                	slli	a5,a5,0x3
20014dde:	97b6                	add	a5,a5,a3
20014de0:	fd042703          	lw	a4,-48(s0)
20014de4:	0ee7a623          	sw	a4,236(a5)
C:/Users/nandg/Desktop/Athena_Welcome_Demo/sifive_hifive1_revb_sifive_welcome/freedom-metal/src/drivers/riscv_plic0.c:184
    }

    return 0;
20014de8:	4781                	li	a5,0
C:/Users/nandg/Desktop/Athena_Welcome_Demo/sifive_hifive1_revb_sifive_welcome/freedom-metal/src/drivers/riscv_plic0.c:185
}
20014dea:	853e                	mv	a0,a5
20014dec:	50b2                	lw	ra,44(sp)
20014dee:	5422                	lw	s0,40(sp)
20014df0:	6145                	addi	sp,sp,48
20014df2:	8082                	ret

20014df4 <__metal_driver_riscv_plic0_enable>:
__metal_driver_riscv_plic0_enable():
C:/Users/nandg/Desktop/Athena_Welcome_Demo/sifive_hifive1_revb_sifive_welcome/freedom-metal/src/drivers/riscv_plic0.c:188

int __metal_driver_riscv_plic0_enable(struct metal_interrupt *controller,
                                      int id) {
20014df4:	7179                	addi	sp,sp,-48
20014df6:	d606                	sw	ra,44(sp)
20014df8:	d422                	sw	s0,40(sp)
20014dfa:	1800                	addi	s0,sp,48
20014dfc:	fca42e23          	sw	a0,-36(s0)
20014e00:	fcb42c23          	sw	a1,-40(s0)
C:/Users/nandg/Desktop/Athena_Welcome_Demo/sifive_hifive1_revb_sifive_welcome/freedom-metal/src/drivers/riscv_plic0.c:189
    struct __metal_driver_riscv_plic0 *plic = (void *)(controller);
20014e04:	fdc42783          	lw	a5,-36(s0)
20014e08:	fef42623          	sw	a5,-20(s0)
C:/Users/nandg/Desktop/Athena_Welcome_Demo/sifive_hifive1_revb_sifive_welcome/freedom-metal/src/drivers/riscv_plic0.c:191

    if (id >= __metal_driver_sifive_plic0_num_interrupts(controller)) {
20014e0c:	fdc42503          	lw	a0,-36(s0)
20014e10:	a0fff0ef          	jal	ra,2001481e <__metal_driver_sifive_plic0_num_interrupts>
20014e14:	872a                	mv	a4,a0
20014e16:	fd842783          	lw	a5,-40(s0)
20014e1a:	00e7c463          	blt	a5,a4,20014e22 <__metal_driver_riscv_plic0_enable+0x2e>
C:/Users/nandg/Desktop/Athena_Welcome_Demo/sifive_hifive1_revb_sifive_welcome/freedom-metal/src/drivers/riscv_plic0.c:192
        return -1;
20014e1e:	57fd                	li	a5,-1
20014e20:	a829                	j	20014e3a <__metal_driver_riscv_plic0_enable+0x46>
C:/Users/nandg/Desktop/Athena_Welcome_Demo/sifive_hifive1_revb_sifive_welcome/freedom-metal/src/drivers/riscv_plic0.c:195
    }

    __metal_plic0_enable(plic, __metal_myhart_id(), id, METAL_ENABLE);
20014e22:	87efe0ef          	jal	ra,20012ea0 <__metal_myhart_id>
20014e26:	87aa                	mv	a5,a0
20014e28:	4685                	li	a3,1
20014e2a:	fd842603          	lw	a2,-40(s0)
20014e2e:	85be                	mv	a1,a5
20014e30:	fec42503          	lw	a0,-20(s0)
20014e34:	c3dff0ef          	jal	ra,20014a70 <__metal_plic0_enable>
C:/Users/nandg/Desktop/Athena_Welcome_Demo/sifive_hifive1_revb_sifive_welcome/freedom-metal/src/drivers/riscv_plic0.c:196
    return 0;
20014e38:	4781                	li	a5,0
C:/Users/nandg/Desktop/Athena_Welcome_Demo/sifive_hifive1_revb_sifive_welcome/freedom-metal/src/drivers/riscv_plic0.c:197
}
20014e3a:	853e                	mv	a0,a5
20014e3c:	50b2                	lw	ra,44(sp)
20014e3e:	5422                	lw	s0,40(sp)
20014e40:	6145                	addi	sp,sp,48
20014e42:	8082                	ret

20014e44 <__metal_driver_riscv_plic0_disable>:
__metal_driver_riscv_plic0_disable():
C:/Users/nandg/Desktop/Athena_Welcome_Demo/sifive_hifive1_revb_sifive_welcome/freedom-metal/src/drivers/riscv_plic0.c:200

int __metal_driver_riscv_plic0_disable(struct metal_interrupt *controller,
                                       int id) {
20014e44:	7179                	addi	sp,sp,-48
20014e46:	d606                	sw	ra,44(sp)
20014e48:	d422                	sw	s0,40(sp)
20014e4a:	1800                	addi	s0,sp,48
20014e4c:	fca42e23          	sw	a0,-36(s0)
20014e50:	fcb42c23          	sw	a1,-40(s0)
C:/Users/nandg/Desktop/Athena_Welcome_Demo/sifive_hifive1_revb_sifive_welcome/freedom-metal/src/drivers/riscv_plic0.c:201
    struct __metal_driver_riscv_plic0 *plic = (void *)(controller);
20014e54:	fdc42783          	lw	a5,-36(s0)
20014e58:	fef42623          	sw	a5,-20(s0)
C:/Users/nandg/Desktop/Athena_Welcome_Demo/sifive_hifive1_revb_sifive_welcome/freedom-metal/src/drivers/riscv_plic0.c:203

    if (id >= __metal_driver_sifive_plic0_num_interrupts(controller)) {
20014e5c:	fdc42503          	lw	a0,-36(s0)
20014e60:	9bfff0ef          	jal	ra,2001481e <__metal_driver_sifive_plic0_num_interrupts>
20014e64:	872a                	mv	a4,a0
20014e66:	fd842783          	lw	a5,-40(s0)
20014e6a:	00e7c463          	blt	a5,a4,20014e72 <__metal_driver_riscv_plic0_disable+0x2e>
C:/Users/nandg/Desktop/Athena_Welcome_Demo/sifive_hifive1_revb_sifive_welcome/freedom-metal/src/drivers/riscv_plic0.c:204
        return -1;
20014e6e:	57fd                	li	a5,-1
20014e70:	a829                	j	20014e8a <__metal_driver_riscv_plic0_disable+0x46>
C:/Users/nandg/Desktop/Athena_Welcome_Demo/sifive_hifive1_revb_sifive_welcome/freedom-metal/src/drivers/riscv_plic0.c:206
    }
    __metal_plic0_enable(plic, __metal_myhart_id(), id, METAL_DISABLE);
20014e72:	82efe0ef          	jal	ra,20012ea0 <__metal_myhart_id>
20014e76:	87aa                	mv	a5,a0
20014e78:	4681                	li	a3,0
20014e7a:	fd842603          	lw	a2,-40(s0)
20014e7e:	85be                	mv	a1,a5
20014e80:	fec42503          	lw	a0,-20(s0)
20014e84:	bedff0ef          	jal	ra,20014a70 <__metal_plic0_enable>
C:/Users/nandg/Desktop/Athena_Welcome_Demo/sifive_hifive1_revb_sifive_welcome/freedom-metal/src/drivers/riscv_plic0.c:207
    return 0;
20014e88:	4781                	li	a5,0
C:/Users/nandg/Desktop/Athena_Welcome_Demo/sifive_hifive1_revb_sifive_welcome/freedom-metal/src/drivers/riscv_plic0.c:208
}
20014e8a:	853e                	mv	a0,a5
20014e8c:	50b2                	lw	ra,44(sp)
20014e8e:	5422                	lw	s0,40(sp)
20014e90:	6145                	addi	sp,sp,48
20014e92:	8082                	ret

20014e94 <__metal_driver_riscv_plic0_set_threshold>:
__metal_driver_riscv_plic0_set_threshold():
C:/Users/nandg/Desktop/Athena_Welcome_Demo/sifive_hifive1_revb_sifive_welcome/freedom-metal/src/drivers/riscv_plic0.c:211

int __metal_driver_riscv_plic0_set_threshold(struct metal_interrupt *controller,
                                             unsigned int threshold) {
20014e94:	1101                	addi	sp,sp,-32
20014e96:	ce06                	sw	ra,28(sp)
20014e98:	cc22                	sw	s0,24(sp)
20014e9a:	1000                	addi	s0,sp,32
20014e9c:	fea42623          	sw	a0,-20(s0)
20014ea0:	feb42423          	sw	a1,-24(s0)
C:/Users/nandg/Desktop/Athena_Welcome_Demo/sifive_hifive1_revb_sifive_welcome/freedom-metal/src/drivers/riscv_plic0.c:212
    return __metal_plic0_set_threshold(controller, __metal_myhart_id(),
20014ea4:	ffdfd0ef          	jal	ra,20012ea0 <__metal_myhart_id>
20014ea8:	87aa                	mv	a5,a0
20014eaa:	fe842603          	lw	a2,-24(s0)
20014eae:	85be                	mv	a1,a5
20014eb0:	fec42503          	lw	a0,-20(s0)
20014eb4:	aa7ff0ef          	jal	ra,2001495a <__metal_plic0_set_threshold>
20014eb8:	87aa                	mv	a5,a0
C:/Users/nandg/Desktop/Athena_Welcome_Demo/sifive_hifive1_revb_sifive_welcome/freedom-metal/src/drivers/riscv_plic0.c:214
                                       threshold);
}
20014eba:	853e                	mv	a0,a5
20014ebc:	40f2                	lw	ra,28(sp)
20014ebe:	4462                	lw	s0,24(sp)
20014ec0:	6105                	addi	sp,sp,32
20014ec2:	8082                	ret

20014ec4 <__metal_driver_riscv_plic0_get_threshold>:
__metal_driver_riscv_plic0_get_threshold():
C:/Users/nandg/Desktop/Athena_Welcome_Demo/sifive_hifive1_revb_sifive_welcome/freedom-metal/src/drivers/riscv_plic0.c:217

unsigned int
__metal_driver_riscv_plic0_get_threshold(struct metal_interrupt *controller) {
20014ec4:	1101                	addi	sp,sp,-32
20014ec6:	ce06                	sw	ra,28(sp)
20014ec8:	cc22                	sw	s0,24(sp)
20014eca:	1000                	addi	s0,sp,32
20014ecc:	fea42623          	sw	a0,-20(s0)
C:/Users/nandg/Desktop/Athena_Welcome_Demo/sifive_hifive1_revb_sifive_welcome/freedom-metal/src/drivers/riscv_plic0.c:218
    return __metal_plic0_get_threshold(controller, __metal_myhart_id());
20014ed0:	fd1fd0ef          	jal	ra,20012ea0 <__metal_myhart_id>
20014ed4:	87aa                	mv	a5,a0
20014ed6:	85be                	mv	a1,a5
20014ed8:	fec42503          	lw	a0,-20(s0)
20014edc:	ac5ff0ef          	jal	ra,200149a0 <__metal_plic0_get_threshold>
20014ee0:	87aa                	mv	a5,a0
C:/Users/nandg/Desktop/Athena_Welcome_Demo/sifive_hifive1_revb_sifive_welcome/freedom-metal/src/drivers/riscv_plic0.c:219
}
20014ee2:	853e                	mv	a0,a5
20014ee4:	40f2                	lw	ra,28(sp)
20014ee6:	4462                	lw	s0,24(sp)
20014ee8:	6105                	addi	sp,sp,32
20014eea:	8082                	ret

20014eec <__metal_driver_riscv_plic0_affinity_enable>:
__metal_driver_riscv_plic0_affinity_enable():
C:/Users/nandg/Desktop/Athena_Welcome_Demo/sifive_hifive1_revb_sifive_welcome/freedom-metal/src/drivers/riscv_plic0.c:223

metal_affinity
__metal_driver_riscv_plic0_affinity_enable(struct metal_interrupt *controller,
                                           metal_affinity bitmask, int id) {
20014eec:	7179                	addi	sp,sp,-48
20014eee:	d606                	sw	ra,44(sp)
20014ef0:	d422                	sw	s0,40(sp)
20014ef2:	1800                	addi	s0,sp,48
20014ef4:	fca42e23          	sw	a0,-36(s0)
20014ef8:	fcb42c23          	sw	a1,-40(s0)
20014efc:	fcc42a23          	sw	a2,-44(s0)
C:/Users/nandg/Desktop/Athena_Welcome_Demo/sifive_hifive1_revb_sifive_welcome/freedom-metal/src/drivers/riscv_plic0.c:224
    metal_affinity ret = {0};
20014f00:	fe042223          	sw	zero,-28(s0)
C:/Users/nandg/Desktop/Athena_Welcome_Demo/sifive_hifive1_revb_sifive_welcome/freedom-metal/src/drivers/riscv_plic0.c:227
    int context;

    struct __metal_driver_riscv_plic0 *plic = (void *)(controller);
20014f04:	fdc42783          	lw	a5,-36(s0)
20014f08:	fef42423          	sw	a5,-24(s0)
C:/Users/nandg/Desktop/Athena_Welcome_Demo/sifive_hifive1_revb_sifive_welcome/freedom-metal/src/drivers/riscv_plic0.c:229

    if (id >= __metal_driver_sifive_plic0_num_interrupts(controller)) {
20014f0c:	fdc42503          	lw	a0,-36(s0)
20014f10:	90fff0ef          	jal	ra,2001481e <__metal_driver_sifive_plic0_num_interrupts>
20014f14:	872a                	mv	a4,a0
20014f16:	fd442783          	lw	a5,-44(s0)
20014f1a:	00e7c863          	blt	a5,a4,20014f2a <__metal_driver_riscv_plic0_affinity_enable+0x3e>
C:/Users/nandg/Desktop/Athena_Welcome_Demo/sifive_hifive1_revb_sifive_welcome/freedom-metal/src/drivers/riscv_plic0.c:230
        metal_affinity_set_val(ret, -1);
20014f1e:	57fd                	li	a5,-1
20014f20:	fef42223          	sw	a5,-28(s0)
C:/Users/nandg/Desktop/Athena_Welcome_Demo/sifive_hifive1_revb_sifive_welcome/freedom-metal/src/drivers/riscv_plic0.c:231
        return ret;
20014f24:	fe442783          	lw	a5,-28(s0)
20014f28:	a899                	j	20014f7e <__metal_driver_riscv_plic0_affinity_enable+0x92>
C:/Users/nandg/Desktop/Athena_Welcome_Demo/sifive_hifive1_revb_sifive_welcome/freedom-metal/src/drivers/riscv_plic0.c:234
    }

    for_each_metal_affinity(context, bitmask) {
20014f2a:	fe042623          	sw	zero,-20(s0)
20014f2e:	a099                	j	20014f74 <__metal_driver_riscv_plic0_affinity_enable+0x88>
C:/Users/nandg/Desktop/Athena_Welcome_Demo/sifive_hifive1_revb_sifive_welcome/freedom-metal/src/drivers/riscv_plic0.c:235
        if (context != 0)
20014f30:	fec42783          	lw	a5,-20(s0)
20014f34:	c795                	beqz	a5,20014f60 <__metal_driver_riscv_plic0_affinity_enable+0x74>
C:/Users/nandg/Desktop/Athena_Welcome_Demo/sifive_hifive1_revb_sifive_welcome/freedom-metal/src/drivers/riscv_plic0.c:236
            metal_affinity_set_bit(
20014f36:	4685                	li	a3,1
20014f38:	fd442603          	lw	a2,-44(s0)
20014f3c:	fec42583          	lw	a1,-20(s0)
20014f40:	fe842503          	lw	a0,-24(s0)
20014f44:	b2dff0ef          	jal	ra,20014a70 <__metal_plic0_enable>
20014f48:	87aa                	mv	a5,a0
20014f4a:	0017f713          	andi	a4,a5,1
20014f4e:	fec42783          	lw	a5,-20(s0)
20014f52:	00f71733          	sll	a4,a4,a5
20014f56:	fe442783          	lw	a5,-28(s0)
20014f5a:	8fd9                	or	a5,a5,a4
20014f5c:	fef42223          	sw	a5,-28(s0)
C:/Users/nandg/Desktop/Athena_Welcome_Demo/sifive_hifive1_revb_sifive_welcome/freedom-metal/src/drivers/riscv_plic0.c:234 (discriminator 2)
    for_each_metal_affinity(context, bitmask) {
20014f60:	fec42783          	lw	a5,-20(s0)
20014f64:	0785                	addi	a5,a5,1
20014f66:	fef42623          	sw	a5,-20(s0)
20014f6a:	fd842783          	lw	a5,-40(s0)
20014f6e:	8385                	srli	a5,a5,0x1
20014f70:	fcf42c23          	sw	a5,-40(s0)
C:/Users/nandg/Desktop/Athena_Welcome_Demo/sifive_hifive1_revb_sifive_welcome/freedom-metal/src/drivers/riscv_plic0.c:234 (discriminator 1)
20014f74:	fd842783          	lw	a5,-40(s0)
20014f78:	ffc5                	bnez	a5,20014f30 <__metal_driver_riscv_plic0_affinity_enable+0x44>
C:/Users/nandg/Desktop/Athena_Welcome_Demo/sifive_hifive1_revb_sifive_welcome/freedom-metal/src/drivers/riscv_plic0.c:241
                ret, context,
                __metal_plic0_enable(plic, context, id, METAL_ENABLE));
    }

    return ret;
20014f7a:	fe442783          	lw	a5,-28(s0)
C:/Users/nandg/Desktop/Athena_Welcome_Demo/sifive_hifive1_revb_sifive_welcome/freedom-metal/src/drivers/riscv_plic0.c:242 (discriminator 1)
}
20014f7e:	853e                	mv	a0,a5
20014f80:	50b2                	lw	ra,44(sp)
20014f82:	5422                	lw	s0,40(sp)
20014f84:	6145                	addi	sp,sp,48
20014f86:	8082                	ret

20014f88 <__metal_driver_riscv_plic0_affinity_disable>:
__metal_driver_riscv_plic0_affinity_disable():
C:/Users/nandg/Desktop/Athena_Welcome_Demo/sifive_hifive1_revb_sifive_welcome/freedom-metal/src/drivers/riscv_plic0.c:246

metal_affinity
__metal_driver_riscv_plic0_affinity_disable(struct metal_interrupt *controller,
                                            metal_affinity bitmask, int id) {
20014f88:	7179                	addi	sp,sp,-48
20014f8a:	d606                	sw	ra,44(sp)
20014f8c:	d422                	sw	s0,40(sp)
20014f8e:	1800                	addi	s0,sp,48
20014f90:	fca42e23          	sw	a0,-36(s0)
20014f94:	fcb42c23          	sw	a1,-40(s0)
20014f98:	fcc42a23          	sw	a2,-44(s0)
C:/Users/nandg/Desktop/Athena_Welcome_Demo/sifive_hifive1_revb_sifive_welcome/freedom-metal/src/drivers/riscv_plic0.c:247
    metal_affinity ret = {0};
20014f9c:	fe042223          	sw	zero,-28(s0)
C:/Users/nandg/Desktop/Athena_Welcome_Demo/sifive_hifive1_revb_sifive_welcome/freedom-metal/src/drivers/riscv_plic0.c:250
    int context;

    struct __metal_driver_riscv_plic0 *plic = (void *)(controller);
20014fa0:	fdc42783          	lw	a5,-36(s0)
20014fa4:	fef42423          	sw	a5,-24(s0)
C:/Users/nandg/Desktop/Athena_Welcome_Demo/sifive_hifive1_revb_sifive_welcome/freedom-metal/src/drivers/riscv_plic0.c:252

    if (id >= __metal_driver_sifive_plic0_num_interrupts(controller)) {
20014fa8:	fdc42503          	lw	a0,-36(s0)
20014fac:	873ff0ef          	jal	ra,2001481e <__metal_driver_sifive_plic0_num_interrupts>
20014fb0:	872a                	mv	a4,a0
20014fb2:	fd442783          	lw	a5,-44(s0)
20014fb6:	00e7c863          	blt	a5,a4,20014fc6 <__metal_driver_riscv_plic0_affinity_disable+0x3e>
C:/Users/nandg/Desktop/Athena_Welcome_Demo/sifive_hifive1_revb_sifive_welcome/freedom-metal/src/drivers/riscv_plic0.c:253
        metal_affinity_set_val(ret, -1);
20014fba:	57fd                	li	a5,-1
20014fbc:	fef42223          	sw	a5,-28(s0)
C:/Users/nandg/Desktop/Athena_Welcome_Demo/sifive_hifive1_revb_sifive_welcome/freedom-metal/src/drivers/riscv_plic0.c:254
        return ret;
20014fc0:	fe442783          	lw	a5,-28(s0)
20014fc4:	a899                	j	2001501a <__metal_driver_riscv_plic0_affinity_disable+0x92>
C:/Users/nandg/Desktop/Athena_Welcome_Demo/sifive_hifive1_revb_sifive_welcome/freedom-metal/src/drivers/riscv_plic0.c:257
    }

    for_each_metal_affinity(context, bitmask) {
20014fc6:	fe042623          	sw	zero,-20(s0)
20014fca:	a099                	j	20015010 <__metal_driver_riscv_plic0_affinity_disable+0x88>
C:/Users/nandg/Desktop/Athena_Welcome_Demo/sifive_hifive1_revb_sifive_welcome/freedom-metal/src/drivers/riscv_plic0.c:258
        if (context != 0)
20014fcc:	fec42783          	lw	a5,-20(s0)
20014fd0:	c795                	beqz	a5,20014ffc <__metal_driver_riscv_plic0_affinity_disable+0x74>
C:/Users/nandg/Desktop/Athena_Welcome_Demo/sifive_hifive1_revb_sifive_welcome/freedom-metal/src/drivers/riscv_plic0.c:259
            metal_affinity_set_bit(
20014fd2:	4681                	li	a3,0
20014fd4:	fd442603          	lw	a2,-44(s0)
20014fd8:	fec42583          	lw	a1,-20(s0)
20014fdc:	fe842503          	lw	a0,-24(s0)
20014fe0:	a91ff0ef          	jal	ra,20014a70 <__metal_plic0_enable>
20014fe4:	87aa                	mv	a5,a0
20014fe6:	0017f713          	andi	a4,a5,1
20014fea:	fec42783          	lw	a5,-20(s0)
20014fee:	00f71733          	sll	a4,a4,a5
20014ff2:	fe442783          	lw	a5,-28(s0)
20014ff6:	8fd9                	or	a5,a5,a4
20014ff8:	fef42223          	sw	a5,-28(s0)
C:/Users/nandg/Desktop/Athena_Welcome_Demo/sifive_hifive1_revb_sifive_welcome/freedom-metal/src/drivers/riscv_plic0.c:257 (discriminator 2)
    for_each_metal_affinity(context, bitmask) {
20014ffc:	fec42783          	lw	a5,-20(s0)
20015000:	0785                	addi	a5,a5,1
20015002:	fef42623          	sw	a5,-20(s0)
20015006:	fd842783          	lw	a5,-40(s0)
2001500a:	8385                	srli	a5,a5,0x1
2001500c:	fcf42c23          	sw	a5,-40(s0)
C:/Users/nandg/Desktop/Athena_Welcome_Demo/sifive_hifive1_revb_sifive_welcome/freedom-metal/src/drivers/riscv_plic0.c:257 (discriminator 1)
20015010:	fd842783          	lw	a5,-40(s0)
20015014:	ffc5                	bnez	a5,20014fcc <__metal_driver_riscv_plic0_affinity_disable+0x44>
C:/Users/nandg/Desktop/Athena_Welcome_Demo/sifive_hifive1_revb_sifive_welcome/freedom-metal/src/drivers/riscv_plic0.c:264
                ret, context,
                __metal_plic0_enable(plic, context, id, METAL_DISABLE));
    }

    return ret;
20015016:	fe442783          	lw	a5,-28(s0)
C:/Users/nandg/Desktop/Athena_Welcome_Demo/sifive_hifive1_revb_sifive_welcome/freedom-metal/src/drivers/riscv_plic0.c:265 (discriminator 1)
}
2001501a:	853e                	mv	a0,a5
2001501c:	50b2                	lw	ra,44(sp)
2001501e:	5422                	lw	s0,40(sp)
20015020:	6145                	addi	sp,sp,48
20015022:	8082                	ret

20015024 <__metal_driver_riscv_plic0_affinity_set_threshold>:
__metal_driver_riscv_plic0_affinity_set_threshold():
C:/Users/nandg/Desktop/Athena_Welcome_Demo/sifive_hifive1_revb_sifive_welcome/freedom-metal/src/drivers/riscv_plic0.c:269

metal_affinity __metal_driver_riscv_plic0_affinity_set_threshold(
    struct metal_interrupt *controller, metal_affinity bitmask,
    unsigned int threshold) {
20015024:	7179                	addi	sp,sp,-48
20015026:	d606                	sw	ra,44(sp)
20015028:	d422                	sw	s0,40(sp)
2001502a:	1800                	addi	s0,sp,48
2001502c:	fca42e23          	sw	a0,-36(s0)
20015030:	fcb42c23          	sw	a1,-40(s0)
20015034:	fcc42a23          	sw	a2,-44(s0)
C:/Users/nandg/Desktop/Athena_Welcome_Demo/sifive_hifive1_revb_sifive_welcome/freedom-metal/src/drivers/riscv_plic0.c:270
    metal_affinity ret = {0};
20015038:	fe042423          	sw	zero,-24(s0)
C:/Users/nandg/Desktop/Athena_Welcome_Demo/sifive_hifive1_revb_sifive_welcome/freedom-metal/src/drivers/riscv_plic0.c:273
    int context;

    for_each_metal_affinity(context, bitmask) {
2001503c:	fe042623          	sw	zero,-20(s0)
20015040:	a091                	j	20015084 <__metal_driver_riscv_plic0_affinity_set_threshold+0x60>
C:/Users/nandg/Desktop/Athena_Welcome_Demo/sifive_hifive1_revb_sifive_welcome/freedom-metal/src/drivers/riscv_plic0.c:274
        if (context != 0)
20015042:	fec42783          	lw	a5,-20(s0)
20015046:	c78d                	beqz	a5,20015070 <__metal_driver_riscv_plic0_affinity_set_threshold+0x4c>
C:/Users/nandg/Desktop/Athena_Welcome_Demo/sifive_hifive1_revb_sifive_welcome/freedom-metal/src/drivers/riscv_plic0.c:275
            metal_affinity_set_bit(
20015048:	fd442603          	lw	a2,-44(s0)
2001504c:	fec42583          	lw	a1,-20(s0)
20015050:	fdc42503          	lw	a0,-36(s0)
20015054:	907ff0ef          	jal	ra,2001495a <__metal_plic0_set_threshold>
20015058:	87aa                	mv	a5,a0
2001505a:	0017f713          	andi	a4,a5,1
2001505e:	fec42783          	lw	a5,-20(s0)
20015062:	00f71733          	sll	a4,a4,a5
20015066:	fe842783          	lw	a5,-24(s0)
2001506a:	8fd9                	or	a5,a5,a4
2001506c:	fef42423          	sw	a5,-24(s0)
C:/Users/nandg/Desktop/Athena_Welcome_Demo/sifive_hifive1_revb_sifive_welcome/freedom-metal/src/drivers/riscv_plic0.c:273 (discriminator 2)
    for_each_metal_affinity(context, bitmask) {
20015070:	fec42783          	lw	a5,-20(s0)
20015074:	0785                	addi	a5,a5,1
20015076:	fef42623          	sw	a5,-20(s0)
2001507a:	fd842783          	lw	a5,-40(s0)
2001507e:	8385                	srli	a5,a5,0x1
20015080:	fcf42c23          	sw	a5,-40(s0)
C:/Users/nandg/Desktop/Athena_Welcome_Demo/sifive_hifive1_revb_sifive_welcome/freedom-metal/src/drivers/riscv_plic0.c:273 (discriminator 1)
20015084:	fd842783          	lw	a5,-40(s0)
20015088:	ffcd                	bnez	a5,20015042 <__metal_driver_riscv_plic0_affinity_set_threshold+0x1e>
C:/Users/nandg/Desktop/Athena_Welcome_Demo/sifive_hifive1_revb_sifive_welcome/freedom-metal/src/drivers/riscv_plic0.c:280
                ret, context,
                __metal_plic0_set_threshold(controller, context, threshold));
    }

    return ret;
2001508a:	fe842783          	lw	a5,-24(s0)
C:/Users/nandg/Desktop/Athena_Welcome_Demo/sifive_hifive1_revb_sifive_welcome/freedom-metal/src/drivers/riscv_plic0.c:281
}
2001508e:	853e                	mv	a0,a5
20015090:	50b2                	lw	ra,44(sp)
20015092:	5422                	lw	s0,40(sp)
20015094:	6145                	addi	sp,sp,48
20015096:	8082                	ret

20015098 <__metal_driver_riscv_plic0_affinity_get_threshold>:
__metal_driver_riscv_plic0_affinity_get_threshold():
C:/Users/nandg/Desktop/Athena_Welcome_Demo/sifive_hifive1_revb_sifive_welcome/freedom-metal/src/drivers/riscv_plic0.c:284

unsigned int __metal_driver_riscv_plic0_affinity_get_threshold(
    struct metal_interrupt *controller, int context_id) {
20015098:	1101                	addi	sp,sp,-32
2001509a:	ce06                	sw	ra,28(sp)
2001509c:	cc22                	sw	s0,24(sp)
2001509e:	1000                	addi	s0,sp,32
200150a0:	fea42623          	sw	a0,-20(s0)
200150a4:	feb42423          	sw	a1,-24(s0)
C:/Users/nandg/Desktop/Athena_Welcome_Demo/sifive_hifive1_revb_sifive_welcome/freedom-metal/src/drivers/riscv_plic0.c:285
    __metal_plic0_get_threshold(controller, context_id);
200150a8:	fe842583          	lw	a1,-24(s0)
200150ac:	fec42503          	lw	a0,-20(s0)
200150b0:	8f1ff0ef          	jal	ra,200149a0 <__metal_plic0_get_threshold>
C:/Users/nandg/Desktop/Athena_Welcome_Demo/sifive_hifive1_revb_sifive_welcome/freedom-metal/src/drivers/riscv_plic0.c:286
    return 0;
200150b4:	4781                	li	a5,0
C:/Users/nandg/Desktop/Athena_Welcome_Demo/sifive_hifive1_revb_sifive_welcome/freedom-metal/src/drivers/riscv_plic0.c:287
}
200150b6:	853e                	mv	a0,a5
200150b8:	40f2                	lw	ra,28(sp)
200150ba:	4462                	lw	s0,24(sp)
200150bc:	6105                	addi	sp,sp,32
200150be:	8082                	ret

200150c0 <__metal_driver_sifive_fe310_g000_hfrosc_ref>:
__metal_driver_sifive_fe310_g000_hfrosc_ref():
C:\Users\nandg\Desktop\Athena_Welcome_Demo\sifive_hifive1_revb_sifive_welcome\bsp\build\debug/./metal/machine.h:1242



/* --------------------- sifive_fe310_g000_hfrosc ------------ */
static __inline__ struct metal_clock * __metal_driver_sifive_fe310_g000_hfrosc_ref(const struct metal_clock *clock)
{
200150c0:	1101                	addi	sp,sp,-32
200150c2:	ce22                	sw	s0,28(sp)
200150c4:	1000                	addi	s0,sp,32
200150c6:	fea42623          	sw	a0,-20(s0)
C:\Users\nandg\Desktop\Athena_Welcome_Demo\sifive_hifive1_revb_sifive_welcome\bsp\build\debug/./metal/machine.h:1243
		return (struct metal_clock *)&__metal_dt_clock_2.clock;
200150ca:	800007b7          	lui	a5,0x80000
200150ce:	07878793          	addi	a5,a5,120 # 80000078 <metal_segment_heap_target_end+0xffffe8d8>
C:\Users\nandg\Desktop\Athena_Welcome_Demo\sifive_hifive1_revb_sifive_welcome\bsp\build\debug/./metal/machine.h:1244
}
200150d2:	853e                	mv	a0,a5
200150d4:	4472                	lw	s0,28(sp)
200150d6:	6105                	addi	sp,sp,32
200150d8:	8082                	ret

200150da <__metal_driver_sifive_fe310_g000_hfrosc_config_base>:
__metal_driver_sifive_fe310_g000_hfrosc_config_base():
C:\Users\nandg\Desktop\Athena_Welcome_Demo\sifive_hifive1_revb_sifive_welcome\bsp\build\debug/./metal/machine.h:1247

static __inline__ struct __metal_driver_sifive_fe310_g000_prci * __metal_driver_sifive_fe310_g000_hfrosc_config_base(const struct metal_clock *clock)
{
200150da:	1101                	addi	sp,sp,-32
200150dc:	ce22                	sw	s0,28(sp)
200150de:	1000                	addi	s0,sp,32
200150e0:	fea42623          	sw	a0,-20(s0)
C:\Users\nandg\Desktop\Athena_Welcome_Demo\sifive_hifive1_revb_sifive_welcome\bsp\build\debug/./metal/machine.h:1248
		return (struct __metal_driver_sifive_fe310_g000_prci *)&__metal_dt_prci_10008000;
200150e4:	82818793          	addi	a5,gp,-2008 # 80000ad8 <__metal_dt_prci_10008000>
C:\Users\nandg\Desktop\Athena_Welcome_Demo\sifive_hifive1_revb_sifive_welcome\bsp\build\debug/./metal/machine.h:1249
}
200150e8:	853e                	mv	a0,a5
200150ea:	4472                	lw	s0,28(sp)
200150ec:	6105                	addi	sp,sp,32
200150ee:	8082                	ret

200150f0 <__metal_driver_sifive_fe310_g000_hfrosc_config_offset>:
__metal_driver_sifive_fe310_g000_hfrosc_config_offset():
C:\Users\nandg\Desktop\Athena_Welcome_Demo\sifive_hifive1_revb_sifive_welcome\bsp\build\debug/./metal/machine.h:1257
{
		return &__metal_driver_vtable_sifive_fe310_g000_prci;
}

static __inline__ long __metal_driver_sifive_fe310_g000_hfrosc_config_offset(const struct metal_clock *clock)
{
200150f0:	1101                	addi	sp,sp,-32
200150f2:	ce22                	sw	s0,28(sp)
200150f4:	1000                	addi	s0,sp,32
200150f6:	fea42623          	sw	a0,-20(s0)
C:\Users\nandg\Desktop\Athena_Welcome_Demo\sifive_hifive1_revb_sifive_welcome\bsp\build\debug/./metal/machine.h:1258
		return METAL_SIFIVE_FE310_G000_PRCI_HFROSCCFG;
200150fa:	4781                	li	a5,0
C:\Users\nandg\Desktop\Athena_Welcome_Demo\sifive_hifive1_revb_sifive_welcome\bsp\build\debug/./metal/machine.h:1259
}
200150fc:	853e                	mv	a0,a5
200150fe:	4472                	lw	s0,28(sp)
20015100:	6105                	addi	sp,sp,32
20015102:	8082                	ret

20015104 <__metal_driver_sifive_fe310_g000_prci_vtable>:
__metal_driver_sifive_fe310_g000_prci_vtable():
C:\Users\nandg\Desktop\Athena_Welcome_Demo\sifive_hifive1_revb_sifive_welcome\bsp\build\debug/./metal/machine.h:1374
{
		return METAL_SIFIVE_FE310_G000_PRCI_10008000_SIZE;
}

static __inline__ const struct __metal_driver_vtable_sifive_fe310_g000_prci * __metal_driver_sifive_fe310_g000_prci_vtable( )
{
20015104:	1141                	addi	sp,sp,-16
20015106:	c622                	sw	s0,12(sp)
20015108:	0800                	addi	s0,sp,16
C:\Users\nandg\Desktop\Athena_Welcome_Demo\sifive_hifive1_revb_sifive_welcome\bsp\build\debug/./metal/machine.h:1375
		return &__metal_driver_vtable_sifive_fe310_g000_prci;
2001510a:	200117b7          	lui	a5,0x20011
2001510e:	3c478793          	addi	a5,a5,964 # 200113c4 <__metal_driver_vtable_sifive_fe310_g000_prci>
C:\Users\nandg\Desktop\Athena_Welcome_Demo\sifive_hifive1_revb_sifive_welcome\bsp\build\debug/./metal/machine.h:1376
}
20015112:	853e                	mv	a0,a5
20015114:	4432                	lw	s0,12(sp)
20015116:	0141                	addi	sp,sp,16
20015118:	8082                	ret

2001511a <__metal_driver_sifive_fe310_g000_hfrosc_get_rate_hz>:
__metal_driver_sifive_fe310_g000_hfrosc_get_rate_hz():
C:/Users/nandg/Desktop/Athena_Welcome_Demo/sifive_hifive1_revb_sifive_welcome/freedom-metal/src/drivers/sifive_fe310-g000_hfrosc.c:17
#define CONFIG_TRIM 0x001F0000UL
#define CONFIG_ENABLE 0x40000000UL
#define CONFIG_READY 0x80000000UL

long __metal_driver_sifive_fe310_g000_hfrosc_get_rate_hz(
    const struct metal_clock *clock) {
2001511a:	7139                	addi	sp,sp,-64
2001511c:	de06                	sw	ra,60(sp)
2001511e:	dc22                	sw	s0,56(sp)
20015120:	0080                	addi	s0,sp,64
20015122:	fca42623          	sw	a0,-52(s0)
C:/Users/nandg/Desktop/Athena_Welcome_Demo/sifive_hifive1_revb_sifive_welcome/freedom-metal/src/drivers/sifive_fe310-g000_hfrosc.c:19
    struct metal_clock *ref =
        __metal_driver_sifive_fe310_g000_hfrosc_ref(clock);
20015126:	fcc42503          	lw	a0,-52(s0)
2001512a:	3f59                	jal	200150c0 <__metal_driver_sifive_fe310_g000_hfrosc_ref>
2001512c:	fea42623          	sw	a0,-20(s0)
C:/Users/nandg/Desktop/Athena_Welcome_Demo/sifive_hifive1_revb_sifive_welcome/freedom-metal/src/drivers/sifive_fe310-g000_hfrosc.c:21
    long config_offset =
        __metal_driver_sifive_fe310_g000_hfrosc_config_offset(clock);
20015130:	fcc42503          	lw	a0,-52(s0)
20015134:	3f75                	jal	200150f0 <__metal_driver_sifive_fe310_g000_hfrosc_config_offset>
20015136:	fea42423          	sw	a0,-24(s0)
C:/Users/nandg/Desktop/Athena_Welcome_Demo/sifive_hifive1_revb_sifive_welcome/freedom-metal/src/drivers/sifive_fe310-g000_hfrosc.c:23
    struct __metal_driver_sifive_fe310_g000_prci *config_base =
        __metal_driver_sifive_fe310_g000_hfrosc_config_base(clock);
2001513a:	fcc42503          	lw	a0,-52(s0)
2001513e:	3f71                	jal	200150da <__metal_driver_sifive_fe310_g000_hfrosc_config_base>
20015140:	fea42223          	sw	a0,-28(s0)
C:/Users/nandg/Desktop/Athena_Welcome_Demo/sifive_hifive1_revb_sifive_welcome/freedom-metal/src/drivers/sifive_fe310-g000_hfrosc.c:25
    const struct __metal_driver_vtable_sifive_fe310_g000_prci *vtable =
        __metal_driver_sifive_fe310_g000_prci_vtable();
20015144:	37c1                	jal	20015104 <__metal_driver_sifive_fe310_g000_prci_vtable>
20015146:	fea42023          	sw	a0,-32(s0)
C:/Users/nandg/Desktop/Athena_Welcome_Demo/sifive_hifive1_revb_sifive_welcome/freedom-metal/src/drivers/sifive_fe310-g000_hfrosc.c:26
    long cfg = vtable->get_reg(config_base, config_offset);
2001514a:	fe042783          	lw	a5,-32(s0)
2001514e:	439c                	lw	a5,0(a5)
20015150:	fe842583          	lw	a1,-24(s0)
20015154:	fe442503          	lw	a0,-28(s0)
20015158:	9782                	jalr	a5
2001515a:	fca42e23          	sw	a0,-36(s0)
C:/Users/nandg/Desktop/Athena_Welcome_Demo/sifive_hifive1_revb_sifive_welcome/freedom-metal/src/drivers/sifive_fe310-g000_hfrosc.c:28

    if ((cfg & CONFIG_ENABLE) == 0)
2001515e:	fdc42703          	lw	a4,-36(s0)
20015162:	400007b7          	lui	a5,0x40000
20015166:	8ff9                	and	a5,a5,a4
20015168:	e399                	bnez	a5,2001516e <__metal_driver_sifive_fe310_g000_hfrosc_get_rate_hz+0x54>
C:/Users/nandg/Desktop/Athena_Welcome_Demo/sifive_hifive1_revb_sifive_welcome/freedom-metal/src/drivers/sifive_fe310-g000_hfrosc.c:29
        return -1;
2001516a:	57fd                	li	a5,-1
2001516c:	a025                	j	20015194 <__metal_driver_sifive_fe310_g000_hfrosc_get_rate_hz+0x7a>
C:/Users/nandg/Desktop/Athena_Welcome_Demo/sifive_hifive1_revb_sifive_welcome/freedom-metal/src/drivers/sifive_fe310-g000_hfrosc.c:30
    if ((cfg & CONFIG_READY) == 0)
2001516e:	fdc42783          	lw	a5,-36(s0)
20015172:	0007c463          	bltz	a5,2001517a <__metal_driver_sifive_fe310_g000_hfrosc_get_rate_hz+0x60>
C:/Users/nandg/Desktop/Athena_Welcome_Demo/sifive_hifive1_revb_sifive_welcome/freedom-metal/src/drivers/sifive_fe310-g000_hfrosc.c:31
        return -1;
20015176:	57fd                	li	a5,-1
20015178:	a831                	j	20015194 <__metal_driver_sifive_fe310_g000_hfrosc_get_rate_hz+0x7a>
C:/Users/nandg/Desktop/Athena_Welcome_Demo/sifive_hifive1_revb_sifive_welcome/freedom-metal/src/drivers/sifive_fe310-g000_hfrosc.c:32
    return metal_clock_get_rate_hz(ref) / ((cfg & CONFIG_DIVIDER) + 1);
2001517a:	fec42503          	lw	a0,-20(s0)
2001517e:	4fd010ef          	jal	ra,20016e7a <metal_clock_get_rate_hz>
20015182:	87aa                	mv	a5,a0
20015184:	873e                	mv	a4,a5
20015186:	fdc42783          	lw	a5,-36(s0)
2001518a:	03f7f793          	andi	a5,a5,63
2001518e:	0785                	addi	a5,a5,1
20015190:	02f757b3          	divu	a5,a4,a5
C:/Users/nandg/Desktop/Athena_Welcome_Demo/sifive_hifive1_revb_sifive_welcome/freedom-metal/src/drivers/sifive_fe310-g000_hfrosc.c:33
}
20015194:	853e                	mv	a0,a5
20015196:	50f2                	lw	ra,60(sp)
20015198:	5462                	lw	s0,56(sp)
2001519a:	6121                	addi	sp,sp,64
2001519c:	8082                	ret

2001519e <__metal_driver_sifive_fe310_g000_hfrosc_set_rate_hz>:
__metal_driver_sifive_fe310_g000_hfrosc_set_rate_hz():
C:/Users/nandg/Desktop/Athena_Welcome_Demo/sifive_hifive1_revb_sifive_welcome/freedom-metal/src/drivers/sifive_fe310-g000_hfrosc.c:36

long __metal_driver_sifive_fe310_g000_hfrosc_set_rate_hz(
    struct metal_clock *clock, long rate) {
2001519e:	1101                	addi	sp,sp,-32
200151a0:	ce06                	sw	ra,28(sp)
200151a2:	cc22                	sw	s0,24(sp)
200151a4:	1000                	addi	s0,sp,32
200151a6:	fea42623          	sw	a0,-20(s0)
200151aa:	feb42423          	sw	a1,-24(s0)
C:/Users/nandg/Desktop/Athena_Welcome_Demo/sifive_hifive1_revb_sifive_welcome/freedom-metal/src/drivers/sifive_fe310-g000_hfrosc.c:37
    return __metal_driver_sifive_fe310_g000_hfrosc_get_rate_hz(clock);
200151ae:	fec42503          	lw	a0,-20(s0)
200151b2:	37a5                	jal	2001511a <__metal_driver_sifive_fe310_g000_hfrosc_get_rate_hz>
200151b4:	87aa                	mv	a5,a0
C:/Users/nandg/Desktop/Athena_Welcome_Demo/sifive_hifive1_revb_sifive_welcome/freedom-metal/src/drivers/sifive_fe310-g000_hfrosc.c:38
}
200151b6:	853e                	mv	a0,a5
200151b8:	40f2                	lw	ra,28(sp)
200151ba:	4462                	lw	s0,24(sp)
200151bc:	6105                	addi	sp,sp,32
200151be:	8082                	ret

200151c0 <__metal_driver_sifive_fe310_g000_hfxosc_ref>:
__metal_driver_sifive_fe310_g000_hfxosc_ref():
C:\Users\nandg\Desktop\Athena_Welcome_Demo\sifive_hifive1_revb_sifive_welcome\bsp\build\debug/./metal/machine.h:1265
{
200151c0:	1101                	addi	sp,sp,-32
200151c2:	ce22                	sw	s0,28(sp)
200151c4:	1000                	addi	s0,sp,32
200151c6:	fea42623          	sw	a0,-20(s0)
C:\Users\nandg\Desktop\Athena_Welcome_Demo\sifive_hifive1_revb_sifive_welcome\bsp\build\debug/./metal/machine.h:1266
		return (struct metal_clock *)&__metal_dt_clock_0.clock;
200151ca:	800007b7          	lui	a5,0x80000
200151ce:	06c78793          	addi	a5,a5,108 # 8000006c <metal_segment_heap_target_end+0xffffe8cc>
C:\Users\nandg\Desktop\Athena_Welcome_Demo\sifive_hifive1_revb_sifive_welcome\bsp\build\debug/./metal/machine.h:1267
}
200151d2:	853e                	mv	a0,a5
200151d4:	4472                	lw	s0,28(sp)
200151d6:	6105                	addi	sp,sp,32
200151d8:	8082                	ret

200151da <__metal_driver_sifive_fe310_g000_hfxosc_config_base>:
__metal_driver_sifive_fe310_g000_hfxosc_config_base():
C:\Users\nandg\Desktop\Athena_Welcome_Demo\sifive_hifive1_revb_sifive_welcome\bsp\build\debug/./metal/machine.h:1270
{
200151da:	1101                	addi	sp,sp,-32
200151dc:	ce22                	sw	s0,28(sp)
200151de:	1000                	addi	s0,sp,32
200151e0:	fea42623          	sw	a0,-20(s0)
C:\Users\nandg\Desktop\Athena_Welcome_Demo\sifive_hifive1_revb_sifive_welcome\bsp\build\debug/./metal/machine.h:1271
		return (struct __metal_driver_sifive_fe310_g000_prci *)&__metal_dt_prci_10008000;
200151e4:	82818793          	addi	a5,gp,-2008 # 80000ad8 <__metal_dt_prci_10008000>
C:\Users\nandg\Desktop\Athena_Welcome_Demo\sifive_hifive1_revb_sifive_welcome\bsp\build\debug/./metal/machine.h:1272
}
200151e8:	853e                	mv	a0,a5
200151ea:	4472                	lw	s0,28(sp)
200151ec:	6105                	addi	sp,sp,32
200151ee:	8082                	ret

200151f0 <__metal_driver_sifive_fe310_g000_hfxosc_config_offset>:
__metal_driver_sifive_fe310_g000_hfxosc_config_offset():
C:\Users\nandg\Desktop\Athena_Welcome_Demo\sifive_hifive1_revb_sifive_welcome\bsp\build\debug/./metal/machine.h:1275
{
200151f0:	1101                	addi	sp,sp,-32
200151f2:	ce22                	sw	s0,28(sp)
200151f4:	1000                	addi	s0,sp,32
200151f6:	fea42623          	sw	a0,-20(s0)
C:\Users\nandg\Desktop\Athena_Welcome_Demo\sifive_hifive1_revb_sifive_welcome\bsp\build\debug/./metal/machine.h:1276
		return METAL_SIFIVE_FE310_G000_PRCI_HFXOSCCFG;
200151fa:	4791                	li	a5,4
C:\Users\nandg\Desktop\Athena_Welcome_Demo\sifive_hifive1_revb_sifive_welcome\bsp\build\debug/./metal/machine.h:1277
}
200151fc:	853e                	mv	a0,a5
200151fe:	4472                	lw	s0,28(sp)
20015200:	6105                	addi	sp,sp,32
20015202:	8082                	ret

20015204 <__metal_driver_sifive_fe310_g000_prci_vtable>:
__metal_driver_sifive_fe310_g000_prci_vtable():
C:\Users\nandg\Desktop\Athena_Welcome_Demo\sifive_hifive1_revb_sifive_welcome\bsp\build\debug/./metal/machine.h:1374
{
20015204:	1141                	addi	sp,sp,-16
20015206:	c622                	sw	s0,12(sp)
20015208:	0800                	addi	s0,sp,16
C:\Users\nandg\Desktop\Athena_Welcome_Demo\sifive_hifive1_revb_sifive_welcome\bsp\build\debug/./metal/machine.h:1375
		return &__metal_driver_vtable_sifive_fe310_g000_prci;
2001520a:	200117b7          	lui	a5,0x20011
2001520e:	3c478793          	addi	a5,a5,964 # 200113c4 <__metal_driver_vtable_sifive_fe310_g000_prci>
C:\Users\nandg\Desktop\Athena_Welcome_Demo\sifive_hifive1_revb_sifive_welcome\bsp\build\debug/./metal/machine.h:1376
}
20015212:	853e                	mv	a0,a5
20015214:	4432                	lw	s0,12(sp)
20015216:	0141                	addi	sp,sp,16
20015218:	8082                	ret

2001521a <__metal_driver_sifive_fe310_g000_hfxosc_get_rate_hz>:
__metal_driver_sifive_fe310_g000_hfxosc_get_rate_hz():
C:/Users/nandg/Desktop/Athena_Welcome_Demo/sifive_hifive1_revb_sifive_welcome/freedom-metal/src/drivers/sifive_fe310-g000_hfxosc.c:15

#define CONFIG_ENABLE 0x40000000UL
#define CONFIG_READY 0x80000000UL

long __metal_driver_sifive_fe310_g000_hfxosc_get_rate_hz(
    const struct metal_clock *clock) {
2001521a:	7139                	addi	sp,sp,-64
2001521c:	de06                	sw	ra,60(sp)
2001521e:	dc22                	sw	s0,56(sp)
20015220:	0080                	addi	s0,sp,64
20015222:	fca42623          	sw	a0,-52(s0)
C:/Users/nandg/Desktop/Athena_Welcome_Demo/sifive_hifive1_revb_sifive_welcome/freedom-metal/src/drivers/sifive_fe310-g000_hfxosc.c:17
    struct metal_clock *ref =
        __metal_driver_sifive_fe310_g000_hfxosc_ref(clock);
20015226:	fcc42503          	lw	a0,-52(s0)
2001522a:	3f59                	jal	200151c0 <__metal_driver_sifive_fe310_g000_hfxosc_ref>
2001522c:	fea42623          	sw	a0,-20(s0)
C:/Users/nandg/Desktop/Athena_Welcome_Demo/sifive_hifive1_revb_sifive_welcome/freedom-metal/src/drivers/sifive_fe310-g000_hfxosc.c:19
    long config_offset =
        __metal_driver_sifive_fe310_g000_hfxosc_config_offset(clock);
20015230:	fcc42503          	lw	a0,-52(s0)
20015234:	3f75                	jal	200151f0 <__metal_driver_sifive_fe310_g000_hfxosc_config_offset>
20015236:	fea42423          	sw	a0,-24(s0)
C:/Users/nandg/Desktop/Athena_Welcome_Demo/sifive_hifive1_revb_sifive_welcome/freedom-metal/src/drivers/sifive_fe310-g000_hfxosc.c:21
    struct __metal_driver_sifive_fe310_g000_prci *config_base =
        __metal_driver_sifive_fe310_g000_hfxosc_config_base(clock);
2001523a:	fcc42503          	lw	a0,-52(s0)
2001523e:	3f71                	jal	200151da <__metal_driver_sifive_fe310_g000_hfxosc_config_base>
20015240:	fea42223          	sw	a0,-28(s0)
C:/Users/nandg/Desktop/Athena_Welcome_Demo/sifive_hifive1_revb_sifive_welcome/freedom-metal/src/drivers/sifive_fe310-g000_hfxosc.c:23
    const struct __metal_driver_vtable_sifive_fe310_g000_prci *vtable =
        __metal_driver_sifive_fe310_g000_prci_vtable();
20015244:	37c1                	jal	20015204 <__metal_driver_sifive_fe310_g000_prci_vtable>
20015246:	fea42023          	sw	a0,-32(s0)
C:/Users/nandg/Desktop/Athena_Welcome_Demo/sifive_hifive1_revb_sifive_welcome/freedom-metal/src/drivers/sifive_fe310-g000_hfxosc.c:24
    long cfg = vtable->get_reg(config_base, config_offset);
2001524a:	fe042783          	lw	a5,-32(s0)
2001524e:	439c                	lw	a5,0(a5)
20015250:	fe842583          	lw	a1,-24(s0)
20015254:	fe442503          	lw	a0,-28(s0)
20015258:	9782                	jalr	a5
2001525a:	fca42e23          	sw	a0,-36(s0)
C:/Users/nandg/Desktop/Athena_Welcome_Demo/sifive_hifive1_revb_sifive_welcome/freedom-metal/src/drivers/sifive_fe310-g000_hfxosc.c:26

    if ((cfg & CONFIG_ENABLE) == 0)
2001525e:	fdc42703          	lw	a4,-36(s0)
20015262:	400007b7          	lui	a5,0x40000
20015266:	8ff9                	and	a5,a5,a4
20015268:	e399                	bnez	a5,2001526e <__metal_driver_sifive_fe310_g000_hfxosc_get_rate_hz+0x54>
C:/Users/nandg/Desktop/Athena_Welcome_Demo/sifive_hifive1_revb_sifive_welcome/freedom-metal/src/drivers/sifive_fe310-g000_hfxosc.c:27
        return -1;
2001526a:	57fd                	li	a5,-1
2001526c:	a821                	j	20015284 <__metal_driver_sifive_fe310_g000_hfxosc_get_rate_hz+0x6a>
C:/Users/nandg/Desktop/Athena_Welcome_Demo/sifive_hifive1_revb_sifive_welcome/freedom-metal/src/drivers/sifive_fe310-g000_hfxosc.c:28
    if ((cfg & CONFIG_READY) == 0)
2001526e:	fdc42783          	lw	a5,-36(s0)
20015272:	0007c463          	bltz	a5,2001527a <__metal_driver_sifive_fe310_g000_hfxosc_get_rate_hz+0x60>
C:/Users/nandg/Desktop/Athena_Welcome_Demo/sifive_hifive1_revb_sifive_welcome/freedom-metal/src/drivers/sifive_fe310-g000_hfxosc.c:29
        return -1;
20015276:	57fd                	li	a5,-1
20015278:	a031                	j	20015284 <__metal_driver_sifive_fe310_g000_hfxosc_get_rate_hz+0x6a>
C:/Users/nandg/Desktop/Athena_Welcome_Demo/sifive_hifive1_revb_sifive_welcome/freedom-metal/src/drivers/sifive_fe310-g000_hfxosc.c:30
    return metal_clock_get_rate_hz(ref);
2001527a:	fec42503          	lw	a0,-20(s0)
2001527e:	3fd010ef          	jal	ra,20016e7a <metal_clock_get_rate_hz>
20015282:	87aa                	mv	a5,a0
C:/Users/nandg/Desktop/Athena_Welcome_Demo/sifive_hifive1_revb_sifive_welcome/freedom-metal/src/drivers/sifive_fe310-g000_hfxosc.c:31
}
20015284:	853e                	mv	a0,a5
20015286:	50f2                	lw	ra,60(sp)
20015288:	5462                	lw	s0,56(sp)
2001528a:	6121                	addi	sp,sp,64
2001528c:	8082                	ret

2001528e <__metal_driver_sifive_fe310_g000_hfxosc_set_rate_hz>:
__metal_driver_sifive_fe310_g000_hfxosc_set_rate_hz():
C:/Users/nandg/Desktop/Athena_Welcome_Demo/sifive_hifive1_revb_sifive_welcome/freedom-metal/src/drivers/sifive_fe310-g000_hfxosc.c:34

long __metal_driver_sifive_fe310_g000_hfxosc_set_rate_hz(
    struct metal_clock *clock, long rate) {
2001528e:	1101                	addi	sp,sp,-32
20015290:	ce06                	sw	ra,28(sp)
20015292:	cc22                	sw	s0,24(sp)
20015294:	1000                	addi	s0,sp,32
20015296:	fea42623          	sw	a0,-20(s0)
2001529a:	feb42423          	sw	a1,-24(s0)
C:/Users/nandg/Desktop/Athena_Welcome_Demo/sifive_hifive1_revb_sifive_welcome/freedom-metal/src/drivers/sifive_fe310-g000_hfxosc.c:35
    return __metal_driver_sifive_fe310_g000_hfxosc_get_rate_hz(clock);
2001529e:	fec42503          	lw	a0,-20(s0)
200152a2:	3fa5                	jal	2001521a <__metal_driver_sifive_fe310_g000_hfxosc_get_rate_hz>
200152a4:	87aa                	mv	a5,a0
C:/Users/nandg/Desktop/Athena_Welcome_Demo/sifive_hifive1_revb_sifive_welcome/freedom-metal/src/drivers/sifive_fe310-g000_hfxosc.c:36
}
200152a6:	853e                	mv	a0,a5
200152a8:	40f2                	lw	ra,28(sp)
200152aa:	4462                	lw	s0,24(sp)
200152ac:	6105                	addi	sp,sp,32
200152ae:	8082                	ret

200152b0 <__metal_driver_sifive_fe310_g000_pll_pllsel0>:
__metal_driver_sifive_fe310_g000_pll_pllsel0():
C:\Users\nandg\Desktop\Athena_Welcome_Demo\sifive_hifive1_revb_sifive_welcome\bsp\build\debug/./metal/machine.h:1326
{
200152b0:	1101                	addi	sp,sp,-32
200152b2:	ce22                	sw	s0,28(sp)
200152b4:	1000                	addi	s0,sp,32
200152b6:	fea42623          	sw	a0,-20(s0)
C:\Users\nandg\Desktop\Athena_Welcome_Demo\sifive_hifive1_revb_sifive_welcome\bsp\build\debug/./metal/machine.h:1327
		return (struct metal_clock *)&__metal_dt_clock_3.clock;
200152ba:	800017b7          	lui	a5,0x80001
200152be:	a8878793          	addi	a5,a5,-1400 # 80000a88 <metal_segment_heap_target_end+0xfffff2e8>
C:\Users\nandg\Desktop\Athena_Welcome_Demo\sifive_hifive1_revb_sifive_welcome\bsp\build\debug/./metal/machine.h:1328
}
200152c2:	853e                	mv	a0,a5
200152c4:	4472                	lw	s0,28(sp)
200152c6:	6105                	addi	sp,sp,32
200152c8:	8082                	ret

200152ca <__metal_driver_sifive_fe310_g000_pll_pllref>:
__metal_driver_sifive_fe310_g000_pll_pllref():
C:\Users\nandg\Desktop\Athena_Welcome_Demo\sifive_hifive1_revb_sifive_welcome\bsp\build\debug/./metal/machine.h:1331
{
200152ca:	1101                	addi	sp,sp,-32
200152cc:	ce22                	sw	s0,28(sp)
200152ce:	1000                	addi	s0,sp,32
200152d0:	fea42623          	sw	a0,-20(s0)
C:\Users\nandg\Desktop\Athena_Welcome_Demo\sifive_hifive1_revb_sifive_welcome\bsp\build\debug/./metal/machine.h:1332
		return (struct metal_clock *)&__metal_dt_clock_1.clock;
200152d4:	800017b7          	lui	a5,0x80001
200152d8:	a9478793          	addi	a5,a5,-1388 # 80000a94 <metal_segment_heap_target_end+0xfffff2f4>
C:\Users\nandg\Desktop\Athena_Welcome_Demo\sifive_hifive1_revb_sifive_welcome\bsp\build\debug/./metal/machine.h:1333
}
200152dc:	853e                	mv	a0,a5
200152de:	4472                	lw	s0,28(sp)
200152e0:	6105                	addi	sp,sp,32
200152e2:	8082                	ret

200152e4 <__metal_driver_sifive_fe310_g000_pll_divider_base>:
__metal_driver_sifive_fe310_g000_pll_divider_base():
C:\Users\nandg\Desktop\Athena_Welcome_Demo\sifive_hifive1_revb_sifive_welcome\bsp\build\debug/./metal/machine.h:1336
{
200152e4:	1101                	addi	sp,sp,-32
200152e6:	ce22                	sw	s0,28(sp)
200152e8:	1000                	addi	s0,sp,32
200152ea:	fea42623          	sw	a0,-20(s0)
C:\Users\nandg\Desktop\Athena_Welcome_Demo\sifive_hifive1_revb_sifive_welcome\bsp\build\debug/./metal/machine.h:1337
		return (struct __metal_driver_sifive_fe310_g000_prci *)&__metal_dt_prci_10008000;
200152ee:	82818793          	addi	a5,gp,-2008 # 80000ad8 <__metal_dt_prci_10008000>
C:\Users\nandg\Desktop\Athena_Welcome_Demo\sifive_hifive1_revb_sifive_welcome\bsp\build\debug/./metal/machine.h:1338
}
200152f2:	853e                	mv	a0,a5
200152f4:	4472                	lw	s0,28(sp)
200152f6:	6105                	addi	sp,sp,32
200152f8:	8082                	ret

200152fa <__metal_driver_sifive_fe310_g000_pll_divider_offset>:
__metal_driver_sifive_fe310_g000_pll_divider_offset():
C:\Users\nandg\Desktop\Athena_Welcome_Demo\sifive_hifive1_revb_sifive_welcome\bsp\build\debug/./metal/machine.h:1341
{
200152fa:	1101                	addi	sp,sp,-32
200152fc:	ce22                	sw	s0,28(sp)
200152fe:	1000                	addi	s0,sp,32
20015300:	fea42623          	sw	a0,-20(s0)
C:\Users\nandg\Desktop\Athena_Welcome_Demo\sifive_hifive1_revb_sifive_welcome\bsp\build\debug/./metal/machine.h:1342
		return METAL_SIFIVE_FE310_G000_PRCI_PLLOUTDIV;
20015304:	47b1                	li	a5,12
C:\Users\nandg\Desktop\Athena_Welcome_Demo\sifive_hifive1_revb_sifive_welcome\bsp\build\debug/./metal/machine.h:1343
}
20015306:	853e                	mv	a0,a5
20015308:	4472                	lw	s0,28(sp)
2001530a:	6105                	addi	sp,sp,32
2001530c:	8082                	ret

2001530e <__metal_driver_sifive_fe310_g000_pll_config_base>:
__metal_driver_sifive_fe310_g000_pll_config_base():
C:\Users\nandg\Desktop\Athena_Welcome_Demo\sifive_hifive1_revb_sifive_welcome\bsp\build\debug/./metal/machine.h:1346
{
2001530e:	1141                	addi	sp,sp,-16
20015310:	c622                	sw	s0,12(sp)
20015312:	0800                	addi	s0,sp,16
C:\Users\nandg\Desktop\Athena_Welcome_Demo\sifive_hifive1_revb_sifive_welcome\bsp\build\debug/./metal/machine.h:1347
		return (struct __metal_driver_sifive_fe310_g000_prci *)&__metal_dt_prci_10008000;
20015314:	82818793          	addi	a5,gp,-2008 # 80000ad8 <__metal_dt_prci_10008000>
C:\Users\nandg\Desktop\Athena_Welcome_Demo\sifive_hifive1_revb_sifive_welcome\bsp\build\debug/./metal/machine.h:1348
}
20015318:	853e                	mv	a0,a5
2001531a:	4432                	lw	s0,12(sp)
2001531c:	0141                	addi	sp,sp,16
2001531e:	8082                	ret

20015320 <__metal_driver_sifive_fe310_g000_pll_config_offset>:
__metal_driver_sifive_fe310_g000_pll_config_offset():
C:\Users\nandg\Desktop\Athena_Welcome_Demo\sifive_hifive1_revb_sifive_welcome\bsp\build\debug/./metal/machine.h:1351
{
20015320:	1141                	addi	sp,sp,-16
20015322:	c622                	sw	s0,12(sp)
20015324:	0800                	addi	s0,sp,16
C:\Users\nandg\Desktop\Athena_Welcome_Demo\sifive_hifive1_revb_sifive_welcome\bsp\build\debug/./metal/machine.h:1352
		return METAL_SIFIVE_FE310_G000_PRCI_PLLCFG;
20015326:	47a1                	li	a5,8
C:\Users\nandg\Desktop\Athena_Welcome_Demo\sifive_hifive1_revb_sifive_welcome\bsp\build\debug/./metal/machine.h:1353
}
20015328:	853e                	mv	a0,a5
2001532a:	4432                	lw	s0,12(sp)
2001532c:	0141                	addi	sp,sp,16
2001532e:	8082                	ret

20015330 <__metal_driver_sifive_fe310_g000_pll_init_rate>:
__metal_driver_sifive_fe310_g000_pll_init_rate():
C:\Users\nandg\Desktop\Athena_Welcome_Demo\sifive_hifive1_revb_sifive_welcome\bsp\build\debug/./metal/machine.h:1356
{
20015330:	1141                	addi	sp,sp,-16
20015332:	c622                	sw	s0,12(sp)
20015334:	0800                	addi	s0,sp,16
C:\Users\nandg\Desktop\Athena_Welcome_Demo\sifive_hifive1_revb_sifive_welcome\bsp\build\debug/./metal/machine.h:1357
		return 16000000;
20015336:	00f427b7          	lui	a5,0xf42
2001533a:	40078793          	addi	a5,a5,1024 # f42400 <__heap_size+0xf41c00>
C:\Users\nandg\Desktop\Athena_Welcome_Demo\sifive_hifive1_revb_sifive_welcome\bsp\build\debug/./metal/machine.h:1358
}
2001533e:	853e                	mv	a0,a5
20015340:	4432                	lw	s0,12(sp)
20015342:	0141                	addi	sp,sp,16
20015344:	8082                	ret

20015346 <__metal_driver_sifive_fe310_g000_prci_base>:
__metal_driver_sifive_fe310_g000_prci_base():
C:\Users\nandg\Desktop\Athena_Welcome_Demo\sifive_hifive1_revb_sifive_welcome\bsp\build\debug/./metal/machine.h:1364
{
20015346:	1141                	addi	sp,sp,-16
20015348:	c622                	sw	s0,12(sp)
2001534a:	0800                	addi	s0,sp,16
C:\Users\nandg\Desktop\Athena_Welcome_Demo\sifive_hifive1_revb_sifive_welcome\bsp\build\debug/./metal/machine.h:1365
		return METAL_SIFIVE_FE310_G000_PRCI_10008000_BASE_ADDRESS;
2001534c:	100087b7          	lui	a5,0x10008
C:\Users\nandg\Desktop\Athena_Welcome_Demo\sifive_hifive1_revb_sifive_welcome\bsp\build\debug/./metal/machine.h:1366
}
20015350:	853e                	mv	a0,a5
20015352:	4432                	lw	s0,12(sp)
20015354:	0141                	addi	sp,sp,16
20015356:	8082                	ret

20015358 <__metal_driver_sifive_fe310_g000_prci_vtable>:
__metal_driver_sifive_fe310_g000_prci_vtable():
C:\Users\nandg\Desktop\Athena_Welcome_Demo\sifive_hifive1_revb_sifive_welcome\bsp\build\debug/./metal/machine.h:1374
{
20015358:	1141                	addi	sp,sp,-16
2001535a:	c622                	sw	s0,12(sp)
2001535c:	0800                	addi	s0,sp,16
C:\Users\nandg\Desktop\Athena_Welcome_Demo\sifive_hifive1_revb_sifive_welcome\bsp\build\debug/./metal/machine.h:1375
		return &__metal_driver_vtable_sifive_fe310_g000_prci;
2001535e:	200117b7          	lui	a5,0x20011
20015362:	3c478793          	addi	a5,a5,964 # 200113c4 <__metal_driver_vtable_sifive_fe310_g000_prci>
C:\Users\nandg\Desktop\Athena_Welcome_Demo\sifive_hifive1_revb_sifive_welcome\bsp\build\debug/./metal/machine.h:1376
}
20015366:	853e                	mv	a0,a5
20015368:	4432                	lw	s0,12(sp)
2001536a:	0141                	addi	sp,sp,16
2001536c:	8082                	ret

2001536e <get_pll_config_freq>:
get_pll_config_freq():
C:/Users/nandg/Desktop/Athena_Welcome_Demo/sifive_hifive1_revb_sifive_welcome/freedom-metal/src/drivers/sifive_fe310-g000_pll.c:141
                                const struct pll_config_t *config) {
2001536e:	1101                	addi	sp,sp,-32
20015370:	ce22                	sw	s0,28(sp)
20015372:	1000                	addi	s0,sp,32
20015374:	fea42623          	sw	a0,-20(s0)
20015378:	feb42423          	sw	a1,-24(s0)
C:/Users/nandg/Desktop/Athena_Welcome_Demo/sifive_hifive1_revb_sifive_welcome/freedom-metal/src/drivers/sifive_fe310-g000_pll.c:142
    if (pll_input_rate < config->min_input_rate ||
2001537c:	fe842783          	lw	a5,-24(s0)
20015380:	479c                	lw	a5,8(a5)
20015382:	fec42703          	lw	a4,-20(s0)
20015386:	00f76963          	bltu	a4,a5,20015398 <get_pll_config_freq+0x2a>
C:/Users/nandg/Desktop/Athena_Welcome_Demo/sifive_hifive1_revb_sifive_welcome/freedom-metal/src/drivers/sifive_fe310-g000_pll.c:143 (discriminator 1)
        pll_input_rate > config->max_input_rate)
2001538a:	fe842783          	lw	a5,-24(s0)
2001538e:	47dc                	lw	a5,12(a5)
C:/Users/nandg/Desktop/Athena_Welcome_Demo/sifive_hifive1_revb_sifive_welcome/freedom-metal/src/drivers/sifive_fe310-g000_pll.c:142 (discriminator 1)
    if (pll_input_rate < config->min_input_rate ||
20015390:	fec42703          	lw	a4,-20(s0)
20015394:	00e7f463          	bgeu	a5,a4,2001539c <get_pll_config_freq+0x2e>
C:/Users/nandg/Desktop/Athena_Welcome_Demo/sifive_hifive1_revb_sifive_welcome/freedom-metal/src/drivers/sifive_fe310-g000_pll.c:144
        return PLL_CONFIG_NOT_VALID;
20015398:	57fd                	li	a5,-1
2001539a:	a829                	j	200153b4 <get_pll_config_freq+0x46>
C:/Users/nandg/Desktop/Athena_Welcome_Demo/sifive_hifive1_revb_sifive_welcome/freedom-metal/src/drivers/sifive_fe310-g000_pll.c:146
    return pll_input_rate * config->multiplier / config->divisor;
2001539c:	fe842783          	lw	a5,-24(s0)
200153a0:	4398                	lw	a4,0(a5)
200153a2:	fec42783          	lw	a5,-20(s0)
200153a6:	02f70733          	mul	a4,a4,a5
200153aa:	fe842783          	lw	a5,-24(s0)
200153ae:	43dc                	lw	a5,4(a5)
200153b0:	02f757b3          	divu	a5,a4,a5
C:/Users/nandg/Desktop/Athena_Welcome_Demo/sifive_hifive1_revb_sifive_welcome/freedom-metal/src/drivers/sifive_fe310-g000_pll.c:147
}
200153b4:	853e                	mv	a0,a5
200153b6:	4472                	lw	s0,28(sp)
200153b8:	6105                	addi	sp,sp,32
200153ba:	8082                	ret

200153bc <__metal_driver_sifive_fe310_g000_pll_init>:
__metal_driver_sifive_fe310_g000_pll_init():
C:/Users/nandg/Desktop/Athena_Welcome_Demo/sifive_hifive1_revb_sifive_welcome/freedom-metal/src/drivers/sifive_fe310-g000_pll.c:162
    struct __metal_driver_sifive_fe310_g000_pll *pll) {
200153bc:	7139                	addi	sp,sp,-64
200153be:	de06                	sw	ra,60(sp)
200153c0:	dc22                	sw	s0,56(sp)
200153c2:	0080                	addi	s0,sp,64
200153c4:	fca42623          	sw	a0,-52(s0)
C:/Users/nandg/Desktop/Athena_Welcome_Demo/sifive_hifive1_revb_sifive_welcome/freedom-metal/src/drivers/sifive_fe310-g000_pll.c:164
        __metal_driver_sifive_fe310_g000_pll_pllref(&(pll->clock));
200153c8:	fcc42783          	lw	a5,-52(s0)
200153cc:	853e                	mv	a0,a5
200153ce:	3df5                	jal	200152ca <__metal_driver_sifive_fe310_g000_pll_pllref>
200153d0:	fea42623          	sw	a0,-20(s0)
C:/Users/nandg/Desktop/Athena_Welcome_Demo/sifive_hifive1_revb_sifive_welcome/freedom-metal/src/drivers/sifive_fe310-g000_pll.c:165
    long init_rate = __metal_driver_sifive_fe310_g000_pll_init_rate();
200153d4:	3fb1                	jal	20015330 <__metal_driver_sifive_fe310_g000_pll_init_rate>
200153d6:	fea42423          	sw	a0,-24(s0)
C:/Users/nandg/Desktop/Athena_Welcome_Demo/sifive_hifive1_revb_sifive_welcome/freedom-metal/src/drivers/sifive_fe310-g000_pll.c:166
    long config_offset = __metal_driver_sifive_fe310_g000_pll_config_offset();
200153da:	3799                	jal	20015320 <__metal_driver_sifive_fe310_g000_pll_config_offset>
200153dc:	fea42223          	sw	a0,-28(s0)
C:/Users/nandg/Desktop/Athena_Welcome_Demo/sifive_hifive1_revb_sifive_welcome/freedom-metal/src/drivers/sifive_fe310-g000_pll.c:167
    long base = __metal_driver_sifive_fe310_g000_prci_base();
200153e0:	379d                	jal	20015346 <__metal_driver_sifive_fe310_g000_prci_base>
200153e2:	fea42023          	sw	a0,-32(s0)
C:/Users/nandg/Desktop/Athena_Welcome_Demo/sifive_hifive1_revb_sifive_welcome/freedom-metal/src/drivers/sifive_fe310-g000_pll.c:169
    __metal_io_u32 *pllcfg = (__metal_io_u32 *)(base + config_offset);
200153e6:	fe042703          	lw	a4,-32(s0)
200153ea:	fe442783          	lw	a5,-28(s0)
200153ee:	97ba                	add	a5,a5,a4
200153f0:	fcf42e23          	sw	a5,-36(s0)
C:/Users/nandg/Desktop/Athena_Welcome_Demo/sifive_hifive1_revb_sifive_welcome/freedom-metal/src/drivers/sifive_fe310-g000_pll.c:173
    _metal_clock_call_all_callbacks(pll->clock._pre_rate_change_callback);
200153f4:	fcc42783          	lw	a5,-52(s0)
200153f8:	43dc                	lw	a5,4(a5)
200153fa:	853e                	mv	a0,a5
200153fc:	1e9010ef          	jal	ra,20016de4 <_metal_clock_call_all_callbacks>
C:/Users/nandg/Desktop/Athena_Welcome_Demo/sifive_hifive1_revb_sifive_welcome/freedom-metal/src/drivers/sifive_fe310-g000_pll.c:177
    if ((__METAL_ACCESS_ONCE(pllcfg) & PLL_SEL) != 0)
20015400:	fdc42783          	lw	a5,-36(s0)
20015404:	4398                	lw	a4,0(a5)
20015406:	67c1                	lui	a5,0x10
20015408:	8ff9                	and	a5,a5,a4
2001540a:	cb91                	beqz	a5,2001541e <__metal_driver_sifive_fe310_g000_pll_init+0x62>
C:/Users/nandg/Desktop/Athena_Welcome_Demo/sifive_hifive1_revb_sifive_welcome/freedom-metal/src/drivers/sifive_fe310-g000_pll.c:178
        __METAL_ACCESS_ONCE(pllcfg) &= ~(PLL_SEL);
2001540c:	fdc42783          	lw	a5,-36(s0)
20015410:	4398                	lw	a4,0(a5)
20015412:	77c1                	lui	a5,0xffff0
20015414:	17fd                	addi	a5,a5,-1
20015416:	8f7d                	and	a4,a4,a5
20015418:	fdc42783          	lw	a5,-36(s0)
2001541c:	c398                	sw	a4,0(a5)
C:/Users/nandg/Desktop/Athena_Welcome_Demo/sifive_hifive1_revb_sifive_welcome/freedom-metal/src/drivers/sifive_fe310-g000_pll.c:181
    if (pllref != NULL)
2001541e:	fec42783          	lw	a5,-20(s0)
20015422:	cb91                	beqz	a5,20015436 <__metal_driver_sifive_fe310_g000_pll_init+0x7a>
C:/Users/nandg/Desktop/Athena_Welcome_Demo/sifive_hifive1_revb_sifive_welcome/freedom-metal/src/drivers/sifive_fe310-g000_pll.c:182
        __METAL_ACCESS_ONCE(pllcfg) |= PLL_REFSEL;
20015424:	fdc42783          	lw	a5,-36(s0)
20015428:	4398                	lw	a4,0(a5)
2001542a:	000207b7          	lui	a5,0x20
2001542e:	8f5d                	or	a4,a4,a5
20015430:	fdc42783          	lw	a5,-36(s0)
20015434:	c398                	sw	a4,0(a5)
C:/Users/nandg/Desktop/Athena_Welcome_Demo/sifive_hifive1_revb_sifive_welcome/freedom-metal/src/drivers/sifive_fe310-g000_pll.c:187
    pll->clock.vtable->set_rate_hz(&(pll->clock), init_rate);
20015436:	fcc42783          	lw	a5,-52(s0)
2001543a:	439c                	lw	a5,0(a5)
2001543c:	43d8                	lw	a4,4(a5)
2001543e:	fcc42783          	lw	a5,-52(s0)
20015442:	fe842583          	lw	a1,-24(s0)
20015446:	853e                	mv	a0,a5
20015448:	9702                	jalr	a4
C:/Users/nandg/Desktop/Athena_Welcome_Demo/sifive_hifive1_revb_sifive_welcome/freedom-metal/src/drivers/sifive_fe310-g000_pll.c:190
    _metal_clock_call_all_callbacks(pll->clock._post_rate_change_callback);
2001544a:	fcc42783          	lw	a5,-52(s0)
2001544e:	479c                	lw	a5,8(a5)
20015450:	853e                	mv	a0,a5
20015452:	193010ef          	jal	ra,20016de4 <_metal_clock_call_all_callbacks>
C:/Users/nandg/Desktop/Athena_Welcome_Demo/sifive_hifive1_revb_sifive_welcome/freedom-metal/src/drivers/sifive_fe310-g000_pll.c:191
}
20015456:	0001                	nop
20015458:	50f2                	lw	ra,60(sp)
2001545a:	5462                	lw	s0,56(sp)
2001545c:	6121                	addi	sp,sp,64
2001545e:	8082                	ret

20015460 <__metal_driver_sifive_fe310_g000_pll_get_rate_hz>:
__metal_driver_sifive_fe310_g000_pll_get_rate_hz():
C:/Users/nandg/Desktop/Athena_Welcome_Demo/sifive_hifive1_revb_sifive_welcome/freedom-metal/src/drivers/sifive_fe310-g000_pll.c:194
    const struct metal_clock *clock) {
20015460:	711d                	addi	sp,sp,-96
20015462:	ce86                	sw	ra,92(sp)
20015464:	cca2                	sw	s0,88(sp)
20015466:	1080                	addi	s0,sp,96
20015468:	faa42623          	sw	a0,-84(s0)
C:/Users/nandg/Desktop/Athena_Welcome_Demo/sifive_hifive1_revb_sifive_welcome/freedom-metal/src/drivers/sifive_fe310-g000_pll.c:196
        __metal_driver_sifive_fe310_g000_pll_pllref(clock);
2001546c:	fac42503          	lw	a0,-84(s0)
20015470:	e5bff0ef          	jal	ra,200152ca <__metal_driver_sifive_fe310_g000_pll_pllref>
20015474:	fea42623          	sw	a0,-20(s0)
C:/Users/nandg/Desktop/Athena_Welcome_Demo/sifive_hifive1_revb_sifive_welcome/freedom-metal/src/drivers/sifive_fe310-g000_pll.c:198
        __metal_driver_sifive_fe310_g000_pll_pllsel0(clock);
20015478:	fac42503          	lw	a0,-84(s0)
2001547c:	e35ff0ef          	jal	ra,200152b0 <__metal_driver_sifive_fe310_g000_pll_pllsel0>
20015480:	fea42423          	sw	a0,-24(s0)
C:/Users/nandg/Desktop/Athena_Welcome_Demo/sifive_hifive1_revb_sifive_welcome/freedom-metal/src/drivers/sifive_fe310-g000_pll.c:200
        __metal_driver_sifive_fe310_g000_pll_config_offset(clock);
20015484:	fac42503          	lw	a0,-84(s0)
20015488:	e99ff0ef          	jal	ra,20015320 <__metal_driver_sifive_fe310_g000_pll_config_offset>
2001548c:	fea42223          	sw	a0,-28(s0)
C:/Users/nandg/Desktop/Athena_Welcome_Demo/sifive_hifive1_revb_sifive_welcome/freedom-metal/src/drivers/sifive_fe310-g000_pll.c:202
        __metal_driver_sifive_fe310_g000_pll_config_base(clock);
20015490:	fac42503          	lw	a0,-84(s0)
20015494:	e7bff0ef          	jal	ra,2001530e <__metal_driver_sifive_fe310_g000_pll_config_base>
20015498:	fea42023          	sw	a0,-32(s0)
C:/Users/nandg/Desktop/Athena_Welcome_Demo/sifive_hifive1_revb_sifive_welcome/freedom-metal/src/drivers/sifive_fe310-g000_pll.c:204
        __metal_driver_sifive_fe310_g000_pll_divider_offset(clock);
2001549c:	fac42503          	lw	a0,-84(s0)
200154a0:	e5bff0ef          	jal	ra,200152fa <__metal_driver_sifive_fe310_g000_pll_divider_offset>
200154a4:	fca42e23          	sw	a0,-36(s0)
C:/Users/nandg/Desktop/Athena_Welcome_Demo/sifive_hifive1_revb_sifive_welcome/freedom-metal/src/drivers/sifive_fe310-g000_pll.c:206
        __metal_driver_sifive_fe310_g000_pll_divider_base(clock);
200154a8:	fac42503          	lw	a0,-84(s0)
200154ac:	e39ff0ef          	jal	ra,200152e4 <__metal_driver_sifive_fe310_g000_pll_divider_base>
200154b0:	fca42c23          	sw	a0,-40(s0)
C:/Users/nandg/Desktop/Athena_Welcome_Demo/sifive_hifive1_revb_sifive_welcome/freedom-metal/src/drivers/sifive_fe310-g000_pll.c:208
        __metal_driver_sifive_fe310_g000_prci_vtable();
200154b4:	3555                	jal	20015358 <__metal_driver_sifive_fe310_g000_prci_vtable>
200154b6:	fca42a23          	sw	a0,-44(s0)
C:/Users/nandg/Desktop/Athena_Welcome_Demo/sifive_hifive1_revb_sifive_welcome/freedom-metal/src/drivers/sifive_fe310-g000_pll.c:210
    long cfg = vtable->get_reg(config_base, config_offset);
200154ba:	fd442783          	lw	a5,-44(s0)
200154be:	439c                	lw	a5,0(a5)
200154c0:	fe442583          	lw	a1,-28(s0)
200154c4:	fe042503          	lw	a0,-32(s0)
200154c8:	9782                	jalr	a5
200154ca:	fca42823          	sw	a0,-48(s0)
C:/Users/nandg/Desktop/Athena_Welcome_Demo/sifive_hifive1_revb_sifive_welcome/freedom-metal/src/drivers/sifive_fe310-g000_pll.c:211
    long div = vtable->get_reg(divider_base, divider_offset);
200154ce:	fd442783          	lw	a5,-44(s0)
200154d2:	439c                	lw	a5,0(a5)
200154d4:	fdc42583          	lw	a1,-36(s0)
200154d8:	fd842503          	lw	a0,-40(s0)
200154dc:	9782                	jalr	a5
200154de:	fca42623          	sw	a0,-52(s0)
C:/Users/nandg/Desktop/Athena_Welcome_Demo/sifive_hifive1_revb_sifive_welcome/freedom-metal/src/drivers/sifive_fe310-g000_pll.c:215
    if (__METAL_GET_FIELD(cfg, PLL_SEL) == 0)
200154e2:	fd042703          	lw	a4,-48(s0)
200154e6:	67c1                	lui	a5,0x10
200154e8:	8f7d                	and	a4,a4,a5
200154ea:	67c1                	lui	a5,0x10
200154ec:	00f77863          	bgeu	a4,a5,200154fc <__metal_driver_sifive_fe310_g000_pll_get_rate_hz+0x9c>
C:/Users/nandg/Desktop/Athena_Welcome_Demo/sifive_hifive1_revb_sifive_welcome/freedom-metal/src/drivers/sifive_fe310-g000_pll.c:216
        return metal_clock_get_rate_hz(pllsel0);
200154f0:	fe842503          	lw	a0,-24(s0)
200154f4:	187010ef          	jal	ra,20016e7a <metal_clock_get_rate_hz>
200154f8:	87aa                	mv	a5,a0
200154fa:	a8e1                	j	200155d2 <__metal_driver_sifive_fe310_g000_pll_get_rate_hz+0x172>
C:/Users/nandg/Desktop/Athena_Welcome_Demo/sifive_hifive1_revb_sifive_welcome/freedom-metal/src/drivers/sifive_fe310-g000_pll.c:221
        __METAL_GET_FIELD(cfg, PLL_REFSEL) ? pllref : pllsel0);
200154fc:	fd042703          	lw	a4,-48(s0)
20015500:	000207b7          	lui	a5,0x20
20015504:	8f7d                	and	a4,a4,a5
C:/Users/nandg/Desktop/Athena_Welcome_Demo/sifive_hifive1_revb_sifive_welcome/freedom-metal/src/drivers/sifive_fe310-g000_pll.c:220
    long ref_hz = metal_clock_get_rate_hz(
20015506:	000207b7          	lui	a5,0x20
2001550a:	00f76563          	bltu	a4,a5,20015514 <__metal_driver_sifive_fe310_g000_pll_get_rate_hz+0xb4>
C:/Users/nandg/Desktop/Athena_Welcome_Demo/sifive_hifive1_revb_sifive_welcome/freedom-metal/src/drivers/sifive_fe310-g000_pll.c:220 (discriminator 1)
2001550e:	fec42783          	lw	a5,-20(s0)
20015512:	a019                	j	20015518 <__metal_driver_sifive_fe310_g000_pll_get_rate_hz+0xb8>
C:/Users/nandg/Desktop/Athena_Welcome_Demo/sifive_hifive1_revb_sifive_welcome/freedom-metal/src/drivers/sifive_fe310-g000_pll.c:220 (discriminator 2)
20015514:	fe842783          	lw	a5,-24(s0)
C:/Users/nandg/Desktop/Athena_Welcome_Demo/sifive_hifive1_revb_sifive_welcome/freedom-metal/src/drivers/sifive_fe310-g000_pll.c:220 (discriminator 4)
20015518:	853e                	mv	a0,a5
2001551a:	161010ef          	jal	ra,20016e7a <metal_clock_get_rate_hz>
2001551e:	fca42423          	sw	a0,-56(s0)
C:/Users/nandg/Desktop/Athena_Welcome_Demo/sifive_hifive1_revb_sifive_welcome/freedom-metal/src/drivers/sifive_fe310-g000_pll.c:225 (discriminator 4)
    if (__METAL_GET_FIELD(cfg, PLL_BYPASS))
20015522:	fd042703          	lw	a4,-48(s0)
20015526:	000407b7          	lui	a5,0x40
2001552a:	8f7d                	and	a4,a4,a5
2001552c:	000407b7          	lui	a5,0x40
20015530:	00f76563          	bltu	a4,a5,2001553a <__metal_driver_sifive_fe310_g000_pll_get_rate_hz+0xda>
C:/Users/nandg/Desktop/Athena_Welcome_Demo/sifive_hifive1_revb_sifive_welcome/freedom-metal/src/drivers/sifive_fe310-g000_pll.c:226
        return ref_hz;
20015534:	fc842783          	lw	a5,-56(s0)
20015538:	a869                	j	200155d2 <__metal_driver_sifive_fe310_g000_pll_get_rate_hz+0x172>
C:/Users/nandg/Desktop/Athena_Welcome_Demo/sifive_hifive1_revb_sifive_welcome/freedom-metal/src/drivers/sifive_fe310-g000_pll.c:229
    long div_r = __METAL_GET_FIELD(cfg, PLL_R) + 1;
2001553a:	fd042783          	lw	a5,-48(s0)
2001553e:	8b9d                	andi	a5,a5,7
20015540:	0785                	addi	a5,a5,1
20015542:	fcf42223          	sw	a5,-60(s0)
C:/Users/nandg/Desktop/Athena_Welcome_Demo/sifive_hifive1_revb_sifive_welcome/freedom-metal/src/drivers/sifive_fe310-g000_pll.c:230
    long mul_f = 2 * (__METAL_GET_FIELD(cfg, PLL_F) + 1);
20015546:	fd042783          	lw	a5,-48(s0)
2001554a:	3f07f793          	andi	a5,a5,1008
2001554e:	8391                	srli	a5,a5,0x4
20015550:	0785                	addi	a5,a5,1
20015552:	0786                	slli	a5,a5,0x1
20015554:	fcf42023          	sw	a5,-64(s0)
C:/Users/nandg/Desktop/Athena_Welcome_Demo/sifive_hifive1_revb_sifive_welcome/freedom-metal/src/drivers/sifive_fe310-g000_pll.c:231
    if (__METAL_GET_FIELD(cfg, PLL_Q) == 0)
20015558:	fd042703          	lw	a4,-48(s0)
2001555c:	6785                	lui	a5,0x1
2001555e:	c0078793          	addi	a5,a5,-1024 # c00 <__heap_size+0x400>
20015562:	8f7d                	and	a4,a4,a5
20015564:	3ff00793          	li	a5,1023
20015568:	00e7e463          	bltu	a5,a4,20015570 <__metal_driver_sifive_fe310_g000_pll_get_rate_hz+0x110>
C:/Users/nandg/Desktop/Athena_Welcome_Demo/sifive_hifive1_revb_sifive_welcome/freedom-metal/src/drivers/sifive_fe310-g000_pll.c:232
        return -1;
2001556c:	57fd                	li	a5,-1
2001556e:	a095                	j	200155d2 <__metal_driver_sifive_fe310_g000_pll_get_rate_hz+0x172>
C:/Users/nandg/Desktop/Athena_Welcome_Demo/sifive_hifive1_revb_sifive_welcome/freedom-metal/src/drivers/sifive_fe310-g000_pll.c:233
    long div_q = 1 << __METAL_GET_FIELD(cfg, PLL_Q);
20015570:	fd042703          	lw	a4,-48(s0)
20015574:	6785                	lui	a5,0x1
20015576:	c0078793          	addi	a5,a5,-1024 # c00 <__heap_size+0x400>
2001557a:	8ff9                	and	a5,a5,a4
2001557c:	83a9                	srli	a5,a5,0xa
2001557e:	4705                	li	a4,1
20015580:	00f717b3          	sll	a5,a4,a5
20015584:	faf42e23          	sw	a5,-68(s0)
C:/Users/nandg/Desktop/Athena_Welcome_Demo/sifive_hifive1_revb_sifive_welcome/freedom-metal/src/drivers/sifive_fe310-g000_pll.c:238
    long pllout = (((ref_hz / div_r) * mul_f) / div_q);
20015588:	fc842703          	lw	a4,-56(s0)
2001558c:	fc442783          	lw	a5,-60(s0)
20015590:	02f74733          	div	a4,a4,a5
20015594:	fc042783          	lw	a5,-64(s0)
20015598:	02f70733          	mul	a4,a4,a5
2001559c:	fbc42783          	lw	a5,-68(s0)
200155a0:	02f747b3          	div	a5,a4,a5
200155a4:	faf42c23          	sw	a5,-72(s0)
C:/Users/nandg/Desktop/Athena_Welcome_Demo/sifive_hifive1_revb_sifive_welcome/freedom-metal/src/drivers/sifive_fe310-g000_pll.c:239
    if (__METAL_GET_FIELD(div, DIV_1))
200155a8:	fcc42783          	lw	a5,-52(s0)
200155ac:	1007f713          	andi	a4,a5,256
200155b0:	0ff00793          	li	a5,255
200155b4:	00e7f563          	bgeu	a5,a4,200155be <__metal_driver_sifive_fe310_g000_pll_get_rate_hz+0x15e>
C:/Users/nandg/Desktop/Athena_Welcome_Demo/sifive_hifive1_revb_sifive_welcome/freedom-metal/src/drivers/sifive_fe310-g000_pll.c:240
        return pllout;
200155b8:	fb842783          	lw	a5,-72(s0)
200155bc:	a819                	j	200155d2 <__metal_driver_sifive_fe310_g000_pll_get_rate_hz+0x172>
C:/Users/nandg/Desktop/Athena_Welcome_Demo/sifive_hifive1_revb_sifive_welcome/freedom-metal/src/drivers/sifive_fe310-g000_pll.c:242
    return pllout / (2 * (__METAL_GET_FIELD(div, DIV_DIV) + 1));
200155be:	fb842703          	lw	a4,-72(s0)
200155c2:	fcc42783          	lw	a5,-52(s0)
200155c6:	03f7f793          	andi	a5,a5,63
200155ca:	0785                	addi	a5,a5,1
200155cc:	0786                	slli	a5,a5,0x1
200155ce:	02f757b3          	divu	a5,a4,a5
C:/Users/nandg/Desktop/Athena_Welcome_Demo/sifive_hifive1_revb_sifive_welcome/freedom-metal/src/drivers/sifive_fe310-g000_pll.c:243
}
200155d2:	853e                	mv	a0,a5
200155d4:	40f6                	lw	ra,92(sp)
200155d6:	4466                	lw	s0,88(sp)
200155d8:	6125                	addi	sp,sp,96
200155da:	8082                	ret

200155dc <find_closest_config>:
find_closest_config():
C:/Users/nandg/Desktop/Athena_Welcome_Demo/sifive_hifive1_revb_sifive_welcome/freedom-metal/src/drivers/sifive_fe310-g000_pll.c:253
static int find_closest_config(long ref_hz, long rate) {
200155dc:	7139                	addi	sp,sp,-64
200155de:	de06                	sw	ra,60(sp)
200155e0:	dc22                	sw	s0,56(sp)
200155e2:	0080                	addi	s0,sp,64
200155e4:	fca42623          	sw	a0,-52(s0)
200155e8:	fcb42423          	sw	a1,-56(s0)
C:/Users/nandg/Desktop/Athena_Welcome_Demo/sifive_hifive1_revb_sifive_welcome/freedom-metal/src/drivers/sifive_fe310-g000_pll.c:254
    int closest_index = -1;
200155ec:	57fd                	li	a5,-1
200155ee:	fef42623          	sw	a5,-20(s0)
C:/Users/nandg/Desktop/Athena_Welcome_Demo/sifive_hifive1_revb_sifive_welcome/freedom-metal/src/drivers/sifive_fe310-g000_pll.c:255
    long closest_diff = LONG_MAX;
200155f2:	800007b7          	lui	a5,0x80000
200155f6:	fff7c793          	not	a5,a5
200155fa:	fef42423          	sw	a5,-24(s0)
C:/Users/nandg/Desktop/Athena_Welcome_Demo/sifive_hifive1_revb_sifive_welcome/freedom-metal/src/drivers/sifive_fe310-g000_pll.c:259
    for (int i = (sizeof(pll_configs) / sizeof(pll_configs[0])) - 1; i >= 0;
200155fe:	04300793          	li	a5,67
20015602:	fef42223          	sw	a5,-28(s0)
20015606:	a0b5                	j	20015672 <find_closest_config+0x96>
C:/Users/nandg/Desktop/Athena_Welcome_Demo/sifive_hifive1_revb_sifive_welcome/freedom-metal/src/drivers/sifive_fe310-g000_pll.c:261
        long config_freq = get_pll_config_freq(ref_hz, &(pll_configs[i]));
20015608:	fcc42683          	lw	a3,-52(s0)
2001560c:	fe442783          	lw	a5,-28(s0)
20015610:	00579713          	slli	a4,a5,0x5
20015614:	200117b7          	lui	a5,0x20011
20015618:	a2078793          	addi	a5,a5,-1504 # 20010a20 <pll_configs>
2001561c:	97ba                	add	a5,a5,a4
2001561e:	85be                	mv	a1,a5
20015620:	8536                	mv	a0,a3
20015622:	d4dff0ef          	jal	ra,2001536e <get_pll_config_freq>
20015626:	fea42023          	sw	a0,-32(s0)
C:/Users/nandg/Desktop/Athena_Welcome_Demo/sifive_hifive1_revb_sifive_welcome/freedom-metal/src/drivers/sifive_fe310-g000_pll.c:262
        if (config_freq != PLL_CONFIG_NOT_VALID) {
2001562a:	fe042703          	lw	a4,-32(s0)
2001562e:	57fd                	li	a5,-1
20015630:	02f70c63          	beq	a4,a5,20015668 <find_closest_config+0x8c>
C:/Users/nandg/Desktop/Athena_Welcome_Demo/sifive_hifive1_revb_sifive_welcome/freedom-metal/src/drivers/sifive_fe310-g000_pll.c:263
            long freq_diff = labs(config_freq - rate);
20015634:	fe042703          	lw	a4,-32(s0)
20015638:	fc842783          	lw	a5,-56(s0)
2001563c:	8f1d                	sub	a4,a4,a5
2001563e:	41f75793          	srai	a5,a4,0x1f
20015642:	8f3d                	xor	a4,a4,a5
20015644:	40f707b3          	sub	a5,a4,a5
20015648:	fcf42e23          	sw	a5,-36(s0)
C:/Users/nandg/Desktop/Athena_Welcome_Demo/sifive_hifive1_revb_sifive_welcome/freedom-metal/src/drivers/sifive_fe310-g000_pll.c:265
            if (freq_diff < closest_diff) {
2001564c:	fdc42703          	lw	a4,-36(s0)
20015650:	fe842783          	lw	a5,-24(s0)
20015654:	00f75a63          	bge	a4,a5,20015668 <find_closest_config+0x8c>
C:/Users/nandg/Desktop/Athena_Welcome_Demo/sifive_hifive1_revb_sifive_welcome/freedom-metal/src/drivers/sifive_fe310-g000_pll.c:266
                closest_index = i;
20015658:	fe442783          	lw	a5,-28(s0)
2001565c:	fef42623          	sw	a5,-20(s0)
C:/Users/nandg/Desktop/Athena_Welcome_Demo/sifive_hifive1_revb_sifive_welcome/freedom-metal/src/drivers/sifive_fe310-g000_pll.c:267
                closest_diff = freq_diff;
20015660:	fdc42783          	lw	a5,-36(s0)
20015664:	fef42423          	sw	a5,-24(s0)
C:/Users/nandg/Desktop/Athena_Welcome_Demo/sifive_hifive1_revb_sifive_welcome/freedom-metal/src/drivers/sifive_fe310-g000_pll.c:260
         i--) {
20015668:	fe442783          	lw	a5,-28(s0)
2001566c:	17fd                	addi	a5,a5,-1
2001566e:	fef42223          	sw	a5,-28(s0)
C:/Users/nandg/Desktop/Athena_Welcome_Demo/sifive_hifive1_revb_sifive_welcome/freedom-metal/src/drivers/sifive_fe310-g000_pll.c:259 (discriminator 1)
    for (int i = (sizeof(pll_configs) / sizeof(pll_configs[0])) - 1; i >= 0;
20015672:	fe442783          	lw	a5,-28(s0)
20015676:	f807d9e3          	bgez	a5,20015608 <find_closest_config+0x2c>
C:/Users/nandg/Desktop/Athena_Welcome_Demo/sifive_hifive1_revb_sifive_welcome/freedom-metal/src/drivers/sifive_fe310-g000_pll.c:272
    return closest_index;
2001567a:	fec42783          	lw	a5,-20(s0)
C:/Users/nandg/Desktop/Athena_Welcome_Demo/sifive_hifive1_revb_sifive_welcome/freedom-metal/src/drivers/sifive_fe310-g000_pll.c:273
}
2001567e:	853e                	mv	a0,a5
20015680:	50f2                	lw	ra,60(sp)
20015682:	5462                	lw	s0,56(sp)
20015684:	6121                	addi	sp,sp,64
20015686:	8082                	ret

20015688 <configure_pll>:
configure_pll():
C:/Users/nandg/Desktop/Athena_Welcome_Demo/sifive_hifive1_revb_sifive_welcome/freedom-metal/src/drivers/sifive_fe310-g000_pll.c:290
                          const struct pll_config_t *config) {
20015688:	7179                	addi	sp,sp,-48
2001568a:	d606                	sw	ra,44(sp)
2001568c:	d422                	sw	s0,40(sp)
2001568e:	1800                	addi	s0,sp,48
20015690:	fca42e23          	sw	a0,-36(s0)
20015694:	fcb42c23          	sw	a1,-40(s0)
20015698:	fcc42a23          	sw	a2,-44(s0)
C:/Users/nandg/Desktop/Athena_Welcome_Demo/sifive_hifive1_revb_sifive_welcome/freedom-metal/src/drivers/sifive_fe310-g000_pll.c:291
    __METAL_ACCESS_ONCE(pllcfg) &= ~(PLL_R);
2001569c:	fdc42783          	lw	a5,-36(s0)
200156a0:	439c                	lw	a5,0(a5)
200156a2:	ff87f713          	andi	a4,a5,-8
200156a6:	fdc42783          	lw	a5,-36(s0)
200156aa:	c398                	sw	a4,0(a5)
C:/Users/nandg/Desktop/Athena_Welcome_Demo/sifive_hifive1_revb_sifive_welcome/freedom-metal/src/drivers/sifive_fe310-g000_pll.c:292
    __METAL_ACCESS_ONCE(pllcfg) |= PLL_R_SHIFT(config->r);
200156ac:	fdc42783          	lw	a5,-36(s0)
200156b0:	4398                	lw	a4,0(a5)
200156b2:	fd442783          	lw	a5,-44(s0)
200156b6:	4b9c                	lw	a5,16(a5)
200156b8:	8b9d                	andi	a5,a5,7
200156ba:	8f5d                	or	a4,a4,a5
200156bc:	fdc42783          	lw	a5,-36(s0)
200156c0:	c398                	sw	a4,0(a5)
C:/Users/nandg/Desktop/Athena_Welcome_Demo/sifive_hifive1_revb_sifive_welcome/freedom-metal/src/drivers/sifive_fe310-g000_pll.c:294
    __METAL_ACCESS_ONCE(pllcfg) &= ~(PLL_F);
200156c2:	fdc42783          	lw	a5,-36(s0)
200156c6:	439c                	lw	a5,0(a5)
200156c8:	c0f7f713          	andi	a4,a5,-1009
200156cc:	fdc42783          	lw	a5,-36(s0)
200156d0:	c398                	sw	a4,0(a5)
C:/Users/nandg/Desktop/Athena_Welcome_Demo/sifive_hifive1_revb_sifive_welcome/freedom-metal/src/drivers/sifive_fe310-g000_pll.c:295
    __METAL_ACCESS_ONCE(pllcfg) |= PLL_F_SHIFT(config->f);
200156d2:	fdc42783          	lw	a5,-36(s0)
200156d6:	4398                	lw	a4,0(a5)
200156d8:	fd442783          	lw	a5,-44(s0)
200156dc:	4bdc                	lw	a5,20(a5)
200156de:	0792                	slli	a5,a5,0x4
200156e0:	3f07f793          	andi	a5,a5,1008
200156e4:	8f5d                	or	a4,a4,a5
200156e6:	fdc42783          	lw	a5,-36(s0)
200156ea:	c398                	sw	a4,0(a5)
C:/Users/nandg/Desktop/Athena_Welcome_Demo/sifive_hifive1_revb_sifive_welcome/freedom-metal/src/drivers/sifive_fe310-g000_pll.c:297
    __METAL_ACCESS_ONCE(pllcfg) &= ~(PLL_Q);
200156ec:	fdc42783          	lw	a5,-36(s0)
200156f0:	4398                	lw	a4,0(a5)
200156f2:	77fd                	lui	a5,0xfffff
200156f4:	3ff78793          	addi	a5,a5,1023 # fffff3ff <metal_segment_heap_target_end+0x7fffdc5f>
200156f8:	8f7d                	and	a4,a4,a5
200156fa:	fdc42783          	lw	a5,-36(s0)
200156fe:	c398                	sw	a4,0(a5)
C:/Users/nandg/Desktop/Athena_Welcome_Demo/sifive_hifive1_revb_sifive_welcome/freedom-metal/src/drivers/sifive_fe310-g000_pll.c:298
    __METAL_ACCESS_ONCE(pllcfg) |= PLL_Q_SHIFT(config->q);
20015700:	fdc42783          	lw	a5,-36(s0)
20015704:	4398                	lw	a4,0(a5)
20015706:	fd442783          	lw	a5,-44(s0)
2001570a:	4f9c                	lw	a5,24(a5)
2001570c:	00a79693          	slli	a3,a5,0xa
20015710:	6785                	lui	a5,0x1
20015712:	c0078793          	addi	a5,a5,-1024 # c00 <__heap_size+0x400>
20015716:	8ff5                	and	a5,a5,a3
20015718:	8f5d                	or	a4,a4,a5
2001571a:	fdc42783          	lw	a5,-36(s0)
2001571e:	c398                	sw	a4,0(a5)
C:/Users/nandg/Desktop/Athena_Welcome_Demo/sifive_hifive1_revb_sifive_welcome/freedom-metal/src/drivers/sifive_fe310-g000_pll.c:300
    if (config->d < 0) {
20015720:	fd442783          	lw	a5,-44(s0)
20015724:	4fdc                	lw	a5,28(a5)
20015726:	0207db63          	bgez	a5,2001575c <configure_pll+0xd4>
C:/Users/nandg/Desktop/Athena_Welcome_Demo/sifive_hifive1_revb_sifive_welcome/freedom-metal/src/drivers/sifive_fe310-g000_pll.c:302
        __METAL_ACCESS_ONCE(plloutdiv) |= DIV_1;
2001572a:	fd842783          	lw	a5,-40(s0)
2001572e:	439c                	lw	a5,0(a5)
20015730:	1007e713          	ori	a4,a5,256
20015734:	fd842783          	lw	a5,-40(s0)
20015738:	c398                	sw	a4,0(a5)
C:/Users/nandg/Desktop/Athena_Welcome_Demo/sifive_hifive1_revb_sifive_welcome/freedom-metal/src/drivers/sifive_fe310-g000_pll.c:304
        __METAL_ACCESS_ONCE(plloutdiv) &= ~(DIV_DIV);
2001573a:	fd842783          	lw	a5,-40(s0)
2001573e:	439c                	lw	a5,0(a5)
20015740:	fc07f713          	andi	a4,a5,-64
20015744:	fd842783          	lw	a5,-40(s0)
20015748:	c398                	sw	a4,0(a5)
C:/Users/nandg/Desktop/Athena_Welcome_Demo/sifive_hifive1_revb_sifive_welcome/freedom-metal/src/drivers/sifive_fe310-g000_pll.c:305
        __METAL_ACCESS_ONCE(plloutdiv) |= PLL_DIV_SHIFT(1);
2001574a:	fd842783          	lw	a5,-40(s0)
2001574e:	439c                	lw	a5,0(a5)
20015750:	0017e713          	ori	a4,a5,1
20015754:	fd842783          	lw	a5,-40(s0)
20015758:	c398                	sw	a4,0(a5)
2001575a:	a82d                	j	20015794 <configure_pll+0x10c>
C:/Users/nandg/Desktop/Athena_Welcome_Demo/sifive_hifive1_revb_sifive_welcome/freedom-metal/src/drivers/sifive_fe310-g000_pll.c:307
        __METAL_ACCESS_ONCE(plloutdiv) &= ~(DIV_1);
2001575c:	fd842783          	lw	a5,-40(s0)
20015760:	439c                	lw	a5,0(a5)
20015762:	eff7f713          	andi	a4,a5,-257
20015766:	fd842783          	lw	a5,-40(s0)
2001576a:	c398                	sw	a4,0(a5)
C:/Users/nandg/Desktop/Athena_Welcome_Demo/sifive_hifive1_revb_sifive_welcome/freedom-metal/src/drivers/sifive_fe310-g000_pll.c:309
        __METAL_ACCESS_ONCE(plloutdiv) &= ~(DIV_DIV);
2001576c:	fd842783          	lw	a5,-40(s0)
20015770:	439c                	lw	a5,0(a5)
20015772:	fc07f713          	andi	a4,a5,-64
20015776:	fd842783          	lw	a5,-40(s0)
2001577a:	c398                	sw	a4,0(a5)
C:/Users/nandg/Desktop/Athena_Welcome_Demo/sifive_hifive1_revb_sifive_welcome/freedom-metal/src/drivers/sifive_fe310-g000_pll.c:310
        __METAL_ACCESS_ONCE(plloutdiv) |= PLL_DIV_SHIFT(config->d);
2001577c:	fd842783          	lw	a5,-40(s0)
20015780:	4398                	lw	a4,0(a5)
20015782:	fd442783          	lw	a5,-44(s0)
20015786:	4fdc                	lw	a5,28(a5)
20015788:	03f7f793          	andi	a5,a5,63
2001578c:	8f5d                	or	a4,a4,a5
2001578e:	fd842783          	lw	a5,-40(s0)
20015792:	c398                	sw	a4,0(a5)
C:/Users/nandg/Desktop/Athena_Welcome_Demo/sifive_hifive1_revb_sifive_welcome/freedom-metal/src/drivers/sifive_fe310-g000_pll.c:313
    __METAL_ACCESS_ONCE(pllcfg) &= ~(PLL_BYPASS);
20015794:	fdc42783          	lw	a5,-36(s0)
20015798:	4398                	lw	a4,0(a5)
2001579a:	fffc07b7          	lui	a5,0xfffc0
2001579e:	17fd                	addi	a5,a5,-1
200157a0:	8f7d                	and	a4,a4,a5
200157a2:	fdc42783          	lw	a5,-36(s0)
200157a6:	c398                	sw	a4,0(a5)
C:/Users/nandg/Desktop/Athena_Welcome_Demo/sifive_hifive1_revb_sifive_welcome/freedom-metal/src/drivers/sifive_fe310-g000_pll.c:318
    __metal_driver_riscv_clint0_command_request(__METAL_DT_RISCV_CLINT0_HANDLE,
200157a8:	fe040793          	addi	a5,s0,-32
200157ac:	863e                	mv	a2,a5
200157ae:	4585                	li	a1,1
200157b0:	800017b7          	lui	a5,0x80001
200157b4:	ab878513          	addi	a0,a5,-1352 # 80000ab8 <metal_segment_heap_target_end+0xfffff318>
200157b8:	c74fd0ef          	jal	ra,20012c2c <__metal_driver_riscv_clint0_command_request>
C:/Users/nandg/Desktop/Athena_Welcome_Demo/sifive_hifive1_revb_sifive_welcome/freedom-metal/src/drivers/sifive_fe310-g000_pll.c:320
    mtime_end = mtime + PLL_LOCK_WAIT_TICKS;
200157bc:	fe042603          	lw	a2,-32(s0)
200157c0:	fe442683          	lw	a3,-28(s0)
200157c4:	4511                	li	a0,4
200157c6:	4581                	li	a1,0
200157c8:	00a60733          	add	a4,a2,a0
200157cc:	883a                	mv	a6,a4
200157ce:	00c83833          	sltu	a6,a6,a2
200157d2:	00b687b3          	add	a5,a3,a1
200157d6:	00f806b3          	add	a3,a6,a5
200157da:	87b6                	mv	a5,a3
200157dc:	fee42423          	sw	a4,-24(s0)
200157e0:	fef42623          	sw	a5,-20(s0)
C:/Users/nandg/Desktop/Athena_Welcome_Demo/sifive_hifive1_revb_sifive_welcome/freedom-metal/src/drivers/sifive_fe310-g000_pll.c:321
    while (mtime <= mtime_end) {
200157e4:	a819                	j	200157fa <configure_pll+0x172>
C:/Users/nandg/Desktop/Athena_Welcome_Demo/sifive_hifive1_revb_sifive_welcome/freedom-metal/src/drivers/sifive_fe310-g000_pll.c:322
        __metal_driver_riscv_clint0_command_request(
200157e6:	fe040793          	addi	a5,s0,-32
200157ea:	863e                	mv	a2,a5
200157ec:	4585                	li	a1,1
200157ee:	800017b7          	lui	a5,0x80001
200157f2:	ab878513          	addi	a0,a5,-1352 # 80000ab8 <metal_segment_heap_target_end+0xfffff318>
200157f6:	c36fd0ef          	jal	ra,20012c2c <__metal_driver_riscv_clint0_command_request>
C:/Users/nandg/Desktop/Athena_Welcome_Demo/sifive_hifive1_revb_sifive_welcome/freedom-metal/src/drivers/sifive_fe310-g000_pll.c:321
    while (mtime <= mtime_end) {
200157fa:	fe042703          	lw	a4,-32(s0)
200157fe:	fe442783          	lw	a5,-28(s0)
20015802:	fec42683          	lw	a3,-20(s0)
20015806:	863e                	mv	a2,a5
20015808:	00c6ec63          	bltu	a3,a2,20015820 <configure_pll+0x198>
2001580c:	fec42683          	lw	a3,-20(s0)
20015810:	863e                	mv	a2,a5
20015812:	fcc69ae3          	bne	a3,a2,200157e6 <configure_pll+0x15e>
20015816:	fe842683          	lw	a3,-24(s0)
2001581a:	87ba                	mv	a5,a4
2001581c:	fcf6f5e3          	bgeu	a3,a5,200157e6 <configure_pll+0x15e>
C:/Users/nandg/Desktop/Athena_Welcome_Demo/sifive_hifive1_revb_sifive_welcome/freedom-metal/src/drivers/sifive_fe310-g000_pll.c:340
    while ((__METAL_ACCESS_ONCE(pllcfg) & PLL_LOCK) == 0)
20015820:	0001                	nop
C:/Users/nandg/Desktop/Athena_Welcome_Demo/sifive_hifive1_revb_sifive_welcome/freedom-metal/src/drivers/sifive_fe310-g000_pll.c:340 (discriminator 1)
20015822:	fdc42783          	lw	a5,-36(s0)
20015826:	439c                	lw	a5,0(a5)
20015828:	fe07dde3          	bgez	a5,20015822 <configure_pll+0x19a>
C:/Users/nandg/Desktop/Athena_Welcome_Demo/sifive_hifive1_revb_sifive_welcome/freedom-metal/src/drivers/sifive_fe310-g000_pll.c:342
}
2001582c:	0001                	nop
2001582e:	0001                	nop
20015830:	50b2                	lw	ra,44(sp)
20015832:	5422                	lw	s0,40(sp)
20015834:	6145                	addi	sp,sp,48
20015836:	8082                	ret

20015838 <__metal_driver_sifive_fe310_g000_pll_set_rate_hz>:
__metal_driver_sifive_fe310_g000_pll_set_rate_hz():
C:/Users/nandg/Desktop/Athena_Welcome_Demo/sifive_hifive1_revb_sifive_welcome/freedom-metal/src/drivers/sifive_fe310-g000_pll.c:345
                                                      long rate) {
20015838:	715d                	addi	sp,sp,-80
2001583a:	c686                	sw	ra,76(sp)
2001583c:	c4a2                	sw	s0,72(sp)
2001583e:	0880                	addi	s0,sp,80
20015840:	faa42e23          	sw	a0,-68(s0)
20015844:	fab42c23          	sw	a1,-72(s0)
C:/Users/nandg/Desktop/Athena_Welcome_Demo/sifive_hifive1_revb_sifive_welcome/freedom-metal/src/drivers/sifive_fe310-g000_pll.c:347
        __metal_driver_sifive_fe310_g000_pll_pllref(clock);
20015848:	fbc42503          	lw	a0,-68(s0)
2001584c:	a7fff0ef          	jal	ra,200152ca <__metal_driver_sifive_fe310_g000_pll_pllref>
20015850:	fea42623          	sw	a0,-20(s0)
C:/Users/nandg/Desktop/Athena_Welcome_Demo/sifive_hifive1_revb_sifive_welcome/freedom-metal/src/drivers/sifive_fe310-g000_pll.c:349
        __metal_driver_sifive_fe310_g000_pll_pllsel0(clock);
20015854:	fbc42503          	lw	a0,-68(s0)
20015858:	a59ff0ef          	jal	ra,200152b0 <__metal_driver_sifive_fe310_g000_pll_pllsel0>
2001585c:	fea42423          	sw	a0,-24(s0)
C:/Users/nandg/Desktop/Athena_Welcome_Demo/sifive_hifive1_revb_sifive_welcome/freedom-metal/src/drivers/sifive_fe310-g000_pll.c:351
        __metal_driver_sifive_fe310_g000_pll_config_offset(clock);
20015860:	fbc42503          	lw	a0,-68(s0)
20015864:	abdff0ef          	jal	ra,20015320 <__metal_driver_sifive_fe310_g000_pll_config_offset>
20015868:	fea42223          	sw	a0,-28(s0)
C:/Users/nandg/Desktop/Athena_Welcome_Demo/sifive_hifive1_revb_sifive_welcome/freedom-metal/src/drivers/sifive_fe310-g000_pll.c:353
        __metal_driver_sifive_fe310_g000_pll_divider_offset(clock);
2001586c:	fbc42503          	lw	a0,-68(s0)
20015870:	a8bff0ef          	jal	ra,200152fa <__metal_driver_sifive_fe310_g000_pll_divider_offset>
20015874:	fea42023          	sw	a0,-32(s0)
C:/Users/nandg/Desktop/Athena_Welcome_Demo/sifive_hifive1_revb_sifive_welcome/freedom-metal/src/drivers/sifive_fe310-g000_pll.c:354
    long base = __metal_driver_sifive_fe310_g000_prci_base();
20015878:	acfff0ef          	jal	ra,20015346 <__metal_driver_sifive_fe310_g000_prci_base>
2001587c:	fca42e23          	sw	a0,-36(s0)
C:/Users/nandg/Desktop/Athena_Welcome_Demo/sifive_hifive1_revb_sifive_welcome/freedom-metal/src/drivers/sifive_fe310-g000_pll.c:356
    __metal_io_u32 *pllcfg = (__metal_io_u32 *)(base + config_offset);
20015880:	fdc42703          	lw	a4,-36(s0)
20015884:	fe442783          	lw	a5,-28(s0)
20015888:	97ba                	add	a5,a5,a4
2001588a:	fcf42c23          	sw	a5,-40(s0)
C:/Users/nandg/Desktop/Athena_Welcome_Demo/sifive_hifive1_revb_sifive_welcome/freedom-metal/src/drivers/sifive_fe310-g000_pll.c:357
    __metal_io_u32 *plloutdiv = (__metal_io_u32 *)(base + divider_offset);
2001588e:	fdc42703          	lw	a4,-36(s0)
20015892:	fe042783          	lw	a5,-32(s0)
20015896:	97ba                	add	a5,a5,a4
20015898:	fcf42a23          	sw	a5,-44(s0)
C:/Users/nandg/Desktop/Athena_Welcome_Demo/sifive_hifive1_revb_sifive_welcome/freedom-metal/src/drivers/sifive_fe310-g000_pll.c:360
    if (__METAL_ACCESS_ONCE(pllcfg) & PLL_SEL)
2001589c:	fd842783          	lw	a5,-40(s0)
200158a0:	4398                	lw	a4,0(a5)
200158a2:	67c1                	lui	a5,0x10
200158a4:	8ff9                	and	a5,a5,a4
200158a6:	cb91                	beqz	a5,200158ba <__metal_driver_sifive_fe310_g000_pll_set_rate_hz+0x82>
C:/Users/nandg/Desktop/Athena_Welcome_Demo/sifive_hifive1_revb_sifive_welcome/freedom-metal/src/drivers/sifive_fe310-g000_pll.c:361
        __METAL_ACCESS_ONCE(pllcfg) &= ~(PLL_SEL);
200158a8:	fd842783          	lw	a5,-40(s0)
200158ac:	4398                	lw	a4,0(a5)
200158ae:	77c1                	lui	a5,0xffff0
200158b0:	17fd                	addi	a5,a5,-1
200158b2:	8f7d                	and	a4,a4,a5
200158b4:	fd842783          	lw	a5,-40(s0)
200158b8:	c398                	sw	a4,0(a5)
C:/Users/nandg/Desktop/Athena_Welcome_Demo/sifive_hifive1_revb_sifive_welcome/freedom-metal/src/drivers/sifive_fe310-g000_pll.c:366
        __METAL_ACCESS_ONCE(pllcfg) & PLL_REFSEL ? pllref : pllsel0);
200158ba:	fd842783          	lw	a5,-40(s0)
200158be:	4398                	lw	a4,0(a5)
200158c0:	000207b7          	lui	a5,0x20
200158c4:	8ff9                	and	a5,a5,a4
C:/Users/nandg/Desktop/Athena_Welcome_Demo/sifive_hifive1_revb_sifive_welcome/freedom-metal/src/drivers/sifive_fe310-g000_pll.c:365
    long ref_hz = metal_clock_get_rate_hz(
200158c6:	c781                	beqz	a5,200158ce <__metal_driver_sifive_fe310_g000_pll_set_rate_hz+0x96>
C:/Users/nandg/Desktop/Athena_Welcome_Demo/sifive_hifive1_revb_sifive_welcome/freedom-metal/src/drivers/sifive_fe310-g000_pll.c:365 (discriminator 1)
200158c8:	fec42783          	lw	a5,-20(s0)
200158cc:	a019                	j	200158d2 <__metal_driver_sifive_fe310_g000_pll_set_rate_hz+0x9a>
C:/Users/nandg/Desktop/Athena_Welcome_Demo/sifive_hifive1_revb_sifive_welcome/freedom-metal/src/drivers/sifive_fe310-g000_pll.c:365 (discriminator 2)
200158ce:	fe842783          	lw	a5,-24(s0)
C:/Users/nandg/Desktop/Athena_Welcome_Demo/sifive_hifive1_revb_sifive_welcome/freedom-metal/src/drivers/sifive_fe310-g000_pll.c:365 (discriminator 4)
200158d2:	853e                	mv	a0,a5
200158d4:	5a6010ef          	jal	ra,20016e7a <metal_clock_get_rate_hz>
200158d8:	fca42823          	sw	a0,-48(s0)
C:/Users/nandg/Desktop/Athena_Welcome_Demo/sifive_hifive1_revb_sifive_welcome/freedom-metal/src/drivers/sifive_fe310-g000_pll.c:370 (discriminator 4)
    if ((ref_hz * 3 / 4) <= rate && (ref_hz * 5 / 4) >= rate) {
200158dc:	fd042703          	lw	a4,-48(s0)
200158e0:	87ba                	mv	a5,a4
200158e2:	0786                	slli	a5,a5,0x1
200158e4:	97ba                	add	a5,a5,a4
200158e6:	41f7d713          	srai	a4,a5,0x1f
200158ea:	8b0d                	andi	a4,a4,3
200158ec:	97ba                	add	a5,a5,a4
200158ee:	8789                	srai	a5,a5,0x2
200158f0:	873e                	mv	a4,a5
200158f2:	fb842783          	lw	a5,-72(s0)
200158f6:	02e7cb63          	blt	a5,a4,2001592c <__metal_driver_sifive_fe310_g000_pll_set_rate_hz+0xf4>
C:/Users/nandg/Desktop/Athena_Welcome_Demo/sifive_hifive1_revb_sifive_welcome/freedom-metal/src/drivers/sifive_fe310-g000_pll.c:370 (discriminator 1)
200158fa:	fd042703          	lw	a4,-48(s0)
200158fe:	87ba                	mv	a5,a4
20015900:	078a                	slli	a5,a5,0x2
20015902:	97ba                	add	a5,a5,a4
20015904:	41f7d713          	srai	a4,a5,0x1f
20015908:	8b0d                	andi	a4,a4,3
2001590a:	97ba                	add	a5,a5,a4
2001590c:	8789                	srai	a5,a5,0x2
2001590e:	873e                	mv	a4,a5
20015910:	fb842783          	lw	a5,-72(s0)
20015914:	00f74c63          	blt	a4,a5,2001592c <__metal_driver_sifive_fe310_g000_pll_set_rate_hz+0xf4>
C:/Users/nandg/Desktop/Athena_Welcome_Demo/sifive_hifive1_revb_sifive_welcome/freedom-metal/src/drivers/sifive_fe310-g000_pll.c:371
        __METAL_ACCESS_ONCE(pllcfg) |= PLL_BYPASS;
20015918:	fd842783          	lw	a5,-40(s0)
2001591c:	4398                	lw	a4,0(a5)
2001591e:	000407b7          	lui	a5,0x40
20015922:	8f5d                	or	a4,a4,a5
20015924:	fd842783          	lw	a5,-40(s0)
20015928:	c398                	sw	a4,0(a5)
2001592a:	a881                	j	2001597a <__metal_driver_sifive_fe310_g000_pll_set_rate_hz+0x142>
C:/Users/nandg/Desktop/Athena_Welcome_Demo/sifive_hifive1_revb_sifive_welcome/freedom-metal/src/drivers/sifive_fe310-g000_pll.c:373
        int config_index = find_closest_config(ref_hz, rate);
2001592c:	fb842583          	lw	a1,-72(s0)
20015930:	fd042503          	lw	a0,-48(s0)
20015934:	ca9ff0ef          	jal	ra,200155dc <find_closest_config>
20015938:	fca42623          	sw	a0,-52(s0)
C:/Users/nandg/Desktop/Athena_Welcome_Demo/sifive_hifive1_revb_sifive_welcome/freedom-metal/src/drivers/sifive_fe310-g000_pll.c:374
        if (config_index != -1) {
2001593c:	fcc42703          	lw	a4,-52(s0)
20015940:	57fd                	li	a5,-1
20015942:	02f70363          	beq	a4,a5,20015968 <__metal_driver_sifive_fe310_g000_pll_set_rate_hz+0x130>
C:/Users/nandg/Desktop/Athena_Welcome_Demo/sifive_hifive1_revb_sifive_welcome/freedom-metal/src/drivers/sifive_fe310-g000_pll.c:375
            configure_pll(pllcfg, plloutdiv, &(pll_configs[config_index]));
20015946:	fcc42783          	lw	a5,-52(s0)
2001594a:	00579713          	slli	a4,a5,0x5
2001594e:	200117b7          	lui	a5,0x20011
20015952:	a2078793          	addi	a5,a5,-1504 # 20010a20 <pll_configs>
20015956:	97ba                	add	a5,a5,a4
20015958:	863e                	mv	a2,a5
2001595a:	fd442583          	lw	a1,-44(s0)
2001595e:	fd842503          	lw	a0,-40(s0)
20015962:	d27ff0ef          	jal	ra,20015688 <configure_pll>
20015966:	a811                	j	2001597a <__metal_driver_sifive_fe310_g000_pll_set_rate_hz+0x142>
C:/Users/nandg/Desktop/Athena_Welcome_Demo/sifive_hifive1_revb_sifive_welcome/freedom-metal/src/drivers/sifive_fe310-g000_pll.c:378
            __METAL_ACCESS_ONCE(pllcfg) |= PLL_BYPASS;
20015968:	fd842783          	lw	a5,-40(s0)
2001596c:	4398                	lw	a4,0(a5)
2001596e:	000407b7          	lui	a5,0x40
20015972:	8f5d                	or	a4,a4,a5
20015974:	fd842783          	lw	a5,-40(s0)
20015978:	c398                	sw	a4,0(a5)
C:/Users/nandg/Desktop/Athena_Welcome_Demo/sifive_hifive1_revb_sifive_welcome/freedom-metal/src/drivers/sifive_fe310-g000_pll.c:383
    __METAL_ACCESS_ONCE(pllcfg) |= PLL_SEL;
2001597a:	fd842783          	lw	a5,-40(s0)
2001597e:	4398                	lw	a4,0(a5)
20015980:	67c1                	lui	a5,0x10
20015982:	8f5d                	or	a4,a4,a5
20015984:	fd842783          	lw	a5,-40(s0)
20015988:	c398                	sw	a4,0(a5)
C:/Users/nandg/Desktop/Athena_Welcome_Demo/sifive_hifive1_revb_sifive_welcome/freedom-metal/src/drivers/sifive_fe310-g000_pll.c:385
    return __metal_driver_sifive_fe310_g000_pll_get_rate_hz(clock);
2001598a:	fbc42503          	lw	a0,-68(s0)
2001598e:	ad3ff0ef          	jal	ra,20015460 <__metal_driver_sifive_fe310_g000_pll_get_rate_hz>
20015992:	87aa                	mv	a5,a0
C:/Users/nandg/Desktop/Athena_Welcome_Demo/sifive_hifive1_revb_sifive_welcome/freedom-metal/src/drivers/sifive_fe310-g000_pll.c:386
}
20015994:	853e                	mv	a0,a5
20015996:	40b6                	lw	ra,76(sp)
20015998:	4426                	lw	s0,72(sp)
2001599a:	6161                	addi	sp,sp,80
2001599c:	8082                	ret

2001599e <__metal_driver_sifive_fe310_g000_prci_base>:
__metal_driver_sifive_fe310_g000_prci_base():
C:\Users\nandg\Desktop\Athena_Welcome_Demo\sifive_hifive1_revb_sifive_welcome\bsp\build\debug/./metal/machine.h:1364
{
2001599e:	1141                	addi	sp,sp,-16
200159a0:	c622                	sw	s0,12(sp)
200159a2:	0800                	addi	s0,sp,16
C:\Users\nandg\Desktop\Athena_Welcome_Demo\sifive_hifive1_revb_sifive_welcome\bsp\build\debug/./metal/machine.h:1365
		return METAL_SIFIVE_FE310_G000_PRCI_10008000_BASE_ADDRESS;
200159a4:	100087b7          	lui	a5,0x10008
C:\Users\nandg\Desktop\Athena_Welcome_Demo\sifive_hifive1_revb_sifive_welcome\bsp\build\debug/./metal/machine.h:1366
}
200159a8:	853e                	mv	a0,a5
200159aa:	4432                	lw	s0,12(sp)
200159ac:	0141                	addi	sp,sp,16
200159ae:	8082                	ret

200159b0 <__metal_driver_sifive_fe310_g000_prci_get_reg>:
__metal_driver_sifive_fe310_g000_prci_get_reg():
C:/Users/nandg/Desktop/Athena_Welcome_Demo/sifive_hifive1_revb_sifive_welcome/freedom-metal/src/drivers/sifive_fe310-g000_prci.c:12

#include <metal/drivers/sifive_fe310-g000_prci.h>
#include <metal/machine.h>

long __metal_driver_sifive_fe310_g000_prci_get_reg(
    const struct __metal_driver_sifive_fe310_g000_prci *prci, long offset) {
200159b0:	7179                	addi	sp,sp,-48
200159b2:	d606                	sw	ra,44(sp)
200159b4:	d422                	sw	s0,40(sp)
200159b6:	1800                	addi	s0,sp,48
200159b8:	fca42e23          	sw	a0,-36(s0)
200159bc:	fcb42c23          	sw	a1,-40(s0)
C:/Users/nandg/Desktop/Athena_Welcome_Demo/sifive_hifive1_revb_sifive_welcome/freedom-metal/src/drivers/sifive_fe310-g000_prci.c:13
    unsigned long base = __metal_driver_sifive_fe310_g000_prci_base();
200159c0:	3ff9                	jal	2001599e <__metal_driver_sifive_fe310_g000_prci_base>
200159c2:	87aa                	mv	a5,a0
200159c4:	fef42623          	sw	a5,-20(s0)
C:/Users/nandg/Desktop/Athena_Welcome_Demo/sifive_hifive1_revb_sifive_welcome/freedom-metal/src/drivers/sifive_fe310-g000_prci.c:14
    return __METAL_ACCESS_ONCE((__metal_io_u32 *)(base + offset));
200159c8:	fd842703          	lw	a4,-40(s0)
200159cc:	fec42783          	lw	a5,-20(s0)
200159d0:	97ba                	add	a5,a5,a4
200159d2:	439c                	lw	a5,0(a5)
C:/Users/nandg/Desktop/Athena_Welcome_Demo/sifive_hifive1_revb_sifive_welcome/freedom-metal/src/drivers/sifive_fe310-g000_prci.c:15
}
200159d4:	853e                	mv	a0,a5
200159d6:	50b2                	lw	ra,44(sp)
200159d8:	5422                	lw	s0,40(sp)
200159da:	6145                	addi	sp,sp,48
200159dc:	8082                	ret

200159de <__metal_driver_sifive_fe310_g000_prci_set_reg>:
__metal_driver_sifive_fe310_g000_prci_set_reg():
C:/Users/nandg/Desktop/Athena_Welcome_Demo/sifive_hifive1_revb_sifive_welcome/freedom-metal/src/drivers/sifive_fe310-g000_prci.c:19

long __metal_driver_sifive_fe310_g000_prci_set_reg(
    const struct __metal_driver_sifive_fe310_g000_prci *prci, long offset,
    long value) {
200159de:	7179                	addi	sp,sp,-48
200159e0:	d606                	sw	ra,44(sp)
200159e2:	d422                	sw	s0,40(sp)
200159e4:	1800                	addi	s0,sp,48
200159e6:	fca42e23          	sw	a0,-36(s0)
200159ea:	fcb42c23          	sw	a1,-40(s0)
200159ee:	fcc42a23          	sw	a2,-44(s0)
C:/Users/nandg/Desktop/Athena_Welcome_Demo/sifive_hifive1_revb_sifive_welcome/freedom-metal/src/drivers/sifive_fe310-g000_prci.c:20
    unsigned long base = __metal_driver_sifive_fe310_g000_prci_base();
200159f2:	3775                	jal	2001599e <__metal_driver_sifive_fe310_g000_prci_base>
200159f4:	87aa                	mv	a5,a0
200159f6:	fef42623          	sw	a5,-20(s0)
C:/Users/nandg/Desktop/Athena_Welcome_Demo/sifive_hifive1_revb_sifive_welcome/freedom-metal/src/drivers/sifive_fe310-g000_prci.c:21
    return __METAL_ACCESS_ONCE((__metal_io_u32 *)(base + offset)) = value;
200159fa:	fd842703          	lw	a4,-40(s0)
200159fe:	fec42783          	lw	a5,-20(s0)
20015a02:	97ba                	add	a5,a5,a4
20015a04:	873e                	mv	a4,a5
20015a06:	fd442783          	lw	a5,-44(s0)
20015a0a:	c31c                	sw	a5,0(a4)
C:/Users/nandg/Desktop/Athena_Welcome_Demo/sifive_hifive1_revb_sifive_welcome/freedom-metal/src/drivers/sifive_fe310-g000_prci.c:22
}
20015a0c:	853e                	mv	a0,a5
20015a0e:	50b2                	lw	ra,44(sp)
20015a10:	5422                	lw	s0,40(sp)
20015a12:	6145                	addi	sp,sp,48
20015a14:	8082                	ret

20015a16 <__metal_driver_sifive_gpio_led_gpio>:
__metal_driver_sifive_gpio_led_gpio():
C:\Users\nandg\Desktop\Athena_Welcome_Demo\sifive_hifive1_revb_sifive_welcome\bsp\build\debug/./metal/machine.h:579
{
20015a16:	1101                	addi	sp,sp,-32
20015a18:	ce22                	sw	s0,28(sp)
20015a1a:	1000                	addi	s0,sp,32
20015a1c:	fea42623          	sw	a0,-20(s0)
C:\Users\nandg\Desktop\Athena_Welcome_Demo\sifive_hifive1_revb_sifive_welcome\bsp\build\debug/./metal/machine.h:580
	if ((uintptr_t)led == (uintptr_t)&__metal_dt_led_0) {
20015a20:	fec42703          	lw	a4,-20(s0)
20015a24:	81c18793          	addi	a5,gp,-2020 # 80000acc <__metal_dt_led_0>
20015a28:	00f71563          	bne	a4,a5,20015a32 <__metal_driver_sifive_gpio_led_gpio+0x1c>
C:\Users\nandg\Desktop\Athena_Welcome_Demo\sifive_hifive1_revb_sifive_welcome\bsp\build\debug/./metal/machine.h:581
		return (struct metal_gpio *)&__metal_dt_gpio_10012000;
20015a2c:	81818793          	addi	a5,gp,-2024 # 80000ac8 <__metal_dt_gpio_10012000>
20015a30:	a025                	j	20015a58 <__metal_driver_sifive_gpio_led_gpio+0x42>
C:\Users\nandg\Desktop\Athena_Welcome_Demo\sifive_hifive1_revb_sifive_welcome\bsp\build\debug/./metal/machine.h:583
	else if ((uintptr_t)led == (uintptr_t)&__metal_dt_led_1) {
20015a32:	fec42703          	lw	a4,-20(s0)
20015a36:	82018793          	addi	a5,gp,-2016 # 80000ad0 <__metal_dt_led_1>
20015a3a:	00f71563          	bne	a4,a5,20015a44 <__metal_driver_sifive_gpio_led_gpio+0x2e>
C:\Users\nandg\Desktop\Athena_Welcome_Demo\sifive_hifive1_revb_sifive_welcome\bsp\build\debug/./metal/machine.h:584
		return (struct metal_gpio *)&__metal_dt_gpio_10012000;
20015a3e:	81818793          	addi	a5,gp,-2024 # 80000ac8 <__metal_dt_gpio_10012000>
20015a42:	a819                	j	20015a58 <__metal_driver_sifive_gpio_led_gpio+0x42>
C:\Users\nandg\Desktop\Athena_Welcome_Demo\sifive_hifive1_revb_sifive_welcome\bsp\build\debug/./metal/machine.h:586
	else if ((uintptr_t)led == (uintptr_t)&__metal_dt_led_2) {
20015a44:	fec42703          	lw	a4,-20(s0)
20015a48:	82418793          	addi	a5,gp,-2012 # 80000ad4 <__metal_dt_led_2>
20015a4c:	00f71563          	bne	a4,a5,20015a56 <__metal_driver_sifive_gpio_led_gpio+0x40>
C:\Users\nandg\Desktop\Athena_Welcome_Demo\sifive_hifive1_revb_sifive_welcome\bsp\build\debug/./metal/machine.h:587
		return (struct metal_gpio *)&__metal_dt_gpio_10012000;
20015a50:	81818793          	addi	a5,gp,-2024 # 80000ac8 <__metal_dt_gpio_10012000>
20015a54:	a011                	j	20015a58 <__metal_driver_sifive_gpio_led_gpio+0x42>
C:\Users\nandg\Desktop\Athena_Welcome_Demo\sifive_hifive1_revb_sifive_welcome\bsp\build\debug/./metal/machine.h:590
		return NULL;
20015a56:	4781                	li	a5,0
C:\Users\nandg\Desktop\Athena_Welcome_Demo\sifive_hifive1_revb_sifive_welcome\bsp\build\debug/./metal/machine.h:592
}
20015a58:	853e                	mv	a0,a5
20015a5a:	4472                	lw	s0,28(sp)
20015a5c:	6105                	addi	sp,sp,32
20015a5e:	8082                	ret

20015a60 <__metal_driver_sifive_gpio_led_pin>:
__metal_driver_sifive_gpio_led_pin():
C:\Users\nandg\Desktop\Athena_Welcome_Demo\sifive_hifive1_revb_sifive_welcome\bsp\build\debug/./metal/machine.h:595
{
20015a60:	1101                	addi	sp,sp,-32
20015a62:	ce22                	sw	s0,28(sp)
20015a64:	1000                	addi	s0,sp,32
20015a66:	fea42623          	sw	a0,-20(s0)
C:\Users\nandg\Desktop\Athena_Welcome_Demo\sifive_hifive1_revb_sifive_welcome\bsp\build\debug/./metal/machine.h:596
	if ((uintptr_t)led == (uintptr_t)&__metal_dt_led_0) {
20015a6a:	fec42703          	lw	a4,-20(s0)
20015a6e:	81c18793          	addi	a5,gp,-2020 # 80000acc <__metal_dt_led_0>
20015a72:	00f71463          	bne	a4,a5,20015a7a <__metal_driver_sifive_gpio_led_pin+0x1a>
C:\Users\nandg\Desktop\Athena_Welcome_Demo\sifive_hifive1_revb_sifive_welcome\bsp\build\debug/./metal/machine.h:597
		return 22;
20015a76:	47d9                	li	a5,22
20015a78:	a015                	j	20015a9c <__metal_driver_sifive_gpio_led_pin+0x3c>
C:\Users\nandg\Desktop\Athena_Welcome_Demo\sifive_hifive1_revb_sifive_welcome\bsp\build\debug/./metal/machine.h:599
	else if ((uintptr_t)led == (uintptr_t)&__metal_dt_led_1) {
20015a7a:	fec42703          	lw	a4,-20(s0)
20015a7e:	82018793          	addi	a5,gp,-2016 # 80000ad0 <__metal_dt_led_1>
20015a82:	00f71463          	bne	a4,a5,20015a8a <__metal_driver_sifive_gpio_led_pin+0x2a>
C:\Users\nandg\Desktop\Athena_Welcome_Demo\sifive_hifive1_revb_sifive_welcome\bsp\build\debug/./metal/machine.h:600
		return 19;
20015a86:	47cd                	li	a5,19
20015a88:	a811                	j	20015a9c <__metal_driver_sifive_gpio_led_pin+0x3c>
C:\Users\nandg\Desktop\Athena_Welcome_Demo\sifive_hifive1_revb_sifive_welcome\bsp\build\debug/./metal/machine.h:602
	else if ((uintptr_t)led == (uintptr_t)&__metal_dt_led_2) {
20015a8a:	fec42703          	lw	a4,-20(s0)
20015a8e:	82418793          	addi	a5,gp,-2012 # 80000ad4 <__metal_dt_led_2>
20015a92:	00f71463          	bne	a4,a5,20015a9a <__metal_driver_sifive_gpio_led_pin+0x3a>
C:\Users\nandg\Desktop\Athena_Welcome_Demo\sifive_hifive1_revb_sifive_welcome\bsp\build\debug/./metal/machine.h:603
		return 21;
20015a96:	47d5                	li	a5,21
20015a98:	a011                	j	20015a9c <__metal_driver_sifive_gpio_led_pin+0x3c>
C:\Users\nandg\Desktop\Athena_Welcome_Demo\sifive_hifive1_revb_sifive_welcome\bsp\build\debug/./metal/machine.h:606
		return 0;
20015a9a:	4781                	li	a5,0
C:\Users\nandg\Desktop\Athena_Welcome_Demo\sifive_hifive1_revb_sifive_welcome\bsp\build\debug/./metal/machine.h:608
}
20015a9c:	853e                	mv	a0,a5
20015a9e:	4472                	lw	s0,28(sp)
20015aa0:	6105                	addi	sp,sp,32
20015aa2:	8082                	ret

20015aa4 <__metal_driver_sifive_gpio_led_label>:
__metal_driver_sifive_gpio_led_label():
C:\Users\nandg\Desktop\Athena_Welcome_Demo\sifive_hifive1_revb_sifive_welcome\bsp\build\debug/./metal/machine.h:611
{
20015aa4:	1101                	addi	sp,sp,-32
20015aa6:	ce22                	sw	s0,28(sp)
20015aa8:	1000                	addi	s0,sp,32
20015aaa:	fea42623          	sw	a0,-20(s0)
C:\Users\nandg\Desktop\Athena_Welcome_Demo\sifive_hifive1_revb_sifive_welcome\bsp\build\debug/./metal/machine.h:612
	if ((uintptr_t)led == (uintptr_t)&__metal_dt_led_0) {
20015aae:	fec42703          	lw	a4,-20(s0)
20015ab2:	81c18793          	addi	a5,gp,-2020 # 80000acc <__metal_dt_led_0>
20015ab6:	00f71763          	bne	a4,a5,20015ac4 <__metal_driver_sifive_gpio_led_label+0x20>
C:\Users\nandg\Desktop\Athena_Welcome_Demo\sifive_hifive1_revb_sifive_welcome\bsp\build\debug/./metal/machine.h:613
		return "LD0red";
20015aba:	200117b7          	lui	a5,0x20011
20015abe:	2ac78793          	addi	a5,a5,684 # 200112ac <__metal_driver_vtable_sifive_fe310_g000_pll+0xc>
20015ac2:	a81d                	j	20015af8 <__metal_driver_sifive_gpio_led_label+0x54>
C:\Users\nandg\Desktop\Athena_Welcome_Demo\sifive_hifive1_revb_sifive_welcome\bsp\build\debug/./metal/machine.h:615
	else if ((uintptr_t)led == (uintptr_t)&__metal_dt_led_1) {
20015ac4:	fec42703          	lw	a4,-20(s0)
20015ac8:	82018793          	addi	a5,gp,-2016 # 80000ad0 <__metal_dt_led_1>
20015acc:	00f71763          	bne	a4,a5,20015ada <__metal_driver_sifive_gpio_led_label+0x36>
C:\Users\nandg\Desktop\Athena_Welcome_Demo\sifive_hifive1_revb_sifive_welcome\bsp\build\debug/./metal/machine.h:616
		return "LD0green";
20015ad0:	200117b7          	lui	a5,0x20011
20015ad4:	2b478793          	addi	a5,a5,692 # 200112b4 <__metal_driver_vtable_sifive_fe310_g000_pll+0x14>
20015ad8:	a005                	j	20015af8 <__metal_driver_sifive_gpio_led_label+0x54>
C:\Users\nandg\Desktop\Athena_Welcome_Demo\sifive_hifive1_revb_sifive_welcome\bsp\build\debug/./metal/machine.h:618
	else if ((uintptr_t)led == (uintptr_t)&__metal_dt_led_2) {
20015ada:	fec42703          	lw	a4,-20(s0)
20015ade:	82418793          	addi	a5,gp,-2012 # 80000ad4 <__metal_dt_led_2>
20015ae2:	00f71763          	bne	a4,a5,20015af0 <__metal_driver_sifive_gpio_led_label+0x4c>
C:\Users\nandg\Desktop\Athena_Welcome_Demo\sifive_hifive1_revb_sifive_welcome\bsp\build\debug/./metal/machine.h:619
		return "LD0blue";
20015ae6:	200117b7          	lui	a5,0x20011
20015aea:	2c078793          	addi	a5,a5,704 # 200112c0 <__metal_driver_vtable_sifive_fe310_g000_pll+0x20>
20015aee:	a029                	j	20015af8 <__metal_driver_sifive_gpio_led_label+0x54>
C:\Users\nandg\Desktop\Athena_Welcome_Demo\sifive_hifive1_revb_sifive_welcome\bsp\build\debug/./metal/machine.h:622
		return "";
20015af0:	200117b7          	lui	a5,0x20011
20015af4:	2c878793          	addi	a5,a5,712 # 200112c8 <__metal_driver_vtable_sifive_fe310_g000_pll+0x28>
C:\Users\nandg\Desktop\Athena_Welcome_Demo\sifive_hifive1_revb_sifive_welcome\bsp\build\debug/./metal/machine.h:624
}
20015af8:	853e                	mv	a0,a5
20015afa:	4472                	lw	s0,28(sp)
20015afc:	6105                	addi	sp,sp,32
20015afe:	8082                	ret

20015b00 <__metal_driver_led_exist>:
__metal_driver_led_exist():
C:/Users/nandg/Desktop/Athena_Welcome_Demo/sifive_hifive1_revb_sifive_welcome/freedom-metal/src/drivers/sifive_gpio-leds.c:13
#include <metal/drivers/sifive_gpio-leds.h>
#include <metal/gpio.h>
#include <metal/machine.h>
#include <string.h>

int __metal_driver_led_exist(struct metal_led *led, char *label) {
20015b00:	1101                	addi	sp,sp,-32
20015b02:	ce06                	sw	ra,28(sp)
20015b04:	cc22                	sw	s0,24(sp)
20015b06:	1000                	addi	s0,sp,32
20015b08:	fea42623          	sw	a0,-20(s0)
20015b0c:	feb42423          	sw	a1,-24(s0)
C:/Users/nandg/Desktop/Athena_Welcome_Demo/sifive_hifive1_revb_sifive_welcome/freedom-metal/src/drivers/sifive_gpio-leds.c:14
    if (strcmp(__metal_driver_sifive_gpio_led_label(led), label) == 0) {
20015b10:	fec42503          	lw	a0,-20(s0)
20015b14:	3f41                	jal	20015aa4 <__metal_driver_sifive_gpio_led_label>
20015b16:	87aa                	mv	a5,a0
20015b18:	fe842583          	lw	a1,-24(s0)
20015b1c:	853e                	mv	a0,a5
20015b1e:	217010ef          	jal	ra,20017534 <strcmp>
20015b22:	87aa                	mv	a5,a0
20015b24:	e399                	bnez	a5,20015b2a <__metal_driver_led_exist+0x2a>
C:/Users/nandg/Desktop/Athena_Welcome_Demo/sifive_hifive1_revb_sifive_welcome/freedom-metal/src/drivers/sifive_gpio-leds.c:15
        return 1;
20015b26:	4785                	li	a5,1
20015b28:	a011                	j	20015b2c <__metal_driver_led_exist+0x2c>
C:/Users/nandg/Desktop/Athena_Welcome_Demo/sifive_hifive1_revb_sifive_welcome/freedom-metal/src/drivers/sifive_gpio-leds.c:17
    }
    return 0;
20015b2a:	4781                	li	a5,0
C:/Users/nandg/Desktop/Athena_Welcome_Demo/sifive_hifive1_revb_sifive_welcome/freedom-metal/src/drivers/sifive_gpio-leds.c:18
}
20015b2c:	853e                	mv	a0,a5
20015b2e:	40f2                	lw	ra,28(sp)
20015b30:	4462                	lw	s0,24(sp)
20015b32:	6105                	addi	sp,sp,32
20015b34:	8082                	ret

20015b36 <__metal_driver_led_enable>:
__metal_driver_led_enable():
C:/Users/nandg/Desktop/Athena_Welcome_Demo/sifive_hifive1_revb_sifive_welcome/freedom-metal/src/drivers/sifive_gpio-leds.c:20

void __metal_driver_led_enable(struct metal_led *led) {
20015b36:	7179                	addi	sp,sp,-48
20015b38:	d606                	sw	ra,44(sp)
20015b3a:	d422                	sw	s0,40(sp)
20015b3c:	1800                	addi	s0,sp,48
20015b3e:	fca42e23          	sw	a0,-36(s0)
C:/Users/nandg/Desktop/Athena_Welcome_Demo/sifive_hifive1_revb_sifive_welcome/freedom-metal/src/drivers/sifive_gpio-leds.c:24
    int pin;
    struct metal_gpio *gpio;

    pin = __metal_driver_sifive_gpio_led_pin(led);
20015b42:	fdc42503          	lw	a0,-36(s0)
20015b46:	f1bff0ef          	jal	ra,20015a60 <__metal_driver_sifive_gpio_led_pin>
20015b4a:	fea42623          	sw	a0,-20(s0)
C:/Users/nandg/Desktop/Athena_Welcome_Demo/sifive_hifive1_revb_sifive_welcome/freedom-metal/src/drivers/sifive_gpio-leds.c:25
    gpio = __metal_driver_sifive_gpio_led_gpio(led);
20015b4e:	fdc42503          	lw	a0,-36(s0)
20015b52:	ec5ff0ef          	jal	ra,20015a16 <__metal_driver_sifive_gpio_led_gpio>
20015b56:	fea42423          	sw	a0,-24(s0)
C:/Users/nandg/Desktop/Athena_Welcome_Demo/sifive_hifive1_revb_sifive_welcome/freedom-metal/src/drivers/sifive_gpio-leds.c:27

    if (gpio != NULL) {
20015b5a:	fe842783          	lw	a5,-24(s0)
20015b5e:	cf89                	beqz	a5,20015b78 <__metal_driver_led_enable+0x42>
C:/Users/nandg/Desktop/Athena_Welcome_Demo/sifive_hifive1_revb_sifive_welcome/freedom-metal/src/drivers/sifive_gpio-leds.c:29
        /* Configure LED as output */
        metal_gpio_disable_input((struct metal_gpio *)gpio, pin);
20015b60:	fec42583          	lw	a1,-20(s0)
20015b64:	fe842503          	lw	a0,-24(s0)
20015b68:	3e8010ef          	jal	ra,20016f50 <metal_gpio_disable_input>
C:/Users/nandg/Desktop/Athena_Welcome_Demo/sifive_hifive1_revb_sifive_welcome/freedom-metal/src/drivers/sifive_gpio-leds.c:30
        metal_gpio_enable_output((struct metal_gpio *)gpio, pin);
20015b6c:	fec42583          	lw	a1,-20(s0)
20015b70:	fe842503          	lw	a0,-24(s0)
20015b74:	41c010ef          	jal	ra,20016f90 <metal_gpio_enable_output>
C:/Users/nandg/Desktop/Athena_Welcome_Demo/sifive_hifive1_revb_sifive_welcome/freedom-metal/src/drivers/sifive_gpio-leds.c:32
    }
}
20015b78:	0001                	nop
20015b7a:	50b2                	lw	ra,44(sp)
20015b7c:	5422                	lw	s0,40(sp)
20015b7e:	6145                	addi	sp,sp,48
20015b80:	8082                	ret

20015b82 <__metal_driver_led_on>:
__metal_driver_led_on():
C:/Users/nandg/Desktop/Athena_Welcome_Demo/sifive_hifive1_revb_sifive_welcome/freedom-metal/src/drivers/sifive_gpio-leds.c:34

void __metal_driver_led_on(struct metal_led *led) {
20015b82:	7179                	addi	sp,sp,-48
20015b84:	d606                	sw	ra,44(sp)
20015b86:	d422                	sw	s0,40(sp)
20015b88:	1800                	addi	s0,sp,48
20015b8a:	fca42e23          	sw	a0,-36(s0)
C:/Users/nandg/Desktop/Athena_Welcome_Demo/sifive_hifive1_revb_sifive_welcome/freedom-metal/src/drivers/sifive_gpio-leds.c:38
    int pin;
    struct metal_gpio *gpio;

    pin = __metal_driver_sifive_gpio_led_pin(led);
20015b8e:	fdc42503          	lw	a0,-36(s0)
20015b92:	ecfff0ef          	jal	ra,20015a60 <__metal_driver_sifive_gpio_led_pin>
20015b96:	fea42623          	sw	a0,-20(s0)
C:/Users/nandg/Desktop/Athena_Welcome_Demo/sifive_hifive1_revb_sifive_welcome/freedom-metal/src/drivers/sifive_gpio-leds.c:39
    gpio = __metal_driver_sifive_gpio_led_gpio(led);
20015b9a:	fdc42503          	lw	a0,-36(s0)
20015b9e:	e79ff0ef          	jal	ra,20015a16 <__metal_driver_sifive_gpio_led_gpio>
20015ba2:	fea42423          	sw	a0,-24(s0)
C:/Users/nandg/Desktop/Athena_Welcome_Demo/sifive_hifive1_revb_sifive_welcome/freedom-metal/src/drivers/sifive_gpio-leds.c:41

    if (gpio != NULL) {
20015ba6:	fe842783          	lw	a5,-24(s0)
20015baa:	cb81                	beqz	a5,20015bba <__metal_driver_led_on+0x38>
C:/Users/nandg/Desktop/Athena_Welcome_Demo/sifive_hifive1_revb_sifive_welcome/freedom-metal/src/drivers/sifive_gpio-leds.c:42
        metal_gpio_set_pin((struct metal_gpio *)gpio, pin, 1);
20015bac:	4605                	li	a2,1
20015bae:	fec42583          	lw	a1,-20(s0)
20015bb2:	fe842503          	lw	a0,-24(s0)
20015bb6:	41a010ef          	jal	ra,20016fd0 <metal_gpio_set_pin>
C:/Users/nandg/Desktop/Athena_Welcome_Demo/sifive_hifive1_revb_sifive_welcome/freedom-metal/src/drivers/sifive_gpio-leds.c:44
    }
}
20015bba:	0001                	nop
20015bbc:	50b2                	lw	ra,44(sp)
20015bbe:	5422                	lw	s0,40(sp)
20015bc0:	6145                	addi	sp,sp,48
20015bc2:	8082                	ret

20015bc4 <__metal_driver_led_off>:
__metal_driver_led_off():
C:/Users/nandg/Desktop/Athena_Welcome_Demo/sifive_hifive1_revb_sifive_welcome/freedom-metal/src/drivers/sifive_gpio-leds.c:46

void __metal_driver_led_off(struct metal_led *led) {
20015bc4:	7179                	addi	sp,sp,-48
20015bc6:	d606                	sw	ra,44(sp)
20015bc8:	d422                	sw	s0,40(sp)
20015bca:	1800                	addi	s0,sp,48
20015bcc:	fca42e23          	sw	a0,-36(s0)
C:/Users/nandg/Desktop/Athena_Welcome_Demo/sifive_hifive1_revb_sifive_welcome/freedom-metal/src/drivers/sifive_gpio-leds.c:50
    int pin;
    struct metal_gpio *gpio;

    pin = __metal_driver_sifive_gpio_led_pin(led);
20015bd0:	fdc42503          	lw	a0,-36(s0)
20015bd4:	e8dff0ef          	jal	ra,20015a60 <__metal_driver_sifive_gpio_led_pin>
20015bd8:	fea42623          	sw	a0,-20(s0)
C:/Users/nandg/Desktop/Athena_Welcome_Demo/sifive_hifive1_revb_sifive_welcome/freedom-metal/src/drivers/sifive_gpio-leds.c:51
    gpio = __metal_driver_sifive_gpio_led_gpio(led);
20015bdc:	fdc42503          	lw	a0,-36(s0)
20015be0:	e37ff0ef          	jal	ra,20015a16 <__metal_driver_sifive_gpio_led_gpio>
20015be4:	fea42423          	sw	a0,-24(s0)
C:/Users/nandg/Desktop/Athena_Welcome_Demo/sifive_hifive1_revb_sifive_welcome/freedom-metal/src/drivers/sifive_gpio-leds.c:53

    if (gpio != NULL) {
20015be8:	fe842783          	lw	a5,-24(s0)
20015bec:	cb81                	beqz	a5,20015bfc <__metal_driver_led_off+0x38>
C:/Users/nandg/Desktop/Athena_Welcome_Demo/sifive_hifive1_revb_sifive_welcome/freedom-metal/src/drivers/sifive_gpio-leds.c:54
        metal_gpio_set_pin((struct metal_gpio *)gpio, pin, 0);
20015bee:	4601                	li	a2,0
20015bf0:	fec42583          	lw	a1,-20(s0)
20015bf4:	fe842503          	lw	a0,-24(s0)
20015bf8:	3d8010ef          	jal	ra,20016fd0 <metal_gpio_set_pin>
C:/Users/nandg/Desktop/Athena_Welcome_Demo/sifive_hifive1_revb_sifive_welcome/freedom-metal/src/drivers/sifive_gpio-leds.c:56
    }
}
20015bfc:	0001                	nop
20015bfe:	50b2                	lw	ra,44(sp)
20015c00:	5422                	lw	s0,40(sp)
20015c02:	6145                	addi	sp,sp,48
20015c04:	8082                	ret

20015c06 <__metal_driver_led_toggle>:
__metal_driver_led_toggle():
C:/Users/nandg/Desktop/Athena_Welcome_Demo/sifive_hifive1_revb_sifive_welcome/freedom-metal/src/drivers/sifive_gpio-leds.c:58

void __metal_driver_led_toggle(struct metal_led *led) {
20015c06:	7179                	addi	sp,sp,-48
20015c08:	d606                	sw	ra,44(sp)
20015c0a:	d422                	sw	s0,40(sp)
20015c0c:	1800                	addi	s0,sp,48
20015c0e:	fca42e23          	sw	a0,-36(s0)
C:/Users/nandg/Desktop/Athena_Welcome_Demo/sifive_hifive1_revb_sifive_welcome/freedom-metal/src/drivers/sifive_gpio-leds.c:62
    int pin;
    struct metal_gpio *gpio;

    pin = __metal_driver_sifive_gpio_led_pin(led);
20015c12:	fdc42503          	lw	a0,-36(s0)
20015c16:	e4bff0ef          	jal	ra,20015a60 <__metal_driver_sifive_gpio_led_pin>
20015c1a:	fea42623          	sw	a0,-20(s0)
C:/Users/nandg/Desktop/Athena_Welcome_Demo/sifive_hifive1_revb_sifive_welcome/freedom-metal/src/drivers/sifive_gpio-leds.c:63
    gpio = __metal_driver_sifive_gpio_led_gpio(led);
20015c1e:	fdc42503          	lw	a0,-36(s0)
20015c22:	df5ff0ef          	jal	ra,20015a16 <__metal_driver_sifive_gpio_led_gpio>
20015c26:	fea42423          	sw	a0,-24(s0)
C:/Users/nandg/Desktop/Athena_Welcome_Demo/sifive_hifive1_revb_sifive_welcome/freedom-metal/src/drivers/sifive_gpio-leds.c:65

    if (gpio != NULL) {
20015c2a:	fe842783          	lw	a5,-24(s0)
20015c2e:	c799                	beqz	a5,20015c3c <__metal_driver_led_toggle+0x36>
C:/Users/nandg/Desktop/Athena_Welcome_Demo/sifive_hifive1_revb_sifive_welcome/freedom-metal/src/drivers/sifive_gpio-leds.c:66
        metal_gpio_toggle_pin((struct metal_gpio *)gpio, pin);
20015c30:	fec42583          	lw	a1,-20(s0)
20015c34:	fe842503          	lw	a0,-24(s0)
20015c38:	400010ef          	jal	ra,20017038 <metal_gpio_toggle_pin>
C:/Users/nandg/Desktop/Athena_Welcome_Demo/sifive_hifive1_revb_sifive_welcome/freedom-metal/src/drivers/sifive_gpio-leds.c:68
    }
}
20015c3c:	0001                	nop
20015c3e:	50b2                	lw	ra,44(sp)
20015c40:	5422                	lw	s0,40(sp)
20015c42:	6145                	addi	sp,sp,48
20015c44:	8082                	ret

20015c46 <__metal_driver_sifive_gpio0_base>:
__metal_driver_sifive_gpio0_base():
C:\Users\nandg\Desktop\Athena_Welcome_Demo\sifive_hifive1_revb_sifive_welcome\bsp\build\debug/./metal/machine.h:430
{
20015c46:	1101                	addi	sp,sp,-32
20015c48:	ce22                	sw	s0,28(sp)
20015c4a:	1000                	addi	s0,sp,32
20015c4c:	fea42623          	sw	a0,-20(s0)
C:\Users\nandg\Desktop\Athena_Welcome_Demo\sifive_hifive1_revb_sifive_welcome\bsp\build\debug/./metal/machine.h:431
	if ((uintptr_t)gpio == (uintptr_t)&__metal_dt_gpio_10012000) {
20015c50:	fec42703          	lw	a4,-20(s0)
20015c54:	81818793          	addi	a5,gp,-2024 # 80000ac8 <__metal_dt_gpio_10012000>
20015c58:	00f71563          	bne	a4,a5,20015c62 <__metal_driver_sifive_gpio0_base+0x1c>
C:\Users\nandg\Desktop\Athena_Welcome_Demo\sifive_hifive1_revb_sifive_welcome\bsp\build\debug/./metal/machine.h:432
		return METAL_SIFIVE_GPIO0_10012000_BASE_ADDRESS;
20015c5c:	100127b7          	lui	a5,0x10012
20015c60:	a011                	j	20015c64 <__metal_driver_sifive_gpio0_base+0x1e>
C:\Users\nandg\Desktop\Athena_Welcome_Demo\sifive_hifive1_revb_sifive_welcome\bsp\build\debug/./metal/machine.h:435
		return 0;
20015c62:	4781                	li	a5,0
C:\Users\nandg\Desktop\Athena_Welcome_Demo\sifive_hifive1_revb_sifive_welcome\bsp\build\debug/./metal/machine.h:437
}
20015c64:	853e                	mv	a0,a5
20015c66:	4472                	lw	s0,28(sp)
20015c68:	6105                	addi	sp,sp,32
20015c6a:	8082                	ret

20015c6c <__metal_driver_sifive_gpio0_interrupt_parent>:
__metal_driver_sifive_gpio0_interrupt_parent():
C:\Users\nandg\Desktop\Athena_Welcome_Demo\sifive_hifive1_revb_sifive_welcome\bsp\build\debug/./metal/machine.h:460
{
20015c6c:	1101                	addi	sp,sp,-32
20015c6e:	ce22                	sw	s0,28(sp)
20015c70:	1000                	addi	s0,sp,32
20015c72:	fea42623          	sw	a0,-20(s0)
C:\Users\nandg\Desktop\Athena_Welcome_Demo\sifive_hifive1_revb_sifive_welcome\bsp\build\debug/./metal/machine.h:461
	if ((uintptr_t)gpio == (uintptr_t)&__metal_dt_gpio_10012000) {
20015c76:	fec42703          	lw	a4,-20(s0)
20015c7a:	81818793          	addi	a5,gp,-2024 # 80000ac8 <__metal_dt_gpio_10012000>
20015c7e:	00f71763          	bne	a4,a5,20015c8c <__metal_driver_sifive_gpio0_interrupt_parent+0x20>
C:\Users\nandg\Desktop\Athena_Welcome_Demo\sifive_hifive1_revb_sifive_welcome\bsp\build\debug/./metal/machine.h:462
		return (struct metal_interrupt *)&__metal_dt_interrupt_controller_c000000.controller;
20015c82:	800007b7          	lui	a5,0x80000
20015c86:	47078793          	addi	a5,a5,1136 # 80000470 <metal_segment_heap_target_end+0xffffecd0>
20015c8a:	a011                	j	20015c8e <__metal_driver_sifive_gpio0_interrupt_parent+0x22>
C:\Users\nandg\Desktop\Athena_Welcome_Demo\sifive_hifive1_revb_sifive_welcome\bsp\build\debug/./metal/machine.h:465
		return 0;
20015c8c:	4781                	li	a5,0
C:\Users\nandg\Desktop\Athena_Welcome_Demo\sifive_hifive1_revb_sifive_welcome\bsp\build\debug/./metal/machine.h:467
}
20015c8e:	853e                	mv	a0,a5
20015c90:	4472                	lw	s0,28(sp)
20015c92:	6105                	addi	sp,sp,32
20015c94:	8082                	ret

20015c96 <__metal_driver_sifive_gpio0_interrupt_lines>:
__metal_driver_sifive_gpio0_interrupt_lines():
C:\Users\nandg\Desktop\Athena_Welcome_Demo\sifive_hifive1_revb_sifive_welcome\bsp\build\debug/./metal/machine.h:470
{
20015c96:	1101                	addi	sp,sp,-32
20015c98:	ce22                	sw	s0,28(sp)
20015c9a:	1000                	addi	s0,sp,32
20015c9c:	fea42623          	sw	a0,-20(s0)
20015ca0:	feb42423          	sw	a1,-24(s0)
C:\Users\nandg\Desktop\Athena_Welcome_Demo\sifive_hifive1_revb_sifive_welcome\bsp\build\debug/./metal/machine.h:471
	if (((uintptr_t)gpio == (uintptr_t)&__metal_dt_gpio_10012000) && (idx == 0)) {
20015ca4:	fec42703          	lw	a4,-20(s0)
20015ca8:	81818793          	addi	a5,gp,-2024 # 80000ac8 <__metal_dt_gpio_10012000>
20015cac:	00f71763          	bne	a4,a5,20015cba <__metal_driver_sifive_gpio0_interrupt_lines+0x24>
C:\Users\nandg\Desktop\Athena_Welcome_Demo\sifive_hifive1_revb_sifive_welcome\bsp\build\debug/./metal/machine.h:471 (discriminator 1)
20015cb0:	fe842783          	lw	a5,-24(s0)
20015cb4:	e399                	bnez	a5,20015cba <__metal_driver_sifive_gpio0_interrupt_lines+0x24>
C:\Users\nandg\Desktop\Athena_Welcome_Demo\sifive_hifive1_revb_sifive_welcome\bsp\build\debug/./metal/machine.h:472
		return 8;
20015cb6:	47a1                	li	a5,8
20015cb8:	ae15                	j	20015fec <__metal_driver_sifive_gpio0_interrupt_lines+0x356>
C:\Users\nandg\Desktop\Athena_Welcome_Demo\sifive_hifive1_revb_sifive_welcome\bsp\build\debug/./metal/machine.h:474
	else if ((((uintptr_t)gpio == (uintptr_t)&__metal_dt_gpio_10012000) && (idx == 1))) {
20015cba:	fec42703          	lw	a4,-20(s0)
20015cbe:	81818793          	addi	a5,gp,-2024 # 80000ac8 <__metal_dt_gpio_10012000>
20015cc2:	00f71963          	bne	a4,a5,20015cd4 <__metal_driver_sifive_gpio0_interrupt_lines+0x3e>
C:\Users\nandg\Desktop\Athena_Welcome_Demo\sifive_hifive1_revb_sifive_welcome\bsp\build\debug/./metal/machine.h:474 (discriminator 1)
20015cc6:	fe842703          	lw	a4,-24(s0)
20015cca:	4785                	li	a5,1
20015ccc:	00f71463          	bne	a4,a5,20015cd4 <__metal_driver_sifive_gpio0_interrupt_lines+0x3e>
C:\Users\nandg\Desktop\Athena_Welcome_Demo\sifive_hifive1_revb_sifive_welcome\bsp\build\debug/./metal/machine.h:475
		return 9;
20015cd0:	47a5                	li	a5,9
20015cd2:	ae29                	j	20015fec <__metal_driver_sifive_gpio0_interrupt_lines+0x356>
C:\Users\nandg\Desktop\Athena_Welcome_Demo\sifive_hifive1_revb_sifive_welcome\bsp\build\debug/./metal/machine.h:477
	else if ((((uintptr_t)gpio == (uintptr_t)&__metal_dt_gpio_10012000) && (idx == 2))) {
20015cd4:	fec42703          	lw	a4,-20(s0)
20015cd8:	81818793          	addi	a5,gp,-2024 # 80000ac8 <__metal_dt_gpio_10012000>
20015cdc:	00f71963          	bne	a4,a5,20015cee <__metal_driver_sifive_gpio0_interrupt_lines+0x58>
C:\Users\nandg\Desktop\Athena_Welcome_Demo\sifive_hifive1_revb_sifive_welcome\bsp\build\debug/./metal/machine.h:477 (discriminator 1)
20015ce0:	fe842703          	lw	a4,-24(s0)
20015ce4:	4789                	li	a5,2
20015ce6:	00f71463          	bne	a4,a5,20015cee <__metal_driver_sifive_gpio0_interrupt_lines+0x58>
C:\Users\nandg\Desktop\Athena_Welcome_Demo\sifive_hifive1_revb_sifive_welcome\bsp\build\debug/./metal/machine.h:478
		return 10;
20015cea:	47a9                	li	a5,10
20015cec:	a601                	j	20015fec <__metal_driver_sifive_gpio0_interrupt_lines+0x356>
C:\Users\nandg\Desktop\Athena_Welcome_Demo\sifive_hifive1_revb_sifive_welcome\bsp\build\debug/./metal/machine.h:480
	else if ((((uintptr_t)gpio == (uintptr_t)&__metal_dt_gpio_10012000) && (idx == 3))) {
20015cee:	fec42703          	lw	a4,-20(s0)
20015cf2:	81818793          	addi	a5,gp,-2024 # 80000ac8 <__metal_dt_gpio_10012000>
20015cf6:	00f71963          	bne	a4,a5,20015d08 <__metal_driver_sifive_gpio0_interrupt_lines+0x72>
C:\Users\nandg\Desktop\Athena_Welcome_Demo\sifive_hifive1_revb_sifive_welcome\bsp\build\debug/./metal/machine.h:480 (discriminator 1)
20015cfa:	fe842703          	lw	a4,-24(s0)
20015cfe:	478d                	li	a5,3
20015d00:	00f71463          	bne	a4,a5,20015d08 <__metal_driver_sifive_gpio0_interrupt_lines+0x72>
C:\Users\nandg\Desktop\Athena_Welcome_Demo\sifive_hifive1_revb_sifive_welcome\bsp\build\debug/./metal/machine.h:481
		return 11;
20015d04:	47ad                	li	a5,11
20015d06:	a4dd                	j	20015fec <__metal_driver_sifive_gpio0_interrupt_lines+0x356>
C:\Users\nandg\Desktop\Athena_Welcome_Demo\sifive_hifive1_revb_sifive_welcome\bsp\build\debug/./metal/machine.h:483
	else if ((((uintptr_t)gpio == (uintptr_t)&__metal_dt_gpio_10012000) && (idx == 4))) {
20015d08:	fec42703          	lw	a4,-20(s0)
20015d0c:	81818793          	addi	a5,gp,-2024 # 80000ac8 <__metal_dt_gpio_10012000>
20015d10:	00f71963          	bne	a4,a5,20015d22 <__metal_driver_sifive_gpio0_interrupt_lines+0x8c>
C:\Users\nandg\Desktop\Athena_Welcome_Demo\sifive_hifive1_revb_sifive_welcome\bsp\build\debug/./metal/machine.h:483 (discriminator 1)
20015d14:	fe842703          	lw	a4,-24(s0)
20015d18:	4791                	li	a5,4
20015d1a:	00f71463          	bne	a4,a5,20015d22 <__metal_driver_sifive_gpio0_interrupt_lines+0x8c>
C:\Users\nandg\Desktop\Athena_Welcome_Demo\sifive_hifive1_revb_sifive_welcome\bsp\build\debug/./metal/machine.h:484
		return 12;
20015d1e:	47b1                	li	a5,12
20015d20:	a4f1                	j	20015fec <__metal_driver_sifive_gpio0_interrupt_lines+0x356>
C:\Users\nandg\Desktop\Athena_Welcome_Demo\sifive_hifive1_revb_sifive_welcome\bsp\build\debug/./metal/machine.h:486
	else if ((((uintptr_t)gpio == (uintptr_t)&__metal_dt_gpio_10012000) && (idx == 5))) {
20015d22:	fec42703          	lw	a4,-20(s0)
20015d26:	81818793          	addi	a5,gp,-2024 # 80000ac8 <__metal_dt_gpio_10012000>
20015d2a:	00f71963          	bne	a4,a5,20015d3c <__metal_driver_sifive_gpio0_interrupt_lines+0xa6>
C:\Users\nandg\Desktop\Athena_Welcome_Demo\sifive_hifive1_revb_sifive_welcome\bsp\build\debug/./metal/machine.h:486 (discriminator 1)
20015d2e:	fe842703          	lw	a4,-24(s0)
20015d32:	4795                	li	a5,5
20015d34:	00f71463          	bne	a4,a5,20015d3c <__metal_driver_sifive_gpio0_interrupt_lines+0xa6>
C:\Users\nandg\Desktop\Athena_Welcome_Demo\sifive_hifive1_revb_sifive_welcome\bsp\build\debug/./metal/machine.h:487
		return 13;
20015d38:	47b5                	li	a5,13
20015d3a:	ac4d                	j	20015fec <__metal_driver_sifive_gpio0_interrupt_lines+0x356>
C:\Users\nandg\Desktop\Athena_Welcome_Demo\sifive_hifive1_revb_sifive_welcome\bsp\build\debug/./metal/machine.h:489
	else if ((((uintptr_t)gpio == (uintptr_t)&__metal_dt_gpio_10012000) && (idx == 6))) {
20015d3c:	fec42703          	lw	a4,-20(s0)
20015d40:	81818793          	addi	a5,gp,-2024 # 80000ac8 <__metal_dt_gpio_10012000>
20015d44:	00f71963          	bne	a4,a5,20015d56 <__metal_driver_sifive_gpio0_interrupt_lines+0xc0>
C:\Users\nandg\Desktop\Athena_Welcome_Demo\sifive_hifive1_revb_sifive_welcome\bsp\build\debug/./metal/machine.h:489 (discriminator 1)
20015d48:	fe842703          	lw	a4,-24(s0)
20015d4c:	4799                	li	a5,6
20015d4e:	00f71463          	bne	a4,a5,20015d56 <__metal_driver_sifive_gpio0_interrupt_lines+0xc0>
C:\Users\nandg\Desktop\Athena_Welcome_Demo\sifive_hifive1_revb_sifive_welcome\bsp\build\debug/./metal/machine.h:490
		return 14;
20015d52:	47b9                	li	a5,14
20015d54:	ac61                	j	20015fec <__metal_driver_sifive_gpio0_interrupt_lines+0x356>
C:\Users\nandg\Desktop\Athena_Welcome_Demo\sifive_hifive1_revb_sifive_welcome\bsp\build\debug/./metal/machine.h:492
	else if ((((uintptr_t)gpio == (uintptr_t)&__metal_dt_gpio_10012000) && (idx == 7))) {
20015d56:	fec42703          	lw	a4,-20(s0)
20015d5a:	81818793          	addi	a5,gp,-2024 # 80000ac8 <__metal_dt_gpio_10012000>
20015d5e:	00f71963          	bne	a4,a5,20015d70 <__metal_driver_sifive_gpio0_interrupt_lines+0xda>
C:\Users\nandg\Desktop\Athena_Welcome_Demo\sifive_hifive1_revb_sifive_welcome\bsp\build\debug/./metal/machine.h:492 (discriminator 1)
20015d62:	fe842703          	lw	a4,-24(s0)
20015d66:	479d                	li	a5,7
20015d68:	00f71463          	bne	a4,a5,20015d70 <__metal_driver_sifive_gpio0_interrupt_lines+0xda>
C:\Users\nandg\Desktop\Athena_Welcome_Demo\sifive_hifive1_revb_sifive_welcome\bsp\build\debug/./metal/machine.h:493
		return 15;
20015d6c:	47bd                	li	a5,15
20015d6e:	acbd                	j	20015fec <__metal_driver_sifive_gpio0_interrupt_lines+0x356>
C:\Users\nandg\Desktop\Athena_Welcome_Demo\sifive_hifive1_revb_sifive_welcome\bsp\build\debug/./metal/machine.h:495
	else if ((((uintptr_t)gpio == (uintptr_t)&__metal_dt_gpio_10012000) && (idx == 8))) {
20015d70:	fec42703          	lw	a4,-20(s0)
20015d74:	81818793          	addi	a5,gp,-2024 # 80000ac8 <__metal_dt_gpio_10012000>
20015d78:	00f71963          	bne	a4,a5,20015d8a <__metal_driver_sifive_gpio0_interrupt_lines+0xf4>
C:\Users\nandg\Desktop\Athena_Welcome_Demo\sifive_hifive1_revb_sifive_welcome\bsp\build\debug/./metal/machine.h:495 (discriminator 1)
20015d7c:	fe842703          	lw	a4,-24(s0)
20015d80:	47a1                	li	a5,8
20015d82:	00f71463          	bne	a4,a5,20015d8a <__metal_driver_sifive_gpio0_interrupt_lines+0xf4>
C:\Users\nandg\Desktop\Athena_Welcome_Demo\sifive_hifive1_revb_sifive_welcome\bsp\build\debug/./metal/machine.h:496
		return 16;
20015d86:	47c1                	li	a5,16
20015d88:	a495                	j	20015fec <__metal_driver_sifive_gpio0_interrupt_lines+0x356>
C:\Users\nandg\Desktop\Athena_Welcome_Demo\sifive_hifive1_revb_sifive_welcome\bsp\build\debug/./metal/machine.h:498
	else if ((((uintptr_t)gpio == (uintptr_t)&__metal_dt_gpio_10012000) && (idx == 9))) {
20015d8a:	fec42703          	lw	a4,-20(s0)
20015d8e:	81818793          	addi	a5,gp,-2024 # 80000ac8 <__metal_dt_gpio_10012000>
20015d92:	00f71963          	bne	a4,a5,20015da4 <__metal_driver_sifive_gpio0_interrupt_lines+0x10e>
C:\Users\nandg\Desktop\Athena_Welcome_Demo\sifive_hifive1_revb_sifive_welcome\bsp\build\debug/./metal/machine.h:498 (discriminator 1)
20015d96:	fe842703          	lw	a4,-24(s0)
20015d9a:	47a5                	li	a5,9
20015d9c:	00f71463          	bne	a4,a5,20015da4 <__metal_driver_sifive_gpio0_interrupt_lines+0x10e>
C:\Users\nandg\Desktop\Athena_Welcome_Demo\sifive_hifive1_revb_sifive_welcome\bsp\build\debug/./metal/machine.h:499
		return 17;
20015da0:	47c5                	li	a5,17
20015da2:	a4a9                	j	20015fec <__metal_driver_sifive_gpio0_interrupt_lines+0x356>
C:\Users\nandg\Desktop\Athena_Welcome_Demo\sifive_hifive1_revb_sifive_welcome\bsp\build\debug/./metal/machine.h:501
	else if ((((uintptr_t)gpio == (uintptr_t)&__metal_dt_gpio_10012000) && (idx == 10))) {
20015da4:	fec42703          	lw	a4,-20(s0)
20015da8:	81818793          	addi	a5,gp,-2024 # 80000ac8 <__metal_dt_gpio_10012000>
20015dac:	00f71963          	bne	a4,a5,20015dbe <__metal_driver_sifive_gpio0_interrupt_lines+0x128>
C:\Users\nandg\Desktop\Athena_Welcome_Demo\sifive_hifive1_revb_sifive_welcome\bsp\build\debug/./metal/machine.h:501 (discriminator 1)
20015db0:	fe842703          	lw	a4,-24(s0)
20015db4:	47a9                	li	a5,10
20015db6:	00f71463          	bne	a4,a5,20015dbe <__metal_driver_sifive_gpio0_interrupt_lines+0x128>
C:\Users\nandg\Desktop\Athena_Welcome_Demo\sifive_hifive1_revb_sifive_welcome\bsp\build\debug/./metal/machine.h:502
		return 18;
20015dba:	47c9                	li	a5,18
20015dbc:	ac05                	j	20015fec <__metal_driver_sifive_gpio0_interrupt_lines+0x356>
C:\Users\nandg\Desktop\Athena_Welcome_Demo\sifive_hifive1_revb_sifive_welcome\bsp\build\debug/./metal/machine.h:504
	else if ((((uintptr_t)gpio == (uintptr_t)&__metal_dt_gpio_10012000) && (idx == 11))) {
20015dbe:	fec42703          	lw	a4,-20(s0)
20015dc2:	81818793          	addi	a5,gp,-2024 # 80000ac8 <__metal_dt_gpio_10012000>
20015dc6:	00f71963          	bne	a4,a5,20015dd8 <__metal_driver_sifive_gpio0_interrupt_lines+0x142>
C:\Users\nandg\Desktop\Athena_Welcome_Demo\sifive_hifive1_revb_sifive_welcome\bsp\build\debug/./metal/machine.h:504 (discriminator 1)
20015dca:	fe842703          	lw	a4,-24(s0)
20015dce:	47ad                	li	a5,11
20015dd0:	00f71463          	bne	a4,a5,20015dd8 <__metal_driver_sifive_gpio0_interrupt_lines+0x142>
C:\Users\nandg\Desktop\Athena_Welcome_Demo\sifive_hifive1_revb_sifive_welcome\bsp\build\debug/./metal/machine.h:505
		return 19;
20015dd4:	47cd                	li	a5,19
20015dd6:	ac19                	j	20015fec <__metal_driver_sifive_gpio0_interrupt_lines+0x356>
C:\Users\nandg\Desktop\Athena_Welcome_Demo\sifive_hifive1_revb_sifive_welcome\bsp\build\debug/./metal/machine.h:507
	else if ((((uintptr_t)gpio == (uintptr_t)&__metal_dt_gpio_10012000) && (idx == 12))) {
20015dd8:	fec42703          	lw	a4,-20(s0)
20015ddc:	81818793          	addi	a5,gp,-2024 # 80000ac8 <__metal_dt_gpio_10012000>
20015de0:	00f71963          	bne	a4,a5,20015df2 <__metal_driver_sifive_gpio0_interrupt_lines+0x15c>
C:\Users\nandg\Desktop\Athena_Welcome_Demo\sifive_hifive1_revb_sifive_welcome\bsp\build\debug/./metal/machine.h:507 (discriminator 1)
20015de4:	fe842703          	lw	a4,-24(s0)
20015de8:	47b1                	li	a5,12
20015dea:	00f71463          	bne	a4,a5,20015df2 <__metal_driver_sifive_gpio0_interrupt_lines+0x15c>
C:\Users\nandg\Desktop\Athena_Welcome_Demo\sifive_hifive1_revb_sifive_welcome\bsp\build\debug/./metal/machine.h:508
		return 20;
20015dee:	47d1                	li	a5,20
20015df0:	aaf5                	j	20015fec <__metal_driver_sifive_gpio0_interrupt_lines+0x356>
C:\Users\nandg\Desktop\Athena_Welcome_Demo\sifive_hifive1_revb_sifive_welcome\bsp\build\debug/./metal/machine.h:510
	else if ((((uintptr_t)gpio == (uintptr_t)&__metal_dt_gpio_10012000) && (idx == 13))) {
20015df2:	fec42703          	lw	a4,-20(s0)
20015df6:	81818793          	addi	a5,gp,-2024 # 80000ac8 <__metal_dt_gpio_10012000>
20015dfa:	00f71963          	bne	a4,a5,20015e0c <__metal_driver_sifive_gpio0_interrupt_lines+0x176>
C:\Users\nandg\Desktop\Athena_Welcome_Demo\sifive_hifive1_revb_sifive_welcome\bsp\build\debug/./metal/machine.h:510 (discriminator 1)
20015dfe:	fe842703          	lw	a4,-24(s0)
20015e02:	47b5                	li	a5,13
20015e04:	00f71463          	bne	a4,a5,20015e0c <__metal_driver_sifive_gpio0_interrupt_lines+0x176>
C:\Users\nandg\Desktop\Athena_Welcome_Demo\sifive_hifive1_revb_sifive_welcome\bsp\build\debug/./metal/machine.h:511
		return 21;
20015e08:	47d5                	li	a5,21
20015e0a:	a2cd                	j	20015fec <__metal_driver_sifive_gpio0_interrupt_lines+0x356>
C:\Users\nandg\Desktop\Athena_Welcome_Demo\sifive_hifive1_revb_sifive_welcome\bsp\build\debug/./metal/machine.h:513
	else if ((((uintptr_t)gpio == (uintptr_t)&__metal_dt_gpio_10012000) && (idx == 14))) {
20015e0c:	fec42703          	lw	a4,-20(s0)
20015e10:	81818793          	addi	a5,gp,-2024 # 80000ac8 <__metal_dt_gpio_10012000>
20015e14:	00f71963          	bne	a4,a5,20015e26 <__metal_driver_sifive_gpio0_interrupt_lines+0x190>
C:\Users\nandg\Desktop\Athena_Welcome_Demo\sifive_hifive1_revb_sifive_welcome\bsp\build\debug/./metal/machine.h:513 (discriminator 1)
20015e18:	fe842703          	lw	a4,-24(s0)
20015e1c:	47b9                	li	a5,14
20015e1e:	00f71463          	bne	a4,a5,20015e26 <__metal_driver_sifive_gpio0_interrupt_lines+0x190>
C:\Users\nandg\Desktop\Athena_Welcome_Demo\sifive_hifive1_revb_sifive_welcome\bsp\build\debug/./metal/machine.h:514
		return 22;
20015e22:	47d9                	li	a5,22
20015e24:	a2e1                	j	20015fec <__metal_driver_sifive_gpio0_interrupt_lines+0x356>
C:\Users\nandg\Desktop\Athena_Welcome_Demo\sifive_hifive1_revb_sifive_welcome\bsp\build\debug/./metal/machine.h:516
	else if ((((uintptr_t)gpio == (uintptr_t)&__metal_dt_gpio_10012000) && (idx == 15))) {
20015e26:	fec42703          	lw	a4,-20(s0)
20015e2a:	81818793          	addi	a5,gp,-2024 # 80000ac8 <__metal_dt_gpio_10012000>
20015e2e:	00f71963          	bne	a4,a5,20015e40 <__metal_driver_sifive_gpio0_interrupt_lines+0x1aa>
C:\Users\nandg\Desktop\Athena_Welcome_Demo\sifive_hifive1_revb_sifive_welcome\bsp\build\debug/./metal/machine.h:516 (discriminator 1)
20015e32:	fe842703          	lw	a4,-24(s0)
20015e36:	47bd                	li	a5,15
20015e38:	00f71463          	bne	a4,a5,20015e40 <__metal_driver_sifive_gpio0_interrupt_lines+0x1aa>
C:\Users\nandg\Desktop\Athena_Welcome_Demo\sifive_hifive1_revb_sifive_welcome\bsp\build\debug/./metal/machine.h:517
		return 23;
20015e3c:	47dd                	li	a5,23
20015e3e:	a27d                	j	20015fec <__metal_driver_sifive_gpio0_interrupt_lines+0x356>
C:\Users\nandg\Desktop\Athena_Welcome_Demo\sifive_hifive1_revb_sifive_welcome\bsp\build\debug/./metal/machine.h:519
	else if ((((uintptr_t)gpio == (uintptr_t)&__metal_dt_gpio_10012000) && (idx == 16))) {
20015e40:	fec42703          	lw	a4,-20(s0)
20015e44:	81818793          	addi	a5,gp,-2024 # 80000ac8 <__metal_dt_gpio_10012000>
20015e48:	00f71963          	bne	a4,a5,20015e5a <__metal_driver_sifive_gpio0_interrupt_lines+0x1c4>
C:\Users\nandg\Desktop\Athena_Welcome_Demo\sifive_hifive1_revb_sifive_welcome\bsp\build\debug/./metal/machine.h:519 (discriminator 1)
20015e4c:	fe842703          	lw	a4,-24(s0)
20015e50:	47c1                	li	a5,16
20015e52:	00f71463          	bne	a4,a5,20015e5a <__metal_driver_sifive_gpio0_interrupt_lines+0x1c4>
C:\Users\nandg\Desktop\Athena_Welcome_Demo\sifive_hifive1_revb_sifive_welcome\bsp\build\debug/./metal/machine.h:520
		return 24;
20015e56:	47e1                	li	a5,24
20015e58:	aa51                	j	20015fec <__metal_driver_sifive_gpio0_interrupt_lines+0x356>
C:\Users\nandg\Desktop\Athena_Welcome_Demo\sifive_hifive1_revb_sifive_welcome\bsp\build\debug/./metal/machine.h:522
	else if ((((uintptr_t)gpio == (uintptr_t)&__metal_dt_gpio_10012000) && (idx == 17))) {
20015e5a:	fec42703          	lw	a4,-20(s0)
20015e5e:	81818793          	addi	a5,gp,-2024 # 80000ac8 <__metal_dt_gpio_10012000>
20015e62:	00f71963          	bne	a4,a5,20015e74 <__metal_driver_sifive_gpio0_interrupt_lines+0x1de>
C:\Users\nandg\Desktop\Athena_Welcome_Demo\sifive_hifive1_revb_sifive_welcome\bsp\build\debug/./metal/machine.h:522 (discriminator 1)
20015e66:	fe842703          	lw	a4,-24(s0)
20015e6a:	47c5                	li	a5,17
20015e6c:	00f71463          	bne	a4,a5,20015e74 <__metal_driver_sifive_gpio0_interrupt_lines+0x1de>
C:\Users\nandg\Desktop\Athena_Welcome_Demo\sifive_hifive1_revb_sifive_welcome\bsp\build\debug/./metal/machine.h:523
		return 25;
20015e70:	47e5                	li	a5,25
20015e72:	aaad                	j	20015fec <__metal_driver_sifive_gpio0_interrupt_lines+0x356>
C:\Users\nandg\Desktop\Athena_Welcome_Demo\sifive_hifive1_revb_sifive_welcome\bsp\build\debug/./metal/machine.h:525
	else if ((((uintptr_t)gpio == (uintptr_t)&__metal_dt_gpio_10012000) && (idx == 18))) {
20015e74:	fec42703          	lw	a4,-20(s0)
20015e78:	81818793          	addi	a5,gp,-2024 # 80000ac8 <__metal_dt_gpio_10012000>
20015e7c:	00f71963          	bne	a4,a5,20015e8e <__metal_driver_sifive_gpio0_interrupt_lines+0x1f8>
C:\Users\nandg\Desktop\Athena_Welcome_Demo\sifive_hifive1_revb_sifive_welcome\bsp\build\debug/./metal/machine.h:525 (discriminator 1)
20015e80:	fe842703          	lw	a4,-24(s0)
20015e84:	47c9                	li	a5,18
20015e86:	00f71463          	bne	a4,a5,20015e8e <__metal_driver_sifive_gpio0_interrupt_lines+0x1f8>
C:\Users\nandg\Desktop\Athena_Welcome_Demo\sifive_hifive1_revb_sifive_welcome\bsp\build\debug/./metal/machine.h:526
		return 26;
20015e8a:	47e9                	li	a5,26
20015e8c:	a285                	j	20015fec <__metal_driver_sifive_gpio0_interrupt_lines+0x356>
C:\Users\nandg\Desktop\Athena_Welcome_Demo\sifive_hifive1_revb_sifive_welcome\bsp\build\debug/./metal/machine.h:528
	else if ((((uintptr_t)gpio == (uintptr_t)&__metal_dt_gpio_10012000) && (idx == 19))) {
20015e8e:	fec42703          	lw	a4,-20(s0)
20015e92:	81818793          	addi	a5,gp,-2024 # 80000ac8 <__metal_dt_gpio_10012000>
20015e96:	00f71963          	bne	a4,a5,20015ea8 <__metal_driver_sifive_gpio0_interrupt_lines+0x212>
C:\Users\nandg\Desktop\Athena_Welcome_Demo\sifive_hifive1_revb_sifive_welcome\bsp\build\debug/./metal/machine.h:528 (discriminator 1)
20015e9a:	fe842703          	lw	a4,-24(s0)
20015e9e:	47cd                	li	a5,19
20015ea0:	00f71463          	bne	a4,a5,20015ea8 <__metal_driver_sifive_gpio0_interrupt_lines+0x212>
C:\Users\nandg\Desktop\Athena_Welcome_Demo\sifive_hifive1_revb_sifive_welcome\bsp\build\debug/./metal/machine.h:529
		return 27;
20015ea4:	47ed                	li	a5,27
20015ea6:	a299                	j	20015fec <__metal_driver_sifive_gpio0_interrupt_lines+0x356>
C:\Users\nandg\Desktop\Athena_Welcome_Demo\sifive_hifive1_revb_sifive_welcome\bsp\build\debug/./metal/machine.h:531
	else if ((((uintptr_t)gpio == (uintptr_t)&__metal_dt_gpio_10012000) && (idx == 20))) {
20015ea8:	fec42703          	lw	a4,-20(s0)
20015eac:	81818793          	addi	a5,gp,-2024 # 80000ac8 <__metal_dt_gpio_10012000>
20015eb0:	00f71963          	bne	a4,a5,20015ec2 <__metal_driver_sifive_gpio0_interrupt_lines+0x22c>
C:\Users\nandg\Desktop\Athena_Welcome_Demo\sifive_hifive1_revb_sifive_welcome\bsp\build\debug/./metal/machine.h:531 (discriminator 1)
20015eb4:	fe842703          	lw	a4,-24(s0)
20015eb8:	47d1                	li	a5,20
20015eba:	00f71463          	bne	a4,a5,20015ec2 <__metal_driver_sifive_gpio0_interrupt_lines+0x22c>
C:\Users\nandg\Desktop\Athena_Welcome_Demo\sifive_hifive1_revb_sifive_welcome\bsp\build\debug/./metal/machine.h:532
		return 28;
20015ebe:	47f1                	li	a5,28
20015ec0:	a235                	j	20015fec <__metal_driver_sifive_gpio0_interrupt_lines+0x356>
C:\Users\nandg\Desktop\Athena_Welcome_Demo\sifive_hifive1_revb_sifive_welcome\bsp\build\debug/./metal/machine.h:534
	else if ((((uintptr_t)gpio == (uintptr_t)&__metal_dt_gpio_10012000) && (idx == 21))) {
20015ec2:	fec42703          	lw	a4,-20(s0)
20015ec6:	81818793          	addi	a5,gp,-2024 # 80000ac8 <__metal_dt_gpio_10012000>
20015eca:	00f71963          	bne	a4,a5,20015edc <__metal_driver_sifive_gpio0_interrupt_lines+0x246>
C:\Users\nandg\Desktop\Athena_Welcome_Demo\sifive_hifive1_revb_sifive_welcome\bsp\build\debug/./metal/machine.h:534 (discriminator 1)
20015ece:	fe842703          	lw	a4,-24(s0)
20015ed2:	47d5                	li	a5,21
20015ed4:	00f71463          	bne	a4,a5,20015edc <__metal_driver_sifive_gpio0_interrupt_lines+0x246>
C:\Users\nandg\Desktop\Athena_Welcome_Demo\sifive_hifive1_revb_sifive_welcome\bsp\build\debug/./metal/machine.h:535
		return 29;
20015ed8:	47f5                	li	a5,29
20015eda:	aa09                	j	20015fec <__metal_driver_sifive_gpio0_interrupt_lines+0x356>
C:\Users\nandg\Desktop\Athena_Welcome_Demo\sifive_hifive1_revb_sifive_welcome\bsp\build\debug/./metal/machine.h:537
	else if ((((uintptr_t)gpio == (uintptr_t)&__metal_dt_gpio_10012000) && (idx == 22))) {
20015edc:	fec42703          	lw	a4,-20(s0)
20015ee0:	81818793          	addi	a5,gp,-2024 # 80000ac8 <__metal_dt_gpio_10012000>
20015ee4:	00f71963          	bne	a4,a5,20015ef6 <__metal_driver_sifive_gpio0_interrupt_lines+0x260>
C:\Users\nandg\Desktop\Athena_Welcome_Demo\sifive_hifive1_revb_sifive_welcome\bsp\build\debug/./metal/machine.h:537 (discriminator 1)
20015ee8:	fe842703          	lw	a4,-24(s0)
20015eec:	47d9                	li	a5,22
20015eee:	00f71463          	bne	a4,a5,20015ef6 <__metal_driver_sifive_gpio0_interrupt_lines+0x260>
C:\Users\nandg\Desktop\Athena_Welcome_Demo\sifive_hifive1_revb_sifive_welcome\bsp\build\debug/./metal/machine.h:538
		return 30;
20015ef2:	47f9                	li	a5,30
20015ef4:	a8e5                	j	20015fec <__metal_driver_sifive_gpio0_interrupt_lines+0x356>
C:\Users\nandg\Desktop\Athena_Welcome_Demo\sifive_hifive1_revb_sifive_welcome\bsp\build\debug/./metal/machine.h:540
	else if ((((uintptr_t)gpio == (uintptr_t)&__metal_dt_gpio_10012000) && (idx == 23))) {
20015ef6:	fec42703          	lw	a4,-20(s0)
20015efa:	81818793          	addi	a5,gp,-2024 # 80000ac8 <__metal_dt_gpio_10012000>
20015efe:	00f71963          	bne	a4,a5,20015f10 <__metal_driver_sifive_gpio0_interrupt_lines+0x27a>
C:\Users\nandg\Desktop\Athena_Welcome_Demo\sifive_hifive1_revb_sifive_welcome\bsp\build\debug/./metal/machine.h:540 (discriminator 1)
20015f02:	fe842703          	lw	a4,-24(s0)
20015f06:	47dd                	li	a5,23
20015f08:	00f71463          	bne	a4,a5,20015f10 <__metal_driver_sifive_gpio0_interrupt_lines+0x27a>
C:\Users\nandg\Desktop\Athena_Welcome_Demo\sifive_hifive1_revb_sifive_welcome\bsp\build\debug/./metal/machine.h:541
		return 31;
20015f0c:	47fd                	li	a5,31
20015f0e:	a8f9                	j	20015fec <__metal_driver_sifive_gpio0_interrupt_lines+0x356>
C:\Users\nandg\Desktop\Athena_Welcome_Demo\sifive_hifive1_revb_sifive_welcome\bsp\build\debug/./metal/machine.h:543
	else if ((((uintptr_t)gpio == (uintptr_t)&__metal_dt_gpio_10012000) && (idx == 24))) {
20015f10:	fec42703          	lw	a4,-20(s0)
20015f14:	81818793          	addi	a5,gp,-2024 # 80000ac8 <__metal_dt_gpio_10012000>
20015f18:	00f71a63          	bne	a4,a5,20015f2c <__metal_driver_sifive_gpio0_interrupt_lines+0x296>
C:\Users\nandg\Desktop\Athena_Welcome_Demo\sifive_hifive1_revb_sifive_welcome\bsp\build\debug/./metal/machine.h:543 (discriminator 1)
20015f1c:	fe842703          	lw	a4,-24(s0)
20015f20:	47e1                	li	a5,24
20015f22:	00f71563          	bne	a4,a5,20015f2c <__metal_driver_sifive_gpio0_interrupt_lines+0x296>
C:\Users\nandg\Desktop\Athena_Welcome_Demo\sifive_hifive1_revb_sifive_welcome\bsp\build\debug/./metal/machine.h:544
		return 32;
20015f26:	02000793          	li	a5,32
20015f2a:	a0c9                	j	20015fec <__metal_driver_sifive_gpio0_interrupt_lines+0x356>
C:\Users\nandg\Desktop\Athena_Welcome_Demo\sifive_hifive1_revb_sifive_welcome\bsp\build\debug/./metal/machine.h:546
	else if ((((uintptr_t)gpio == (uintptr_t)&__metal_dt_gpio_10012000) && (idx == 25))) {
20015f2c:	fec42703          	lw	a4,-20(s0)
20015f30:	81818793          	addi	a5,gp,-2024 # 80000ac8 <__metal_dt_gpio_10012000>
20015f34:	00f71a63          	bne	a4,a5,20015f48 <__metal_driver_sifive_gpio0_interrupt_lines+0x2b2>
C:\Users\nandg\Desktop\Athena_Welcome_Demo\sifive_hifive1_revb_sifive_welcome\bsp\build\debug/./metal/machine.h:546 (discriminator 1)
20015f38:	fe842703          	lw	a4,-24(s0)
20015f3c:	47e5                	li	a5,25
20015f3e:	00f71563          	bne	a4,a5,20015f48 <__metal_driver_sifive_gpio0_interrupt_lines+0x2b2>
C:\Users\nandg\Desktop\Athena_Welcome_Demo\sifive_hifive1_revb_sifive_welcome\bsp\build\debug/./metal/machine.h:547
		return 33;
20015f42:	02100793          	li	a5,33
20015f46:	a05d                	j	20015fec <__metal_driver_sifive_gpio0_interrupt_lines+0x356>
C:\Users\nandg\Desktop\Athena_Welcome_Demo\sifive_hifive1_revb_sifive_welcome\bsp\build\debug/./metal/machine.h:549
	else if ((((uintptr_t)gpio == (uintptr_t)&__metal_dt_gpio_10012000) && (idx == 26))) {
20015f48:	fec42703          	lw	a4,-20(s0)
20015f4c:	81818793          	addi	a5,gp,-2024 # 80000ac8 <__metal_dt_gpio_10012000>
20015f50:	00f71a63          	bne	a4,a5,20015f64 <__metal_driver_sifive_gpio0_interrupt_lines+0x2ce>
C:\Users\nandg\Desktop\Athena_Welcome_Demo\sifive_hifive1_revb_sifive_welcome\bsp\build\debug/./metal/machine.h:549 (discriminator 1)
20015f54:	fe842703          	lw	a4,-24(s0)
20015f58:	47e9                	li	a5,26
20015f5a:	00f71563          	bne	a4,a5,20015f64 <__metal_driver_sifive_gpio0_interrupt_lines+0x2ce>
C:\Users\nandg\Desktop\Athena_Welcome_Demo\sifive_hifive1_revb_sifive_welcome\bsp\build\debug/./metal/machine.h:550
		return 34;
20015f5e:	02200793          	li	a5,34
20015f62:	a069                	j	20015fec <__metal_driver_sifive_gpio0_interrupt_lines+0x356>
C:\Users\nandg\Desktop\Athena_Welcome_Demo\sifive_hifive1_revb_sifive_welcome\bsp\build\debug/./metal/machine.h:552
	else if ((((uintptr_t)gpio == (uintptr_t)&__metal_dt_gpio_10012000) && (idx == 27))) {
20015f64:	fec42703          	lw	a4,-20(s0)
20015f68:	81818793          	addi	a5,gp,-2024 # 80000ac8 <__metal_dt_gpio_10012000>
20015f6c:	00f71a63          	bne	a4,a5,20015f80 <__metal_driver_sifive_gpio0_interrupt_lines+0x2ea>
C:\Users\nandg\Desktop\Athena_Welcome_Demo\sifive_hifive1_revb_sifive_welcome\bsp\build\debug/./metal/machine.h:552 (discriminator 1)
20015f70:	fe842703          	lw	a4,-24(s0)
20015f74:	47ed                	li	a5,27
20015f76:	00f71563          	bne	a4,a5,20015f80 <__metal_driver_sifive_gpio0_interrupt_lines+0x2ea>
C:\Users\nandg\Desktop\Athena_Welcome_Demo\sifive_hifive1_revb_sifive_welcome\bsp\build\debug/./metal/machine.h:553
		return 35;
20015f7a:	02300793          	li	a5,35
20015f7e:	a0bd                	j	20015fec <__metal_driver_sifive_gpio0_interrupt_lines+0x356>
C:\Users\nandg\Desktop\Athena_Welcome_Demo\sifive_hifive1_revb_sifive_welcome\bsp\build\debug/./metal/machine.h:555
	else if ((((uintptr_t)gpio == (uintptr_t)&__metal_dt_gpio_10012000) && (idx == 28))) {
20015f80:	fec42703          	lw	a4,-20(s0)
20015f84:	81818793          	addi	a5,gp,-2024 # 80000ac8 <__metal_dt_gpio_10012000>
20015f88:	00f71a63          	bne	a4,a5,20015f9c <__metal_driver_sifive_gpio0_interrupt_lines+0x306>
C:\Users\nandg\Desktop\Athena_Welcome_Demo\sifive_hifive1_revb_sifive_welcome\bsp\build\debug/./metal/machine.h:555 (discriminator 1)
20015f8c:	fe842703          	lw	a4,-24(s0)
20015f90:	47f1                	li	a5,28
20015f92:	00f71563          	bne	a4,a5,20015f9c <__metal_driver_sifive_gpio0_interrupt_lines+0x306>
C:\Users\nandg\Desktop\Athena_Welcome_Demo\sifive_hifive1_revb_sifive_welcome\bsp\build\debug/./metal/machine.h:556
		return 36;
20015f96:	02400793          	li	a5,36
20015f9a:	a889                	j	20015fec <__metal_driver_sifive_gpio0_interrupt_lines+0x356>
C:\Users\nandg\Desktop\Athena_Welcome_Demo\sifive_hifive1_revb_sifive_welcome\bsp\build\debug/./metal/machine.h:558
	else if ((((uintptr_t)gpio == (uintptr_t)&__metal_dt_gpio_10012000) && (idx == 29))) {
20015f9c:	fec42703          	lw	a4,-20(s0)
20015fa0:	81818793          	addi	a5,gp,-2024 # 80000ac8 <__metal_dt_gpio_10012000>
20015fa4:	00f71963          	bne	a4,a5,20015fb6 <__metal_driver_sifive_gpio0_interrupt_lines+0x320>
C:\Users\nandg\Desktop\Athena_Welcome_Demo\sifive_hifive1_revb_sifive_welcome\bsp\build\debug/./metal/machine.h:558 (discriminator 1)
20015fa8:	fe842703          	lw	a4,-24(s0)
20015fac:	47f5                	li	a5,29
20015fae:	00f71463          	bne	a4,a5,20015fb6 <__metal_driver_sifive_gpio0_interrupt_lines+0x320>
C:\Users\nandg\Desktop\Athena_Welcome_Demo\sifive_hifive1_revb_sifive_welcome\bsp\build\debug/./metal/machine.h:559
		return 27;
20015fb2:	47ed                	li	a5,27
20015fb4:	a825                	j	20015fec <__metal_driver_sifive_gpio0_interrupt_lines+0x356>
C:\Users\nandg\Desktop\Athena_Welcome_Demo\sifive_hifive1_revb_sifive_welcome\bsp\build\debug/./metal/machine.h:561
	else if ((((uintptr_t)gpio == (uintptr_t)&__metal_dt_gpio_10012000) && (idx == 30))) {
20015fb6:	fec42703          	lw	a4,-20(s0)
20015fba:	81818793          	addi	a5,gp,-2024 # 80000ac8 <__metal_dt_gpio_10012000>
20015fbe:	00f71963          	bne	a4,a5,20015fd0 <__metal_driver_sifive_gpio0_interrupt_lines+0x33a>
C:\Users\nandg\Desktop\Athena_Welcome_Demo\sifive_hifive1_revb_sifive_welcome\bsp\build\debug/./metal/machine.h:561 (discriminator 1)
20015fc2:	fe842703          	lw	a4,-24(s0)
20015fc6:	47f9                	li	a5,30
20015fc8:	00f71463          	bne	a4,a5,20015fd0 <__metal_driver_sifive_gpio0_interrupt_lines+0x33a>
C:\Users\nandg\Desktop\Athena_Welcome_Demo\sifive_hifive1_revb_sifive_welcome\bsp\build\debug/./metal/machine.h:562
		return 28;
20015fcc:	47f1                	li	a5,28
20015fce:	a839                	j	20015fec <__metal_driver_sifive_gpio0_interrupt_lines+0x356>
C:\Users\nandg\Desktop\Athena_Welcome_Demo\sifive_hifive1_revb_sifive_welcome\bsp\build\debug/./metal/machine.h:564
	else if ((((uintptr_t)gpio == (uintptr_t)&__metal_dt_gpio_10012000) && (idx == 31))) {
20015fd0:	fec42703          	lw	a4,-20(s0)
20015fd4:	81818793          	addi	a5,gp,-2024 # 80000ac8 <__metal_dt_gpio_10012000>
20015fd8:	00f71963          	bne	a4,a5,20015fea <__metal_driver_sifive_gpio0_interrupt_lines+0x354>
C:\Users\nandg\Desktop\Athena_Welcome_Demo\sifive_hifive1_revb_sifive_welcome\bsp\build\debug/./metal/machine.h:564 (discriminator 1)
20015fdc:	fe842703          	lw	a4,-24(s0)
20015fe0:	47fd                	li	a5,31
20015fe2:	00f71463          	bne	a4,a5,20015fea <__metal_driver_sifive_gpio0_interrupt_lines+0x354>
C:\Users\nandg\Desktop\Athena_Welcome_Demo\sifive_hifive1_revb_sifive_welcome\bsp\build\debug/./metal/machine.h:565
		return 29;
20015fe6:	47f5                	li	a5,29
20015fe8:	a011                	j	20015fec <__metal_driver_sifive_gpio0_interrupt_lines+0x356>
C:\Users\nandg\Desktop\Athena_Welcome_Demo\sifive_hifive1_revb_sifive_welcome\bsp\build\debug/./metal/machine.h:568
		return 0;
20015fea:	4781                	li	a5,0
C:\Users\nandg\Desktop\Athena_Welcome_Demo\sifive_hifive1_revb_sifive_welcome\bsp\build\debug/./metal/machine.h:570
}
20015fec:	853e                	mv	a0,a5
20015fee:	4472                	lw	s0,28(sp)
20015ff0:	6105                	addi	sp,sp,32
20015ff2:	8082                	ret

20015ff4 <__metal_driver_sifive_gpio0_enable_input>:
__metal_driver_sifive_gpio0_enable_input():
C:/Users/nandg/Desktop/Athena_Welcome_Demo/sifive_hifive1_revb_sifive_welcome/freedom-metal/src/drivers/sifive_gpio0.c:13
#include <metal/drivers/sifive_gpio0.h>
#include <metal/io.h>
#include <metal/machine.h>

int __metal_driver_sifive_gpio0_enable_input(struct metal_gpio *ggpio,
                                             long source) {
20015ff4:	7179                	addi	sp,sp,-48
20015ff6:	d606                	sw	ra,44(sp)
20015ff8:	d422                	sw	s0,40(sp)
20015ffa:	1800                	addi	s0,sp,48
20015ffc:	fca42e23          	sw	a0,-36(s0)
20016000:	fcb42c23          	sw	a1,-40(s0)
C:/Users/nandg/Desktop/Athena_Welcome_Demo/sifive_hifive1_revb_sifive_welcome/freedom-metal/src/drivers/sifive_gpio0.c:14
    long base = __metal_driver_sifive_gpio0_base(ggpio);
20016004:	fdc42503          	lw	a0,-36(s0)
20016008:	c3fff0ef          	jal	ra,20015c46 <__metal_driver_sifive_gpio0_base>
2001600c:	87aa                	mv	a5,a0
2001600e:	fef42623          	sw	a5,-20(s0)
C:/Users/nandg/Desktop/Athena_Welcome_Demo/sifive_hifive1_revb_sifive_welcome/freedom-metal/src/drivers/sifive_gpio0.c:17

    __METAL_ACCESS_ONCE(
        (__metal_io_u32 *)(base + METAL_SIFIVE_GPIO0_INPUT_EN)) |= source;
20016012:	fec42783          	lw	a5,-20(s0)
20016016:	0791                	addi	a5,a5,4
20016018:	4398                	lw	a4,0(a5)
2001601a:	fd842783          	lw	a5,-40(s0)
2001601e:	fec42683          	lw	a3,-20(s0)
20016022:	0691                	addi	a3,a3,4
20016024:	8fd9                	or	a5,a5,a4
20016026:	c29c                	sw	a5,0(a3)
C:/Users/nandg/Desktop/Athena_Welcome_Demo/sifive_hifive1_revb_sifive_welcome/freedom-metal/src/drivers/sifive_gpio0.c:19

    return 0;
20016028:	4781                	li	a5,0
C:/Users/nandg/Desktop/Athena_Welcome_Demo/sifive_hifive1_revb_sifive_welcome/freedom-metal/src/drivers/sifive_gpio0.c:20
}
2001602a:	853e                	mv	a0,a5
2001602c:	50b2                	lw	ra,44(sp)
2001602e:	5422                	lw	s0,40(sp)
20016030:	6145                	addi	sp,sp,48
20016032:	8082                	ret

20016034 <__metal_driver_sifive_gpio0_disable_input>:
__metal_driver_sifive_gpio0_disable_input():
C:/Users/nandg/Desktop/Athena_Welcome_Demo/sifive_hifive1_revb_sifive_welcome/freedom-metal/src/drivers/sifive_gpio0.c:23

int __metal_driver_sifive_gpio0_disable_input(struct metal_gpio *ggpio,
                                              long source) {
20016034:	7179                	addi	sp,sp,-48
20016036:	d606                	sw	ra,44(sp)
20016038:	d422                	sw	s0,40(sp)
2001603a:	1800                	addi	s0,sp,48
2001603c:	fca42e23          	sw	a0,-36(s0)
20016040:	fcb42c23          	sw	a1,-40(s0)
C:/Users/nandg/Desktop/Athena_Welcome_Demo/sifive_hifive1_revb_sifive_welcome/freedom-metal/src/drivers/sifive_gpio0.c:24
    long base = __metal_driver_sifive_gpio0_base(ggpio);
20016044:	fdc42503          	lw	a0,-36(s0)
20016048:	bffff0ef          	jal	ra,20015c46 <__metal_driver_sifive_gpio0_base>
2001604c:	87aa                	mv	a5,a0
2001604e:	fef42623          	sw	a5,-20(s0)
C:/Users/nandg/Desktop/Athena_Welcome_Demo/sifive_hifive1_revb_sifive_welcome/freedom-metal/src/drivers/sifive_gpio0.c:27

    __METAL_ACCESS_ONCE(
        (__metal_io_u32 *)(base + METAL_SIFIVE_GPIO0_INPUT_EN)) &= ~source;
20016052:	fec42783          	lw	a5,-20(s0)
20016056:	0791                	addi	a5,a5,4
20016058:	439c                	lw	a5,0(a5)
2001605a:	fd842703          	lw	a4,-40(s0)
2001605e:	fff74713          	not	a4,a4
20016062:	86ba                	mv	a3,a4
20016064:	fec42703          	lw	a4,-20(s0)
20016068:	0711                	addi	a4,a4,4
2001606a:	8ff5                	and	a5,a5,a3
2001606c:	c31c                	sw	a5,0(a4)
C:/Users/nandg/Desktop/Athena_Welcome_Demo/sifive_hifive1_revb_sifive_welcome/freedom-metal/src/drivers/sifive_gpio0.c:29

    return 0;
2001606e:	4781                	li	a5,0
C:/Users/nandg/Desktop/Athena_Welcome_Demo/sifive_hifive1_revb_sifive_welcome/freedom-metal/src/drivers/sifive_gpio0.c:30
}
20016070:	853e                	mv	a0,a5
20016072:	50b2                	lw	ra,44(sp)
20016074:	5422                	lw	s0,40(sp)
20016076:	6145                	addi	sp,sp,48
20016078:	8082                	ret

2001607a <__metal_driver_sifive_gpio0_input>:
__metal_driver_sifive_gpio0_input():
C:/Users/nandg/Desktop/Athena_Welcome_Demo/sifive_hifive1_revb_sifive_welcome/freedom-metal/src/drivers/sifive_gpio0.c:32

long __metal_driver_sifive_gpio0_input(struct metal_gpio *ggpio) {
2001607a:	7179                	addi	sp,sp,-48
2001607c:	d606                	sw	ra,44(sp)
2001607e:	d422                	sw	s0,40(sp)
20016080:	1800                	addi	s0,sp,48
20016082:	fca42e23          	sw	a0,-36(s0)
C:/Users/nandg/Desktop/Athena_Welcome_Demo/sifive_hifive1_revb_sifive_welcome/freedom-metal/src/drivers/sifive_gpio0.c:33
    long base = __metal_driver_sifive_gpio0_base(ggpio);
20016086:	fdc42503          	lw	a0,-36(s0)
2001608a:	bbdff0ef          	jal	ra,20015c46 <__metal_driver_sifive_gpio0_base>
2001608e:	87aa                	mv	a5,a0
20016090:	fef42623          	sw	a5,-20(s0)
C:/Users/nandg/Desktop/Athena_Welcome_Demo/sifive_hifive1_revb_sifive_welcome/freedom-metal/src/drivers/sifive_gpio0.c:35

    return __METAL_ACCESS_ONCE(
20016094:	fec42783          	lw	a5,-20(s0)
20016098:	439c                	lw	a5,0(a5)
C:/Users/nandg/Desktop/Athena_Welcome_Demo/sifive_hifive1_revb_sifive_welcome/freedom-metal/src/drivers/sifive_gpio0.c:37
        (__metal_io_u32 *)(base + METAL_SIFIVE_GPIO0_VALUE));
}
2001609a:	853e                	mv	a0,a5
2001609c:	50b2                	lw	ra,44(sp)
2001609e:	5422                	lw	s0,40(sp)
200160a0:	6145                	addi	sp,sp,48
200160a2:	8082                	ret

200160a4 <__metal_driver_sifive_gpio0_output>:
__metal_driver_sifive_gpio0_output():
C:/Users/nandg/Desktop/Athena_Welcome_Demo/sifive_hifive1_revb_sifive_welcome/freedom-metal/src/drivers/sifive_gpio0.c:39

long __metal_driver_sifive_gpio0_output(struct metal_gpio *ggpio) {
200160a4:	7179                	addi	sp,sp,-48
200160a6:	d606                	sw	ra,44(sp)
200160a8:	d422                	sw	s0,40(sp)
200160aa:	1800                	addi	s0,sp,48
200160ac:	fca42e23          	sw	a0,-36(s0)
C:/Users/nandg/Desktop/Athena_Welcome_Demo/sifive_hifive1_revb_sifive_welcome/freedom-metal/src/drivers/sifive_gpio0.c:40
    long base = __metal_driver_sifive_gpio0_base(ggpio);
200160b0:	fdc42503          	lw	a0,-36(s0)
200160b4:	b93ff0ef          	jal	ra,20015c46 <__metal_driver_sifive_gpio0_base>
200160b8:	87aa                	mv	a5,a0
200160ba:	fef42623          	sw	a5,-20(s0)
C:/Users/nandg/Desktop/Athena_Welcome_Demo/sifive_hifive1_revb_sifive_welcome/freedom-metal/src/drivers/sifive_gpio0.c:42

    return __METAL_ACCESS_ONCE(
200160be:	fec42783          	lw	a5,-20(s0)
200160c2:	07b1                	addi	a5,a5,12
200160c4:	439c                	lw	a5,0(a5)
C:/Users/nandg/Desktop/Athena_Welcome_Demo/sifive_hifive1_revb_sifive_welcome/freedom-metal/src/drivers/sifive_gpio0.c:44
        (__metal_io_u32 *)(base + METAL_SIFIVE_GPIO0_PORT));
}
200160c6:	853e                	mv	a0,a5
200160c8:	50b2                	lw	ra,44(sp)
200160ca:	5422                	lw	s0,40(sp)
200160cc:	6145                	addi	sp,sp,48
200160ce:	8082                	ret

200160d0 <__metal_driver_sifive_gpio0_disable_output>:
__metal_driver_sifive_gpio0_disable_output():
C:/Users/nandg/Desktop/Athena_Welcome_Demo/sifive_hifive1_revb_sifive_welcome/freedom-metal/src/drivers/sifive_gpio0.c:47

int __metal_driver_sifive_gpio0_disable_output(struct metal_gpio *ggpio,
                                               long source) {
200160d0:	7179                	addi	sp,sp,-48
200160d2:	d606                	sw	ra,44(sp)
200160d4:	d422                	sw	s0,40(sp)
200160d6:	1800                	addi	s0,sp,48
200160d8:	fca42e23          	sw	a0,-36(s0)
200160dc:	fcb42c23          	sw	a1,-40(s0)
C:/Users/nandg/Desktop/Athena_Welcome_Demo/sifive_hifive1_revb_sifive_welcome/freedom-metal/src/drivers/sifive_gpio0.c:48
    long base = __metal_driver_sifive_gpio0_base(ggpio);
200160e0:	fdc42503          	lw	a0,-36(s0)
200160e4:	b63ff0ef          	jal	ra,20015c46 <__metal_driver_sifive_gpio0_base>
200160e8:	87aa                	mv	a5,a0
200160ea:	fef42623          	sw	a5,-20(s0)
C:/Users/nandg/Desktop/Athena_Welcome_Demo/sifive_hifive1_revb_sifive_welcome/freedom-metal/src/drivers/sifive_gpio0.c:51

    __METAL_ACCESS_ONCE(
        (__metal_io_u32 *)(base + METAL_SIFIVE_GPIO0_OUTPUT_EN)) &= ~source;
200160ee:	fec42783          	lw	a5,-20(s0)
200160f2:	07a1                	addi	a5,a5,8
200160f4:	439c                	lw	a5,0(a5)
200160f6:	fd842703          	lw	a4,-40(s0)
200160fa:	fff74713          	not	a4,a4
200160fe:	86ba                	mv	a3,a4
20016100:	fec42703          	lw	a4,-20(s0)
20016104:	0721                	addi	a4,a4,8
20016106:	8ff5                	and	a5,a5,a3
20016108:	c31c                	sw	a5,0(a4)
C:/Users/nandg/Desktop/Athena_Welcome_Demo/sifive_hifive1_revb_sifive_welcome/freedom-metal/src/drivers/sifive_gpio0.c:53

    return 0;
2001610a:	4781                	li	a5,0
C:/Users/nandg/Desktop/Athena_Welcome_Demo/sifive_hifive1_revb_sifive_welcome/freedom-metal/src/drivers/sifive_gpio0.c:54
}
2001610c:	853e                	mv	a0,a5
2001610e:	50b2                	lw	ra,44(sp)
20016110:	5422                	lw	s0,40(sp)
20016112:	6145                	addi	sp,sp,48
20016114:	8082                	ret

20016116 <__metal_driver_sifive_gpio0_enable_output>:
__metal_driver_sifive_gpio0_enable_output():
C:/Users/nandg/Desktop/Athena_Welcome_Demo/sifive_hifive1_revb_sifive_welcome/freedom-metal/src/drivers/sifive_gpio0.c:57

int __metal_driver_sifive_gpio0_enable_output(struct metal_gpio *ggpio,
                                              long source) {
20016116:	7179                	addi	sp,sp,-48
20016118:	d606                	sw	ra,44(sp)
2001611a:	d422                	sw	s0,40(sp)
2001611c:	1800                	addi	s0,sp,48
2001611e:	fca42e23          	sw	a0,-36(s0)
20016122:	fcb42c23          	sw	a1,-40(s0)
C:/Users/nandg/Desktop/Athena_Welcome_Demo/sifive_hifive1_revb_sifive_welcome/freedom-metal/src/drivers/sifive_gpio0.c:58
    long base = __metal_driver_sifive_gpio0_base(ggpio);
20016126:	fdc42503          	lw	a0,-36(s0)
2001612a:	b1dff0ef          	jal	ra,20015c46 <__metal_driver_sifive_gpio0_base>
2001612e:	87aa                	mv	a5,a0
20016130:	fef42623          	sw	a5,-20(s0)
C:/Users/nandg/Desktop/Athena_Welcome_Demo/sifive_hifive1_revb_sifive_welcome/freedom-metal/src/drivers/sifive_gpio0.c:61

    __METAL_ACCESS_ONCE(
        (__metal_io_u32 *)(base + METAL_SIFIVE_GPIO0_OUTPUT_EN)) |= source;
20016134:	fec42783          	lw	a5,-20(s0)
20016138:	07a1                	addi	a5,a5,8
2001613a:	4398                	lw	a4,0(a5)
2001613c:	fd842783          	lw	a5,-40(s0)
20016140:	fec42683          	lw	a3,-20(s0)
20016144:	06a1                	addi	a3,a3,8
20016146:	8fd9                	or	a5,a5,a4
20016148:	c29c                	sw	a5,0(a3)
C:/Users/nandg/Desktop/Athena_Welcome_Demo/sifive_hifive1_revb_sifive_welcome/freedom-metal/src/drivers/sifive_gpio0.c:63

    return 0;
2001614a:	4781                	li	a5,0
C:/Users/nandg/Desktop/Athena_Welcome_Demo/sifive_hifive1_revb_sifive_welcome/freedom-metal/src/drivers/sifive_gpio0.c:64
}
2001614c:	853e                	mv	a0,a5
2001614e:	50b2                	lw	ra,44(sp)
20016150:	5422                	lw	s0,40(sp)
20016152:	6145                	addi	sp,sp,48
20016154:	8082                	ret

20016156 <__metal_driver_sifive_gpio0_output_set>:
__metal_driver_sifive_gpio0_output_set():
C:/Users/nandg/Desktop/Athena_Welcome_Demo/sifive_hifive1_revb_sifive_welcome/freedom-metal/src/drivers/sifive_gpio0.c:67

int __metal_driver_sifive_gpio0_output_set(struct metal_gpio *ggpio,
                                           long value) {
20016156:	7179                	addi	sp,sp,-48
20016158:	d606                	sw	ra,44(sp)
2001615a:	d422                	sw	s0,40(sp)
2001615c:	1800                	addi	s0,sp,48
2001615e:	fca42e23          	sw	a0,-36(s0)
20016162:	fcb42c23          	sw	a1,-40(s0)
C:/Users/nandg/Desktop/Athena_Welcome_Demo/sifive_hifive1_revb_sifive_welcome/freedom-metal/src/drivers/sifive_gpio0.c:68
    long base = __metal_driver_sifive_gpio0_base(ggpio);
20016166:	fdc42503          	lw	a0,-36(s0)
2001616a:	addff0ef          	jal	ra,20015c46 <__metal_driver_sifive_gpio0_base>
2001616e:	87aa                	mv	a5,a0
20016170:	fef42623          	sw	a5,-20(s0)
C:/Users/nandg/Desktop/Athena_Welcome_Demo/sifive_hifive1_revb_sifive_welcome/freedom-metal/src/drivers/sifive_gpio0.c:70

    __METAL_ACCESS_ONCE((__metal_io_u32 *)(base + METAL_SIFIVE_GPIO0_PORT)) |=
20016174:	fec42783          	lw	a5,-20(s0)
20016178:	07b1                	addi	a5,a5,12
2001617a:	4398                	lw	a4,0(a5)
2001617c:	fd842783          	lw	a5,-40(s0)
20016180:	fec42683          	lw	a3,-20(s0)
20016184:	06b1                	addi	a3,a3,12
20016186:	8fd9                	or	a5,a5,a4
20016188:	c29c                	sw	a5,0(a3)
C:/Users/nandg/Desktop/Athena_Welcome_Demo/sifive_hifive1_revb_sifive_welcome/freedom-metal/src/drivers/sifive_gpio0.c:73
        value;

    return 0;
2001618a:	4781                	li	a5,0
C:/Users/nandg/Desktop/Athena_Welcome_Demo/sifive_hifive1_revb_sifive_welcome/freedom-metal/src/drivers/sifive_gpio0.c:74
}
2001618c:	853e                	mv	a0,a5
2001618e:	50b2                	lw	ra,44(sp)
20016190:	5422                	lw	s0,40(sp)
20016192:	6145                	addi	sp,sp,48
20016194:	8082                	ret

20016196 <__metal_driver_sifive_gpio0_output_clear>:
__metal_driver_sifive_gpio0_output_clear():
C:/Users/nandg/Desktop/Athena_Welcome_Demo/sifive_hifive1_revb_sifive_welcome/freedom-metal/src/drivers/sifive_gpio0.c:77

int __metal_driver_sifive_gpio0_output_clear(struct metal_gpio *ggpio,
                                             long value) {
20016196:	7179                	addi	sp,sp,-48
20016198:	d606                	sw	ra,44(sp)
2001619a:	d422                	sw	s0,40(sp)
2001619c:	1800                	addi	s0,sp,48
2001619e:	fca42e23          	sw	a0,-36(s0)
200161a2:	fcb42c23          	sw	a1,-40(s0)
C:/Users/nandg/Desktop/Athena_Welcome_Demo/sifive_hifive1_revb_sifive_welcome/freedom-metal/src/drivers/sifive_gpio0.c:78
    long base = __metal_driver_sifive_gpio0_base(ggpio);
200161a6:	fdc42503          	lw	a0,-36(s0)
200161aa:	a9dff0ef          	jal	ra,20015c46 <__metal_driver_sifive_gpio0_base>
200161ae:	87aa                	mv	a5,a0
200161b0:	fef42623          	sw	a5,-20(s0)
C:/Users/nandg/Desktop/Athena_Welcome_Demo/sifive_hifive1_revb_sifive_welcome/freedom-metal/src/drivers/sifive_gpio0.c:80

    __METAL_ACCESS_ONCE((__metal_io_u32 *)(base + METAL_SIFIVE_GPIO0_PORT)) &=
200161b4:	fec42783          	lw	a5,-20(s0)
200161b8:	07b1                	addi	a5,a5,12
200161ba:	439c                	lw	a5,0(a5)
C:/Users/nandg/Desktop/Athena_Welcome_Demo/sifive_hifive1_revb_sifive_welcome/freedom-metal/src/drivers/sifive_gpio0.c:81
        ~value;
200161bc:	fd842703          	lw	a4,-40(s0)
200161c0:	fff74713          	not	a4,a4
200161c4:	86ba                	mv	a3,a4
C:/Users/nandg/Desktop/Athena_Welcome_Demo/sifive_hifive1_revb_sifive_welcome/freedom-metal/src/drivers/sifive_gpio0.c:80
    __METAL_ACCESS_ONCE((__metal_io_u32 *)(base + METAL_SIFIVE_GPIO0_PORT)) &=
200161c6:	fec42703          	lw	a4,-20(s0)
200161ca:	0731                	addi	a4,a4,12
200161cc:	8ff5                	and	a5,a5,a3
200161ce:	c31c                	sw	a5,0(a4)
C:/Users/nandg/Desktop/Athena_Welcome_Demo/sifive_hifive1_revb_sifive_welcome/freedom-metal/src/drivers/sifive_gpio0.c:83

    return 0;
200161d0:	4781                	li	a5,0
C:/Users/nandg/Desktop/Athena_Welcome_Demo/sifive_hifive1_revb_sifive_welcome/freedom-metal/src/drivers/sifive_gpio0.c:84
}
200161d2:	853e                	mv	a0,a5
200161d4:	50b2                	lw	ra,44(sp)
200161d6:	5422                	lw	s0,40(sp)
200161d8:	6145                	addi	sp,sp,48
200161da:	8082                	ret

200161dc <__metal_driver_sifive_gpio0_output_toggle>:
__metal_driver_sifive_gpio0_output_toggle():
C:/Users/nandg/Desktop/Athena_Welcome_Demo/sifive_hifive1_revb_sifive_welcome/freedom-metal/src/drivers/sifive_gpio0.c:87

int __metal_driver_sifive_gpio0_output_toggle(struct metal_gpio *ggpio,
                                              long value) {
200161dc:	7179                	addi	sp,sp,-48
200161de:	d606                	sw	ra,44(sp)
200161e0:	d422                	sw	s0,40(sp)
200161e2:	1800                	addi	s0,sp,48
200161e4:	fca42e23          	sw	a0,-36(s0)
200161e8:	fcb42c23          	sw	a1,-40(s0)
C:/Users/nandg/Desktop/Athena_Welcome_Demo/sifive_hifive1_revb_sifive_welcome/freedom-metal/src/drivers/sifive_gpio0.c:88
    long base = __metal_driver_sifive_gpio0_base(ggpio);
200161ec:	fdc42503          	lw	a0,-36(s0)
200161f0:	a57ff0ef          	jal	ra,20015c46 <__metal_driver_sifive_gpio0_base>
200161f4:	87aa                	mv	a5,a0
200161f6:	fef42623          	sw	a5,-20(s0)
C:/Users/nandg/Desktop/Athena_Welcome_Demo/sifive_hifive1_revb_sifive_welcome/freedom-metal/src/drivers/sifive_gpio0.c:91

    __METAL_ACCESS_ONCE((__metal_io_u32 *)(base + METAL_SIFIVE_GPIO0_PORT)) =
        __METAL_ACCESS_ONCE(
200161fa:	fec42783          	lw	a5,-20(s0)
200161fe:	07b1                	addi	a5,a5,12
20016200:	4398                	lw	a4,0(a5)
C:/Users/nandg/Desktop/Athena_Welcome_Demo/sifive_hifive1_revb_sifive_welcome/freedom-metal/src/drivers/sifive_gpio0.c:92
            (__metal_io_u32 *)(base + METAL_SIFIVE_GPIO0_PORT)) ^
20016202:	fd842783          	lw	a5,-40(s0)
C:/Users/nandg/Desktop/Athena_Welcome_Demo/sifive_hifive1_revb_sifive_welcome/freedom-metal/src/drivers/sifive_gpio0.c:90
    __METAL_ACCESS_ONCE((__metal_io_u32 *)(base + METAL_SIFIVE_GPIO0_PORT)) =
20016206:	fec42683          	lw	a3,-20(s0)
2001620a:	06b1                	addi	a3,a3,12
C:/Users/nandg/Desktop/Athena_Welcome_Demo/sifive_hifive1_revb_sifive_welcome/freedom-metal/src/drivers/sifive_gpio0.c:92
            (__metal_io_u32 *)(base + METAL_SIFIVE_GPIO0_PORT)) ^
2001620c:	8fb9                	xor	a5,a5,a4
C:/Users/nandg/Desktop/Athena_Welcome_Demo/sifive_hifive1_revb_sifive_welcome/freedom-metal/src/drivers/sifive_gpio0.c:90
    __METAL_ACCESS_ONCE((__metal_io_u32 *)(base + METAL_SIFIVE_GPIO0_PORT)) =
2001620e:	c29c                	sw	a5,0(a3)
C:/Users/nandg/Desktop/Athena_Welcome_Demo/sifive_hifive1_revb_sifive_welcome/freedom-metal/src/drivers/sifive_gpio0.c:95
        value;

    return 0;
20016210:	4781                	li	a5,0
C:/Users/nandg/Desktop/Athena_Welcome_Demo/sifive_hifive1_revb_sifive_welcome/freedom-metal/src/drivers/sifive_gpio0.c:96
}
20016212:	853e                	mv	a0,a5
20016214:	50b2                	lw	ra,44(sp)
20016216:	5422                	lw	s0,40(sp)
20016218:	6145                	addi	sp,sp,48
2001621a:	8082                	ret

2001621c <__metal_driver_sifive_gpio0_enable_io>:
__metal_driver_sifive_gpio0_enable_io():
C:/Users/nandg/Desktop/Athena_Welcome_Demo/sifive_hifive1_revb_sifive_welcome/freedom-metal/src/drivers/sifive_gpio0.c:99

int __metal_driver_sifive_gpio0_enable_io(struct metal_gpio *ggpio, long source,
                                          long dest) {
2001621c:	7179                	addi	sp,sp,-48
2001621e:	d606                	sw	ra,44(sp)
20016220:	d422                	sw	s0,40(sp)
20016222:	1800                	addi	s0,sp,48
20016224:	fca42e23          	sw	a0,-36(s0)
20016228:	fcb42c23          	sw	a1,-40(s0)
2001622c:	fcc42a23          	sw	a2,-44(s0)
C:/Users/nandg/Desktop/Athena_Welcome_Demo/sifive_hifive1_revb_sifive_welcome/freedom-metal/src/drivers/sifive_gpio0.c:100
    long base = __metal_driver_sifive_gpio0_base(ggpio);
20016230:	fdc42503          	lw	a0,-36(s0)
20016234:	a13ff0ef          	jal	ra,20015c46 <__metal_driver_sifive_gpio0_base>
20016238:	87aa                	mv	a5,a0
2001623a:	fef42623          	sw	a5,-20(s0)
C:/Users/nandg/Desktop/Athena_Welcome_Demo/sifive_hifive1_revb_sifive_welcome/freedom-metal/src/drivers/sifive_gpio0.c:103

    __METAL_ACCESS_ONCE(
        (__metal_io_u32 *)(base + METAL_SIFIVE_GPIO0_IOF_SEL)) |= source;
2001623e:	fec42783          	lw	a5,-20(s0)
20016242:	03c78793          	addi	a5,a5,60
20016246:	4398                	lw	a4,0(a5)
20016248:	fd842783          	lw	a5,-40(s0)
2001624c:	fec42683          	lw	a3,-20(s0)
20016250:	03c68693          	addi	a3,a3,60
20016254:	8fd9                	or	a5,a5,a4
20016256:	c29c                	sw	a5,0(a3)
C:/Users/nandg/Desktop/Athena_Welcome_Demo/sifive_hifive1_revb_sifive_welcome/freedom-metal/src/drivers/sifive_gpio0.c:104
    __METAL_ACCESS_ONCE((__metal_io_u32 *)(base + METAL_SIFIVE_GPIO0_IOF_EN)) |=
20016258:	fec42783          	lw	a5,-20(s0)
2001625c:	03878793          	addi	a5,a5,56
20016260:	4398                	lw	a4,0(a5)
20016262:	fd442783          	lw	a5,-44(s0)
20016266:	fec42683          	lw	a3,-20(s0)
2001626a:	03868693          	addi	a3,a3,56
2001626e:	8fd9                	or	a5,a5,a4
20016270:	c29c                	sw	a5,0(a3)
C:/Users/nandg/Desktop/Athena_Welcome_Demo/sifive_hifive1_revb_sifive_welcome/freedom-metal/src/drivers/sifive_gpio0.c:107
        dest;

    return 0;
20016272:	4781                	li	a5,0
C:/Users/nandg/Desktop/Athena_Welcome_Demo/sifive_hifive1_revb_sifive_welcome/freedom-metal/src/drivers/sifive_gpio0.c:108
}
20016274:	853e                	mv	a0,a5
20016276:	50b2                	lw	ra,44(sp)
20016278:	5422                	lw	s0,40(sp)
2001627a:	6145                	addi	sp,sp,48
2001627c:	8082                	ret

2001627e <__metal_driver_sifive_gpio0_disable_io>:
__metal_driver_sifive_gpio0_disable_io():
C:/Users/nandg/Desktop/Athena_Welcome_Demo/sifive_hifive1_revb_sifive_welcome/freedom-metal/src/drivers/sifive_gpio0.c:111

int __metal_driver_sifive_gpio0_disable_io(struct metal_gpio *ggpio,
                                           long source) {
2001627e:	7179                	addi	sp,sp,-48
20016280:	d606                	sw	ra,44(sp)
20016282:	d422                	sw	s0,40(sp)
20016284:	1800                	addi	s0,sp,48
20016286:	fca42e23          	sw	a0,-36(s0)
2001628a:	fcb42c23          	sw	a1,-40(s0)
C:/Users/nandg/Desktop/Athena_Welcome_Demo/sifive_hifive1_revb_sifive_welcome/freedom-metal/src/drivers/sifive_gpio0.c:112
    long base = __metal_driver_sifive_gpio0_base(ggpio);
2001628e:	fdc42503          	lw	a0,-36(s0)
20016292:	9b5ff0ef          	jal	ra,20015c46 <__metal_driver_sifive_gpio0_base>
20016296:	87aa                	mv	a5,a0
20016298:	fef42623          	sw	a5,-20(s0)
C:/Users/nandg/Desktop/Athena_Welcome_Demo/sifive_hifive1_revb_sifive_welcome/freedom-metal/src/drivers/sifive_gpio0.c:114

    __METAL_ACCESS_ONCE((__metal_io_u32 *)(base + METAL_SIFIVE_GPIO0_IOF_EN)) &=
2001629c:	fec42783          	lw	a5,-20(s0)
200162a0:	03878793          	addi	a5,a5,56
200162a4:	439c                	lw	a5,0(a5)
C:/Users/nandg/Desktop/Athena_Welcome_Demo/sifive_hifive1_revb_sifive_welcome/freedom-metal/src/drivers/sifive_gpio0.c:115
        ~source;
200162a6:	fd842703          	lw	a4,-40(s0)
200162aa:	fff74713          	not	a4,a4
200162ae:	86ba                	mv	a3,a4
C:/Users/nandg/Desktop/Athena_Welcome_Demo/sifive_hifive1_revb_sifive_welcome/freedom-metal/src/drivers/sifive_gpio0.c:114
    __METAL_ACCESS_ONCE((__metal_io_u32 *)(base + METAL_SIFIVE_GPIO0_IOF_EN)) &=
200162b0:	fec42703          	lw	a4,-20(s0)
200162b4:	03870713          	addi	a4,a4,56
200162b8:	8ff5                	and	a5,a5,a3
200162ba:	c31c                	sw	a5,0(a4)
C:/Users/nandg/Desktop/Athena_Welcome_Demo/sifive_hifive1_revb_sifive_welcome/freedom-metal/src/drivers/sifive_gpio0.c:117

    return 0;
200162bc:	4781                	li	a5,0
C:/Users/nandg/Desktop/Athena_Welcome_Demo/sifive_hifive1_revb_sifive_welcome/freedom-metal/src/drivers/sifive_gpio0.c:118
}
200162be:	853e                	mv	a0,a5
200162c0:	50b2                	lw	ra,44(sp)
200162c2:	5422                	lw	s0,40(sp)
200162c4:	6145                	addi	sp,sp,48
200162c6:	8082                	ret

200162c8 <__metal_driver_sifive_gpio0_config_int>:
__metal_driver_sifive_gpio0_config_int():
C:/Users/nandg/Desktop/Athena_Welcome_Demo/sifive_hifive1_revb_sifive_welcome/freedom-metal/src/drivers/sifive_gpio0.c:121

int __metal_driver_sifive_gpio0_config_int(struct metal_gpio *ggpio,
                                           long source, int intr_type) {
200162c8:	7179                	addi	sp,sp,-48
200162ca:	d606                	sw	ra,44(sp)
200162cc:	d422                	sw	s0,40(sp)
200162ce:	1800                	addi	s0,sp,48
200162d0:	fca42e23          	sw	a0,-36(s0)
200162d4:	fcb42c23          	sw	a1,-40(s0)
200162d8:	fcc42a23          	sw	a2,-44(s0)
C:/Users/nandg/Desktop/Athena_Welcome_Demo/sifive_hifive1_revb_sifive_welcome/freedom-metal/src/drivers/sifive_gpio0.c:122
    long base = __metal_driver_sifive_gpio0_base(ggpio);
200162dc:	fdc42503          	lw	a0,-36(s0)
200162e0:	967ff0ef          	jal	ra,20015c46 <__metal_driver_sifive_gpio0_base>
200162e4:	87aa                	mv	a5,a0
200162e6:	fef42623          	sw	a5,-20(s0)
200162ea:	fd442703          	lw	a4,-44(s0)
200162ee:	479d                	li	a5,7
200162f0:	1ce7e963          	bltu	a5,a4,200164c2 <__metal_driver_sifive_gpio0_config_int+0x1fa>
200162f4:	fd442783          	lw	a5,-44(s0)
200162f8:	00279713          	slli	a4,a5,0x2
200162fc:	200117b7          	lui	a5,0x20011
20016300:	2e078793          	addi	a5,a5,736 # 200112e0 <__metal_driver_vtable_sifive_led+0x14>
20016304:	97ba                	add	a5,a5,a4
20016306:	439c                	lw	a5,0(a5)
20016308:	8782                	jr	a5
C:/Users/nandg/Desktop/Athena_Welcome_Demo/sifive_hifive1_revb_sifive_welcome/freedom-metal/src/drivers/sifive_gpio0.c:127

    switch (intr_type) {
    case METAL_GPIO_INT_DISABLE:
        __METAL_ACCESS_ONCE(
            (__metal_io_u32 *)(base + METAL_SIFIVE_GPIO0_RISE_IE)) &= ~source;
2001630a:	fec42783          	lw	a5,-20(s0)
2001630e:	07e1                	addi	a5,a5,24
20016310:	439c                	lw	a5,0(a5)
20016312:	fd842703          	lw	a4,-40(s0)
20016316:	fff74713          	not	a4,a4
2001631a:	86ba                	mv	a3,a4
2001631c:	fec42703          	lw	a4,-20(s0)
20016320:	0761                	addi	a4,a4,24
20016322:	8ff5                	and	a5,a5,a3
20016324:	c31c                	sw	a5,0(a4)
C:/Users/nandg/Desktop/Athena_Welcome_Demo/sifive_hifive1_revb_sifive_welcome/freedom-metal/src/drivers/sifive_gpio0.c:129
        __METAL_ACCESS_ONCE(
            (__metal_io_u32 *)(base + METAL_SIFIVE_GPIO0_FALL_IE)) &= ~source;
20016326:	fec42783          	lw	a5,-20(s0)
2001632a:	02078793          	addi	a5,a5,32
2001632e:	439c                	lw	a5,0(a5)
20016330:	fd842703          	lw	a4,-40(s0)
20016334:	fff74713          	not	a4,a4
20016338:	86ba                	mv	a3,a4
2001633a:	fec42703          	lw	a4,-20(s0)
2001633e:	02070713          	addi	a4,a4,32
20016342:	8ff5                	and	a5,a5,a3
20016344:	c31c                	sw	a5,0(a4)
C:/Users/nandg/Desktop/Athena_Welcome_Demo/sifive_hifive1_revb_sifive_welcome/freedom-metal/src/drivers/sifive_gpio0.c:131
        __METAL_ACCESS_ONCE(
            (__metal_io_u32 *)(base + METAL_SIFIVE_GPIO0_HIGH_IE)) &= ~source;
20016346:	fec42783          	lw	a5,-20(s0)
2001634a:	02878793          	addi	a5,a5,40
2001634e:	439c                	lw	a5,0(a5)
20016350:	fd842703          	lw	a4,-40(s0)
20016354:	fff74713          	not	a4,a4
20016358:	86ba                	mv	a3,a4
2001635a:	fec42703          	lw	a4,-20(s0)
2001635e:	02870713          	addi	a4,a4,40
20016362:	8ff5                	and	a5,a5,a3
20016364:	c31c                	sw	a5,0(a4)
C:/Users/nandg/Desktop/Athena_Welcome_Demo/sifive_hifive1_revb_sifive_welcome/freedom-metal/src/drivers/sifive_gpio0.c:133
        __METAL_ACCESS_ONCE(
            (__metal_io_u32 *)(base + METAL_SIFIVE_GPIO0_LOW_IE)) &= ~source;
20016366:	fec42783          	lw	a5,-20(s0)
2001636a:	03078793          	addi	a5,a5,48
2001636e:	439c                	lw	a5,0(a5)
20016370:	fd842703          	lw	a4,-40(s0)
20016374:	fff74713          	not	a4,a4
20016378:	86ba                	mv	a3,a4
2001637a:	fec42703          	lw	a4,-20(s0)
2001637e:	03070713          	addi	a4,a4,48
20016382:	8ff5                	and	a5,a5,a3
20016384:	c31c                	sw	a5,0(a4)
C:/Users/nandg/Desktop/Athena_Welcome_Demo/sifive_hifive1_revb_sifive_welcome/freedom-metal/src/drivers/sifive_gpio0.c:134
        break;
20016386:	aa35                	j	200164c2 <__metal_driver_sifive_gpio0_config_int+0x1fa>
C:/Users/nandg/Desktop/Athena_Welcome_Demo/sifive_hifive1_revb_sifive_welcome/freedom-metal/src/drivers/sifive_gpio0.c:137
    case METAL_GPIO_INT_RISING:
        __METAL_ACCESS_ONCE(
            (__metal_io_u32 *)(base + METAL_SIFIVE_GPIO0_RISE_IE)) |= source;
20016388:	fec42783          	lw	a5,-20(s0)
2001638c:	07e1                	addi	a5,a5,24
2001638e:	4398                	lw	a4,0(a5)
20016390:	fd842783          	lw	a5,-40(s0)
20016394:	fec42683          	lw	a3,-20(s0)
20016398:	06e1                	addi	a3,a3,24
2001639a:	8fd9                	or	a5,a5,a4
2001639c:	c29c                	sw	a5,0(a3)
C:/Users/nandg/Desktop/Athena_Welcome_Demo/sifive_hifive1_revb_sifive_welcome/freedom-metal/src/drivers/sifive_gpio0.c:138
        break;
2001639e:	a215                	j	200164c2 <__metal_driver_sifive_gpio0_config_int+0x1fa>
C:/Users/nandg/Desktop/Athena_Welcome_Demo/sifive_hifive1_revb_sifive_welcome/freedom-metal/src/drivers/sifive_gpio0.c:141
    case METAL_GPIO_INT_FALLING:
        __METAL_ACCESS_ONCE(
            (__metal_io_u32 *)(base + METAL_SIFIVE_GPIO0_FALL_IE)) |= source;
200163a0:	fec42783          	lw	a5,-20(s0)
200163a4:	02078793          	addi	a5,a5,32
200163a8:	4398                	lw	a4,0(a5)
200163aa:	fd842783          	lw	a5,-40(s0)
200163ae:	fec42683          	lw	a3,-20(s0)
200163b2:	02068693          	addi	a3,a3,32
200163b6:	8fd9                	or	a5,a5,a4
200163b8:	c29c                	sw	a5,0(a3)
C:/Users/nandg/Desktop/Athena_Welcome_Demo/sifive_hifive1_revb_sifive_welcome/freedom-metal/src/drivers/sifive_gpio0.c:142
        break;
200163ba:	a221                	j	200164c2 <__metal_driver_sifive_gpio0_config_int+0x1fa>
C:/Users/nandg/Desktop/Athena_Welcome_Demo/sifive_hifive1_revb_sifive_welcome/freedom-metal/src/drivers/sifive_gpio0.c:145
    case METAL_GPIO_INT_BOTH_EDGE:
        __METAL_ACCESS_ONCE(
            (__metal_io_u32 *)(base + METAL_SIFIVE_GPIO0_RISE_IE)) |= source;
200163bc:	fec42783          	lw	a5,-20(s0)
200163c0:	07e1                	addi	a5,a5,24
200163c2:	4398                	lw	a4,0(a5)
200163c4:	fd842783          	lw	a5,-40(s0)
200163c8:	fec42683          	lw	a3,-20(s0)
200163cc:	06e1                	addi	a3,a3,24
200163ce:	8fd9                	or	a5,a5,a4
200163d0:	c29c                	sw	a5,0(a3)
C:/Users/nandg/Desktop/Athena_Welcome_Demo/sifive_hifive1_revb_sifive_welcome/freedom-metal/src/drivers/sifive_gpio0.c:147
        __METAL_ACCESS_ONCE(
            (__metal_io_u32 *)(base + METAL_SIFIVE_GPIO0_FALL_IE)) |= source;
200163d2:	fec42783          	lw	a5,-20(s0)
200163d6:	02078793          	addi	a5,a5,32
200163da:	4398                	lw	a4,0(a5)
200163dc:	fd842783          	lw	a5,-40(s0)
200163e0:	fec42683          	lw	a3,-20(s0)
200163e4:	02068693          	addi	a3,a3,32
200163e8:	8fd9                	or	a5,a5,a4
200163ea:	c29c                	sw	a5,0(a3)
C:/Users/nandg/Desktop/Athena_Welcome_Demo/sifive_hifive1_revb_sifive_welcome/freedom-metal/src/drivers/sifive_gpio0.c:148
        break;
200163ec:	a8d9                	j	200164c2 <__metal_driver_sifive_gpio0_config_int+0x1fa>
C:/Users/nandg/Desktop/Athena_Welcome_Demo/sifive_hifive1_revb_sifive_welcome/freedom-metal/src/drivers/sifive_gpio0.c:151
    case METAL_GPIO_INT_HIGH:
        __METAL_ACCESS_ONCE(
            (__metal_io_u32 *)(base + METAL_SIFIVE_GPIO0_HIGH_IE)) |= source;
200163ee:	fec42783          	lw	a5,-20(s0)
200163f2:	02878793          	addi	a5,a5,40
200163f6:	4398                	lw	a4,0(a5)
200163f8:	fd842783          	lw	a5,-40(s0)
200163fc:	fec42683          	lw	a3,-20(s0)
20016400:	02868693          	addi	a3,a3,40
20016404:	8fd9                	or	a5,a5,a4
20016406:	c29c                	sw	a5,0(a3)
C:/Users/nandg/Desktop/Athena_Welcome_Demo/sifive_hifive1_revb_sifive_welcome/freedom-metal/src/drivers/sifive_gpio0.c:152
        break;
20016408:	a86d                	j	200164c2 <__metal_driver_sifive_gpio0_config_int+0x1fa>
C:/Users/nandg/Desktop/Athena_Welcome_Demo/sifive_hifive1_revb_sifive_welcome/freedom-metal/src/drivers/sifive_gpio0.c:155
    case METAL_GPIO_INT_LOW:
        __METAL_ACCESS_ONCE(
            (__metal_io_u32 *)(base + METAL_SIFIVE_GPIO0_LOW_IE)) |= source;
2001640a:	fec42783          	lw	a5,-20(s0)
2001640e:	03078793          	addi	a5,a5,48
20016412:	4398                	lw	a4,0(a5)
20016414:	fd842783          	lw	a5,-40(s0)
20016418:	fec42683          	lw	a3,-20(s0)
2001641c:	03068693          	addi	a3,a3,48
20016420:	8fd9                	or	a5,a5,a4
20016422:	c29c                	sw	a5,0(a3)
C:/Users/nandg/Desktop/Athena_Welcome_Demo/sifive_hifive1_revb_sifive_welcome/freedom-metal/src/drivers/sifive_gpio0.c:156
        break;
20016424:	a879                	j	200164c2 <__metal_driver_sifive_gpio0_config_int+0x1fa>
C:/Users/nandg/Desktop/Athena_Welcome_Demo/sifive_hifive1_revb_sifive_welcome/freedom-metal/src/drivers/sifive_gpio0.c:159
    case METAL_GPIO_INT_BOTH_LEVEL:
        __METAL_ACCESS_ONCE(
            (__metal_io_u32 *)(base + METAL_SIFIVE_GPIO0_HIGH_IE)) |= source;
20016426:	fec42783          	lw	a5,-20(s0)
2001642a:	02878793          	addi	a5,a5,40
2001642e:	4398                	lw	a4,0(a5)
20016430:	fd842783          	lw	a5,-40(s0)
20016434:	fec42683          	lw	a3,-20(s0)
20016438:	02868693          	addi	a3,a3,40
2001643c:	8fd9                	or	a5,a5,a4
2001643e:	c29c                	sw	a5,0(a3)
C:/Users/nandg/Desktop/Athena_Welcome_Demo/sifive_hifive1_revb_sifive_welcome/freedom-metal/src/drivers/sifive_gpio0.c:161
        __METAL_ACCESS_ONCE(
            (__metal_io_u32 *)(base + METAL_SIFIVE_GPIO0_LOW_IE)) |= source;
20016440:	fec42783          	lw	a5,-20(s0)
20016444:	03078793          	addi	a5,a5,48
20016448:	4398                	lw	a4,0(a5)
2001644a:	fd842783          	lw	a5,-40(s0)
2001644e:	fec42683          	lw	a3,-20(s0)
20016452:	03068693          	addi	a3,a3,48
20016456:	8fd9                	or	a5,a5,a4
20016458:	c29c                	sw	a5,0(a3)
C:/Users/nandg/Desktop/Athena_Welcome_Demo/sifive_hifive1_revb_sifive_welcome/freedom-metal/src/drivers/sifive_gpio0.c:162
        break;
2001645a:	a0a5                	j	200164c2 <__metal_driver_sifive_gpio0_config_int+0x1fa>
C:/Users/nandg/Desktop/Athena_Welcome_Demo/sifive_hifive1_revb_sifive_welcome/freedom-metal/src/drivers/sifive_gpio0.c:165
    case METAL_GPIO_INT_MAX:
        __METAL_ACCESS_ONCE(
            (__metal_io_u32 *)(base + METAL_SIFIVE_GPIO0_RISE_IE)) |= source;
2001645c:	fec42783          	lw	a5,-20(s0)
20016460:	07e1                	addi	a5,a5,24
20016462:	4398                	lw	a4,0(a5)
20016464:	fd842783          	lw	a5,-40(s0)
20016468:	fec42683          	lw	a3,-20(s0)
2001646c:	06e1                	addi	a3,a3,24
2001646e:	8fd9                	or	a5,a5,a4
20016470:	c29c                	sw	a5,0(a3)
C:/Users/nandg/Desktop/Athena_Welcome_Demo/sifive_hifive1_revb_sifive_welcome/freedom-metal/src/drivers/sifive_gpio0.c:167
        __METAL_ACCESS_ONCE(
            (__metal_io_u32 *)(base + METAL_SIFIVE_GPIO0_FALL_IE)) |= source;
20016472:	fec42783          	lw	a5,-20(s0)
20016476:	02078793          	addi	a5,a5,32
2001647a:	4398                	lw	a4,0(a5)
2001647c:	fd842783          	lw	a5,-40(s0)
20016480:	fec42683          	lw	a3,-20(s0)
20016484:	02068693          	addi	a3,a3,32
20016488:	8fd9                	or	a5,a5,a4
2001648a:	c29c                	sw	a5,0(a3)
C:/Users/nandg/Desktop/Athena_Welcome_Demo/sifive_hifive1_revb_sifive_welcome/freedom-metal/src/drivers/sifive_gpio0.c:169
        __METAL_ACCESS_ONCE(
            (__metal_io_u32 *)(base + METAL_SIFIVE_GPIO0_HIGH_IE)) |= source;
2001648c:	fec42783          	lw	a5,-20(s0)
20016490:	02878793          	addi	a5,a5,40
20016494:	4398                	lw	a4,0(a5)
20016496:	fd842783          	lw	a5,-40(s0)
2001649a:	fec42683          	lw	a3,-20(s0)
2001649e:	02868693          	addi	a3,a3,40
200164a2:	8fd9                	or	a5,a5,a4
200164a4:	c29c                	sw	a5,0(a3)
C:/Users/nandg/Desktop/Athena_Welcome_Demo/sifive_hifive1_revb_sifive_welcome/freedom-metal/src/drivers/sifive_gpio0.c:171
        __METAL_ACCESS_ONCE(
            (__metal_io_u32 *)(base + METAL_SIFIVE_GPIO0_LOW_IE)) |= source;
200164a6:	fec42783          	lw	a5,-20(s0)
200164aa:	03078793          	addi	a5,a5,48
200164ae:	4398                	lw	a4,0(a5)
200164b0:	fd842783          	lw	a5,-40(s0)
200164b4:	fec42683          	lw	a3,-20(s0)
200164b8:	03068693          	addi	a3,a3,48
200164bc:	8fd9                	or	a5,a5,a4
200164be:	c29c                	sw	a5,0(a3)
C:/Users/nandg/Desktop/Athena_Welcome_Demo/sifive_hifive1_revb_sifive_welcome/freedom-metal/src/drivers/sifive_gpio0.c:172
        break;
200164c0:	0001                	nop
C:/Users/nandg/Desktop/Athena_Welcome_Demo/sifive_hifive1_revb_sifive_welcome/freedom-metal/src/drivers/sifive_gpio0.c:174
    }
    return 0;
200164c2:	4781                	li	a5,0
C:/Users/nandg/Desktop/Athena_Welcome_Demo/sifive_hifive1_revb_sifive_welcome/freedom-metal/src/drivers/sifive_gpio0.c:175
}
200164c4:	853e                	mv	a0,a5
200164c6:	50b2                	lw	ra,44(sp)
200164c8:	5422                	lw	s0,40(sp)
200164ca:	6145                	addi	sp,sp,48
200164cc:	8082                	ret

200164ce <__metal_driver_sifive_gpio0_clear_int>:
__metal_driver_sifive_gpio0_clear_int():
C:/Users/nandg/Desktop/Athena_Welcome_Demo/sifive_hifive1_revb_sifive_welcome/freedom-metal/src/drivers/sifive_gpio0.c:178

int __metal_driver_sifive_gpio0_clear_int(struct metal_gpio *ggpio, long source,
                                          int intr_type) {
200164ce:	7179                	addi	sp,sp,-48
200164d0:	d606                	sw	ra,44(sp)
200164d2:	d422                	sw	s0,40(sp)
200164d4:	1800                	addi	s0,sp,48
200164d6:	fca42e23          	sw	a0,-36(s0)
200164da:	fcb42c23          	sw	a1,-40(s0)
200164de:	fcc42a23          	sw	a2,-44(s0)
C:/Users/nandg/Desktop/Athena_Welcome_Demo/sifive_hifive1_revb_sifive_welcome/freedom-metal/src/drivers/sifive_gpio0.c:179
    long base = __metal_driver_sifive_gpio0_base(ggpio);
200164e2:	fdc42503          	lw	a0,-36(s0)
200164e6:	f60ff0ef          	jal	ra,20015c46 <__metal_driver_sifive_gpio0_base>
200164ea:	87aa                	mv	a5,a0
200164ec:	fef42623          	sw	a5,-20(s0)
200164f0:	fd442703          	lw	a4,-44(s0)
200164f4:	479d                	li	a5,7
200164f6:	14e7ea63          	bltu	a5,a4,2001664a <__metal_driver_sifive_gpio0_clear_int+0x17c>
200164fa:	fd442783          	lw	a5,-44(s0)
200164fe:	00279713          	slli	a4,a5,0x2
20016502:	200117b7          	lui	a5,0x20011
20016506:	30078793          	addi	a5,a5,768 # 20011300 <__metal_driver_vtable_sifive_led+0x34>
2001650a:	97ba                	add	a5,a5,a4
2001650c:	439c                	lw	a5,0(a5)
2001650e:	8782                	jr	a5
C:/Users/nandg/Desktop/Athena_Welcome_Demo/sifive_hifive1_revb_sifive_welcome/freedom-metal/src/drivers/sifive_gpio0.c:184

    switch (intr_type) {
    case METAL_GPIO_INT_RISING:
        __METAL_ACCESS_ONCE(
            (__metal_io_u32 *)(base + METAL_SIFIVE_GPIO0_RISE_IP)) |= source;
20016510:	fec42783          	lw	a5,-20(s0)
20016514:	07f1                	addi	a5,a5,28
20016516:	4398                	lw	a4,0(a5)
20016518:	fd842783          	lw	a5,-40(s0)
2001651c:	fec42683          	lw	a3,-20(s0)
20016520:	06f1                	addi	a3,a3,28
20016522:	8fd9                	or	a5,a5,a4
20016524:	c29c                	sw	a5,0(a3)
C:/Users/nandg/Desktop/Athena_Welcome_Demo/sifive_hifive1_revb_sifive_welcome/freedom-metal/src/drivers/sifive_gpio0.c:185
        break;
20016526:	a215                	j	2001664a <__metal_driver_sifive_gpio0_clear_int+0x17c>
C:/Users/nandg/Desktop/Athena_Welcome_Demo/sifive_hifive1_revb_sifive_welcome/freedom-metal/src/drivers/sifive_gpio0.c:188
    case METAL_GPIO_INT_FALLING:
        __METAL_ACCESS_ONCE(
            (__metal_io_u32 *)(base + METAL_SIFIVE_GPIO0_FALL_IP)) |= source;
20016528:	fec42783          	lw	a5,-20(s0)
2001652c:	02478793          	addi	a5,a5,36
20016530:	4398                	lw	a4,0(a5)
20016532:	fd842783          	lw	a5,-40(s0)
20016536:	fec42683          	lw	a3,-20(s0)
2001653a:	02468693          	addi	a3,a3,36
2001653e:	8fd9                	or	a5,a5,a4
20016540:	c29c                	sw	a5,0(a3)
C:/Users/nandg/Desktop/Athena_Welcome_Demo/sifive_hifive1_revb_sifive_welcome/freedom-metal/src/drivers/sifive_gpio0.c:189
        break;
20016542:	a221                	j	2001664a <__metal_driver_sifive_gpio0_clear_int+0x17c>
C:/Users/nandg/Desktop/Athena_Welcome_Demo/sifive_hifive1_revb_sifive_welcome/freedom-metal/src/drivers/sifive_gpio0.c:192
    case METAL_GPIO_INT_BOTH_EDGE:
        __METAL_ACCESS_ONCE(
            (__metal_io_u32 *)(base + METAL_SIFIVE_GPIO0_RISE_IP)) |= source;
20016544:	fec42783          	lw	a5,-20(s0)
20016548:	07f1                	addi	a5,a5,28
2001654a:	4398                	lw	a4,0(a5)
2001654c:	fd842783          	lw	a5,-40(s0)
20016550:	fec42683          	lw	a3,-20(s0)
20016554:	06f1                	addi	a3,a3,28
20016556:	8fd9                	or	a5,a5,a4
20016558:	c29c                	sw	a5,0(a3)
C:/Users/nandg/Desktop/Athena_Welcome_Demo/sifive_hifive1_revb_sifive_welcome/freedom-metal/src/drivers/sifive_gpio0.c:194
        __METAL_ACCESS_ONCE(
            (__metal_io_u32 *)(base + METAL_SIFIVE_GPIO0_FALL_IP)) |= source;
2001655a:	fec42783          	lw	a5,-20(s0)
2001655e:	02478793          	addi	a5,a5,36
20016562:	4398                	lw	a4,0(a5)
20016564:	fd842783          	lw	a5,-40(s0)
20016568:	fec42683          	lw	a3,-20(s0)
2001656c:	02468693          	addi	a3,a3,36
20016570:	8fd9                	or	a5,a5,a4
20016572:	c29c                	sw	a5,0(a3)
C:/Users/nandg/Desktop/Athena_Welcome_Demo/sifive_hifive1_revb_sifive_welcome/freedom-metal/src/drivers/sifive_gpio0.c:195
        break;
20016574:	a8d9                	j	2001664a <__metal_driver_sifive_gpio0_clear_int+0x17c>
C:/Users/nandg/Desktop/Athena_Welcome_Demo/sifive_hifive1_revb_sifive_welcome/freedom-metal/src/drivers/sifive_gpio0.c:198
    case METAL_GPIO_INT_HIGH:
        __METAL_ACCESS_ONCE(
            (__metal_io_u32 *)(base + METAL_SIFIVE_GPIO0_HIGH_IP)) |= source;
20016576:	fec42783          	lw	a5,-20(s0)
2001657a:	02c78793          	addi	a5,a5,44
2001657e:	4398                	lw	a4,0(a5)
20016580:	fd842783          	lw	a5,-40(s0)
20016584:	fec42683          	lw	a3,-20(s0)
20016588:	02c68693          	addi	a3,a3,44
2001658c:	8fd9                	or	a5,a5,a4
2001658e:	c29c                	sw	a5,0(a3)
C:/Users/nandg/Desktop/Athena_Welcome_Demo/sifive_hifive1_revb_sifive_welcome/freedom-metal/src/drivers/sifive_gpio0.c:199
        break;
20016590:	a86d                	j	2001664a <__metal_driver_sifive_gpio0_clear_int+0x17c>
C:/Users/nandg/Desktop/Athena_Welcome_Demo/sifive_hifive1_revb_sifive_welcome/freedom-metal/src/drivers/sifive_gpio0.c:202
    case METAL_GPIO_INT_LOW:
        __METAL_ACCESS_ONCE(
            (__metal_io_u32 *)(base + METAL_SIFIVE_GPIO0_LOW_IP)) |= source;
20016592:	fec42783          	lw	a5,-20(s0)
20016596:	03478793          	addi	a5,a5,52
2001659a:	4398                	lw	a4,0(a5)
2001659c:	fd842783          	lw	a5,-40(s0)
200165a0:	fec42683          	lw	a3,-20(s0)
200165a4:	03468693          	addi	a3,a3,52
200165a8:	8fd9                	or	a5,a5,a4
200165aa:	c29c                	sw	a5,0(a3)
C:/Users/nandg/Desktop/Athena_Welcome_Demo/sifive_hifive1_revb_sifive_welcome/freedom-metal/src/drivers/sifive_gpio0.c:203
        break;
200165ac:	a879                	j	2001664a <__metal_driver_sifive_gpio0_clear_int+0x17c>
C:/Users/nandg/Desktop/Athena_Welcome_Demo/sifive_hifive1_revb_sifive_welcome/freedom-metal/src/drivers/sifive_gpio0.c:206
    case METAL_GPIO_INT_BOTH_LEVEL:
        __METAL_ACCESS_ONCE(
            (__metal_io_u32 *)(base + METAL_SIFIVE_GPIO0_HIGH_IP)) |= source;
200165ae:	fec42783          	lw	a5,-20(s0)
200165b2:	02c78793          	addi	a5,a5,44
200165b6:	4398                	lw	a4,0(a5)
200165b8:	fd842783          	lw	a5,-40(s0)
200165bc:	fec42683          	lw	a3,-20(s0)
200165c0:	02c68693          	addi	a3,a3,44
200165c4:	8fd9                	or	a5,a5,a4
200165c6:	c29c                	sw	a5,0(a3)
C:/Users/nandg/Desktop/Athena_Welcome_Demo/sifive_hifive1_revb_sifive_welcome/freedom-metal/src/drivers/sifive_gpio0.c:208
        __METAL_ACCESS_ONCE(
            (__metal_io_u32 *)(base + METAL_SIFIVE_GPIO0_LOW_IP)) |= source;
200165c8:	fec42783          	lw	a5,-20(s0)
200165cc:	03478793          	addi	a5,a5,52
200165d0:	4398                	lw	a4,0(a5)
200165d2:	fd842783          	lw	a5,-40(s0)
200165d6:	fec42683          	lw	a3,-20(s0)
200165da:	03468693          	addi	a3,a3,52
200165de:	8fd9                	or	a5,a5,a4
200165e0:	c29c                	sw	a5,0(a3)
C:/Users/nandg/Desktop/Athena_Welcome_Demo/sifive_hifive1_revb_sifive_welcome/freedom-metal/src/drivers/sifive_gpio0.c:209
        break;
200165e2:	a0a5                	j	2001664a <__metal_driver_sifive_gpio0_clear_int+0x17c>
C:/Users/nandg/Desktop/Athena_Welcome_Demo/sifive_hifive1_revb_sifive_welcome/freedom-metal/src/drivers/sifive_gpio0.c:212
    case METAL_GPIO_INT_MAX:
        __METAL_ACCESS_ONCE(
            (__metal_io_u32 *)(base + METAL_SIFIVE_GPIO0_RISE_IP)) |= source;
200165e4:	fec42783          	lw	a5,-20(s0)
200165e8:	07f1                	addi	a5,a5,28
200165ea:	4398                	lw	a4,0(a5)
200165ec:	fd842783          	lw	a5,-40(s0)
200165f0:	fec42683          	lw	a3,-20(s0)
200165f4:	06f1                	addi	a3,a3,28
200165f6:	8fd9                	or	a5,a5,a4
200165f8:	c29c                	sw	a5,0(a3)
C:/Users/nandg/Desktop/Athena_Welcome_Demo/sifive_hifive1_revb_sifive_welcome/freedom-metal/src/drivers/sifive_gpio0.c:214
        __METAL_ACCESS_ONCE(
            (__metal_io_u32 *)(base + METAL_SIFIVE_GPIO0_FALL_IP)) |= source;
200165fa:	fec42783          	lw	a5,-20(s0)
200165fe:	02478793          	addi	a5,a5,36
20016602:	4398                	lw	a4,0(a5)
20016604:	fd842783          	lw	a5,-40(s0)
20016608:	fec42683          	lw	a3,-20(s0)
2001660c:	02468693          	addi	a3,a3,36
20016610:	8fd9                	or	a5,a5,a4
20016612:	c29c                	sw	a5,0(a3)
C:/Users/nandg/Desktop/Athena_Welcome_Demo/sifive_hifive1_revb_sifive_welcome/freedom-metal/src/drivers/sifive_gpio0.c:216
        __METAL_ACCESS_ONCE(
            (__metal_io_u32 *)(base + METAL_SIFIVE_GPIO0_HIGH_IP)) |= source;
20016614:	fec42783          	lw	a5,-20(s0)
20016618:	02c78793          	addi	a5,a5,44
2001661c:	4398                	lw	a4,0(a5)
2001661e:	fd842783          	lw	a5,-40(s0)
20016622:	fec42683          	lw	a3,-20(s0)
20016626:	02c68693          	addi	a3,a3,44
2001662a:	8fd9                	or	a5,a5,a4
2001662c:	c29c                	sw	a5,0(a3)
C:/Users/nandg/Desktop/Athena_Welcome_Demo/sifive_hifive1_revb_sifive_welcome/freedom-metal/src/drivers/sifive_gpio0.c:218
        __METAL_ACCESS_ONCE(
            (__metal_io_u32 *)(base + METAL_SIFIVE_GPIO0_LOW_IP)) |= source;
2001662e:	fec42783          	lw	a5,-20(s0)
20016632:	03478793          	addi	a5,a5,52
20016636:	4398                	lw	a4,0(a5)
20016638:	fd842783          	lw	a5,-40(s0)
2001663c:	fec42683          	lw	a3,-20(s0)
20016640:	03468693          	addi	a3,a3,52
20016644:	8fd9                	or	a5,a5,a4
20016646:	c29c                	sw	a5,0(a3)
C:/Users/nandg/Desktop/Athena_Welcome_Demo/sifive_hifive1_revb_sifive_welcome/freedom-metal/src/drivers/sifive_gpio0.c:219
        break;
20016648:	0001                	nop
C:/Users/nandg/Desktop/Athena_Welcome_Demo/sifive_hifive1_revb_sifive_welcome/freedom-metal/src/drivers/sifive_gpio0.c:221
    }
    return 0;
2001664a:	4781                	li	a5,0
C:/Users/nandg/Desktop/Athena_Welcome_Demo/sifive_hifive1_revb_sifive_welcome/freedom-metal/src/drivers/sifive_gpio0.c:222
}
2001664c:	853e                	mv	a0,a5
2001664e:	50b2                	lw	ra,44(sp)
20016650:	5422                	lw	s0,40(sp)
20016652:	6145                	addi	sp,sp,48
20016654:	8082                	ret

20016656 <__metal_driver_gpio_interrupt_controller>:
__metal_driver_gpio_interrupt_controller():
C:/Users/nandg/Desktop/Athena_Welcome_Demo/sifive_hifive1_revb_sifive_welcome/freedom-metal/src/drivers/sifive_gpio0.c:225

struct metal_interrupt *
__metal_driver_gpio_interrupt_controller(struct metal_gpio *gpio) {
20016656:	1101                	addi	sp,sp,-32
20016658:	ce06                	sw	ra,28(sp)
2001665a:	cc22                	sw	s0,24(sp)
2001665c:	1000                	addi	s0,sp,32
2001665e:	fea42623          	sw	a0,-20(s0)
C:/Users/nandg/Desktop/Athena_Welcome_Demo/sifive_hifive1_revb_sifive_welcome/freedom-metal/src/drivers/sifive_gpio0.c:226
    return __metal_driver_sifive_gpio0_interrupt_parent(gpio);
20016662:	fec42503          	lw	a0,-20(s0)
20016666:	e06ff0ef          	jal	ra,20015c6c <__metal_driver_sifive_gpio0_interrupt_parent>
2001666a:	87aa                	mv	a5,a0
C:/Users/nandg/Desktop/Athena_Welcome_Demo/sifive_hifive1_revb_sifive_welcome/freedom-metal/src/drivers/sifive_gpio0.c:227
}
2001666c:	853e                	mv	a0,a5
2001666e:	40f2                	lw	ra,28(sp)
20016670:	4462                	lw	s0,24(sp)
20016672:	6105                	addi	sp,sp,32
20016674:	8082                	ret

20016676 <__metal_driver_gpio_get_interrupt_id>:
__metal_driver_gpio_get_interrupt_id():
C:/Users/nandg/Desktop/Athena_Welcome_Demo/sifive_hifive1_revb_sifive_welcome/freedom-metal/src/drivers/sifive_gpio0.c:229

int __metal_driver_gpio_get_interrupt_id(struct metal_gpio *gpio, int pin) {
20016676:	7179                	addi	sp,sp,-48
20016678:	d606                	sw	ra,44(sp)
2001667a:	d422                	sw	s0,40(sp)
2001667c:	1800                	addi	s0,sp,48
2001667e:	fca42e23          	sw	a0,-36(s0)
20016682:	fcb42c23          	sw	a1,-40(s0)
C:/Users/nandg/Desktop/Athena_Welcome_Demo/sifive_hifive1_revb_sifive_welcome/freedom-metal/src/drivers/sifive_gpio0.c:231
    int irq;
    irq = __metal_driver_sifive_gpio0_interrupt_lines(gpio, pin);
20016686:	fd842583          	lw	a1,-40(s0)
2001668a:	fdc42503          	lw	a0,-36(s0)
2001668e:	e08ff0ef          	jal	ra,20015c96 <__metal_driver_sifive_gpio0_interrupt_lines>
20016692:	fea42623          	sw	a0,-20(s0)
C:/Users/nandg/Desktop/Athena_Welcome_Demo/sifive_hifive1_revb_sifive_welcome/freedom-metal/src/drivers/sifive_gpio0.c:232
    return irq;
20016696:	fec42783          	lw	a5,-20(s0)
C:/Users/nandg/Desktop/Athena_Welcome_Demo/sifive_hifive1_revb_sifive_welcome/freedom-metal/src/drivers/sifive_gpio0.c:233
}
2001669a:	853e                	mv	a0,a5
2001669c:	50b2                	lw	ra,44(sp)
2001669e:	5422                	lw	s0,40(sp)
200166a0:	6145                	addi	sp,sp,48
200166a2:	8082                	ret

200166a4 <__metal_driver_sifive_uart0_control_base>:
__metal_driver_sifive_uart0_control_base():
C:\Users\nandg\Desktop\Athena_Welcome_Demo\sifive_hifive1_revb_sifive_welcome\bsp\build\debug/./metal/machine.h:1066
{
200166a4:	1101                	addi	sp,sp,-32
200166a6:	ce22                	sw	s0,28(sp)
200166a8:	1000                	addi	s0,sp,32
200166aa:	fea42623          	sw	a0,-20(s0)
C:\Users\nandg\Desktop\Athena_Welcome_Demo\sifive_hifive1_revb_sifive_welcome\bsp\build\debug/./metal/machine.h:1067
	if ((uintptr_t)uart == (uintptr_t)&__metal_dt_serial_10013000) {
200166ae:	fec42703          	lw	a4,-20(s0)
200166b2:	800017b7          	lui	a5,0x80001
200166b6:	a4878793          	addi	a5,a5,-1464 # 80000a48 <metal_segment_heap_target_end+0xfffff2a8>
200166ba:	00f71563          	bne	a4,a5,200166c4 <__metal_driver_sifive_uart0_control_base+0x20>
C:\Users\nandg\Desktop\Athena_Welcome_Demo\sifive_hifive1_revb_sifive_welcome\bsp\build\debug/./metal/machine.h:1068
		return METAL_SIFIVE_UART0_10013000_BASE_ADDRESS;
200166be:	100137b7          	lui	a5,0x10013
200166c2:	a829                	j	200166dc <__metal_driver_sifive_uart0_control_base+0x38>
C:\Users\nandg\Desktop\Athena_Welcome_Demo\sifive_hifive1_revb_sifive_welcome\bsp\build\debug/./metal/machine.h:1070
	else if ((uintptr_t)uart == (uintptr_t)&__metal_dt_serial_10023000) {
200166c4:	fec42703          	lw	a4,-20(s0)
200166c8:	800017b7          	lui	a5,0x80001
200166cc:	a6878793          	addi	a5,a5,-1432 # 80000a68 <metal_segment_heap_target_end+0xfffff2c8>
200166d0:	00f71563          	bne	a4,a5,200166da <__metal_driver_sifive_uart0_control_base+0x36>
C:\Users\nandg\Desktop\Athena_Welcome_Demo\sifive_hifive1_revb_sifive_welcome\bsp\build\debug/./metal/machine.h:1071
		return METAL_SIFIVE_UART0_10023000_BASE_ADDRESS;
200166d4:	100237b7          	lui	a5,0x10023
200166d8:	a011                	j	200166dc <__metal_driver_sifive_uart0_control_base+0x38>
C:\Users\nandg\Desktop\Athena_Welcome_Demo\sifive_hifive1_revb_sifive_welcome\bsp\build\debug/./metal/machine.h:1074
		return 0;
200166da:	4781                	li	a5,0
C:\Users\nandg\Desktop\Athena_Welcome_Demo\sifive_hifive1_revb_sifive_welcome\bsp\build\debug/./metal/machine.h:1076
}
200166dc:	853e                	mv	a0,a5
200166de:	4472                	lw	s0,28(sp)
200166e0:	6105                	addi	sp,sp,32
200166e2:	8082                	ret

200166e4 <__metal_driver_sifive_uart0_interrupt_parent>:
__metal_driver_sifive_uart0_interrupt_parent():
C:\Users\nandg\Desktop\Athena_Welcome_Demo\sifive_hifive1_revb_sifive_welcome\bsp\build\debug/./metal/machine.h:1105
{
200166e4:	1101                	addi	sp,sp,-32
200166e6:	ce22                	sw	s0,28(sp)
200166e8:	1000                	addi	s0,sp,32
200166ea:	fea42623          	sw	a0,-20(s0)
C:\Users\nandg\Desktop\Athena_Welcome_Demo\sifive_hifive1_revb_sifive_welcome\bsp\build\debug/./metal/machine.h:1106
	if ((uintptr_t)uart == (uintptr_t)&__metal_dt_serial_10013000) {
200166ee:	fec42703          	lw	a4,-20(s0)
200166f2:	800017b7          	lui	a5,0x80001
200166f6:	a4878793          	addi	a5,a5,-1464 # 80000a48 <metal_segment_heap_target_end+0xfffff2a8>
200166fa:	00f71763          	bne	a4,a5,20016708 <__metal_driver_sifive_uart0_interrupt_parent+0x24>
C:\Users\nandg\Desktop\Athena_Welcome_Demo\sifive_hifive1_revb_sifive_welcome\bsp\build\debug/./metal/machine.h:1107
		return (struct metal_interrupt *)&__metal_dt_interrupt_controller_c000000.controller;
200166fe:	800007b7          	lui	a5,0x80000
20016702:	47078793          	addi	a5,a5,1136 # 80000470 <metal_segment_heap_target_end+0xffffecd0>
20016706:	a839                	j	20016724 <__metal_driver_sifive_uart0_interrupt_parent+0x40>
C:\Users\nandg\Desktop\Athena_Welcome_Demo\sifive_hifive1_revb_sifive_welcome\bsp\build\debug/./metal/machine.h:1109
	else if ((uintptr_t)uart == (uintptr_t)&__metal_dt_serial_10023000) {
20016708:	fec42703          	lw	a4,-20(s0)
2001670c:	800017b7          	lui	a5,0x80001
20016710:	a6878793          	addi	a5,a5,-1432 # 80000a68 <metal_segment_heap_target_end+0xfffff2c8>
20016714:	00f71763          	bne	a4,a5,20016722 <__metal_driver_sifive_uart0_interrupt_parent+0x3e>
C:\Users\nandg\Desktop\Athena_Welcome_Demo\sifive_hifive1_revb_sifive_welcome\bsp\build\debug/./metal/machine.h:1110
		return (struct metal_interrupt *)&__metal_dt_interrupt_controller_c000000.controller;
20016718:	800007b7          	lui	a5,0x80000
2001671c:	47078793          	addi	a5,a5,1136 # 80000470 <metal_segment_heap_target_end+0xffffecd0>
20016720:	a011                	j	20016724 <__metal_driver_sifive_uart0_interrupt_parent+0x40>
C:\Users\nandg\Desktop\Athena_Welcome_Demo\sifive_hifive1_revb_sifive_welcome\bsp\build\debug/./metal/machine.h:1113
		return 0;
20016722:	4781                	li	a5,0
C:\Users\nandg\Desktop\Athena_Welcome_Demo\sifive_hifive1_revb_sifive_welcome\bsp\build\debug/./metal/machine.h:1115
}
20016724:	853e                	mv	a0,a5
20016726:	4472                	lw	s0,28(sp)
20016728:	6105                	addi	sp,sp,32
2001672a:	8082                	ret

2001672c <__metal_driver_sifive_uart0_interrupt_line>:
__metal_driver_sifive_uart0_interrupt_line():
C:\Users\nandg\Desktop\Athena_Welcome_Demo\sifive_hifive1_revb_sifive_welcome\bsp\build\debug/./metal/machine.h:1118
{
2001672c:	1101                	addi	sp,sp,-32
2001672e:	ce22                	sw	s0,28(sp)
20016730:	1000                	addi	s0,sp,32
20016732:	fea42623          	sw	a0,-20(s0)
C:\Users\nandg\Desktop\Athena_Welcome_Demo\sifive_hifive1_revb_sifive_welcome\bsp\build\debug/./metal/machine.h:1119
	if ((uintptr_t)uart == (uintptr_t)&__metal_dt_serial_10013000) {
20016736:	fec42703          	lw	a4,-20(s0)
2001673a:	800017b7          	lui	a5,0x80001
2001673e:	a4878793          	addi	a5,a5,-1464 # 80000a48 <metal_segment_heap_target_end+0xfffff2a8>
20016742:	00f71463          	bne	a4,a5,2001674a <__metal_driver_sifive_uart0_interrupt_line+0x1e>
C:\Users\nandg\Desktop\Athena_Welcome_Demo\sifive_hifive1_revb_sifive_welcome\bsp\build\debug/./metal/machine.h:1120
		return 3;
20016746:	478d                	li	a5,3
20016748:	a821                	j	20016760 <__metal_driver_sifive_uart0_interrupt_line+0x34>
C:\Users\nandg\Desktop\Athena_Welcome_Demo\sifive_hifive1_revb_sifive_welcome\bsp\build\debug/./metal/machine.h:1122
	else if ((uintptr_t)uart == (uintptr_t)&__metal_dt_serial_10023000) {
2001674a:	fec42703          	lw	a4,-20(s0)
2001674e:	800017b7          	lui	a5,0x80001
20016752:	a6878793          	addi	a5,a5,-1432 # 80000a68 <metal_segment_heap_target_end+0xfffff2c8>
20016756:	00f71463          	bne	a4,a5,2001675e <__metal_driver_sifive_uart0_interrupt_line+0x32>
C:\Users\nandg\Desktop\Athena_Welcome_Demo\sifive_hifive1_revb_sifive_welcome\bsp\build\debug/./metal/machine.h:1123
		return 4;
2001675a:	4791                	li	a5,4
2001675c:	a011                	j	20016760 <__metal_driver_sifive_uart0_interrupt_line+0x34>
C:\Users\nandg\Desktop\Athena_Welcome_Demo\sifive_hifive1_revb_sifive_welcome\bsp\build\debug/./metal/machine.h:1126
		return 0;
2001675e:	4781                	li	a5,0
C:\Users\nandg\Desktop\Athena_Welcome_Demo\sifive_hifive1_revb_sifive_welcome\bsp\build\debug/./metal/machine.h:1128
}
20016760:	853e                	mv	a0,a5
20016762:	4472                	lw	s0,28(sp)
20016764:	6105                	addi	sp,sp,32
20016766:	8082                	ret

20016768 <__metal_driver_sifive_uart0_clock>:
__metal_driver_sifive_uart0_clock():
C:\Users\nandg\Desktop\Athena_Welcome_Demo\sifive_hifive1_revb_sifive_welcome\bsp\build\debug/./metal/machine.h:1131
{
20016768:	1101                	addi	sp,sp,-32
2001676a:	ce22                	sw	s0,28(sp)
2001676c:	1000                	addi	s0,sp,32
2001676e:	fea42623          	sw	a0,-20(s0)
C:\Users\nandg\Desktop\Athena_Welcome_Demo\sifive_hifive1_revb_sifive_welcome\bsp\build\debug/./metal/machine.h:1132
	if ((uintptr_t)uart == (uintptr_t)&__metal_dt_serial_10013000) {
20016772:	fec42703          	lw	a4,-20(s0)
20016776:	800017b7          	lui	a5,0x80001
2001677a:	a4878793          	addi	a5,a5,-1464 # 80000a48 <metal_segment_heap_target_end+0xfffff2a8>
2001677e:	00f71763          	bne	a4,a5,2001678c <__metal_driver_sifive_uart0_clock+0x24>
C:\Users\nandg\Desktop\Athena_Welcome_Demo\sifive_hifive1_revb_sifive_welcome\bsp\build\debug/./metal/machine.h:1133
		return (struct metal_clock *)&__metal_dt_clock_4.clock;
20016782:	800017b7          	lui	a5,0x80001
20016786:	aa078793          	addi	a5,a5,-1376 # 80000aa0 <metal_segment_heap_target_end+0xfffff300>
2001678a:	a839                	j	200167a8 <__metal_driver_sifive_uart0_clock+0x40>
C:\Users\nandg\Desktop\Athena_Welcome_Demo\sifive_hifive1_revb_sifive_welcome\bsp\build\debug/./metal/machine.h:1135
	else if ((uintptr_t)uart == (uintptr_t)&__metal_dt_serial_10023000) {
2001678c:	fec42703          	lw	a4,-20(s0)
20016790:	800017b7          	lui	a5,0x80001
20016794:	a6878793          	addi	a5,a5,-1432 # 80000a68 <metal_segment_heap_target_end+0xfffff2c8>
20016798:	00f71763          	bne	a4,a5,200167a6 <__metal_driver_sifive_uart0_clock+0x3e>
C:\Users\nandg\Desktop\Athena_Welcome_Demo\sifive_hifive1_revb_sifive_welcome\bsp\build\debug/./metal/machine.h:1136
		return (struct metal_clock *)&__metal_dt_clock_4.clock;
2001679c:	800017b7          	lui	a5,0x80001
200167a0:	aa078793          	addi	a5,a5,-1376 # 80000aa0 <metal_segment_heap_target_end+0xfffff300>
200167a4:	a011                	j	200167a8 <__metal_driver_sifive_uart0_clock+0x40>
C:\Users\nandg\Desktop\Athena_Welcome_Demo\sifive_hifive1_revb_sifive_welcome\bsp\build\debug/./metal/machine.h:1139
		return 0;
200167a6:	4781                	li	a5,0
C:\Users\nandg\Desktop\Athena_Welcome_Demo\sifive_hifive1_revb_sifive_welcome\bsp\build\debug/./metal/machine.h:1141
}
200167a8:	853e                	mv	a0,a5
200167aa:	4472                	lw	s0,28(sp)
200167ac:	6105                	addi	sp,sp,32
200167ae:	8082                	ret

200167b0 <__metal_driver_sifive_uart0_pinmux>:
__metal_driver_sifive_uart0_pinmux():
C:\Users\nandg\Desktop\Athena_Welcome_Demo\sifive_hifive1_revb_sifive_welcome\bsp\build\debug/./metal/machine.h:1144
{
200167b0:	1101                	addi	sp,sp,-32
200167b2:	ce22                	sw	s0,28(sp)
200167b4:	1000                	addi	s0,sp,32
200167b6:	fea42623          	sw	a0,-20(s0)
C:\Users\nandg\Desktop\Athena_Welcome_Demo\sifive_hifive1_revb_sifive_welcome\bsp\build\debug/./metal/machine.h:1145
	if ((uintptr_t)uart == (uintptr_t)&__metal_dt_serial_10013000) {
200167ba:	fec42703          	lw	a4,-20(s0)
200167be:	800017b7          	lui	a5,0x80001
200167c2:	a4878793          	addi	a5,a5,-1464 # 80000a48 <metal_segment_heap_target_end+0xfffff2a8>
200167c6:	00f71563          	bne	a4,a5,200167d0 <__metal_driver_sifive_uart0_pinmux+0x20>
C:\Users\nandg\Desktop\Athena_Welcome_Demo\sifive_hifive1_revb_sifive_welcome\bsp\build\debug/./metal/machine.h:1146
		return (struct __metal_driver_sifive_gpio0 *)&__metal_dt_gpio_10012000;
200167ca:	81818793          	addi	a5,gp,-2024 # 80000ac8 <__metal_dt_gpio_10012000>
200167ce:	a829                	j	200167e8 <__metal_driver_sifive_uart0_pinmux+0x38>
C:\Users\nandg\Desktop\Athena_Welcome_Demo\sifive_hifive1_revb_sifive_welcome\bsp\build\debug/./metal/machine.h:1148
	else if ((uintptr_t)uart == (uintptr_t)&__metal_dt_serial_10023000) {
200167d0:	fec42703          	lw	a4,-20(s0)
200167d4:	800017b7          	lui	a5,0x80001
200167d8:	a6878793          	addi	a5,a5,-1432 # 80000a68 <metal_segment_heap_target_end+0xfffff2c8>
200167dc:	00f71563          	bne	a4,a5,200167e6 <__metal_driver_sifive_uart0_pinmux+0x36>
C:\Users\nandg\Desktop\Athena_Welcome_Demo\sifive_hifive1_revb_sifive_welcome\bsp\build\debug/./metal/machine.h:1149
		return (struct __metal_driver_sifive_gpio0 *)&__metal_dt_gpio_10012000;
200167e0:	81818793          	addi	a5,gp,-2024 # 80000ac8 <__metal_dt_gpio_10012000>
200167e4:	a011                	j	200167e8 <__metal_driver_sifive_uart0_pinmux+0x38>
C:\Users\nandg\Desktop\Athena_Welcome_Demo\sifive_hifive1_revb_sifive_welcome\bsp\build\debug/./metal/machine.h:1152
		return 0;
200167e6:	4781                	li	a5,0
C:\Users\nandg\Desktop\Athena_Welcome_Demo\sifive_hifive1_revb_sifive_welcome\bsp\build\debug/./metal/machine.h:1154
}
200167e8:	853e                	mv	a0,a5
200167ea:	4472                	lw	s0,28(sp)
200167ec:	6105                	addi	sp,sp,32
200167ee:	8082                	ret

200167f0 <__metal_driver_sifive_uart0_pinmux_output_selector>:
__metal_driver_sifive_uart0_pinmux_output_selector():
C:\Users\nandg\Desktop\Athena_Welcome_Demo\sifive_hifive1_revb_sifive_welcome\bsp\build\debug/./metal/machine.h:1157
{
200167f0:	1101                	addi	sp,sp,-32
200167f2:	ce22                	sw	s0,28(sp)
200167f4:	1000                	addi	s0,sp,32
200167f6:	fea42623          	sw	a0,-20(s0)
C:\Users\nandg\Desktop\Athena_Welcome_Demo\sifive_hifive1_revb_sifive_welcome\bsp\build\debug/./metal/machine.h:1158
	if ((uintptr_t)uart == (uintptr_t)&__metal_dt_serial_10013000) {
200167fa:	fec42703          	lw	a4,-20(s0)
200167fe:	800017b7          	lui	a5,0x80001
20016802:	a4878793          	addi	a5,a5,-1464 # 80000a48 <metal_segment_heap_target_end+0xfffff2a8>
20016806:	00f71463          	bne	a4,a5,2001680e <__metal_driver_sifive_uart0_pinmux_output_selector+0x1e>
C:\Users\nandg\Desktop\Athena_Welcome_Demo\sifive_hifive1_revb_sifive_welcome\bsp\build\debug/./metal/machine.h:1159
		return 0;
2001680a:	4781                	li	a5,0
2001680c:	a821                	j	20016824 <__metal_driver_sifive_uart0_pinmux_output_selector+0x34>
C:\Users\nandg\Desktop\Athena_Welcome_Demo\sifive_hifive1_revb_sifive_welcome\bsp\build\debug/./metal/machine.h:1161
	else if ((uintptr_t)uart == (uintptr_t)&__metal_dt_serial_10023000) {
2001680e:	fec42703          	lw	a4,-20(s0)
20016812:	800017b7          	lui	a5,0x80001
20016816:	a6878793          	addi	a5,a5,-1432 # 80000a68 <metal_segment_heap_target_end+0xfffff2c8>
2001681a:	00f71463          	bne	a4,a5,20016822 <__metal_driver_sifive_uart0_pinmux_output_selector+0x32>
C:\Users\nandg\Desktop\Athena_Welcome_Demo\sifive_hifive1_revb_sifive_welcome\bsp\build\debug/./metal/machine.h:1162
		return 0;
2001681e:	4781                	li	a5,0
20016820:	a011                	j	20016824 <__metal_driver_sifive_uart0_pinmux_output_selector+0x34>
C:\Users\nandg\Desktop\Athena_Welcome_Demo\sifive_hifive1_revb_sifive_welcome\bsp\build\debug/./metal/machine.h:1165
		return 0;
20016822:	4781                	li	a5,0
C:\Users\nandg\Desktop\Athena_Welcome_Demo\sifive_hifive1_revb_sifive_welcome\bsp\build\debug/./metal/machine.h:1167
}
20016824:	853e                	mv	a0,a5
20016826:	4472                	lw	s0,28(sp)
20016828:	6105                	addi	sp,sp,32
2001682a:	8082                	ret

2001682c <__metal_driver_sifive_uart0_pinmux_source_selector>:
__metal_driver_sifive_uart0_pinmux_source_selector():
C:\Users\nandg\Desktop\Athena_Welcome_Demo\sifive_hifive1_revb_sifive_welcome\bsp\build\debug/./metal/machine.h:1170
{
2001682c:	1101                	addi	sp,sp,-32
2001682e:	ce22                	sw	s0,28(sp)
20016830:	1000                	addi	s0,sp,32
20016832:	fea42623          	sw	a0,-20(s0)
C:\Users\nandg\Desktop\Athena_Welcome_Demo\sifive_hifive1_revb_sifive_welcome\bsp\build\debug/./metal/machine.h:1171
	if ((uintptr_t)uart == (uintptr_t)&__metal_dt_serial_10013000) {
20016836:	fec42703          	lw	a4,-20(s0)
2001683a:	800017b7          	lui	a5,0x80001
2001683e:	a4878793          	addi	a5,a5,-1464 # 80000a48 <metal_segment_heap_target_end+0xfffff2a8>
20016842:	00f71563          	bne	a4,a5,2001684c <__metal_driver_sifive_uart0_pinmux_source_selector+0x20>
C:\Users\nandg\Desktop\Athena_Welcome_Demo\sifive_hifive1_revb_sifive_welcome\bsp\build\debug/./metal/machine.h:1172
		return 196608;
20016846:	000307b7          	lui	a5,0x30
2001684a:	a829                	j	20016864 <__metal_driver_sifive_uart0_pinmux_source_selector+0x38>
C:\Users\nandg\Desktop\Athena_Welcome_Demo\sifive_hifive1_revb_sifive_welcome\bsp\build\debug/./metal/machine.h:1174
	else if ((uintptr_t)uart == (uintptr_t)&__metal_dt_serial_10023000) {
2001684c:	fec42703          	lw	a4,-20(s0)
20016850:	800017b7          	lui	a5,0x80001
20016854:	a6878793          	addi	a5,a5,-1432 # 80000a68 <metal_segment_heap_target_end+0xfffff2c8>
20016858:	00f71563          	bne	a4,a5,20016862 <__metal_driver_sifive_uart0_pinmux_source_selector+0x36>
C:\Users\nandg\Desktop\Athena_Welcome_Demo\sifive_hifive1_revb_sifive_welcome\bsp\build\debug/./metal/machine.h:1175
		return 8650752;
2001685c:	008407b7          	lui	a5,0x840
20016860:	a011                	j	20016864 <__metal_driver_sifive_uart0_pinmux_source_selector+0x38>
C:\Users\nandg\Desktop\Athena_Welcome_Demo\sifive_hifive1_revb_sifive_welcome\bsp\build\debug/./metal/machine.h:1178
		return 0;
20016862:	4781                	li	a5,0
C:\Users\nandg\Desktop\Athena_Welcome_Demo\sifive_hifive1_revb_sifive_welcome\bsp\build\debug/./metal/machine.h:1180
}
20016864:	853e                	mv	a0,a5
20016866:	4472                	lw	s0,28(sp)
20016868:	6105                	addi	sp,sp,32
2001686a:	8082                	ret

2001686c <__metal_driver_sifive_uart0_interrupt_controller>:
__metal_driver_sifive_uart0_interrupt_controller():
C:/Users/nandg/Desktop/Athena_Welcome_Demo/sifive_hifive1_revb_sifive_welcome/freedom-metal/src/drivers/sifive_uart0.c:37
    (__METAL_ACCESS_ONCE((__metal_io_u8 *)UART_REG(offset)))
#define UART_REGW(offset)                                                      \
    (__METAL_ACCESS_ONCE((__metal_io_u32 *)UART_REG(offset)))

struct metal_interrupt *
__metal_driver_sifive_uart0_interrupt_controller(struct metal_uart *uart) {
2001686c:	1101                	addi	sp,sp,-32
2001686e:	ce06                	sw	ra,28(sp)
20016870:	cc22                	sw	s0,24(sp)
20016872:	1000                	addi	s0,sp,32
20016874:	fea42623          	sw	a0,-20(s0)
C:/Users/nandg/Desktop/Athena_Welcome_Demo/sifive_hifive1_revb_sifive_welcome/freedom-metal/src/drivers/sifive_uart0.c:38
    return __metal_driver_sifive_uart0_interrupt_parent(uart);
20016878:	fec42503          	lw	a0,-20(s0)
2001687c:	e69ff0ef          	jal	ra,200166e4 <__metal_driver_sifive_uart0_interrupt_parent>
20016880:	87aa                	mv	a5,a0
C:/Users/nandg/Desktop/Athena_Welcome_Demo/sifive_hifive1_revb_sifive_welcome/freedom-metal/src/drivers/sifive_uart0.c:39
}
20016882:	853e                	mv	a0,a5
20016884:	40f2                	lw	ra,28(sp)
20016886:	4462                	lw	s0,24(sp)
20016888:	6105                	addi	sp,sp,32
2001688a:	8082                	ret

2001688c <__metal_driver_sifive_uart0_get_interrupt_id>:
__metal_driver_sifive_uart0_get_interrupt_id():
C:/Users/nandg/Desktop/Athena_Welcome_Demo/sifive_hifive1_revb_sifive_welcome/freedom-metal/src/drivers/sifive_uart0.c:41

int __metal_driver_sifive_uart0_get_interrupt_id(struct metal_uart *uart) {
2001688c:	1101                	addi	sp,sp,-32
2001688e:	ce06                	sw	ra,28(sp)
20016890:	cc22                	sw	s0,24(sp)
20016892:	1000                	addi	s0,sp,32
20016894:	fea42623          	sw	a0,-20(s0)
C:/Users/nandg/Desktop/Athena_Welcome_Demo/sifive_hifive1_revb_sifive_welcome/freedom-metal/src/drivers/sifive_uart0.c:42
    return __metal_driver_sifive_uart0_interrupt_line(uart);
20016898:	fec42503          	lw	a0,-20(s0)
2001689c:	e91ff0ef          	jal	ra,2001672c <__metal_driver_sifive_uart0_interrupt_line>
200168a0:	87aa                	mv	a5,a0
C:/Users/nandg/Desktop/Athena_Welcome_Demo/sifive_hifive1_revb_sifive_welcome/freedom-metal/src/drivers/sifive_uart0.c:43
}
200168a2:	853e                	mv	a0,a5
200168a4:	40f2                	lw	ra,28(sp)
200168a6:	4462                	lw	s0,24(sp)
200168a8:	6105                	addi	sp,sp,32
200168aa:	8082                	ret

200168ac <__metal_driver_sifive_uart0_tx_interrupt_enable>:
__metal_driver_sifive_uart0_tx_interrupt_enable():
C:/Users/nandg/Desktop/Athena_Welcome_Demo/sifive_hifive1_revb_sifive_welcome/freedom-metal/src/drivers/sifive_uart0.c:45

int __metal_driver_sifive_uart0_tx_interrupt_enable(struct metal_uart *uart) {
200168ac:	7179                	addi	sp,sp,-48
200168ae:	d606                	sw	ra,44(sp)
200168b0:	d422                	sw	s0,40(sp)
200168b2:	1800                	addi	s0,sp,48
200168b4:	fca42e23          	sw	a0,-36(s0)
C:/Users/nandg/Desktop/Athena_Welcome_Demo/sifive_hifive1_revb_sifive_welcome/freedom-metal/src/drivers/sifive_uart0.c:46
    long control_base = __metal_driver_sifive_uart0_control_base(uart);
200168b8:	fdc42503          	lw	a0,-36(s0)
200168bc:	de9ff0ef          	jal	ra,200166a4 <__metal_driver_sifive_uart0_control_base>
200168c0:	87aa                	mv	a5,a0
200168c2:	fef42623          	sw	a5,-20(s0)
C:/Users/nandg/Desktop/Athena_Welcome_Demo/sifive_hifive1_revb_sifive_welcome/freedom-metal/src/drivers/sifive_uart0.c:48

    UART_REGW(METAL_SIFIVE_UART0_IE) |= UART_TXWM;
200168c6:	fec42783          	lw	a5,-20(s0)
200168ca:	07c1                	addi	a5,a5,16
200168cc:	439c                	lw	a5,0(a5)
200168ce:	fec42703          	lw	a4,-20(s0)
200168d2:	0741                	addi	a4,a4,16
200168d4:	0017e793          	ori	a5,a5,1
200168d8:	c31c                	sw	a5,0(a4)
C:/Users/nandg/Desktop/Athena_Welcome_Demo/sifive_hifive1_revb_sifive_welcome/freedom-metal/src/drivers/sifive_uart0.c:49
    return 0;
200168da:	4781                	li	a5,0
C:/Users/nandg/Desktop/Athena_Welcome_Demo/sifive_hifive1_revb_sifive_welcome/freedom-metal/src/drivers/sifive_uart0.c:50
}
200168dc:	853e                	mv	a0,a5
200168de:	50b2                	lw	ra,44(sp)
200168e0:	5422                	lw	s0,40(sp)
200168e2:	6145                	addi	sp,sp,48
200168e4:	8082                	ret

200168e6 <__metal_driver_sifive_uart0_tx_interrupt_disable>:
__metal_driver_sifive_uart0_tx_interrupt_disable():
C:/Users/nandg/Desktop/Athena_Welcome_Demo/sifive_hifive1_revb_sifive_welcome/freedom-metal/src/drivers/sifive_uart0.c:52

int __metal_driver_sifive_uart0_tx_interrupt_disable(struct metal_uart *uart) {
200168e6:	7179                	addi	sp,sp,-48
200168e8:	d606                	sw	ra,44(sp)
200168ea:	d422                	sw	s0,40(sp)
200168ec:	1800                	addi	s0,sp,48
200168ee:	fca42e23          	sw	a0,-36(s0)
C:/Users/nandg/Desktop/Athena_Welcome_Demo/sifive_hifive1_revb_sifive_welcome/freedom-metal/src/drivers/sifive_uart0.c:53
    long control_base = __metal_driver_sifive_uart0_control_base(uart);
200168f2:	fdc42503          	lw	a0,-36(s0)
200168f6:	dafff0ef          	jal	ra,200166a4 <__metal_driver_sifive_uart0_control_base>
200168fa:	87aa                	mv	a5,a0
200168fc:	fef42623          	sw	a5,-20(s0)
C:/Users/nandg/Desktop/Athena_Welcome_Demo/sifive_hifive1_revb_sifive_welcome/freedom-metal/src/drivers/sifive_uart0.c:55

    UART_REGW(METAL_SIFIVE_UART0_IE) &= ~UART_TXWM;
20016900:	fec42783          	lw	a5,-20(s0)
20016904:	07c1                	addi	a5,a5,16
20016906:	439c                	lw	a5,0(a5)
20016908:	fec42703          	lw	a4,-20(s0)
2001690c:	0741                	addi	a4,a4,16
2001690e:	9bf9                	andi	a5,a5,-2
20016910:	c31c                	sw	a5,0(a4)
C:/Users/nandg/Desktop/Athena_Welcome_Demo/sifive_hifive1_revb_sifive_welcome/freedom-metal/src/drivers/sifive_uart0.c:56
    return 0;
20016912:	4781                	li	a5,0
C:/Users/nandg/Desktop/Athena_Welcome_Demo/sifive_hifive1_revb_sifive_welcome/freedom-metal/src/drivers/sifive_uart0.c:57
}
20016914:	853e                	mv	a0,a5
20016916:	50b2                	lw	ra,44(sp)
20016918:	5422                	lw	s0,40(sp)
2001691a:	6145                	addi	sp,sp,48
2001691c:	8082                	ret

2001691e <__metal_driver_sifive_uart0_rx_interrupt_enable>:
__metal_driver_sifive_uart0_rx_interrupt_enable():
C:/Users/nandg/Desktop/Athena_Welcome_Demo/sifive_hifive1_revb_sifive_welcome/freedom-metal/src/drivers/sifive_uart0.c:59

int __metal_driver_sifive_uart0_rx_interrupt_enable(struct metal_uart *uart) {
2001691e:	7179                	addi	sp,sp,-48
20016920:	d606                	sw	ra,44(sp)
20016922:	d422                	sw	s0,40(sp)
20016924:	1800                	addi	s0,sp,48
20016926:	fca42e23          	sw	a0,-36(s0)
C:/Users/nandg/Desktop/Athena_Welcome_Demo/sifive_hifive1_revb_sifive_welcome/freedom-metal/src/drivers/sifive_uart0.c:60
    long control_base = __metal_driver_sifive_uart0_control_base(uart);
2001692a:	fdc42503          	lw	a0,-36(s0)
2001692e:	d77ff0ef          	jal	ra,200166a4 <__metal_driver_sifive_uart0_control_base>
20016932:	87aa                	mv	a5,a0
20016934:	fef42623          	sw	a5,-20(s0)
C:/Users/nandg/Desktop/Athena_Welcome_Demo/sifive_hifive1_revb_sifive_welcome/freedom-metal/src/drivers/sifive_uart0.c:62

    UART_REGW(METAL_SIFIVE_UART0_IE) |= UART_RXWM;
20016938:	fec42783          	lw	a5,-20(s0)
2001693c:	07c1                	addi	a5,a5,16
2001693e:	439c                	lw	a5,0(a5)
20016940:	fec42703          	lw	a4,-20(s0)
20016944:	0741                	addi	a4,a4,16
20016946:	0027e793          	ori	a5,a5,2
2001694a:	c31c                	sw	a5,0(a4)
C:/Users/nandg/Desktop/Athena_Welcome_Demo/sifive_hifive1_revb_sifive_welcome/freedom-metal/src/drivers/sifive_uart0.c:63
    return 0;
2001694c:	4781                	li	a5,0
C:/Users/nandg/Desktop/Athena_Welcome_Demo/sifive_hifive1_revb_sifive_welcome/freedom-metal/src/drivers/sifive_uart0.c:64
}
2001694e:	853e                	mv	a0,a5
20016950:	50b2                	lw	ra,44(sp)
20016952:	5422                	lw	s0,40(sp)
20016954:	6145                	addi	sp,sp,48
20016956:	8082                	ret

20016958 <__metal_driver_sifive_uart0_rx_interrupt_disable>:
__metal_driver_sifive_uart0_rx_interrupt_disable():
C:/Users/nandg/Desktop/Athena_Welcome_Demo/sifive_hifive1_revb_sifive_welcome/freedom-metal/src/drivers/sifive_uart0.c:66

int __metal_driver_sifive_uart0_rx_interrupt_disable(struct metal_uart *uart) {
20016958:	7179                	addi	sp,sp,-48
2001695a:	d606                	sw	ra,44(sp)
2001695c:	d422                	sw	s0,40(sp)
2001695e:	1800                	addi	s0,sp,48
20016960:	fca42e23          	sw	a0,-36(s0)
C:/Users/nandg/Desktop/Athena_Welcome_Demo/sifive_hifive1_revb_sifive_welcome/freedom-metal/src/drivers/sifive_uart0.c:67
    long control_base = __metal_driver_sifive_uart0_control_base(uart);
20016964:	fdc42503          	lw	a0,-36(s0)
20016968:	d3dff0ef          	jal	ra,200166a4 <__metal_driver_sifive_uart0_control_base>
2001696c:	87aa                	mv	a5,a0
2001696e:	fef42623          	sw	a5,-20(s0)
C:/Users/nandg/Desktop/Athena_Welcome_Demo/sifive_hifive1_revb_sifive_welcome/freedom-metal/src/drivers/sifive_uart0.c:69

    UART_REGW(METAL_SIFIVE_UART0_IE) &= ~UART_RXWM;
20016972:	fec42783          	lw	a5,-20(s0)
20016976:	07c1                	addi	a5,a5,16
20016978:	439c                	lw	a5,0(a5)
2001697a:	fec42703          	lw	a4,-20(s0)
2001697e:	0741                	addi	a4,a4,16
20016980:	9bf5                	andi	a5,a5,-3
20016982:	c31c                	sw	a5,0(a4)
C:/Users/nandg/Desktop/Athena_Welcome_Demo/sifive_hifive1_revb_sifive_welcome/freedom-metal/src/drivers/sifive_uart0.c:70
    return 0;
20016984:	4781                	li	a5,0
C:/Users/nandg/Desktop/Athena_Welcome_Demo/sifive_hifive1_revb_sifive_welcome/freedom-metal/src/drivers/sifive_uart0.c:71
}
20016986:	853e                	mv	a0,a5
20016988:	50b2                	lw	ra,44(sp)
2001698a:	5422                	lw	s0,40(sp)
2001698c:	6145                	addi	sp,sp,48
2001698e:	8082                	ret

20016990 <__metal_driver_sifive_uart0_txready>:
__metal_driver_sifive_uart0_txready():
C:/Users/nandg/Desktop/Athena_Welcome_Demo/sifive_hifive1_revb_sifive_welcome/freedom-metal/src/drivers/sifive_uart0.c:73

int __metal_driver_sifive_uart0_txready(struct metal_uart *uart) {
20016990:	7179                	addi	sp,sp,-48
20016992:	d606                	sw	ra,44(sp)
20016994:	d422                	sw	s0,40(sp)
20016996:	1800                	addi	s0,sp,48
20016998:	fca42e23          	sw	a0,-36(s0)
C:/Users/nandg/Desktop/Athena_Welcome_Demo/sifive_hifive1_revb_sifive_welcome/freedom-metal/src/drivers/sifive_uart0.c:74
    long control_base = __metal_driver_sifive_uart0_control_base(uart);
2001699c:	fdc42503          	lw	a0,-36(s0)
200169a0:	d05ff0ef          	jal	ra,200166a4 <__metal_driver_sifive_uart0_control_base>
200169a4:	87aa                	mv	a5,a0
200169a6:	fef42623          	sw	a5,-20(s0)
C:/Users/nandg/Desktop/Athena_Welcome_Demo/sifive_hifive1_revb_sifive_welcome/freedom-metal/src/drivers/sifive_uart0.c:76

    return !!((UART_REGW(METAL_SIFIVE_UART0_TXDATA) & UART_TXFULL));
200169aa:	fec42783          	lw	a5,-20(s0)
200169ae:	439c                	lw	a5,0(a5)
200169b0:	83fd                	srli	a5,a5,0x1f
200169b2:	0ff7f793          	zext.b	a5,a5
C:/Users/nandg/Desktop/Athena_Welcome_Demo/sifive_hifive1_revb_sifive_welcome/freedom-metal/src/drivers/sifive_uart0.c:77
}
200169b6:	853e                	mv	a0,a5
200169b8:	50b2                	lw	ra,44(sp)
200169ba:	5422                	lw	s0,40(sp)
200169bc:	6145                	addi	sp,sp,48
200169be:	8082                	ret

200169c0 <__metal_driver_sifive_uart0_set_tx_watermark>:
__metal_driver_sifive_uart0_set_tx_watermark():
C:/Users/nandg/Desktop/Athena_Welcome_Demo/sifive_hifive1_revb_sifive_welcome/freedom-metal/src/drivers/sifive_uart0.c:80

int __metal_driver_sifive_uart0_set_tx_watermark(struct metal_uart *uart,
                                                 size_t level) {
200169c0:	7179                	addi	sp,sp,-48
200169c2:	d606                	sw	ra,44(sp)
200169c4:	d422                	sw	s0,40(sp)
200169c6:	1800                	addi	s0,sp,48
200169c8:	fca42e23          	sw	a0,-36(s0)
200169cc:	fcb42c23          	sw	a1,-40(s0)
C:/Users/nandg/Desktop/Athena_Welcome_Demo/sifive_hifive1_revb_sifive_welcome/freedom-metal/src/drivers/sifive_uart0.c:81
    long control_base = __metal_driver_sifive_uart0_control_base(uart);
200169d0:	fdc42503          	lw	a0,-36(s0)
200169d4:	cd1ff0ef          	jal	ra,200166a4 <__metal_driver_sifive_uart0_control_base>
200169d8:	87aa                	mv	a5,a0
200169da:	fef42623          	sw	a5,-20(s0)
C:/Users/nandg/Desktop/Athena_Welcome_Demo/sifive_hifive1_revb_sifive_welcome/freedom-metal/src/drivers/sifive_uart0.c:83

    UART_REGW(METAL_SIFIVE_UART0_TXCTRL) |= UART_TXCNT(level);
200169de:	fec42783          	lw	a5,-20(s0)
200169e2:	07a1                	addi	a5,a5,8
200169e4:	4398                	lw	a4,0(a5)
200169e6:	fd842783          	lw	a5,-40(s0)
200169ea:	01079693          	slli	a3,a5,0x10
200169ee:	000707b7          	lui	a5,0x70
200169f2:	8ff5                	and	a5,a5,a3
200169f4:	fec42683          	lw	a3,-20(s0)
200169f8:	06a1                	addi	a3,a3,8
200169fa:	8fd9                	or	a5,a5,a4
200169fc:	c29c                	sw	a5,0(a3)
C:/Users/nandg/Desktop/Athena_Welcome_Demo/sifive_hifive1_revb_sifive_welcome/freedom-metal/src/drivers/sifive_uart0.c:84
    return 0;
200169fe:	4781                	li	a5,0
C:/Users/nandg/Desktop/Athena_Welcome_Demo/sifive_hifive1_revb_sifive_welcome/freedom-metal/src/drivers/sifive_uart0.c:85
}
20016a00:	853e                	mv	a0,a5
20016a02:	50b2                	lw	ra,44(sp)
20016a04:	5422                	lw	s0,40(sp)
20016a06:	6145                	addi	sp,sp,48
20016a08:	8082                	ret

20016a0a <__metal_driver_sifive_uart0_get_tx_watermark>:
__metal_driver_sifive_uart0_get_tx_watermark():
C:/Users/nandg/Desktop/Athena_Welcome_Demo/sifive_hifive1_revb_sifive_welcome/freedom-metal/src/drivers/sifive_uart0.c:87

size_t __metal_driver_sifive_uart0_get_tx_watermark(struct metal_uart *uart) {
20016a0a:	7179                	addi	sp,sp,-48
20016a0c:	d606                	sw	ra,44(sp)
20016a0e:	d422                	sw	s0,40(sp)
20016a10:	1800                	addi	s0,sp,48
20016a12:	fca42e23          	sw	a0,-36(s0)
C:/Users/nandg/Desktop/Athena_Welcome_Demo/sifive_hifive1_revb_sifive_welcome/freedom-metal/src/drivers/sifive_uart0.c:88
    long control_base = __metal_driver_sifive_uart0_control_base(uart);
20016a16:	fdc42503          	lw	a0,-36(s0)
20016a1a:	c8bff0ef          	jal	ra,200166a4 <__metal_driver_sifive_uart0_control_base>
20016a1e:	87aa                	mv	a5,a0
20016a20:	fef42623          	sw	a5,-20(s0)
C:/Users/nandg/Desktop/Athena_Welcome_Demo/sifive_hifive1_revb_sifive_welcome/freedom-metal/src/drivers/sifive_uart0.c:90

    return ((UART_REGW(METAL_SIFIVE_UART0_TXCTRL) >> 16) & 0x7);
20016a24:	fec42783          	lw	a5,-20(s0)
20016a28:	07a1                	addi	a5,a5,8
20016a2a:	439c                	lw	a5,0(a5)
20016a2c:	83c1                	srli	a5,a5,0x10
20016a2e:	8b9d                	andi	a5,a5,7
C:/Users/nandg/Desktop/Athena_Welcome_Demo/sifive_hifive1_revb_sifive_welcome/freedom-metal/src/drivers/sifive_uart0.c:91
}
20016a30:	853e                	mv	a0,a5
20016a32:	50b2                	lw	ra,44(sp)
20016a34:	5422                	lw	s0,40(sp)
20016a36:	6145                	addi	sp,sp,48
20016a38:	8082                	ret

20016a3a <__metal_driver_sifive_uart0_set_rx_watermark>:
__metal_driver_sifive_uart0_set_rx_watermark():
C:/Users/nandg/Desktop/Athena_Welcome_Demo/sifive_hifive1_revb_sifive_welcome/freedom-metal/src/drivers/sifive_uart0.c:94

int __metal_driver_sifive_uart0_set_rx_watermark(struct metal_uart *uart,
                                                 size_t level) {
20016a3a:	7179                	addi	sp,sp,-48
20016a3c:	d606                	sw	ra,44(sp)
20016a3e:	d422                	sw	s0,40(sp)
20016a40:	1800                	addi	s0,sp,48
20016a42:	fca42e23          	sw	a0,-36(s0)
20016a46:	fcb42c23          	sw	a1,-40(s0)
C:/Users/nandg/Desktop/Athena_Welcome_Demo/sifive_hifive1_revb_sifive_welcome/freedom-metal/src/drivers/sifive_uart0.c:95
    long control_base = __metal_driver_sifive_uart0_control_base(uart);
20016a4a:	fdc42503          	lw	a0,-36(s0)
20016a4e:	c57ff0ef          	jal	ra,200166a4 <__metal_driver_sifive_uart0_control_base>
20016a52:	87aa                	mv	a5,a0
20016a54:	fef42623          	sw	a5,-20(s0)
C:/Users/nandg/Desktop/Athena_Welcome_Demo/sifive_hifive1_revb_sifive_welcome/freedom-metal/src/drivers/sifive_uart0.c:97

    UART_REGW(METAL_SIFIVE_UART0_RXCTRL) |= UART_RXCNT(level);
20016a58:	fec42783          	lw	a5,-20(s0)
20016a5c:	07b1                	addi	a5,a5,12
20016a5e:	4398                	lw	a4,0(a5)
20016a60:	fd842783          	lw	a5,-40(s0)
20016a64:	01079693          	slli	a3,a5,0x10
20016a68:	000707b7          	lui	a5,0x70
20016a6c:	8ff5                	and	a5,a5,a3
20016a6e:	fec42683          	lw	a3,-20(s0)
20016a72:	06b1                	addi	a3,a3,12
20016a74:	8fd9                	or	a5,a5,a4
20016a76:	c29c                	sw	a5,0(a3)
C:/Users/nandg/Desktop/Athena_Welcome_Demo/sifive_hifive1_revb_sifive_welcome/freedom-metal/src/drivers/sifive_uart0.c:98
    return 0;
20016a78:	4781                	li	a5,0
C:/Users/nandg/Desktop/Athena_Welcome_Demo/sifive_hifive1_revb_sifive_welcome/freedom-metal/src/drivers/sifive_uart0.c:99
}
20016a7a:	853e                	mv	a0,a5
20016a7c:	50b2                	lw	ra,44(sp)
20016a7e:	5422                	lw	s0,40(sp)
20016a80:	6145                	addi	sp,sp,48
20016a82:	8082                	ret

20016a84 <__metal_driver_sifive_uart0_get_rx_watermark>:
__metal_driver_sifive_uart0_get_rx_watermark():
C:/Users/nandg/Desktop/Athena_Welcome_Demo/sifive_hifive1_revb_sifive_welcome/freedom-metal/src/drivers/sifive_uart0.c:101

size_t __metal_driver_sifive_uart0_get_rx_watermark(struct metal_uart *uart) {
20016a84:	7179                	addi	sp,sp,-48
20016a86:	d606                	sw	ra,44(sp)
20016a88:	d422                	sw	s0,40(sp)
20016a8a:	1800                	addi	s0,sp,48
20016a8c:	fca42e23          	sw	a0,-36(s0)
C:/Users/nandg/Desktop/Athena_Welcome_Demo/sifive_hifive1_revb_sifive_welcome/freedom-metal/src/drivers/sifive_uart0.c:102
    long control_base = __metal_driver_sifive_uart0_control_base(uart);
20016a90:	fdc42503          	lw	a0,-36(s0)
20016a94:	c11ff0ef          	jal	ra,200166a4 <__metal_driver_sifive_uart0_control_base>
20016a98:	87aa                	mv	a5,a0
20016a9a:	fef42623          	sw	a5,-20(s0)
C:/Users/nandg/Desktop/Athena_Welcome_Demo/sifive_hifive1_revb_sifive_welcome/freedom-metal/src/drivers/sifive_uart0.c:104

    return ((UART_REGW(METAL_SIFIVE_UART0_RXCTRL) >> 16) & 0x7);
20016a9e:	fec42783          	lw	a5,-20(s0)
20016aa2:	07b1                	addi	a5,a5,12
20016aa4:	439c                	lw	a5,0(a5)
20016aa6:	83c1                	srli	a5,a5,0x10
20016aa8:	8b9d                	andi	a5,a5,7
C:/Users/nandg/Desktop/Athena_Welcome_Demo/sifive_hifive1_revb_sifive_welcome/freedom-metal/src/drivers/sifive_uart0.c:105
}
20016aaa:	853e                	mv	a0,a5
20016aac:	50b2                	lw	ra,44(sp)
20016aae:	5422                	lw	s0,40(sp)
20016ab0:	6145                	addi	sp,sp,48
20016ab2:	8082                	ret

20016ab4 <__metal_driver_sifive_uart0_putc>:
__metal_driver_sifive_uart0_putc():
C:/Users/nandg/Desktop/Athena_Welcome_Demo/sifive_hifive1_revb_sifive_welcome/freedom-metal/src/drivers/sifive_uart0.c:107

int __metal_driver_sifive_uart0_putc(struct metal_uart *uart, int c) {
20016ab4:	7179                	addi	sp,sp,-48
20016ab6:	d606                	sw	ra,44(sp)
20016ab8:	d422                	sw	s0,40(sp)
20016aba:	1800                	addi	s0,sp,48
20016abc:	fca42e23          	sw	a0,-36(s0)
20016ac0:	fcb42c23          	sw	a1,-40(s0)
C:/Users/nandg/Desktop/Athena_Welcome_Demo/sifive_hifive1_revb_sifive_welcome/freedom-metal/src/drivers/sifive_uart0.c:108
    long control_base = __metal_driver_sifive_uart0_control_base(uart);
20016ac4:	fdc42503          	lw	a0,-36(s0)
20016ac8:	bddff0ef          	jal	ra,200166a4 <__metal_driver_sifive_uart0_control_base>
20016acc:	87aa                	mv	a5,a0
20016ace:	fef42623          	sw	a5,-20(s0)
C:/Users/nandg/Desktop/Athena_Welcome_Demo/sifive_hifive1_revb_sifive_welcome/freedom-metal/src/drivers/sifive_uart0.c:110

    while (__metal_driver_sifive_uart0_txready(uart) != 0) {
20016ad2:	0001                	nop
C:/Users/nandg/Desktop/Athena_Welcome_Demo/sifive_hifive1_revb_sifive_welcome/freedom-metal/src/drivers/sifive_uart0.c:110 (discriminator 1)
20016ad4:	fdc42503          	lw	a0,-36(s0)
20016ad8:	eb9ff0ef          	jal	ra,20016990 <__metal_driver_sifive_uart0_txready>
20016adc:	87aa                	mv	a5,a0
20016ade:	fbfd                	bnez	a5,20016ad4 <__metal_driver_sifive_uart0_putc+0x20>
C:/Users/nandg/Desktop/Athena_Welcome_Demo/sifive_hifive1_revb_sifive_welcome/freedom-metal/src/drivers/sifive_uart0.c:113
        /* wait */
    }
    UART_REGW(METAL_SIFIVE_UART0_TXDATA) = c;
20016ae0:	fec42783          	lw	a5,-20(s0)
20016ae4:	fd842703          	lw	a4,-40(s0)
20016ae8:	c398                	sw	a4,0(a5)
C:/Users/nandg/Desktop/Athena_Welcome_Demo/sifive_hifive1_revb_sifive_welcome/freedom-metal/src/drivers/sifive_uart0.c:114
    return 0;
20016aea:	4781                	li	a5,0
C:/Users/nandg/Desktop/Athena_Welcome_Demo/sifive_hifive1_revb_sifive_welcome/freedom-metal/src/drivers/sifive_uart0.c:115
}
20016aec:	853e                	mv	a0,a5
20016aee:	50b2                	lw	ra,44(sp)
20016af0:	5422                	lw	s0,40(sp)
20016af2:	6145                	addi	sp,sp,48
20016af4:	8082                	ret

20016af6 <__metal_driver_sifive_uart0_getc>:
__metal_driver_sifive_uart0_getc():
C:/Users/nandg/Desktop/Athena_Welcome_Demo/sifive_hifive1_revb_sifive_welcome/freedom-metal/src/drivers/sifive_uart0.c:117

int __metal_driver_sifive_uart0_getc(struct metal_uart *uart, int *c) {
20016af6:	7179                	addi	sp,sp,-48
20016af8:	d606                	sw	ra,44(sp)
20016afa:	d422                	sw	s0,40(sp)
20016afc:	1800                	addi	s0,sp,48
20016afe:	fca42e23          	sw	a0,-36(s0)
20016b02:	fcb42c23          	sw	a1,-40(s0)
C:/Users/nandg/Desktop/Athena_Welcome_Demo/sifive_hifive1_revb_sifive_welcome/freedom-metal/src/drivers/sifive_uart0.c:119
    uint32_t ch;
    long control_base = __metal_driver_sifive_uart0_control_base(uart);
20016b06:	fdc42503          	lw	a0,-36(s0)
20016b0a:	b9bff0ef          	jal	ra,200166a4 <__metal_driver_sifive_uart0_control_base>
20016b0e:	87aa                	mv	a5,a0
20016b10:	fef42623          	sw	a5,-20(s0)
C:/Users/nandg/Desktop/Athena_Welcome_Demo/sifive_hifive1_revb_sifive_welcome/freedom-metal/src/drivers/sifive_uart0.c:121
    /* No seperate status register, we get status and the byte at same time */
    ch = UART_REGW(METAL_SIFIVE_UART0_RXDATA);
20016b14:	fec42783          	lw	a5,-20(s0)
20016b18:	0791                	addi	a5,a5,4
20016b1a:	439c                	lw	a5,0(a5)
20016b1c:	fef42423          	sw	a5,-24(s0)
C:/Users/nandg/Desktop/Athena_Welcome_Demo/sifive_hifive1_revb_sifive_welcome/freedom-metal/src/drivers/sifive_uart0.c:123
    ;
    if (ch & UART_RXEMPTY) {
20016b20:	fe842783          	lw	a5,-24(s0)
20016b24:	0007d763          	bgez	a5,20016b32 <__metal_driver_sifive_uart0_getc+0x3c>
C:/Users/nandg/Desktop/Athena_Welcome_Demo/sifive_hifive1_revb_sifive_welcome/freedom-metal/src/drivers/sifive_uart0.c:124
        *c = -1; /* aka: EOF in most of the world */
20016b28:	fd842783          	lw	a5,-40(s0)
20016b2c:	577d                	li	a4,-1
20016b2e:	c398                	sw	a4,0(a5)
20016b30:	a801                	j	20016b40 <__metal_driver_sifive_uart0_getc+0x4a>
C:/Users/nandg/Desktop/Athena_Welcome_Demo/sifive_hifive1_revb_sifive_welcome/freedom-metal/src/drivers/sifive_uart0.c:126
    } else {
        *c = ch & 0x0ff;
20016b32:	fe842783          	lw	a5,-24(s0)
20016b36:	0ff7f713          	zext.b	a4,a5
20016b3a:	fd842783          	lw	a5,-40(s0)
20016b3e:	c398                	sw	a4,0(a5)
C:/Users/nandg/Desktop/Athena_Welcome_Demo/sifive_hifive1_revb_sifive_welcome/freedom-metal/src/drivers/sifive_uart0.c:128
    }
    return 0;
20016b40:	4781                	li	a5,0
C:/Users/nandg/Desktop/Athena_Welcome_Demo/sifive_hifive1_revb_sifive_welcome/freedom-metal/src/drivers/sifive_uart0.c:129
}
20016b42:	853e                	mv	a0,a5
20016b44:	50b2                	lw	ra,44(sp)
20016b46:	5422                	lw	s0,40(sp)
20016b48:	6145                	addi	sp,sp,48
20016b4a:	8082                	ret

20016b4c <__metal_driver_sifive_uart0_get_baud_rate>:
__metal_driver_sifive_uart0_get_baud_rate():
C:/Users/nandg/Desktop/Athena_Welcome_Demo/sifive_hifive1_revb_sifive_welcome/freedom-metal/src/drivers/sifive_uart0.c:131

int __metal_driver_sifive_uart0_get_baud_rate(struct metal_uart *guart) {
20016b4c:	7179                	addi	sp,sp,-48
20016b4e:	d622                	sw	s0,44(sp)
20016b50:	1800                	addi	s0,sp,48
20016b52:	fca42e23          	sw	a0,-36(s0)
C:/Users/nandg/Desktop/Athena_Welcome_Demo/sifive_hifive1_revb_sifive_welcome/freedom-metal/src/drivers/sifive_uart0.c:132
    struct __metal_driver_sifive_uart0 *uart = (void *)guart;
20016b56:	fdc42783          	lw	a5,-36(s0)
20016b5a:	fef42623          	sw	a5,-20(s0)
C:/Users/nandg/Desktop/Athena_Welcome_Demo/sifive_hifive1_revb_sifive_welcome/freedom-metal/src/drivers/sifive_uart0.c:133
    return uart->baud_rate;
20016b5e:	fec42783          	lw	a5,-20(s0)
20016b62:	43dc                	lw	a5,4(a5)
C:/Users/nandg/Desktop/Athena_Welcome_Demo/sifive_hifive1_revb_sifive_welcome/freedom-metal/src/drivers/sifive_uart0.c:134
}
20016b64:	853e                	mv	a0,a5
20016b66:	5432                	lw	s0,44(sp)
20016b68:	6145                	addi	sp,sp,48
20016b6a:	8082                	ret

20016b6c <__metal_driver_sifive_uart0_set_baud_rate>:
__metal_driver_sifive_uart0_set_baud_rate():
C:/Users/nandg/Desktop/Athena_Welcome_Demo/sifive_hifive1_revb_sifive_welcome/freedom-metal/src/drivers/sifive_uart0.c:137

int __metal_driver_sifive_uart0_set_baud_rate(struct metal_uart *guart,
                                              int baud_rate) {
20016b6c:	7179                	addi	sp,sp,-48
20016b6e:	d606                	sw	ra,44(sp)
20016b70:	d422                	sw	s0,40(sp)
20016b72:	1800                	addi	s0,sp,48
20016b74:	fca42e23          	sw	a0,-36(s0)
20016b78:	fcb42c23          	sw	a1,-40(s0)
C:/Users/nandg/Desktop/Athena_Welcome_Demo/sifive_hifive1_revb_sifive_welcome/freedom-metal/src/drivers/sifive_uart0.c:138
    struct __metal_driver_sifive_uart0 *uart = (void *)guart;
20016b7c:	fdc42783          	lw	a5,-36(s0)
20016b80:	fef42623          	sw	a5,-20(s0)
C:/Users/nandg/Desktop/Athena_Welcome_Demo/sifive_hifive1_revb_sifive_welcome/freedom-metal/src/drivers/sifive_uart0.c:139
    long control_base = __metal_driver_sifive_uart0_control_base(guart);
20016b84:	fdc42503          	lw	a0,-36(s0)
20016b88:	b1dff0ef          	jal	ra,200166a4 <__metal_driver_sifive_uart0_control_base>
20016b8c:	87aa                	mv	a5,a0
20016b8e:	fef42423          	sw	a5,-24(s0)
C:/Users/nandg/Desktop/Athena_Welcome_Demo/sifive_hifive1_revb_sifive_welcome/freedom-metal/src/drivers/sifive_uart0.c:140
    struct metal_clock *clock = __metal_driver_sifive_uart0_clock(guart);
20016b92:	fdc42503          	lw	a0,-36(s0)
20016b96:	bd3ff0ef          	jal	ra,20016768 <__metal_driver_sifive_uart0_clock>
20016b9a:	fea42223          	sw	a0,-28(s0)
C:/Users/nandg/Desktop/Athena_Welcome_Demo/sifive_hifive1_revb_sifive_welcome/freedom-metal/src/drivers/sifive_uart0.c:142

    uart->baud_rate = baud_rate;
20016b9e:	fd842703          	lw	a4,-40(s0)
20016ba2:	fec42783          	lw	a5,-20(s0)
20016ba6:	c3d8                	sw	a4,4(a5)
C:/Users/nandg/Desktop/Athena_Welcome_Demo/sifive_hifive1_revb_sifive_welcome/freedom-metal/src/drivers/sifive_uart0.c:144

    if (clock != NULL) {
20016ba8:	fe442783          	lw	a5,-28(s0)
20016bac:	cbb1                	beqz	a5,20016c00 <__metal_driver_sifive_uart0_set_baud_rate+0x94>
C:/Users/nandg/Desktop/Athena_Welcome_Demo/sifive_hifive1_revb_sifive_welcome/freedom-metal/src/drivers/sifive_uart0.c:145
        long clock_rate = clock->vtable->get_rate_hz(clock);
20016bae:	fe442783          	lw	a5,-28(s0)
20016bb2:	439c                	lw	a5,0(a5)
20016bb4:	439c                	lw	a5,0(a5)
20016bb6:	fe442503          	lw	a0,-28(s0)
20016bba:	9782                	jalr	a5
20016bbc:	fea42023          	sw	a0,-32(s0)
C:/Users/nandg/Desktop/Athena_Welcome_Demo/sifive_hifive1_revb_sifive_welcome/freedom-metal/src/drivers/sifive_uart0.c:146
        UART_REGW(METAL_SIFIVE_UART0_DIV) = clock_rate / baud_rate - 1;
20016bc0:	fe042703          	lw	a4,-32(s0)
20016bc4:	fd842783          	lw	a5,-40(s0)
20016bc8:	02f747b3          	div	a5,a4,a5
20016bcc:	fff78713          	addi	a4,a5,-1 # 6ffff <__heap_size+0x6f7ff>
20016bd0:	fe842783          	lw	a5,-24(s0)
20016bd4:	07e1                	addi	a5,a5,24
20016bd6:	c398                	sw	a4,0(a5)
C:/Users/nandg/Desktop/Athena_Welcome_Demo/sifive_hifive1_revb_sifive_welcome/freedom-metal/src/drivers/sifive_uart0.c:147
        UART_REGW(METAL_SIFIVE_UART0_TXCTRL) |= UART_TXEN;
20016bd8:	fe842783          	lw	a5,-24(s0)
20016bdc:	07a1                	addi	a5,a5,8
20016bde:	439c                	lw	a5,0(a5)
20016be0:	fe842703          	lw	a4,-24(s0)
20016be4:	0721                	addi	a4,a4,8
20016be6:	0017e793          	ori	a5,a5,1
20016bea:	c31c                	sw	a5,0(a4)
C:/Users/nandg/Desktop/Athena_Welcome_Demo/sifive_hifive1_revb_sifive_welcome/freedom-metal/src/drivers/sifive_uart0.c:148
        UART_REGW(METAL_SIFIVE_UART0_RXCTRL) |= UART_RXEN;
20016bec:	fe842783          	lw	a5,-24(s0)
20016bf0:	07b1                	addi	a5,a5,12
20016bf2:	439c                	lw	a5,0(a5)
20016bf4:	fe842703          	lw	a4,-24(s0)
20016bf8:	0731                	addi	a4,a4,12
20016bfa:	0017e793          	ori	a5,a5,1
20016bfe:	c31c                	sw	a5,0(a4)
C:/Users/nandg/Desktop/Athena_Welcome_Demo/sifive_hifive1_revb_sifive_welcome/freedom-metal/src/drivers/sifive_uart0.c:150
    }
    return 0;
20016c00:	4781                	li	a5,0
C:/Users/nandg/Desktop/Athena_Welcome_Demo/sifive_hifive1_revb_sifive_welcome/freedom-metal/src/drivers/sifive_uart0.c:151
}
20016c02:	853e                	mv	a0,a5
20016c04:	50b2                	lw	ra,44(sp)
20016c06:	5422                	lw	s0,40(sp)
20016c08:	6145                	addi	sp,sp,48
20016c0a:	8082                	ret

20016c0c <pre_rate_change_callback_func>:
pre_rate_change_callback_func():
C:/Users/nandg/Desktop/Athena_Welcome_Demo/sifive_hifive1_revb_sifive_welcome/freedom-metal/src/drivers/sifive_uart0.c:153

static void pre_rate_change_callback_func(void *priv) {
20016c0c:	7139                	addi	sp,sp,-64
20016c0e:	de06                	sw	ra,60(sp)
20016c10:	dc22                	sw	s0,56(sp)
20016c12:	0080                	addi	s0,sp,64
20016c14:	fca42623          	sw	a0,-52(s0)
C:/Users/nandg/Desktop/Athena_Welcome_Demo/sifive_hifive1_revb_sifive_welcome/freedom-metal/src/drivers/sifive_uart0.c:154
    struct __metal_driver_sifive_uart0 *uart = priv;
20016c18:	fcc42783          	lw	a5,-52(s0)
20016c1c:	fef42623          	sw	a5,-20(s0)
C:/Users/nandg/Desktop/Athena_Welcome_Demo/sifive_hifive1_revb_sifive_welcome/freedom-metal/src/drivers/sifive_uart0.c:156
    long control_base =
        __metal_driver_sifive_uart0_control_base((struct metal_uart *)priv);
20016c20:	fcc42503          	lw	a0,-52(s0)
20016c24:	a81ff0ef          	jal	ra,200166a4 <__metal_driver_sifive_uart0_control_base>
20016c28:	87aa                	mv	a5,a0
C:/Users/nandg/Desktop/Athena_Welcome_Demo/sifive_hifive1_revb_sifive_welcome/freedom-metal/src/drivers/sifive_uart0.c:155
    long control_base =
20016c2a:	fef42423          	sw	a5,-24(s0)
C:/Users/nandg/Desktop/Athena_Welcome_Demo/sifive_hifive1_revb_sifive_welcome/freedom-metal/src/drivers/sifive_uart0.c:158
    struct metal_clock *clock =
        __metal_driver_sifive_uart0_clock((struct metal_uart *)priv);
20016c2e:	fcc42503          	lw	a0,-52(s0)
20016c32:	b37ff0ef          	jal	ra,20016768 <__metal_driver_sifive_uart0_clock>
20016c36:	fea42223          	sw	a0,-28(s0)
C:/Users/nandg/Desktop/Athena_Welcome_Demo/sifive_hifive1_revb_sifive_welcome/freedom-metal/src/drivers/sifive_uart0.c:163

    /* Detect when the TXDATA is empty by setting the transmit watermark count
     * to one and waiting until an interrupt is pending */

    UART_REGW(METAL_SIFIVE_UART0_TXCTRL) &= ~(UART_TXCNT(0x7));
20016c3a:	fe842783          	lw	a5,-24(s0)
20016c3e:	07a1                	addi	a5,a5,8
20016c40:	4398                	lw	a4,0(a5)
20016c42:	fe842783          	lw	a5,-24(s0)
20016c46:	07a1                	addi	a5,a5,8
20016c48:	86be                	mv	a3,a5
20016c4a:	fff907b7          	lui	a5,0xfff90
20016c4e:	17fd                	addi	a5,a5,-1
20016c50:	8ff9                	and	a5,a5,a4
20016c52:	c29c                	sw	a5,0(a3)
C:/Users/nandg/Desktop/Athena_Welcome_Demo/sifive_hifive1_revb_sifive_welcome/freedom-metal/src/drivers/sifive_uart0.c:164
    UART_REGW(METAL_SIFIVE_UART0_TXCTRL) |= UART_TXCNT(1);
20016c54:	fe842783          	lw	a5,-24(s0)
20016c58:	07a1                	addi	a5,a5,8
20016c5a:	4398                	lw	a4,0(a5)
20016c5c:	fe842783          	lw	a5,-24(s0)
20016c60:	07a1                	addi	a5,a5,8
20016c62:	86be                	mv	a3,a5
20016c64:	67c1                	lui	a5,0x10
20016c66:	8fd9                	or	a5,a5,a4
20016c68:	c29c                	sw	a5,0(a3)
C:/Users/nandg/Desktop/Athena_Welcome_Demo/sifive_hifive1_revb_sifive_welcome/freedom-metal/src/drivers/sifive_uart0.c:166

    while ((UART_REGW(METAL_SIFIVE_UART0_IP) & UART_TXWM) == 0)
20016c6a:	0001                	nop
C:/Users/nandg/Desktop/Athena_Welcome_Demo/sifive_hifive1_revb_sifive_welcome/freedom-metal/src/drivers/sifive_uart0.c:166 (discriminator 1)
20016c6c:	fe842783          	lw	a5,-24(s0)
20016c70:	07d1                	addi	a5,a5,20
20016c72:	439c                	lw	a5,0(a5)
20016c74:	8b85                	andi	a5,a5,1
20016c76:	dbfd                	beqz	a5,20016c6c <pre_rate_change_callback_func+0x60>
C:/Users/nandg/Desktop/Athena_Welcome_Demo/sifive_hifive1_revb_sifive_welcome/freedom-metal/src/drivers/sifive_uart0.c:174
    /* When the TXDATA clears, the UART is still shifting out the last byte.
     * Calculate the time we must drain to finish transmitting and then wait
     * that long. */

    long bits_per_symbol =
        (UART_REGW(METAL_SIFIVE_UART0_TXCTRL) & (1 << 1)) ? 9 : 10;
20016c78:	fe842783          	lw	a5,-24(s0)
20016c7c:	07a1                	addi	a5,a5,8
20016c7e:	439c                	lw	a5,0(a5)
20016c80:	8b89                	andi	a5,a5,2
20016c82:	c399                	beqz	a5,20016c88 <pre_rate_change_callback_func+0x7c>
C:/Users/nandg/Desktop/Athena_Welcome_Demo/sifive_hifive1_revb_sifive_welcome/freedom-metal/src/drivers/sifive_uart0.c:174 (discriminator 1)
20016c84:	47a5                	li	a5,9
20016c86:	a011                	j	20016c8a <pre_rate_change_callback_func+0x7e>
C:/Users/nandg/Desktop/Athena_Welcome_Demo/sifive_hifive1_revb_sifive_welcome/freedom-metal/src/drivers/sifive_uart0.c:174 (discriminator 2)
20016c88:	47a9                	li	a5,10
C:/Users/nandg/Desktop/Athena_Welcome_Demo/sifive_hifive1_revb_sifive_welcome/freedom-metal/src/drivers/sifive_uart0.c:173
    long bits_per_symbol =
20016c8a:	fef42023          	sw	a5,-32(s0)
C:/Users/nandg/Desktop/Athena_Welcome_Demo/sifive_hifive1_revb_sifive_welcome/freedom-metal/src/drivers/sifive_uart0.c:175
    long clk_freq = clock->vtable->get_rate_hz(clock);
20016c8e:	fe442783          	lw	a5,-28(s0)
20016c92:	439c                	lw	a5,0(a5)
20016c94:	439c                	lw	a5,0(a5)
20016c96:	fe442503          	lw	a0,-28(s0)
20016c9a:	9782                	jalr	a5
20016c9c:	fca42e23          	sw	a0,-36(s0)
C:/Users/nandg/Desktop/Athena_Welcome_Demo/sifive_hifive1_revb_sifive_welcome/freedom-metal/src/drivers/sifive_uart0.c:176
    long cycles_to_wait = bits_per_symbol * clk_freq / uart->baud_rate;
20016ca0:	fe042703          	lw	a4,-32(s0)
20016ca4:	fdc42783          	lw	a5,-36(s0)
20016ca8:	02f707b3          	mul	a5,a4,a5
20016cac:	873e                	mv	a4,a5
20016cae:	fec42783          	lw	a5,-20(s0)
20016cb2:	43dc                	lw	a5,4(a5)
20016cb4:	02f757b3          	divu	a5,a4,a5
20016cb8:	fcf42c23          	sw	a5,-40(s0)
C:/Users/nandg/Desktop/Athena_Welcome_Demo/sifive_hifive1_revb_sifive_welcome/freedom-metal/src/drivers/sifive_uart0.c:178

    for (volatile long x = 0; x < cycles_to_wait; x++)
20016cbc:	fc042a23          	sw	zero,-44(s0)
20016cc0:	a039                	j	20016cce <pre_rate_change_callback_func+0xc2>
C:/Users/nandg/Desktop/Athena_Welcome_Demo/sifive_hifive1_revb_sifive_welcome/freedom-metal/src/drivers/sifive_uart0.c:179 (discriminator 3)
        __asm__("nop");
20016cc2:	0001                	nop
C:/Users/nandg/Desktop/Athena_Welcome_Demo/sifive_hifive1_revb_sifive_welcome/freedom-metal/src/drivers/sifive_uart0.c:178 (discriminator 3)
    for (volatile long x = 0; x < cycles_to_wait; x++)
20016cc4:	fd442783          	lw	a5,-44(s0)
20016cc8:	0785                	addi	a5,a5,1
20016cca:	fcf42a23          	sw	a5,-44(s0)
C:/Users/nandg/Desktop/Athena_Welcome_Demo/sifive_hifive1_revb_sifive_welcome/freedom-metal/src/drivers/sifive_uart0.c:178 (discriminator 1)
20016cce:	fd442783          	lw	a5,-44(s0)
20016cd2:	fd842703          	lw	a4,-40(s0)
20016cd6:	fee7c6e3          	blt	a5,a4,20016cc2 <pre_rate_change_callback_func+0xb6>
C:/Users/nandg/Desktop/Athena_Welcome_Demo/sifive_hifive1_revb_sifive_welcome/freedom-metal/src/drivers/sifive_uart0.c:180
}
20016cda:	0001                	nop
20016cdc:	0001                	nop
20016cde:	50f2                	lw	ra,60(sp)
20016ce0:	5462                	lw	s0,56(sp)
20016ce2:	6121                	addi	sp,sp,64
20016ce4:	8082                	ret

20016ce6 <post_rate_change_callback_func>:
post_rate_change_callback_func():
C:/Users/nandg/Desktop/Athena_Welcome_Demo/sifive_hifive1_revb_sifive_welcome/freedom-metal/src/drivers/sifive_uart0.c:182

static void post_rate_change_callback_func(void *priv) {
20016ce6:	7179                	addi	sp,sp,-48
20016ce8:	d606                	sw	ra,44(sp)
20016cea:	d422                	sw	s0,40(sp)
20016cec:	1800                	addi	s0,sp,48
20016cee:	fca42e23          	sw	a0,-36(s0)
C:/Users/nandg/Desktop/Athena_Welcome_Demo/sifive_hifive1_revb_sifive_welcome/freedom-metal/src/drivers/sifive_uart0.c:183
    struct __metal_driver_sifive_uart0 *uart = priv;
20016cf2:	fdc42783          	lw	a5,-36(s0)
20016cf6:	fef42623          	sw	a5,-20(s0)
C:/Users/nandg/Desktop/Athena_Welcome_Demo/sifive_hifive1_revb_sifive_welcome/freedom-metal/src/drivers/sifive_uart0.c:184
    metal_uart_set_baud_rate(&uart->uart, uart->baud_rate);
20016cfa:	fec42703          	lw	a4,-20(s0)
20016cfe:	fec42783          	lw	a5,-20(s0)
20016d02:	43dc                	lw	a5,4(a5)
20016d04:	85be                	mv	a1,a5
20016d06:	853a                	mv	a0,a4
20016d08:	2ee1                	jal	200170e0 <metal_uart_set_baud_rate>
C:/Users/nandg/Desktop/Athena_Welcome_Demo/sifive_hifive1_revb_sifive_welcome/freedom-metal/src/drivers/sifive_uart0.c:185
}
20016d0a:	0001                	nop
20016d0c:	50b2                	lw	ra,44(sp)
20016d0e:	5422                	lw	s0,40(sp)
20016d10:	6145                	addi	sp,sp,48
20016d12:	8082                	ret

20016d14 <__metal_driver_sifive_uart0_init>:
__metal_driver_sifive_uart0_init():
C:/Users/nandg/Desktop/Athena_Welcome_Demo/sifive_hifive1_revb_sifive_welcome/freedom-metal/src/drivers/sifive_uart0.c:187

void __metal_driver_sifive_uart0_init(struct metal_uart *guart, int baud_rate) {
20016d14:	7139                	addi	sp,sp,-64
20016d16:	de06                	sw	ra,60(sp)
20016d18:	dc22                	sw	s0,56(sp)
20016d1a:	0080                	addi	s0,sp,64
20016d1c:	fca42623          	sw	a0,-52(s0)
20016d20:	fcb42423          	sw	a1,-56(s0)
C:/Users/nandg/Desktop/Athena_Welcome_Demo/sifive_hifive1_revb_sifive_welcome/freedom-metal/src/drivers/sifive_uart0.c:188
    struct __metal_driver_sifive_uart0 *uart = (void *)(guart);
20016d24:	fcc42783          	lw	a5,-52(s0)
20016d28:	fef42623          	sw	a5,-20(s0)
C:/Users/nandg/Desktop/Athena_Welcome_Demo/sifive_hifive1_revb_sifive_welcome/freedom-metal/src/drivers/sifive_uart0.c:189
    struct metal_clock *clock = __metal_driver_sifive_uart0_clock(guart);
20016d2c:	fcc42503          	lw	a0,-52(s0)
20016d30:	a39ff0ef          	jal	ra,20016768 <__metal_driver_sifive_uart0_clock>
20016d34:	fea42423          	sw	a0,-24(s0)
C:/Users/nandg/Desktop/Athena_Welcome_Demo/sifive_hifive1_revb_sifive_welcome/freedom-metal/src/drivers/sifive_uart0.c:191
    struct __metal_driver_sifive_gpio0 *pinmux =
        __metal_driver_sifive_uart0_pinmux(guart);
20016d38:	fcc42503          	lw	a0,-52(s0)
20016d3c:	a75ff0ef          	jal	ra,200167b0 <__metal_driver_sifive_uart0_pinmux>
20016d40:	fea42223          	sw	a0,-28(s0)
C:/Users/nandg/Desktop/Athena_Welcome_Demo/sifive_hifive1_revb_sifive_welcome/freedom-metal/src/drivers/sifive_uart0.c:193

    if (clock != NULL) {
20016d44:	fe842783          	lw	a5,-24(s0)
20016d48:	c7b9                	beqz	a5,20016d96 <__metal_driver_sifive_uart0_init+0x82>
C:/Users/nandg/Desktop/Athena_Welcome_Demo/sifive_hifive1_revb_sifive_welcome/freedom-metal/src/drivers/sifive_uart0.c:194
        uart->pre_rate_change_callback.callback =
20016d4a:	fec42783          	lw	a5,-20(s0)
20016d4e:	20017737          	lui	a4,0x20017
20016d52:	c0c70713          	addi	a4,a4,-1012 # 20016c0c <pre_rate_change_callback_func>
20016d56:	c798                	sw	a4,8(a5)
C:/Users/nandg/Desktop/Athena_Welcome_Demo/sifive_hifive1_revb_sifive_welcome/freedom-metal/src/drivers/sifive_uart0.c:196
            &pre_rate_change_callback_func;
        uart->pre_rate_change_callback.priv = guart;
20016d58:	fec42783          	lw	a5,-20(s0)
20016d5c:	fcc42703          	lw	a4,-52(s0)
20016d60:	c7d8                	sw	a4,12(a5)
C:/Users/nandg/Desktop/Athena_Welcome_Demo/sifive_hifive1_revb_sifive_welcome/freedom-metal/src/drivers/sifive_uart0.c:197
        metal_clock_register_pre_rate_change_callback(
20016d62:	fec42783          	lw	a5,-20(s0)
20016d66:	07a1                	addi	a5,a5,8
20016d68:	85be                	mv	a1,a5
20016d6a:	fe842503          	lw	a0,-24(s0)
20016d6e:	2abd                	jal	20016eec <metal_clock_register_pre_rate_change_callback>
C:/Users/nandg/Desktop/Athena_Welcome_Demo/sifive_hifive1_revb_sifive_welcome/freedom-metal/src/drivers/sifive_uart0.c:200
            clock, &(uart->pre_rate_change_callback));

        uart->post_rate_change_callback.callback =
20016d70:	fec42783          	lw	a5,-20(s0)
20016d74:	20017737          	lui	a4,0x20017
20016d78:	ce670713          	addi	a4,a4,-794 # 20016ce6 <post_rate_change_callback_func>
20016d7c:	cbd8                	sw	a4,20(a5)
C:/Users/nandg/Desktop/Athena_Welcome_Demo/sifive_hifive1_revb_sifive_welcome/freedom-metal/src/drivers/sifive_uart0.c:202
            &post_rate_change_callback_func;
        uart->post_rate_change_callback.priv = guart;
20016d7e:	fec42783          	lw	a5,-20(s0)
20016d82:	fcc42703          	lw	a4,-52(s0)
20016d86:	cf98                	sw	a4,24(a5)
C:/Users/nandg/Desktop/Athena_Welcome_Demo/sifive_hifive1_revb_sifive_welcome/freedom-metal/src/drivers/sifive_uart0.c:203
        metal_clock_register_post_rate_change_callback(
20016d88:	fec42783          	lw	a5,-20(s0)
20016d8c:	07d1                	addi	a5,a5,20
20016d8e:	85be                	mv	a1,a5
20016d90:	fe842503          	lw	a0,-24(s0)
20016d94:	2269                	jal	20016f1e <metal_clock_register_post_rate_change_callback>
C:/Users/nandg/Desktop/Athena_Welcome_Demo/sifive_hifive1_revb_sifive_welcome/freedom-metal/src/drivers/sifive_uart0.c:207
            clock, &(uart->post_rate_change_callback));
    }

    metal_uart_set_baud_rate(&(uart->uart), baud_rate);
20016d96:	fec42783          	lw	a5,-20(s0)
20016d9a:	fc842583          	lw	a1,-56(s0)
20016d9e:	853e                	mv	a0,a5
20016da0:	2681                	jal	200170e0 <metal_uart_set_baud_rate>
C:/Users/nandg/Desktop/Athena_Welcome_Demo/sifive_hifive1_revb_sifive_welcome/freedom-metal/src/drivers/sifive_uart0.c:209

    if (pinmux != NULL) {
20016da2:	fe442783          	lw	a5,-28(s0)
20016da6:	cb95                	beqz	a5,20016dda <__metal_driver_sifive_uart0_init+0xc6>
C:/Users/nandg/Desktop/Athena_Welcome_Demo/sifive_hifive1_revb_sifive_welcome/freedom-metal/src/drivers/sifive_uart0.c:211
        long pinmux_output_selector =
            __metal_driver_sifive_uart0_pinmux_output_selector(guart);
20016da8:	fcc42503          	lw	a0,-52(s0)
20016dac:	a45ff0ef          	jal	ra,200167f0 <__metal_driver_sifive_uart0_pinmux_output_selector>
20016db0:	87aa                	mv	a5,a0
C:/Users/nandg/Desktop/Athena_Welcome_Demo/sifive_hifive1_revb_sifive_welcome/freedom-metal/src/drivers/sifive_uart0.c:210
        long pinmux_output_selector =
20016db2:	fef42023          	sw	a5,-32(s0)
C:/Users/nandg/Desktop/Athena_Welcome_Demo/sifive_hifive1_revb_sifive_welcome/freedom-metal/src/drivers/sifive_uart0.c:213
        long pinmux_source_selector =
            __metal_driver_sifive_uart0_pinmux_source_selector(guart);
20016db6:	fcc42503          	lw	a0,-52(s0)
20016dba:	a73ff0ef          	jal	ra,2001682c <__metal_driver_sifive_uart0_pinmux_source_selector>
20016dbe:	87aa                	mv	a5,a0
C:/Users/nandg/Desktop/Athena_Welcome_Demo/sifive_hifive1_revb_sifive_welcome/freedom-metal/src/drivers/sifive_uart0.c:212
        long pinmux_source_selector =
20016dc0:	fcf42e23          	sw	a5,-36(s0)
C:/Users/nandg/Desktop/Athena_Welcome_Demo/sifive_hifive1_revb_sifive_welcome/freedom-metal/src/drivers/sifive_uart0.c:214
        pinmux->gpio.vtable->enable_io((struct metal_gpio *)pinmux,
20016dc4:	fe442783          	lw	a5,-28(s0)
20016dc8:	439c                	lw	a5,0(a5)
20016dca:	53dc                	lw	a5,36(a5)
20016dcc:	fdc42603          	lw	a2,-36(s0)
20016dd0:	fe042583          	lw	a1,-32(s0)
20016dd4:	fe442503          	lw	a0,-28(s0)
20016dd8:	9782                	jalr	a5
C:/Users/nandg/Desktop/Athena_Welcome_Demo/sifive_hifive1_revb_sifive_welcome/freedom-metal/src/drivers/sifive_uart0.c:218
                                       pinmux_output_selector,
                                       pinmux_source_selector);
    }
}
20016dda:	0001                	nop
20016ddc:	50f2                	lw	ra,60(sp)
20016dde:	5462                	lw	s0,56(sp)
20016de0:	6121                	addi	sp,sp,64
20016de2:	8082                	ret

20016de4 <_metal_clock_call_all_callbacks>:
_metal_clock_call_all_callbacks():
C:/Users/nandg/Desktop/Athena_Welcome_Demo/sifive_hifive1_revb_sifive_welcome/freedom-metal/metal/clock.h:50

/*!
 * @brief Call all callbacks in the linked list, if any are registered
 */
__inline__ void
_metal_clock_call_all_callbacks(const metal_clock_callback *const list) {
20016de4:	7179                	addi	sp,sp,-48
20016de6:	d606                	sw	ra,44(sp)
20016de8:	d422                	sw	s0,40(sp)
20016dea:	1800                	addi	s0,sp,48
20016dec:	fca42e23          	sw	a0,-36(s0)
C:/Users/nandg/Desktop/Athena_Welcome_Demo/sifive_hifive1_revb_sifive_welcome/freedom-metal/metal/clock.h:51
    const metal_clock_callback *current = list;
20016df0:	fdc42783          	lw	a5,-36(s0)
20016df4:	fef42623          	sw	a5,-20(s0)
C:/Users/nandg/Desktop/Athena_Welcome_Demo/sifive_hifive1_revb_sifive_welcome/freedom-metal/metal/clock.h:52
    while (current) {
20016df8:	a831                	j	20016e14 <_metal_clock_call_all_callbacks+0x30>
C:/Users/nandg/Desktop/Athena_Welcome_Demo/sifive_hifive1_revb_sifive_welcome/freedom-metal/metal/clock.h:53
        current->callback(current->priv);
20016dfa:	fec42783          	lw	a5,-20(s0)
20016dfe:	4398                	lw	a4,0(a5)
20016e00:	fec42783          	lw	a5,-20(s0)
20016e04:	43dc                	lw	a5,4(a5)
20016e06:	853e                	mv	a0,a5
20016e08:	9702                	jalr	a4
C:/Users/nandg/Desktop/Athena_Welcome_Demo/sifive_hifive1_revb_sifive_welcome/freedom-metal/metal/clock.h:54
        current = current->_next;
20016e0a:	fec42783          	lw	a5,-20(s0)
20016e0e:	479c                	lw	a5,8(a5)
20016e10:	fef42623          	sw	a5,-20(s0)
C:/Users/nandg/Desktop/Athena_Welcome_Demo/sifive_hifive1_revb_sifive_welcome/freedom-metal/metal/clock.h:52
    while (current) {
20016e14:	fec42783          	lw	a5,-20(s0)
20016e18:	f3ed                	bnez	a5,20016dfa <_metal_clock_call_all_callbacks+0x16>
C:/Users/nandg/Desktop/Athena_Welcome_Demo/sifive_hifive1_revb_sifive_welcome/freedom-metal/metal/clock.h:56
    }
}
20016e1a:	0001                	nop
20016e1c:	0001                	nop
20016e1e:	50b2                	lw	ra,44(sp)
20016e20:	5422                	lw	s0,40(sp)
20016e22:	6145                	addi	sp,sp,48
20016e24:	8082                	ret

20016e26 <_metal_clock_append_to_callbacks>:
_metal_clock_append_to_callbacks():
C:/Users/nandg/Desktop/Athena_Welcome_Demo/sifive_hifive1_revb_sifive_welcome/freedom-metal/metal/clock.h:63
/*!
 * @brief Append a callback to the linked list and return the head of the list
 */
__inline__ metal_clock_callback *
_metal_clock_append_to_callbacks(metal_clock_callback *list,
                                 metal_clock_callback *const cb) {
20016e26:	7179                	addi	sp,sp,-48
20016e28:	d622                	sw	s0,44(sp)
20016e2a:	1800                	addi	s0,sp,48
20016e2c:	fca42e23          	sw	a0,-36(s0)
20016e30:	fcb42c23          	sw	a1,-40(s0)
C:/Users/nandg/Desktop/Athena_Welcome_Demo/sifive_hifive1_revb_sifive_welcome/freedom-metal/metal/clock.h:64
    cb->_next = NULL;
20016e34:	fd842783          	lw	a5,-40(s0)
20016e38:	0007a423          	sw	zero,8(a5) # 10008 <__heap_size+0xf808>
C:/Users/nandg/Desktop/Athena_Welcome_Demo/sifive_hifive1_revb_sifive_welcome/freedom-metal/metal/clock.h:66

    if (!list) {
20016e3c:	fdc42783          	lw	a5,-36(s0)
20016e40:	e781                	bnez	a5,20016e48 <_metal_clock_append_to_callbacks+0x22>
C:/Users/nandg/Desktop/Athena_Welcome_Demo/sifive_hifive1_revb_sifive_welcome/freedom-metal/metal/clock.h:67
        return cb;
20016e42:	fd842783          	lw	a5,-40(s0)
20016e46:	a035                	j	20016e72 <_metal_clock_append_to_callbacks+0x4c>
C:/Users/nandg/Desktop/Athena_Welcome_Demo/sifive_hifive1_revb_sifive_welcome/freedom-metal/metal/clock.h:70
    }

    metal_clock_callback *current = list;
20016e48:	fdc42783          	lw	a5,-36(s0)
20016e4c:	fef42623          	sw	a5,-20(s0)
C:/Users/nandg/Desktop/Athena_Welcome_Demo/sifive_hifive1_revb_sifive_welcome/freedom-metal/metal/clock.h:72

    while ((current->_next) != NULL) {
20016e50:	a031                	j	20016e5c <_metal_clock_append_to_callbacks+0x36>
C:/Users/nandg/Desktop/Athena_Welcome_Demo/sifive_hifive1_revb_sifive_welcome/freedom-metal/metal/clock.h:73
        current = current->_next;
20016e52:	fec42783          	lw	a5,-20(s0)
20016e56:	479c                	lw	a5,8(a5)
20016e58:	fef42623          	sw	a5,-20(s0)
C:/Users/nandg/Desktop/Athena_Welcome_Demo/sifive_hifive1_revb_sifive_welcome/freedom-metal/metal/clock.h:72
    while ((current->_next) != NULL) {
20016e5c:	fec42783          	lw	a5,-20(s0)
20016e60:	479c                	lw	a5,8(a5)
20016e62:	fbe5                	bnez	a5,20016e52 <_metal_clock_append_to_callbacks+0x2c>
C:/Users/nandg/Desktop/Athena_Welcome_Demo/sifive_hifive1_revb_sifive_welcome/freedom-metal/metal/clock.h:76
    }

    current->_next = cb;
20016e64:	fec42783          	lw	a5,-20(s0)
20016e68:	fd842703          	lw	a4,-40(s0)
20016e6c:	c798                	sw	a4,8(a5)
C:/Users/nandg/Desktop/Athena_Welcome_Demo/sifive_hifive1_revb_sifive_welcome/freedom-metal/metal/clock.h:78

    return list;
20016e6e:	fdc42783          	lw	a5,-36(s0)
C:/Users/nandg/Desktop/Athena_Welcome_Demo/sifive_hifive1_revb_sifive_welcome/freedom-metal/metal/clock.h:79
}
20016e72:	853e                	mv	a0,a5
20016e74:	5432                	lw	s0,44(sp)
20016e76:	6145                	addi	sp,sp,48
20016e78:	8082                	ret

20016e7a <metal_clock_get_rate_hz>:
metal_clock_get_rate_hz():
C:/Users/nandg/Desktop/Athena_Welcome_Demo/sifive_hifive1_revb_sifive_welcome/freedom-metal/metal/clock.h:110
 * @brief Returns the current rate of the given clock
 *
 * @param clk The handle for the clock
 * @return The current rate of the clock in Hz
 */
__inline__ long metal_clock_get_rate_hz(const struct metal_clock *clk) {
20016e7a:	1101                	addi	sp,sp,-32
20016e7c:	ce06                	sw	ra,28(sp)
20016e7e:	cc22                	sw	s0,24(sp)
20016e80:	1000                	addi	s0,sp,32
20016e82:	fea42623          	sw	a0,-20(s0)
C:/Users/nandg/Desktop/Athena_Welcome_Demo/sifive_hifive1_revb_sifive_welcome/freedom-metal/metal/clock.h:111
    return clk->vtable->get_rate_hz(clk);
20016e86:	fec42783          	lw	a5,-20(s0)
20016e8a:	439c                	lw	a5,0(a5)
20016e8c:	439c                	lw	a5,0(a5)
20016e8e:	fec42503          	lw	a0,-20(s0)
20016e92:	9782                	jalr	a5
20016e94:	87aa                	mv	a5,a0
C:/Users/nandg/Desktop/Athena_Welcome_Demo/sifive_hifive1_revb_sifive_welcome/freedom-metal/metal/clock.h:112
}
20016e96:	853e                	mv	a0,a5
20016e98:	40f2                	lw	ra,28(sp)
20016e9a:	4462                	lw	s0,24(sp)
20016e9c:	6105                	addi	sp,sp,32
20016e9e:	8082                	ret

20016ea0 <metal_clock_set_rate_hz>:
metal_clock_set_rate_hz():
C:/Users/nandg/Desktop/Athena_Welcome_Demo/sifive_hifive1_revb_sifive_welcome/freedom-metal/metal/clock.h:128
 * could be anything!
 *
 * Prior to and after the rate change of the clock, this will call the
 * registered pre- and post-rate change callbacks.
 */
__inline__ long metal_clock_set_rate_hz(struct metal_clock *clk, long hz) {
20016ea0:	7179                	addi	sp,sp,-48
20016ea2:	d606                	sw	ra,44(sp)
20016ea4:	d422                	sw	s0,40(sp)
20016ea6:	1800                	addi	s0,sp,48
20016ea8:	fca42e23          	sw	a0,-36(s0)
20016eac:	fcb42c23          	sw	a1,-40(s0)
C:/Users/nandg/Desktop/Athena_Welcome_Demo/sifive_hifive1_revb_sifive_welcome/freedom-metal/metal/clock.h:129
    _metal_clock_call_all_callbacks(clk->_pre_rate_change_callback);
20016eb0:	fdc42783          	lw	a5,-36(s0)
20016eb4:	43dc                	lw	a5,4(a5)
20016eb6:	853e                	mv	a0,a5
20016eb8:	f2dff0ef          	jal	ra,20016de4 <_metal_clock_call_all_callbacks>
C:/Users/nandg/Desktop/Athena_Welcome_Demo/sifive_hifive1_revb_sifive_welcome/freedom-metal/metal/clock.h:131

    long out = clk->vtable->set_rate_hz(clk, hz);
20016ebc:	fdc42783          	lw	a5,-36(s0)
20016ec0:	439c                	lw	a5,0(a5)
20016ec2:	43dc                	lw	a5,4(a5)
20016ec4:	fd842583          	lw	a1,-40(s0)
20016ec8:	fdc42503          	lw	a0,-36(s0)
20016ecc:	9782                	jalr	a5
20016ece:	fea42623          	sw	a0,-20(s0)
C:/Users/nandg/Desktop/Athena_Welcome_Demo/sifive_hifive1_revb_sifive_welcome/freedom-metal/metal/clock.h:133

    _metal_clock_call_all_callbacks(clk->_post_rate_change_callback);
20016ed2:	fdc42783          	lw	a5,-36(s0)
20016ed6:	479c                	lw	a5,8(a5)
20016ed8:	853e                	mv	a0,a5
20016eda:	f0bff0ef          	jal	ra,20016de4 <_metal_clock_call_all_callbacks>
C:/Users/nandg/Desktop/Athena_Welcome_Demo/sifive_hifive1_revb_sifive_welcome/freedom-metal/metal/clock.h:135

    return out;
20016ede:	fec42783          	lw	a5,-20(s0)
C:/Users/nandg/Desktop/Athena_Welcome_Demo/sifive_hifive1_revb_sifive_welcome/freedom-metal/metal/clock.h:136
}
20016ee2:	853e                	mv	a0,a5
20016ee4:	50b2                	lw	ra,44(sp)
20016ee6:	5422                	lw	s0,40(sp)
20016ee8:	6145                	addi	sp,sp,48
20016eea:	8082                	ret

20016eec <metal_clock_register_pre_rate_change_callback>:
metal_clock_register_pre_rate_change_callback():
C:/Users/nandg/Desktop/Athena_Welcome_Demo/sifive_hifive1_revb_sifive_welcome/freedom-metal/metal/clock.h:146
 * @param clk The handle for the clock
 * @param cb The callback to be registered
 */
__inline__ void
metal_clock_register_pre_rate_change_callback(struct metal_clock *clk,
                                              metal_clock_callback *cb) {
20016eec:	1101                	addi	sp,sp,-32
20016eee:	ce06                	sw	ra,28(sp)
20016ef0:	cc22                	sw	s0,24(sp)
20016ef2:	1000                	addi	s0,sp,32
20016ef4:	fea42623          	sw	a0,-20(s0)
20016ef8:	feb42423          	sw	a1,-24(s0)
C:/Users/nandg/Desktop/Athena_Welcome_Demo/sifive_hifive1_revb_sifive_welcome/freedom-metal/metal/clock.h:148
    clk->_pre_rate_change_callback =
        _metal_clock_append_to_callbacks(clk->_pre_rate_change_callback, cb);
20016efc:	fec42783          	lw	a5,-20(s0)
20016f00:	43dc                	lw	a5,4(a5)
20016f02:	fe842583          	lw	a1,-24(s0)
20016f06:	853e                	mv	a0,a5
20016f08:	f1fff0ef          	jal	ra,20016e26 <_metal_clock_append_to_callbacks>
20016f0c:	872a                	mv	a4,a0
C:/Users/nandg/Desktop/Athena_Welcome_Demo/sifive_hifive1_revb_sifive_welcome/freedom-metal/metal/clock.h:147
    clk->_pre_rate_change_callback =
20016f0e:	fec42783          	lw	a5,-20(s0)
20016f12:	c3d8                	sw	a4,4(a5)
C:/Users/nandg/Desktop/Athena_Welcome_Demo/sifive_hifive1_revb_sifive_welcome/freedom-metal/metal/clock.h:149
}
20016f14:	0001                	nop
20016f16:	40f2                	lw	ra,28(sp)
20016f18:	4462                	lw	s0,24(sp)
20016f1a:	6105                	addi	sp,sp,32
20016f1c:	8082                	ret

20016f1e <metal_clock_register_post_rate_change_callback>:
metal_clock_register_post_rate_change_callback():
C:/Users/nandg/Desktop/Athena_Welcome_Demo/sifive_hifive1_revb_sifive_welcome/freedom-metal/metal/clock.h:159
 * @param clk The handle for the clock
 * @param cb The callback to be registered
 */
__inline__ void
metal_clock_register_post_rate_change_callback(struct metal_clock *clk,
                                               metal_clock_callback *cb) {
20016f1e:	1101                	addi	sp,sp,-32
20016f20:	ce06                	sw	ra,28(sp)
20016f22:	cc22                	sw	s0,24(sp)
20016f24:	1000                	addi	s0,sp,32
20016f26:	fea42623          	sw	a0,-20(s0)
20016f2a:	feb42423          	sw	a1,-24(s0)
C:/Users/nandg/Desktop/Athena_Welcome_Demo/sifive_hifive1_revb_sifive_welcome/freedom-metal/metal/clock.h:161
    clk->_post_rate_change_callback =
        _metal_clock_append_to_callbacks(clk->_post_rate_change_callback, cb);
20016f2e:	fec42783          	lw	a5,-20(s0)
20016f32:	479c                	lw	a5,8(a5)
20016f34:	fe842583          	lw	a1,-24(s0)
20016f38:	853e                	mv	a0,a5
20016f3a:	eedff0ef          	jal	ra,20016e26 <_metal_clock_append_to_callbacks>
20016f3e:	872a                	mv	a4,a0
C:/Users/nandg/Desktop/Athena_Welcome_Demo/sifive_hifive1_revb_sifive_welcome/freedom-metal/metal/clock.h:160
    clk->_post_rate_change_callback =
20016f40:	fec42783          	lw	a5,-20(s0)
20016f44:	c798                	sw	a4,8(a5)
C:/Users/nandg/Desktop/Athena_Welcome_Demo/sifive_hifive1_revb_sifive_welcome/freedom-metal/metal/clock.h:162
}
20016f46:	0001                	nop
20016f48:	40f2                	lw	ra,28(sp)
20016f4a:	4462                	lw	s0,24(sp)
20016f4c:	6105                	addi	sp,sp,32
20016f4e:	8082                	ret

20016f50 <metal_gpio_disable_input>:
metal_gpio_disable_input():
C:/Users/nandg/Desktop/Athena_Welcome_Demo/sifive_hifive1_revb_sifive_welcome/freedom-metal/metal/gpio.h:79
 * @brief Disable input on a pin
 * @param gpio The handle for the GPIO interface
 * @param pin The pin number indexed from 0
 * @return 0 if the input is successfully disabled
 */
__inline__ int metal_gpio_disable_input(struct metal_gpio *gpio, int pin) {
20016f50:	1101                	addi	sp,sp,-32
20016f52:	ce06                	sw	ra,28(sp)
20016f54:	cc22                	sw	s0,24(sp)
20016f56:	1000                	addi	s0,sp,32
20016f58:	fea42623          	sw	a0,-20(s0)
20016f5c:	feb42423          	sw	a1,-24(s0)
C:/Users/nandg/Desktop/Athena_Welcome_Demo/sifive_hifive1_revb_sifive_welcome/freedom-metal/metal/gpio.h:80
    if (!gpio) {
20016f60:	fec42783          	lw	a5,-20(s0)
20016f64:	e399                	bnez	a5,20016f6a <metal_gpio_disable_input+0x1a>
C:/Users/nandg/Desktop/Athena_Welcome_Demo/sifive_hifive1_revb_sifive_welcome/freedom-metal/metal/gpio.h:81
        return 1;
20016f66:	4785                	li	a5,1
20016f68:	a839                	j	20016f86 <metal_gpio_disable_input+0x36>
C:/Users/nandg/Desktop/Athena_Welcome_Demo/sifive_hifive1_revb_sifive_welcome/freedom-metal/metal/gpio.h:84
    }

    return gpio->vtable->disable_input(gpio, (1 << pin));
20016f6a:	fec42783          	lw	a5,-20(s0)
20016f6e:	439c                	lw	a5,0(a5)
20016f70:	4394                	lw	a3,0(a5)
20016f72:	fe842783          	lw	a5,-24(s0)
20016f76:	4705                	li	a4,1
20016f78:	00f717b3          	sll	a5,a4,a5
20016f7c:	85be                	mv	a1,a5
20016f7e:	fec42503          	lw	a0,-20(s0)
20016f82:	9682                	jalr	a3
20016f84:	87aa                	mv	a5,a0
C:/Users/nandg/Desktop/Athena_Welcome_Demo/sifive_hifive1_revb_sifive_welcome/freedom-metal/metal/gpio.h:85
}
20016f86:	853e                	mv	a0,a5
20016f88:	40f2                	lw	ra,28(sp)
20016f8a:	4462                	lw	s0,24(sp)
20016f8c:	6105                	addi	sp,sp,32
20016f8e:	8082                	ret

20016f90 <metal_gpio_enable_output>:
metal_gpio_enable_output():
C:/Users/nandg/Desktop/Athena_Welcome_Demo/sifive_hifive1_revb_sifive_welcome/freedom-metal/metal/gpio.h:93
 * @brief Enable output on a pin
 * @param gpio The handle for the GPIO interface
 * @param pin The pin number indexed from 0
 * @return 0 if the output is successfully enabled
 */
__inline__ int metal_gpio_enable_output(struct metal_gpio *gpio, int pin) {
20016f90:	1101                	addi	sp,sp,-32
20016f92:	ce06                	sw	ra,28(sp)
20016f94:	cc22                	sw	s0,24(sp)
20016f96:	1000                	addi	s0,sp,32
20016f98:	fea42623          	sw	a0,-20(s0)
20016f9c:	feb42423          	sw	a1,-24(s0)
C:/Users/nandg/Desktop/Athena_Welcome_Demo/sifive_hifive1_revb_sifive_welcome/freedom-metal/metal/gpio.h:94
    if (!gpio) {
20016fa0:	fec42783          	lw	a5,-20(s0)
20016fa4:	e399                	bnez	a5,20016faa <metal_gpio_enable_output+0x1a>
C:/Users/nandg/Desktop/Athena_Welcome_Demo/sifive_hifive1_revb_sifive_welcome/freedom-metal/metal/gpio.h:95
        return 1;
20016fa6:	4785                	li	a5,1
20016fa8:	a839                	j	20016fc6 <metal_gpio_enable_output+0x36>
C:/Users/nandg/Desktop/Athena_Welcome_Demo/sifive_hifive1_revb_sifive_welcome/freedom-metal/metal/gpio.h:98
    }

    return gpio->vtable->enable_output(gpio, (1 << pin));
20016faa:	fec42783          	lw	a5,-20(s0)
20016fae:	439c                	lw	a5,0(a5)
20016fb0:	4bd4                	lw	a3,20(a5)
20016fb2:	fe842783          	lw	a5,-24(s0)
20016fb6:	4705                	li	a4,1
20016fb8:	00f717b3          	sll	a5,a4,a5
20016fbc:	85be                	mv	a1,a5
20016fbe:	fec42503          	lw	a0,-20(s0)
20016fc2:	9682                	jalr	a3
20016fc4:	87aa                	mv	a5,a0
C:/Users/nandg/Desktop/Athena_Welcome_Demo/sifive_hifive1_revb_sifive_welcome/freedom-metal/metal/gpio.h:99
}
20016fc6:	853e                	mv	a0,a5
20016fc8:	40f2                	lw	ra,28(sp)
20016fca:	4462                	lw	s0,24(sp)
20016fcc:	6105                	addi	sp,sp,32
20016fce:	8082                	ret

20016fd0 <metal_gpio_set_pin>:
metal_gpio_set_pin():
C:/Users/nandg/Desktop/Athena_Welcome_Demo/sifive_hifive1_revb_sifive_welcome/freedom-metal/metal/gpio.h:122
 * @param gpio The handle for the GPIO interface
 * @param pin The pin number indexed from 0
 * @param value The value to set the pin to
 * @return 0 if the output is successfully set
 */
__inline__ int metal_gpio_set_pin(struct metal_gpio *gpio, int pin, int value) {
20016fd0:	1101                	addi	sp,sp,-32
20016fd2:	ce06                	sw	ra,28(sp)
20016fd4:	cc22                	sw	s0,24(sp)
20016fd6:	1000                	addi	s0,sp,32
20016fd8:	fea42623          	sw	a0,-20(s0)
20016fdc:	feb42423          	sw	a1,-24(s0)
20016fe0:	fec42223          	sw	a2,-28(s0)
C:/Users/nandg/Desktop/Athena_Welcome_Demo/sifive_hifive1_revb_sifive_welcome/freedom-metal/metal/gpio.h:123
    if (!gpio) {
20016fe4:	fec42783          	lw	a5,-20(s0)
20016fe8:	e399                	bnez	a5,20016fee <metal_gpio_set_pin+0x1e>
C:/Users/nandg/Desktop/Athena_Welcome_Demo/sifive_hifive1_revb_sifive_welcome/freedom-metal/metal/gpio.h:124
        return 1;
20016fea:	4785                	li	a5,1
20016fec:	a089                	j	2001702e <metal_gpio_set_pin+0x5e>
C:/Users/nandg/Desktop/Athena_Welcome_Demo/sifive_hifive1_revb_sifive_welcome/freedom-metal/metal/gpio.h:127
    }

    if (value == 0) {
20016fee:	fe442783          	lw	a5,-28(s0)
20016ff2:	e385                	bnez	a5,20017012 <metal_gpio_set_pin+0x42>
C:/Users/nandg/Desktop/Athena_Welcome_Demo/sifive_hifive1_revb_sifive_welcome/freedom-metal/metal/gpio.h:128
        return gpio->vtable->output_clear(gpio, (1 << pin));
20016ff4:	fec42783          	lw	a5,-20(s0)
20016ff8:	439c                	lw	a5,0(a5)
20016ffa:	4fd4                	lw	a3,28(a5)
20016ffc:	fe842783          	lw	a5,-24(s0)
20017000:	4705                	li	a4,1
20017002:	00f717b3          	sll	a5,a4,a5
20017006:	85be                	mv	a1,a5
20017008:	fec42503          	lw	a0,-20(s0)
2001700c:	9682                	jalr	a3
2001700e:	87aa                	mv	a5,a0
20017010:	a839                	j	2001702e <metal_gpio_set_pin+0x5e>
C:/Users/nandg/Desktop/Athena_Welcome_Demo/sifive_hifive1_revb_sifive_welcome/freedom-metal/metal/gpio.h:130
    } else {
        return gpio->vtable->output_set(gpio, (1 << pin));
20017012:	fec42783          	lw	a5,-20(s0)
20017016:	439c                	lw	a5,0(a5)
20017018:	4f94                	lw	a3,24(a5)
2001701a:	fe842783          	lw	a5,-24(s0)
2001701e:	4705                	li	a4,1
20017020:	00f717b3          	sll	a5,a4,a5
20017024:	85be                	mv	a1,a5
20017026:	fec42503          	lw	a0,-20(s0)
2001702a:	9682                	jalr	a3
2001702c:	87aa                	mv	a5,a0
C:/Users/nandg/Desktop/Athena_Welcome_Demo/sifive_hifive1_revb_sifive_welcome/freedom-metal/metal/gpio.h:132
    }
}
2001702e:	853e                	mv	a0,a5
20017030:	40f2                	lw	ra,28(sp)
20017032:	4462                	lw	s0,24(sp)
20017034:	6105                	addi	sp,sp,32
20017036:	8082                	ret

20017038 <metal_gpio_toggle_pin>:
metal_gpio_toggle_pin():
C:/Users/nandg/Desktop/Athena_Welcome_Demo/sifive_hifive1_revb_sifive_welcome/freedom-metal/metal/gpio.h:194
 * @brief Toggles the value of the GPIO pin
 * @param gpio The handle for the GPIO interface
 * @param pin The pin number indexed from 0
 * @return 0 if the pin is successfully toggled
 */
__inline__ int metal_gpio_toggle_pin(struct metal_gpio *gpio, int pin) {
20017038:	1101                	addi	sp,sp,-32
2001703a:	ce06                	sw	ra,28(sp)
2001703c:	cc22                	sw	s0,24(sp)
2001703e:	1000                	addi	s0,sp,32
20017040:	fea42623          	sw	a0,-20(s0)
20017044:	feb42423          	sw	a1,-24(s0)
C:/Users/nandg/Desktop/Athena_Welcome_Demo/sifive_hifive1_revb_sifive_welcome/freedom-metal/metal/gpio.h:195
    if (!gpio) {
20017048:	fec42783          	lw	a5,-20(s0)
2001704c:	e399                	bnez	a5,20017052 <metal_gpio_toggle_pin+0x1a>
C:/Users/nandg/Desktop/Athena_Welcome_Demo/sifive_hifive1_revb_sifive_welcome/freedom-metal/metal/gpio.h:196
        return 1;
2001704e:	4785                	li	a5,1
20017050:	a839                	j	2001706e <metal_gpio_toggle_pin+0x36>
C:/Users/nandg/Desktop/Athena_Welcome_Demo/sifive_hifive1_revb_sifive_welcome/freedom-metal/metal/gpio.h:199
    }

    return gpio->vtable->output_toggle(gpio, (1 << pin));
20017052:	fec42783          	lw	a5,-20(s0)
20017056:	439c                	lw	a5,0(a5)
20017058:	5394                	lw	a3,32(a5)
2001705a:	fe842783          	lw	a5,-24(s0)
2001705e:	4705                	li	a4,1
20017060:	00f717b3          	sll	a5,a4,a5
20017064:	85be                	mv	a1,a5
20017066:	fec42503          	lw	a0,-20(s0)
2001706a:	9682                	jalr	a3
2001706c:	87aa                	mv	a5,a0
C:/Users/nandg/Desktop/Athena_Welcome_Demo/sifive_hifive1_revb_sifive_welcome/freedom-metal/metal/gpio.h:200
}
2001706e:	853e                	mv	a0,a5
20017070:	40f2                	lw	ra,28(sp)
20017072:	4462                	lw	s0,24(sp)
20017074:	6105                	addi	sp,sp,32
20017076:	8082                	ret

20017078 <metal_shutdown>:
metal_shutdown():
C:/Users/nandg/Desktop/Athena_Welcome_Demo/sifive_hifive1_revb_sifive_welcome/freedom-metal/src/shutdown.c:17
    __metal_shutdown_exit(__METAL_DT_SHUTDOWN_HANDLE, code);
}
#else
#pragma message(                                                               \
    "There is no defined shutdown mechanism, metal_shutdown() will spin.")
void metal_shutdown(int code) {
20017078:	1101                	addi	sp,sp,-32
2001707a:	ce22                	sw	s0,28(sp)
2001707c:	1000                	addi	s0,sp,32
2001707e:	fea42623          	sw	a0,-20(s0)
C:/Users/nandg/Desktop/Athena_Welcome_Demo/sifive_hifive1_revb_sifive_welcome/freedom-metal/src/shutdown.c:19 (discriminator 1)
    while (1) {
        __asm__ volatile("nop");
20017082:	0001                	nop
20017084:	bffd                	j	20017082 <metal_shutdown+0xa>

20017086 <metal_uart_init>:
metal_uart_init():
C:/Users/nandg/Desktop/Athena_Welcome_Demo/sifive_hifive1_revb_sifive_welcome/freedom-metal/metal/uart.h:59
 more than once.
 *
 * @param uart The UART device handle
 * @param baud_rate the baud rate to set the UART to
 */
__inline__ void metal_uart_init(struct metal_uart *uart, int baud_rate) {
20017086:	1101                	addi	sp,sp,-32
20017088:	ce06                	sw	ra,28(sp)
2001708a:	cc22                	sw	s0,24(sp)
2001708c:	1000                	addi	s0,sp,32
2001708e:	fea42623          	sw	a0,-20(s0)
20017092:	feb42423          	sw	a1,-24(s0)
C:/Users/nandg/Desktop/Athena_Welcome_Demo/sifive_hifive1_revb_sifive_welcome/freedom-metal/metal/uart.h:60
    uart->vtable->init(uart, baud_rate);
20017096:	fec42783          	lw	a5,-20(s0)
2001709a:	439c                	lw	a5,0(a5)
2001709c:	439c                	lw	a5,0(a5)
2001709e:	fe842583          	lw	a1,-24(s0)
200170a2:	fec42503          	lw	a0,-20(s0)
200170a6:	9782                	jalr	a5
C:/Users/nandg/Desktop/Athena_Welcome_Demo/sifive_hifive1_revb_sifive_welcome/freedom-metal/metal/uart.h:61
}
200170a8:	0001                	nop
200170aa:	40f2                	lw	ra,28(sp)
200170ac:	4462                	lw	s0,24(sp)
200170ae:	6105                	addi	sp,sp,32
200170b0:	8082                	ret

200170b2 <metal_uart_putc>:
metal_uart_putc():
C:/Users/nandg/Desktop/Athena_Welcome_Demo/sifive_hifive1_revb_sifive_welcome/freedom-metal/metal/uart.h:69
 * @brief Output a character over the UART
 * @param uart The UART device handle
 * @param c The character to send over the UART
 * @return 0 upon success
 */
__inline__ int metal_uart_putc(struct metal_uart *uart, int c) {
200170b2:	1101                	addi	sp,sp,-32
200170b4:	ce06                	sw	ra,28(sp)
200170b6:	cc22                	sw	s0,24(sp)
200170b8:	1000                	addi	s0,sp,32
200170ba:	fea42623          	sw	a0,-20(s0)
200170be:	feb42423          	sw	a1,-24(s0)
C:/Users/nandg/Desktop/Athena_Welcome_Demo/sifive_hifive1_revb_sifive_welcome/freedom-metal/metal/uart.h:70
    return uart->vtable->putc(uart, c);
200170c2:	fec42783          	lw	a5,-20(s0)
200170c6:	439c                	lw	a5,0(a5)
200170c8:	43dc                	lw	a5,4(a5)
200170ca:	fe842583          	lw	a1,-24(s0)
200170ce:	fec42503          	lw	a0,-20(s0)
200170d2:	9782                	jalr	a5
200170d4:	87aa                	mv	a5,a0
C:/Users/nandg/Desktop/Athena_Welcome_Demo/sifive_hifive1_revb_sifive_welcome/freedom-metal/metal/uart.h:71
}
200170d6:	853e                	mv	a0,a5
200170d8:	40f2                	lw	ra,28(sp)
200170da:	4462                	lw	s0,24(sp)
200170dc:	6105                	addi	sp,sp,32
200170de:	8082                	ret

200170e0 <metal_uart_set_baud_rate>:
metal_uart_set_baud_rate():
C:/Users/nandg/Desktop/Athena_Welcome_Demo/sifive_hifive1_revb_sifive_welcome/freedom-metal/metal/uart.h:111
 * @param uart The UART device handle
 * @param baud_rate The baud rate to configure
 * @return the new baud rate of the UART
 */
__inline__ int metal_uart_set_baud_rate(struct metal_uart *uart,
                                        int baud_rate) {
200170e0:	1101                	addi	sp,sp,-32
200170e2:	ce06                	sw	ra,28(sp)
200170e4:	cc22                	sw	s0,24(sp)
200170e6:	1000                	addi	s0,sp,32
200170e8:	fea42623          	sw	a0,-20(s0)
200170ec:	feb42423          	sw	a1,-24(s0)
C:/Users/nandg/Desktop/Athena_Welcome_Demo/sifive_hifive1_revb_sifive_welcome/freedom-metal/metal/uart.h:112
    return uart->vtable->set_baud_rate(uart, baud_rate);
200170f0:	fec42783          	lw	a5,-20(s0)
200170f4:	439c                	lw	a5,0(a5)
200170f6:	4bdc                	lw	a5,20(a5)
200170f8:	fe842583          	lw	a1,-24(s0)
200170fc:	fec42503          	lw	a0,-20(s0)
20017100:	9782                	jalr	a5
20017102:	87aa                	mv	a5,a0
C:/Users/nandg/Desktop/Athena_Welcome_Demo/sifive_hifive1_revb_sifive_welcome/freedom-metal/metal/uart.h:113
}
20017104:	853e                	mv	a0,a5
20017106:	40f2                	lw	ra,28(sp)
20017108:	4462                	lw	s0,24(sp)
2001710a:	6105                	addi	sp,sp,32
2001710c:	8082                	ret
	...

20017180 <__metal_vector_table>:
IRQ_0():
C:/Users/nandg/Desktop/Athena_Welcome_Demo/sifive_hifive1_revb_sifive_welcome/freedom-metal/src/vector.S:96
#endif
.option norvc
.global __metal_vector_table
__metal_vector_table:
IRQ_0:
        j metal_interrupt_vector_handler
20017180:	e8ffb06f          	j	2001300e <metal_interrupt_vector_handler>

20017184 <IRQ_1>:
IRQ_1():
C:/Users/nandg/Desktop/Athena_Welcome_Demo/sifive_hifive1_revb_sifive_welcome/freedom-metal/src/vector.S:98
IRQ_1:
        j metal_interrupt_vector_handler
20017184:	e8bfb06f          	j	2001300e <metal_interrupt_vector_handler>

20017188 <IRQ_2>:
IRQ_2():
C:/Users/nandg/Desktop/Athena_Welcome_Demo/sifive_hifive1_revb_sifive_welcome/freedom-metal/src/vector.S:100
IRQ_2:
        j metal_interrupt_vector_handler
20017188:	e87fb06f          	j	2001300e <metal_interrupt_vector_handler>

2001718c <IRQ_3>:
IRQ_3():
C:/Users/nandg/Desktop/Athena_Welcome_Demo/sifive_hifive1_revb_sifive_welcome/freedom-metal/src/vector.S:102
IRQ_3:
        j metal_software_interrupt_vector_handler
2001718c:	eb1fb06f          	j	2001303c <metal_software_interrupt_vector_handler>

20017190 <IRQ_4>:
IRQ_4():
C:/Users/nandg/Desktop/Athena_Welcome_Demo/sifive_hifive1_revb_sifive_welcome/freedom-metal/src/vector.S:104
IRQ_4:
        j metal_interrupt_vector_handler
20017190:	e7ffb06f          	j	2001300e <metal_interrupt_vector_handler>

20017194 <IRQ_5>:
IRQ_5():
C:/Users/nandg/Desktop/Athena_Welcome_Demo/sifive_hifive1_revb_sifive_welcome/freedom-metal/src/vector.S:106
IRQ_5:
        j metal_interrupt_vector_handler
20017194:	e7bfb06f          	j	2001300e <metal_interrupt_vector_handler>

20017198 <IRQ_6>:
IRQ_6():
C:/Users/nandg/Desktop/Athena_Welcome_Demo/sifive_hifive1_revb_sifive_welcome/freedom-metal/src/vector.S:108
IRQ_6:
        j metal_interrupt_vector_handler
20017198:	e77fb06f          	j	2001300e <metal_interrupt_vector_handler>

2001719c <IRQ_7>:
IRQ_7():
C:/Users/nandg/Desktop/Athena_Welcome_Demo/sifive_hifive1_revb_sifive_welcome/freedom-metal/src/vector.S:110
IRQ_7:
        j metal_timer_interrupt_vector_handler
2001719c:	f9bfb06f          	j	20013136 <metal_timer_interrupt_vector_handler>

200171a0 <IRQ_8>:
IRQ_8():
C:/Users/nandg/Desktop/Athena_Welcome_Demo/sifive_hifive1_revb_sifive_welcome/freedom-metal/src/vector.S:112
IRQ_8:
        j metal_interrupt_vector_handler
200171a0:	e6ffb06f          	j	2001300e <metal_interrupt_vector_handler>

200171a4 <IRQ_9>:
IRQ_9():
C:/Users/nandg/Desktop/Athena_Welcome_Demo/sifive_hifive1_revb_sifive_welcome/freedom-metal/src/vector.S:114
IRQ_9:
        j metal_interrupt_vector_handler
200171a4:	e6bfb06f          	j	2001300e <metal_interrupt_vector_handler>

200171a8 <IRQ_10>:
IRQ_10():
C:/Users/nandg/Desktop/Athena_Welcome_Demo/sifive_hifive1_revb_sifive_welcome/freedom-metal/src/vector.S:116
IRQ_10:
        j metal_interrupt_vector_handler
200171a8:	e67fb06f          	j	2001300e <metal_interrupt_vector_handler>

200171ac <IRQ_11>:
IRQ_11():
C:/Users/nandg/Desktop/Athena_Welcome_Demo/sifive_hifive1_revb_sifive_welcome/freedom-metal/src/vector.S:118
IRQ_11:
        j metal_interrupt_vector_handler
200171ac:	e63fb06f          	j	2001300e <metal_interrupt_vector_handler>

200171b0 <IRQ_12>:
IRQ_12():
C:/Users/nandg/Desktop/Athena_Welcome_Demo/sifive_hifive1_revb_sifive_welcome/freedom-metal/src/vector.S:120
IRQ_12:
        j metal_interrupt_vector_handler
200171b0:	e5ffb06f          	j	2001300e <metal_interrupt_vector_handler>

200171b4 <IRQ_13>:
IRQ_13():
C:/Users/nandg/Desktop/Athena_Welcome_Demo/sifive_hifive1_revb_sifive_welcome/freedom-metal/src/vector.S:122
IRQ_13:
        j metal_interrupt_vector_handler
200171b4:	e5bfb06f          	j	2001300e <metal_interrupt_vector_handler>

200171b8 <IRQ_14>:
IRQ_14():
C:/Users/nandg/Desktop/Athena_Welcome_Demo/sifive_hifive1_revb_sifive_welcome/freedom-metal/src/vector.S:124
IRQ_14:
        j metal_interrupt_vector_handler
200171b8:	e57fb06f          	j	2001300e <metal_interrupt_vector_handler>

200171bc <IRQ_15>:
IRQ_15():
C:/Users/nandg/Desktop/Athena_Welcome_Demo/sifive_hifive1_revb_sifive_welcome/freedom-metal/src/vector.S:126
IRQ_15:
        j metal_interrupt_vector_handler
200171bc:	e53fb06f          	j	2001300e <metal_interrupt_vector_handler>

200171c0 <IRQ_LC0>:
IRQ_LC0():
C:/Users/nandg/Desktop/Athena_Welcome_Demo/sifive_hifive1_revb_sifive_welcome/freedom-metal/src/vector.S:128
IRQ_LC0:
        j metal_lc0_interrupt_vector_handler
200171c0:	abafc06f          	j	2001347a <metal_lc0_interrupt_vector_handler>

200171c4 <IRQ_LC1>:
IRQ_LC1():
C:/Users/nandg/Desktop/Athena_Welcome_Demo/sifive_hifive1_revb_sifive_welcome/freedom-metal/src/vector.S:130
IRQ_LC1:
        j metal_lc1_interrupt_vector_handler
200171c4:	b4cfc06f          	j	20013510 <metal_lc1_interrupt_vector_handler>

200171c8 <IRQ_LC2>:
IRQ_LC2():
C:/Users/nandg/Desktop/Athena_Welcome_Demo/sifive_hifive1_revb_sifive_welcome/freedom-metal/src/vector.S:132
IRQ_LC2:
        j metal_lc2_interrupt_vector_handler
200171c8:	bdefc06f          	j	200135a6 <metal_lc2_interrupt_vector_handler>

200171cc <IRQ_LC3>:
IRQ_LC3():
C:/Users/nandg/Desktop/Athena_Welcome_Demo/sifive_hifive1_revb_sifive_welcome/freedom-metal/src/vector.S:134
IRQ_LC3:
        j metal_lc3_interrupt_vector_handler
200171cc:	c70fc06f          	j	2001363c <metal_lc3_interrupt_vector_handler>

200171d0 <IRQ_LC4>:
IRQ_LC4():
C:/Users/nandg/Desktop/Athena_Welcome_Demo/sifive_hifive1_revb_sifive_welcome/freedom-metal/src/vector.S:136
IRQ_LC4:
        j metal_lc4_interrupt_vector_handler
200171d0:	d02fc06f          	j	200136d2 <metal_lc4_interrupt_vector_handler>

200171d4 <IRQ_LC5>:
IRQ_LC5():
C:/Users/nandg/Desktop/Athena_Welcome_Demo/sifive_hifive1_revb_sifive_welcome/freedom-metal/src/vector.S:138
IRQ_LC5:
        j metal_lc5_interrupt_vector_handler
200171d4:	d94fc06f          	j	20013768 <metal_lc5_interrupt_vector_handler>

200171d8 <IRQ_LC6>:
IRQ_LC6():
C:/Users/nandg/Desktop/Athena_Welcome_Demo/sifive_hifive1_revb_sifive_welcome/freedom-metal/src/vector.S:140
IRQ_LC6:
        j metal_lc6_interrupt_vector_handler
200171d8:	e26fc06f          	j	200137fe <metal_lc6_interrupt_vector_handler>

200171dc <IRQ_LC7>:
IRQ_LC7():
C:/Users/nandg/Desktop/Athena_Welcome_Demo/sifive_hifive1_revb_sifive_welcome/freedom-metal/src/vector.S:142
IRQ_LC7:
        j metal_lc7_interrupt_vector_handler
200171dc:	eb8fc06f          	j	20013894 <metal_lc7_interrupt_vector_handler>

200171e0 <IRQ_LC8>:
IRQ_LC8():
C:/Users/nandg/Desktop/Athena_Welcome_Demo/sifive_hifive1_revb_sifive_welcome/freedom-metal/src/vector.S:144
IRQ_LC8:
        j metal_lc8_interrupt_vector_handler
200171e0:	f4afc06f          	j	2001392a <metal_lc8_interrupt_vector_handler>

200171e4 <IRQ_LC9>:
IRQ_LC9():
C:/Users/nandg/Desktop/Athena_Welcome_Demo/sifive_hifive1_revb_sifive_welcome/freedom-metal/src/vector.S:146
IRQ_LC9:
        j metal_lc9_interrupt_vector_handler
200171e4:	fdcfc06f          	j	200139c0 <metal_lc9_interrupt_vector_handler>

200171e8 <IRQ_LC10>:
IRQ_LC10():
C:/Users/nandg/Desktop/Athena_Welcome_Demo/sifive_hifive1_revb_sifive_welcome/freedom-metal/src/vector.S:148
IRQ_LC10:
        j metal_lc10_interrupt_vector_handler
200171e8:	86ffc06f          	j	20013a56 <metal_lc10_interrupt_vector_handler>

200171ec <IRQ_LC11>:
IRQ_LC11():
C:/Users/nandg/Desktop/Athena_Welcome_Demo/sifive_hifive1_revb_sifive_welcome/freedom-metal/src/vector.S:150
IRQ_LC11:
        j metal_lc11_interrupt_vector_handler
200171ec:	901fc06f          	j	20013aec <metal_lc11_interrupt_vector_handler>

200171f0 <IRQ_LC12>:
IRQ_LC12():
C:/Users/nandg/Desktop/Athena_Welcome_Demo/sifive_hifive1_revb_sifive_welcome/freedom-metal/src/vector.S:152
IRQ_LC12:
        j metal_lc12_interrupt_vector_handler
200171f0:	993fc06f          	j	20013b82 <metal_lc12_interrupt_vector_handler>

200171f4 <IRQ_LC13>:
IRQ_LC13():
C:/Users/nandg/Desktop/Athena_Welcome_Demo/sifive_hifive1_revb_sifive_welcome/freedom-metal/src/vector.S:154
IRQ_LC13:
        j metal_lc13_interrupt_vector_handler
200171f4:	a25fc06f          	j	20013c18 <metal_lc13_interrupt_vector_handler>

200171f8 <IRQ_LC14>:
IRQ_LC14():
C:/Users/nandg/Desktop/Athena_Welcome_Demo/sifive_hifive1_revb_sifive_welcome/freedom-metal/src/vector.S:156
IRQ_LC14:
        j metal_lc14_interrupt_vector_handler
200171f8:	ab7fc06f          	j	20013cae <metal_lc14_interrupt_vector_handler>

200171fc <IRQ_LC15>:
IRQ_LC15():
C:/Users/nandg/Desktop/Athena_Welcome_Demo/sifive_hifive1_revb_sifive_welcome/freedom-metal/src/vector.S:158
IRQ_LC15:
        j metal_lc15_interrupt_vector_handler
200171fc:	b49fc06f          	j	20013d44 <metal_lc15_interrupt_vector_handler>

20017200 <__metal_driver_fixed_clock_rate>:
__metal_driver_fixed_clock_rate():
C:\Users\nandg\Desktop\Athena_Welcome_Demo\sifive_hifive1_revb_sifive_welcome\bsp\build\debug/./metal/machine.h:208
{
20017200:	1101                	addi	sp,sp,-32
20017202:	ce22                	sw	s0,28(sp)
20017204:	1000                	addi	s0,sp,32
20017206:	fea42623          	sw	a0,-20(s0)
C:\Users\nandg\Desktop\Athena_Welcome_Demo\sifive_hifive1_revb_sifive_welcome\bsp\build\debug/./metal/machine.h:209
	if ((uintptr_t)clock == (uintptr_t)&__metal_dt_clock_0) {
2001720a:	fec42703          	lw	a4,-20(s0)
2001720e:	800007b7          	lui	a5,0x80000
20017212:	06c78793          	addi	a5,a5,108 # 8000006c <metal_segment_heap_target_end+0xffffe8cc>
20017216:	00f71763          	bne	a4,a5,20017224 <__metal_driver_fixed_clock_rate+0x24>
C:\Users\nandg\Desktop\Athena_Welcome_Demo\sifive_hifive1_revb_sifive_welcome\bsp\build\debug/./metal/machine.h:210
		return METAL_FIXED_CLOCK_0_CLOCK_FREQUENCY;
2001721a:	00f427b7          	lui	a5,0xf42
2001721e:	40078793          	addi	a5,a5,1024 # f42400 <__heap_size+0xf41c00>
20017222:	a099                	j	20017268 <__metal_driver_fixed_clock_rate+0x68>
C:\Users\nandg\Desktop\Athena_Welcome_Demo\sifive_hifive1_revb_sifive_welcome\bsp\build\debug/./metal/machine.h:212
	else if ((uintptr_t)clock == (uintptr_t)&__metal_dt_clock_2) {
20017224:	fec42703          	lw	a4,-20(s0)
20017228:	800007b7          	lui	a5,0x80000
2001722c:	07878793          	addi	a5,a5,120 # 80000078 <metal_segment_heap_target_end+0xffffe8d8>
20017230:	00f71763          	bne	a4,a5,2001723e <__metal_driver_fixed_clock_rate+0x3e>
C:\Users\nandg\Desktop\Athena_Welcome_Demo\sifive_hifive1_revb_sifive_welcome\bsp\build\debug/./metal/machine.h:213
		return METAL_FIXED_CLOCK_2_CLOCK_FREQUENCY;
20017234:	044aa7b7          	lui	a5,0x44aa
20017238:	20078793          	addi	a5,a5,512 # 44aa200 <__heap_size+0x44a9a00>
2001723c:	a035                	j	20017268 <__metal_driver_fixed_clock_rate+0x68>
C:\Users\nandg\Desktop\Athena_Welcome_Demo\sifive_hifive1_revb_sifive_welcome\bsp\build\debug/./metal/machine.h:215
	else if ((uintptr_t)clock == (uintptr_t)&__metal_dt_clock_5) {
2001723e:	fec42703          	lw	a4,-20(s0)
20017242:	800007b7          	lui	a5,0x80000
20017246:	08478793          	addi	a5,a5,132 # 80000084 <metal_segment_heap_target_end+0xffffe8e4>
2001724a:	00f71463          	bne	a4,a5,20017252 <__metal_driver_fixed_clock_rate+0x52>
C:\Users\nandg\Desktop\Athena_Welcome_Demo\sifive_hifive1_revb_sifive_welcome\bsp\build\debug/./metal/machine.h:216
		return METAL_FIXED_CLOCK_5_CLOCK_FREQUENCY;
2001724e:	67a1                	lui	a5,0x8
20017250:	a821                	j	20017268 <__metal_driver_fixed_clock_rate+0x68>
C:\Users\nandg\Desktop\Athena_Welcome_Demo\sifive_hifive1_revb_sifive_welcome\bsp\build\debug/./metal/machine.h:218
	else if ((uintptr_t)clock == (uintptr_t)&__metal_dt_clock_6) {
20017252:	fec42703          	lw	a4,-20(s0)
20017256:	800007b7          	lui	a5,0x80000
2001725a:	09078793          	addi	a5,a5,144 # 80000090 <metal_segment_heap_target_end+0xffffe8f0>
2001725e:	00f71463          	bne	a4,a5,20017266 <__metal_driver_fixed_clock_rate+0x66>
C:\Users\nandg\Desktop\Athena_Welcome_Demo\sifive_hifive1_revb_sifive_welcome\bsp\build\debug/./metal/machine.h:219
		return METAL_FIXED_CLOCK_6_CLOCK_FREQUENCY;
20017262:	67a1                	lui	a5,0x8
20017264:	a011                	j	20017268 <__metal_driver_fixed_clock_rate+0x68>
C:\Users\nandg\Desktop\Athena_Welcome_Demo\sifive_hifive1_revb_sifive_welcome\bsp\build\debug/./metal/machine.h:222
		return 0;
20017266:	4781                	li	a5,0
C:\Users\nandg\Desktop\Athena_Welcome_Demo\sifive_hifive1_revb_sifive_welcome\bsp\build\debug/./metal/machine.h:224
}
20017268:	853e                	mv	a0,a5
2001726a:	4472                	lw	s0,28(sp)
2001726c:	6105                	addi	sp,sp,32
2001726e:	8082                	ret

20017270 <__metal_driver_fixed_clock_get_rate_hz>:
__metal_driver_fixed_clock_get_rate_hz():
C:/Users/nandg/Desktop/Athena_Welcome_Demo/sifive_hifive1_revb_sifive_welcome/freedom-metal/src/drivers/fixed-clock.c:12

#include <metal/drivers/fixed-clock.h>
#include <metal/machine.h>
#include <stddef.h>

long __metal_driver_fixed_clock_get_rate_hz(const struct metal_clock *gclk) {
20017270:	1101                	addi	sp,sp,-32
20017272:	ce06                	sw	ra,28(sp)
20017274:	cc22                	sw	s0,24(sp)
20017276:	1000                	addi	s0,sp,32
20017278:	fea42623          	sw	a0,-20(s0)
C:/Users/nandg/Desktop/Athena_Welcome_Demo/sifive_hifive1_revb_sifive_welcome/freedom-metal/src/drivers/fixed-clock.c:13
    return __metal_driver_fixed_clock_rate(gclk);
2001727c:	fec42503          	lw	a0,-20(s0)
20017280:	f81ff0ef          	jal	ra,20017200 <__metal_driver_fixed_clock_rate>
20017284:	87aa                	mv	a5,a0
C:/Users/nandg/Desktop/Athena_Welcome_Demo/sifive_hifive1_revb_sifive_welcome/freedom-metal/src/drivers/fixed-clock.c:14
}
20017286:	853e                	mv	a0,a5
20017288:	40f2                	lw	ra,28(sp)
2001728a:	4462                	lw	s0,24(sp)
2001728c:	6105                	addi	sp,sp,32
2001728e:	8082                	ret

20017290 <__metal_driver_fixed_clock_set_rate_hz>:
__metal_driver_fixed_clock_set_rate_hz():
C:/Users/nandg/Desktop/Athena_Welcome_Demo/sifive_hifive1_revb_sifive_welcome/freedom-metal/src/drivers/fixed-clock.c:17

long __metal_driver_fixed_clock_set_rate_hz(struct metal_clock *gclk,
                                            long target_hz) {
20017290:	1101                	addi	sp,sp,-32
20017292:	ce06                	sw	ra,28(sp)
20017294:	cc22                	sw	s0,24(sp)
20017296:	1000                	addi	s0,sp,32
20017298:	fea42623          	sw	a0,-20(s0)
2001729c:	feb42423          	sw	a1,-24(s0)
C:/Users/nandg/Desktop/Athena_Welcome_Demo/sifive_hifive1_revb_sifive_welcome/freedom-metal/src/drivers/fixed-clock.c:18
    return __metal_driver_fixed_clock_get_rate_hz(gclk);
200172a0:	fec42503          	lw	a0,-20(s0)
200172a4:	fcdff0ef          	jal	ra,20017270 <__metal_driver_fixed_clock_get_rate_hz>
200172a8:	87aa                	mv	a5,a0
C:/Users/nandg/Desktop/Athena_Welcome_Demo/sifive_hifive1_revb_sifive_welcome/freedom-metal/src/drivers/fixed-clock.c:19
}
200172aa:	853e                	mv	a0,a5
200172ac:	40f2                	lw	ra,28(sp)
200172ae:	4462                	lw	s0,24(sp)
200172b0:	6105                	addi	sp,sp,32
200172b2:	8082                	ret

200172b4 <_close>:
_close():
C:/Users/nandg/Desktop/Athena_Welcome_Demo/sifive_hifive1_revb_sifive_welcome/freedom-metal/gloss/sys_close.c:3
#include <errno.h>

int _close(int file) {
200172b4:	1101                	addi	sp,sp,-32
200172b6:	ce06                	sw	ra,28(sp)
200172b8:	cc22                	sw	s0,24(sp)
200172ba:	1000                	addi	s0,sp,32
200172bc:	fea42623          	sw	a0,-20(s0)
C:/Users/nandg/Desktop/Athena_Welcome_Demo/sifive_hifive1_revb_sifive_welcome/freedom-metal/gloss/sys_close.c:4
    errno = ENOSYS;
200172c0:	2a49                	jal	20017452 <__errno>
200172c2:	872a                	mv	a4,a0
200172c4:	05800793          	li	a5,88
200172c8:	c31c                	sw	a5,0(a4)
C:/Users/nandg/Desktop/Athena_Welcome_Demo/sifive_hifive1_revb_sifive_welcome/freedom-metal/gloss/sys_close.c:5
    return -1;
200172ca:	57fd                	li	a5,-1
C:/Users/nandg/Desktop/Athena_Welcome_Demo/sifive_hifive1_revb_sifive_welcome/freedom-metal/gloss/sys_close.c:6
}
200172cc:	853e                	mv	a0,a5
200172ce:	40f2                	lw	ra,28(sp)
200172d0:	4462                	lw	s0,24(sp)
200172d2:	6105                	addi	sp,sp,32
200172d4:	8082                	ret

200172d6 <_fstat>:
_fstat():
C:/Users/nandg/Desktop/Athena_Welcome_Demo/sifive_hifive1_revb_sifive_welcome/freedom-metal/gloss/sys_fstat.c:4
#include <errno.h>
#include <sys/stat.h>

int _fstat(int file, struct stat *st) {
200172d6:	1101                	addi	sp,sp,-32
200172d8:	ce06                	sw	ra,28(sp)
200172da:	cc22                	sw	s0,24(sp)
200172dc:	1000                	addi	s0,sp,32
200172de:	fea42623          	sw	a0,-20(s0)
200172e2:	feb42423          	sw	a1,-24(s0)
C:/Users/nandg/Desktop/Athena_Welcome_Demo/sifive_hifive1_revb_sifive_welcome/freedom-metal/gloss/sys_fstat.c:5
    errno = -ENOSYS;
200172e6:	22b5                	jal	20017452 <__errno>
200172e8:	872a                	mv	a4,a0
200172ea:	fa800793          	li	a5,-88
200172ee:	c31c                	sw	a5,0(a4)
C:/Users/nandg/Desktop/Athena_Welcome_Demo/sifive_hifive1_revb_sifive_welcome/freedom-metal/gloss/sys_fstat.c:6
    return -1;
200172f0:	57fd                	li	a5,-1
C:/Users/nandg/Desktop/Athena_Welcome_Demo/sifive_hifive1_revb_sifive_welcome/freedom-metal/gloss/sys_fstat.c:7
}
200172f2:	853e                	mv	a0,a5
200172f4:	40f2                	lw	ra,28(sp)
200172f6:	4462                	lw	s0,24(sp)
200172f8:	6105                	addi	sp,sp,32
200172fa:	8082                	ret

200172fc <_isatty>:
_isatty():
C:/Users/nandg/Desktop/Athena_Welcome_Demo/sifive_hifive1_revb_sifive_welcome/freedom-metal/gloss/sys_isatty.c:3
#include <unistd.h>

int _isatty(int file) { return (file == STDOUT_FILENO); }
200172fc:	1101                	addi	sp,sp,-32
200172fe:	ce22                	sw	s0,28(sp)
20017300:	1000                	addi	s0,sp,32
20017302:	fea42623          	sw	a0,-20(s0)
20017306:	fec42783          	lw	a5,-20(s0)
2001730a:	17fd                	addi	a5,a5,-1
2001730c:	0017b793          	seqz	a5,a5
20017310:	0ff7f793          	zext.b	a5,a5
20017314:	853e                	mv	a0,a5
20017316:	4472                	lw	s0,28(sp)
20017318:	6105                	addi	sp,sp,32
2001731a:	8082                	ret

2001731c <_lseek>:
_lseek():
C:/Users/nandg/Desktop/Athena_Welcome_Demo/sifive_hifive1_revb_sifive_welcome/freedom-metal/gloss/sys_lseek.c:4
#include <errno.h>
#include <sys/types.h>

off_t _lseek(int file, off_t ptr, int dir) {
2001731c:	1101                	addi	sp,sp,-32
2001731e:	ce06                	sw	ra,28(sp)
20017320:	cc22                	sw	s0,24(sp)
20017322:	1000                	addi	s0,sp,32
20017324:	fea42623          	sw	a0,-20(s0)
20017328:	feb42423          	sw	a1,-24(s0)
2001732c:	fec42223          	sw	a2,-28(s0)
C:/Users/nandg/Desktop/Athena_Welcome_Demo/sifive_hifive1_revb_sifive_welcome/freedom-metal/gloss/sys_lseek.c:5
    errno = ENOSYS;
20017330:	220d                	jal	20017452 <__errno>
20017332:	872a                	mv	a4,a0
20017334:	05800793          	li	a5,88
20017338:	c31c                	sw	a5,0(a4)
C:/Users/nandg/Desktop/Athena_Welcome_Demo/sifive_hifive1_revb_sifive_welcome/freedom-metal/gloss/sys_lseek.c:6
    return -1;
2001733a:	57fd                	li	a5,-1
C:/Users/nandg/Desktop/Athena_Welcome_Demo/sifive_hifive1_revb_sifive_welcome/freedom-metal/gloss/sys_lseek.c:7
}
2001733c:	853e                	mv	a0,a5
2001733e:	40f2                	lw	ra,28(sp)
20017340:	4462                	lw	s0,24(sp)
20017342:	6105                	addi	sp,sp,32
20017344:	8082                	ret

20017346 <_read>:
_read():
C:/Users/nandg/Desktop/Athena_Welcome_Demo/sifive_hifive1_revb_sifive_welcome/freedom-metal/gloss/sys_read.c:4
#include <errno.h>
#include <sys/types.h>

ssize_t _read(int file, void *ptr, size_t len) {
20017346:	1101                	addi	sp,sp,-32
20017348:	ce06                	sw	ra,28(sp)
2001734a:	cc22                	sw	s0,24(sp)
2001734c:	1000                	addi	s0,sp,32
2001734e:	fea42623          	sw	a0,-20(s0)
20017352:	feb42423          	sw	a1,-24(s0)
20017356:	fec42223          	sw	a2,-28(s0)
C:/Users/nandg/Desktop/Athena_Welcome_Demo/sifive_hifive1_revb_sifive_welcome/freedom-metal/gloss/sys_read.c:5
    errno = ENOSYS;
2001735a:	28e5                	jal	20017452 <__errno>
2001735c:	872a                	mv	a4,a0
2001735e:	05800793          	li	a5,88
20017362:	c31c                	sw	a5,0(a4)
C:/Users/nandg/Desktop/Athena_Welcome_Demo/sifive_hifive1_revb_sifive_welcome/freedom-metal/gloss/sys_read.c:6
    return -1;
20017364:	57fd                	li	a5,-1
C:/Users/nandg/Desktop/Athena_Welcome_Demo/sifive_hifive1_revb_sifive_welcome/freedom-metal/gloss/sys_read.c:7
}
20017366:	853e                	mv	a0,a5
20017368:	40f2                	lw	ra,28(sp)
2001736a:	4462                	lw	s0,24(sp)
2001736c:	6105                	addi	sp,sp,32
2001736e:	8082                	ret

20017370 <_sbrk>:
_sbrk():
C:/Users/nandg/Desktop/Athena_Welcome_Demo/sifive_hifive1_revb_sifive_welcome/freedom-metal/gloss/sys_sbrk.c:24
int _brk(void *addr) {
    __brk = addr;
    return 0;
}

char *_sbrk(ptrdiff_t incr) {
20017370:	7179                	addi	sp,sp,-48
20017372:	d606                	sw	ra,44(sp)
20017374:	d422                	sw	s0,40(sp)
20017376:	1800                	addi	s0,sp,48
20017378:	fca42e23          	sw	a0,-36(s0)
C:/Users/nandg/Desktop/Athena_Welcome_Demo/sifive_hifive1_revb_sifive_welcome/freedom-metal/gloss/sys_sbrk.c:25
    char *old = __brk;
2001737c:	82c1a783          	lw	a5,-2004(gp) # 80000adc <__brk>
20017380:	fef42623          	sw	a5,-20(s0)
C:/Users/nandg/Desktop/Athena_Welcome_Demo/sifive_hifive1_revb_sifive_welcome/freedom-metal/gloss/sys_sbrk.c:28

    /* If __heap_size == 0, we can't allocate memory on the heap */
    if (&metal_segment_heap_target_start == &metal_segment_heap_target_end) {
20017384:	cf018713          	addi	a4,gp,-784 # 80000fa0 <_sp>
20017388:	4f018793          	addi	a5,gp,1264 # 800017a0 <metal_segment_heap_target_end>
2001738c:	00f71463          	bne	a4,a5,20017394 <_sbrk+0x24>
C:/Users/nandg/Desktop/Athena_Welcome_Demo/sifive_hifive1_revb_sifive_welcome/freedom-metal/gloss/sys_sbrk.c:29
        return (void *)-1;
20017390:	57fd                	li	a5,-1
20017392:	a83d                	j	200173d0 <_sbrk+0x60>
C:/Users/nandg/Desktop/Athena_Welcome_Demo/sifive_hifive1_revb_sifive_welcome/freedom-metal/gloss/sys_sbrk.c:33
    }

    /* Don't move the break past the end of the heap */
    if ((__brk + incr) < &metal_segment_heap_target_end) {
20017394:	82c1a703          	lw	a4,-2004(gp) # 80000adc <__brk>
20017398:	fdc42783          	lw	a5,-36(s0)
2001739c:	973e                	add	a4,a4,a5
2001739e:	4f018793          	addi	a5,gp,1264 # 800017a0 <metal_segment_heap_target_end>
200173a2:	02f77263          	bgeu	a4,a5,200173c6 <_sbrk+0x56>
C:/Users/nandg/Desktop/Athena_Welcome_Demo/sifive_hifive1_revb_sifive_welcome/freedom-metal/gloss/sys_sbrk.c:34
        __brk += incr;
200173a6:	82c1a703          	lw	a4,-2004(gp) # 80000adc <__brk>
200173aa:	fdc42783          	lw	a5,-36(s0)
200173ae:	973e                	add	a4,a4,a5
200173b0:	82e1a623          	sw	a4,-2004(gp) # 80000adc <__brk>
C:/Users/nandg/Desktop/Athena_Welcome_Demo/sifive_hifive1_revb_sifive_welcome/freedom-metal/gloss/sys_sbrk.c:40
    } else {
        __brk = &metal_segment_heap_target_end;
        return (void *)-1;
    }
    /* Scrub out allocated memory to avoid spurious ECC errors */
    metal_mem_scrub(old, incr);
200173b4:	fdc42583          	lw	a1,-36(s0)
200173b8:	fec42503          	lw	a0,-20(s0)
200173bc:	ccff80ef          	jal	ra,2001008a <metal_mem_scrub>
C:/Users/nandg/Desktop/Athena_Welcome_Demo/sifive_hifive1_revb_sifive_welcome/freedom-metal/gloss/sys_sbrk.c:42

    return old;
200173c0:	fec42783          	lw	a5,-20(s0)
200173c4:	a031                	j	200173d0 <_sbrk+0x60>
C:/Users/nandg/Desktop/Athena_Welcome_Demo/sifive_hifive1_revb_sifive_welcome/freedom-metal/gloss/sys_sbrk.c:36
        __brk = &metal_segment_heap_target_end;
200173c6:	4f018713          	addi	a4,gp,1264 # 800017a0 <metal_segment_heap_target_end>
200173ca:	82e1a623          	sw	a4,-2004(gp) # 80000adc <__brk>
C:/Users/nandg/Desktop/Athena_Welcome_Demo/sifive_hifive1_revb_sifive_welcome/freedom-metal/gloss/sys_sbrk.c:37
        return (void *)-1;
200173ce:	57fd                	li	a5,-1
C:/Users/nandg/Desktop/Athena_Welcome_Demo/sifive_hifive1_revb_sifive_welcome/freedom-metal/gloss/sys_sbrk.c:43
}
200173d0:	853e                	mv	a0,a5
200173d2:	50b2                	lw	ra,44(sp)
200173d4:	5422                	lw	s0,40(sp)
200173d6:	6145                	addi	sp,sp,48
200173d8:	8082                	ret

200173da <_write>:
_write():
C:/Users/nandg/Desktop/Athena_Welcome_Demo/sifive_hifive1_revb_sifive_welcome/freedom-metal/gloss/sys_write.c:7
#include <metal/tty.h>
#include <sys/types.h>
#include <unistd.h>

/* Write to a file.  */
ssize_t _write(int file, const void *ptr, size_t len) {
200173da:	7179                	addi	sp,sp,-48
200173dc:	d606                	sw	ra,44(sp)
200173de:	d422                	sw	s0,40(sp)
200173e0:	1800                	addi	s0,sp,48
200173e2:	fca42e23          	sw	a0,-36(s0)
200173e6:	fcb42c23          	sw	a1,-40(s0)
200173ea:	fcc42a23          	sw	a2,-44(s0)
C:/Users/nandg/Desktop/Athena_Welcome_Demo/sifive_hifive1_revb_sifive_welcome/freedom-metal/gloss/sys_write.c:8
    if (file != STDOUT_FILENO) {
200173ee:	fdc42703          	lw	a4,-36(s0)
200173f2:	4785                	li	a5,1
200173f4:	00f70963          	beq	a4,a5,20017406 <_write+0x2c>
C:/Users/nandg/Desktop/Athena_Welcome_Demo/sifive_hifive1_revb_sifive_welcome/freedom-metal/gloss/sys_write.c:9
        errno = ENOSYS;
200173f8:	28a9                	jal	20017452 <__errno>
200173fa:	872a                	mv	a4,a0
200173fc:	05800793          	li	a5,88
20017400:	c31c                	sw	a5,0(a4)
C:/Users/nandg/Desktop/Athena_Welcome_Demo/sifive_hifive1_revb_sifive_welcome/freedom-metal/gloss/sys_write.c:10
        return -1;
20017402:	57fd                	li	a5,-1
20017404:	a82d                	j	2001743e <_write+0x64>
C:/Users/nandg/Desktop/Athena_Welcome_Demo/sifive_hifive1_revb_sifive_welcome/freedom-metal/gloss/sys_write.c:13
    }

    const char *bptr = ptr;
20017406:	fd842783          	lw	a5,-40(s0)
2001740a:	fef42423          	sw	a5,-24(s0)
C:/Users/nandg/Desktop/Athena_Welcome_Demo/sifive_hifive1_revb_sifive_welcome/freedom-metal/gloss/sys_write.c:14
    for (size_t i = 0; i < len; ++i)
2001740e:	fe042623          	sw	zero,-20(s0)
20017412:	a839                	j	20017430 <_write+0x56>
C:/Users/nandg/Desktop/Athena_Welcome_Demo/sifive_hifive1_revb_sifive_welcome/freedom-metal/gloss/sys_write.c:15 (discriminator 3)
        metal_tty_putc(bptr[i]);
20017414:	fe842703          	lw	a4,-24(s0)
20017418:	fec42783          	lw	a5,-20(s0)
2001741c:	97ba                	add	a5,a5,a4
2001741e:	0007c783          	lbu	a5,0(a5) # 8000 <__heap_size+0x7800>
20017422:	853e                	mv	a0,a5
20017424:	2145                	jal	200178c4 <metal_tty_putc>
C:/Users/nandg/Desktop/Athena_Welcome_Demo/sifive_hifive1_revb_sifive_welcome/freedom-metal/gloss/sys_write.c:14 (discriminator 3)
    for (size_t i = 0; i < len; ++i)
20017426:	fec42783          	lw	a5,-20(s0)
2001742a:	0785                	addi	a5,a5,1
2001742c:	fef42623          	sw	a5,-20(s0)
C:/Users/nandg/Desktop/Athena_Welcome_Demo/sifive_hifive1_revb_sifive_welcome/freedom-metal/gloss/sys_write.c:14 (discriminator 1)
20017430:	fec42703          	lw	a4,-20(s0)
20017434:	fd442783          	lw	a5,-44(s0)
20017438:	fcf76ee3          	bltu	a4,a5,20017414 <_write+0x3a>
C:/Users/nandg/Desktop/Athena_Welcome_Demo/sifive_hifive1_revb_sifive_welcome/freedom-metal/gloss/sys_write.c:16
    return 0;
2001743c:	4781                	li	a5,0
C:/Users/nandg/Desktop/Athena_Welcome_Demo/sifive_hifive1_revb_sifive_welcome/freedom-metal/gloss/sys_write.c:17
}
2001743e:	853e                	mv	a0,a5
20017440:	50b2                	lw	ra,44(sp)
20017442:	5422                	lw	s0,40(sp)
20017444:	6145                	addi	sp,sp,48
20017446:	8082                	ret

20017448 <atexit>:
atexit():
20017448:	85aa                	mv	a1,a0
2001744a:	4681                	li	a3,0
2001744c:	4601                	li	a2,0
2001744e:	4501                	li	a0,0
20017450:	ac11                	j	20017664 <__register_exitproc>

20017452 <__errno>:
__errno():
20017452:	5ffe9517          	auipc	a0,0x5ffe9
20017456:	65e52503          	lw	a0,1630(a0) # 80000ab0 <_impure_ptr>
2001745a:	8082                	ret

2001745c <exit>:
exit():
2001745c:	1141                	addi	sp,sp,-16
2001745e:	c422                	sw	s0,8(sp)
20017460:	c606                	sw	ra,12(sp)
20017462:	00000797          	auipc	a5,0x0
20017466:	27e78793          	addi	a5,a5,638 # 200176e0 <__call_exitprocs>
2001746a:	842a                	mv	s0,a0
2001746c:	c399                	beqz	a5,20017472 <exit+0x16>
2001746e:	4581                	li	a1,0
20017470:	2c85                	jal	200176e0 <__call_exitprocs>
20017472:	ffffa517          	auipc	a0,0xffffa
20017476:	f3e52503          	lw	a0,-194(a0) # 200113b0 <_global_impure_ptr>
2001747a:	551c                	lw	a5,40(a0)
2001747c:	c391                	beqz	a5,20017480 <exit+0x24>
2001747e:	9782                	jalr	a5
20017480:	8522                	mv	a0,s0
20017482:	21ad                	jal	200178ec <_exit>

20017484 <__libc_fini_array>:
__libc_fini_array():
20017484:	1141                	addi	sp,sp,-16
20017486:	c422                	sw	s0,8(sp)
20017488:	c226                	sw	s1,4(sp)
2001748a:	ffff9417          	auipc	s0,0xffff9
2001748e:	e6640413          	addi	s0,s0,-410 # 200102f0 <__fini_array_end>
20017492:	ffff9497          	auipc	s1,0xffff9
20017496:	e5e48493          	addi	s1,s1,-418 # 200102f0 <__fini_array_end>
2001749a:	8c05                	sub	s0,s0,s1
2001749c:	c606                	sw	ra,12(sp)
2001749e:	8409                	srai	s0,s0,0x2
200174a0:	e411                	bnez	s0,200174ac <__libc_fini_array+0x28>
200174a2:	40b2                	lw	ra,12(sp)
200174a4:	4422                	lw	s0,8(sp)
200174a6:	4492                	lw	s1,4(sp)
200174a8:	0141                	addi	sp,sp,16
200174aa:	8082                	ret
200174ac:	147d                	addi	s0,s0,-1
200174ae:	00241793          	slli	a5,s0,0x2
200174b2:	97a6                	add	a5,a5,s1
200174b4:	439c                	lw	a5,0(a5)
200174b6:	9782                	jalr	a5
200174b8:	b7e5                	j	200174a0 <__libc_fini_array+0x1c>

200174ba <__libc_init_array>:
__libc_init_array():
200174ba:	1141                	addi	sp,sp,-16
200174bc:	c422                	sw	s0,8(sp)
200174be:	c226                	sw	s1,4(sp)
200174c0:	ffff9417          	auipc	s0,0xffff9
200174c4:	e2040413          	addi	s0,s0,-480 # 200102e0 <_metal_sifive_fe310_g000_pll_init_ptr>
200174c8:	ffff9497          	auipc	s1,0xffff9
200174cc:	e1848493          	addi	s1,s1,-488 # 200102e0 <_metal_sifive_fe310_g000_pll_init_ptr>
200174d0:	8c81                	sub	s1,s1,s0
200174d2:	c04a                	sw	s2,0(sp)
200174d4:	c606                	sw	ra,12(sp)
200174d6:	8489                	srai	s1,s1,0x2
200174d8:	4901                	li	s2,0
200174da:	02991563          	bne	s2,s1,20017504 <__libc_init_array+0x4a>
200174de:	ffff9417          	auipc	s0,0xffff9
200174e2:	e0240413          	addi	s0,s0,-510 # 200102e0 <_metal_sifive_fe310_g000_pll_init_ptr>
200174e6:	ffff9497          	auipc	s1,0xffff9
200174ea:	dfa48493          	addi	s1,s1,-518 # 200102e0 <_metal_sifive_fe310_g000_pll_init_ptr>
200174ee:	8c81                	sub	s1,s1,s0
200174f0:	8489                	srai	s1,s1,0x2
200174f2:	4901                	li	s2,0
200174f4:	00991d63          	bne	s2,s1,2001750e <__libc_init_array+0x54>
200174f8:	40b2                	lw	ra,12(sp)
200174fa:	4422                	lw	s0,8(sp)
200174fc:	4492                	lw	s1,4(sp)
200174fe:	4902                	lw	s2,0(sp)
20017500:	0141                	addi	sp,sp,16
20017502:	8082                	ret
20017504:	401c                	lw	a5,0(s0)
20017506:	0905                	addi	s2,s2,1
20017508:	0411                	addi	s0,s0,4
2001750a:	9782                	jalr	a5
2001750c:	b7f9                	j	200174da <__libc_init_array+0x20>
2001750e:	401c                	lw	a5,0(s0)
20017510:	0905                	addi	s2,s2,1
20017512:	0411                	addi	s0,s0,4
20017514:	9782                	jalr	a5
20017516:	bff9                	j	200174f4 <__libc_init_array+0x3a>

20017518 <strcat>:
strcat():
20017518:	87aa                	mv	a5,a0
2001751a:	0007c683          	lbu	a3,0(a5)
2001751e:	873e                	mv	a4,a5
20017520:	0785                	addi	a5,a5,1
20017522:	fee5                	bnez	a3,2001751a <strcat+0x2>
20017524:	0005c783          	lbu	a5,0(a1)
20017528:	0585                	addi	a1,a1,1
2001752a:	0705                	addi	a4,a4,1
2001752c:	fef70fa3          	sb	a5,-1(a4)
20017530:	fbf5                	bnez	a5,20017524 <strcat+0xc>
20017532:	8082                	ret

20017534 <strcmp>:
strcmp():
20017534:	00b56733          	or	a4,a0,a1
20017538:	53fd                	li	t2,-1
2001753a:	8b0d                	andi	a4,a4,3
2001753c:	e779                	bnez	a4,2001760a <strcmp+0xd6>
2001753e:	7f7f87b7          	lui	a5,0x7f7f8
20017542:	f7f78793          	addi	a5,a5,-129 # 7f7f7f7f <metal_segment_data_source_start+0x5f7e067f>
20017546:	4110                	lw	a2,0(a0)
20017548:	4194                	lw	a3,0(a1)
2001754a:	00f672b3          	and	t0,a2,a5
2001754e:	00f66333          	or	t1,a2,a5
20017552:	92be                	add	t0,t0,a5
20017554:	0062e2b3          	or	t0,t0,t1
20017558:	0c729763          	bne	t0,t2,20017626 <strcmp+0xf2>
2001755c:	06d61863          	bne	a2,a3,200175cc <strcmp+0x98>
20017560:	4150                	lw	a2,4(a0)
20017562:	41d4                	lw	a3,4(a1)
20017564:	00f672b3          	and	t0,a2,a5
20017568:	00f66333          	or	t1,a2,a5
2001756c:	92be                	add	t0,t0,a5
2001756e:	0062e2b3          	or	t0,t0,t1
20017572:	0a729863          	bne	t0,t2,20017622 <strcmp+0xee>
20017576:	04d61b63          	bne	a2,a3,200175cc <strcmp+0x98>
2001757a:	4510                	lw	a2,8(a0)
2001757c:	4594                	lw	a3,8(a1)
2001757e:	00f672b3          	and	t0,a2,a5
20017582:	00f66333          	or	t1,a2,a5
20017586:	92be                	add	t0,t0,a5
20017588:	0062e2b3          	or	t0,t0,t1
2001758c:	0a729163          	bne	t0,t2,2001762e <strcmp+0xfa>
20017590:	02d61e63          	bne	a2,a3,200175cc <strcmp+0x98>
20017594:	4550                	lw	a2,12(a0)
20017596:	45d4                	lw	a3,12(a1)
20017598:	00f672b3          	and	t0,a2,a5
2001759c:	00f66333          	or	t1,a2,a5
200175a0:	92be                	add	t0,t0,a5
200175a2:	0062e2b3          	or	t0,t0,t1
200175a6:	08729a63          	bne	t0,t2,2001763a <strcmp+0x106>
200175aa:	02d61163          	bne	a2,a3,200175cc <strcmp+0x98>
200175ae:	4910                	lw	a2,16(a0)
200175b0:	4994                	lw	a3,16(a1)
200175b2:	00f672b3          	and	t0,a2,a5
200175b6:	00f66333          	or	t1,a2,a5
200175ba:	92be                	add	t0,t0,a5
200175bc:	0062e2b3          	or	t0,t0,t1
200175c0:	08729363          	bne	t0,t2,20017646 <strcmp+0x112>
200175c4:	0551                	addi	a0,a0,20
200175c6:	05d1                	addi	a1,a1,20
200175c8:	f6d60fe3          	beq	a2,a3,20017546 <strcmp+0x12>
200175cc:	01061713          	slli	a4,a2,0x10
200175d0:	01069793          	slli	a5,a3,0x10
200175d4:	00f71c63          	bne	a4,a5,200175ec <strcmp+0xb8>
200175d8:	01065713          	srli	a4,a2,0x10
200175dc:	0106d793          	srli	a5,a3,0x10
200175e0:	40f70533          	sub	a0,a4,a5
200175e4:	0ff57593          	zext.b	a1,a0
200175e8:	e991                	bnez	a1,200175fc <strcmp+0xc8>
200175ea:	8082                	ret
200175ec:	8341                	srli	a4,a4,0x10
200175ee:	83c1                	srli	a5,a5,0x10
200175f0:	40f70533          	sub	a0,a4,a5
200175f4:	0ff57593          	zext.b	a1,a0
200175f8:	e191                	bnez	a1,200175fc <strcmp+0xc8>
200175fa:	8082                	ret
200175fc:	0ff77713          	zext.b	a4,a4
20017600:	0ff7f793          	zext.b	a5,a5
20017604:	40f70533          	sub	a0,a4,a5
20017608:	8082                	ret
2001760a:	00054603          	lbu	a2,0(a0)
2001760e:	0005c683          	lbu	a3,0(a1)
20017612:	0505                	addi	a0,a0,1
20017614:	0585                	addi	a1,a1,1
20017616:	00d61363          	bne	a2,a3,2001761c <strcmp+0xe8>
2001761a:	fa65                	bnez	a2,2001760a <strcmp+0xd6>
2001761c:	40d60533          	sub	a0,a2,a3
20017620:	8082                	ret
20017622:	0511                	addi	a0,a0,4
20017624:	0591                	addi	a1,a1,4
20017626:	fed612e3          	bne	a2,a3,2001760a <strcmp+0xd6>
2001762a:	4501                	li	a0,0
2001762c:	8082                	ret
2001762e:	0521                	addi	a0,a0,8
20017630:	05a1                	addi	a1,a1,8
20017632:	fcd61ce3          	bne	a2,a3,2001760a <strcmp+0xd6>
20017636:	4501                	li	a0,0
20017638:	8082                	ret
2001763a:	0531                	addi	a0,a0,12
2001763c:	05b1                	addi	a1,a1,12
2001763e:	fcd616e3          	bne	a2,a3,2001760a <strcmp+0xd6>
20017642:	4501                	li	a0,0
20017644:	8082                	ret
20017646:	0541                	addi	a0,a0,16
20017648:	05c1                	addi	a1,a1,16
2001764a:	fcd610e3          	bne	a2,a3,2001760a <strcmp+0xd6>
2001764e:	4501                	li	a0,0
20017650:	8082                	ret

20017652 <strcpy>:
strcpy():
20017652:	87aa                	mv	a5,a0
20017654:	0005c703          	lbu	a4,0(a1)
20017658:	0785                	addi	a5,a5,1
2001765a:	0585                	addi	a1,a1,1
2001765c:	fee78fa3          	sb	a4,-1(a5)
20017660:	fb75                	bnez	a4,20017654 <strcpy+0x2>
20017662:	8082                	ret

20017664 <__register_exitproc>:
__register_exitproc():
20017664:	88aa                	mv	a7,a0
20017666:	5ffe9517          	auipc	a0,0x5ffe9
2001766a:	48650513          	addi	a0,a0,1158 # 80000aec <_global_atexit>
2001766e:	411c                	lw	a5,0(a0)
20017670:	ef91                	bnez	a5,2001768c <__register_exitproc+0x28>
20017672:	5ffe9717          	auipc	a4,0x5ffe9
20017676:	48670713          	addi	a4,a4,1158 # 80000af8 <_global_atexit0>
2001767a:	c118                	sw	a4,0(a0)
2001767c:	00000513          	li	a0,0
20017680:	87ba                	mv	a5,a4
20017682:	c509                	beqz	a0,2001768c <__register_exitproc+0x28>
20017684:	411c                	lw	a5,0(a0)
20017686:	08f72423          	sw	a5,136(a4)
2001768a:	87ba                	mv	a5,a4
2001768c:	43d8                	lw	a4,4(a5)
2001768e:	487d                	li	a6,31
20017690:	557d                	li	a0,-1
20017692:	04e84663          	blt	a6,a4,200176de <__register_exitproc+0x7a>
20017696:	02088d63          	beqz	a7,200176d0 <__register_exitproc+0x6c>
2001769a:	0887a803          	lw	a6,136(a5)
2001769e:	04080063          	beqz	a6,200176de <__register_exitproc+0x7a>
200176a2:	00271513          	slli	a0,a4,0x2
200176a6:	9542                	add	a0,a0,a6
200176a8:	c110                	sw	a2,0(a0)
200176aa:	10082303          	lw	t1,256(a6)
200176ae:	4605                	li	a2,1
200176b0:	00e61633          	sll	a2,a2,a4
200176b4:	00c36333          	or	t1,t1,a2
200176b8:	10682023          	sw	t1,256(a6)
200176bc:	08d52023          	sw	a3,128(a0)
200176c0:	4689                	li	a3,2
200176c2:	00d89763          	bne	a7,a3,200176d0 <__register_exitproc+0x6c>
200176c6:	10482683          	lw	a3,260(a6)
200176ca:	8e55                	or	a2,a2,a3
200176cc:	10c82223          	sw	a2,260(a6)
200176d0:	00170693          	addi	a3,a4,1
200176d4:	070a                	slli	a4,a4,0x2
200176d6:	c3d4                	sw	a3,4(a5)
200176d8:	97ba                	add	a5,a5,a4
200176da:	c78c                	sw	a1,8(a5)
200176dc:	4501                	li	a0,0
200176de:	8082                	ret

200176e0 <__call_exitprocs>:
__call_exitprocs():
200176e0:	7179                	addi	sp,sp,-48
200176e2:	ca56                	sw	s5,20(sp)
200176e4:	c85a                	sw	s6,16(sp)
200176e6:	c65e                	sw	s7,12(sp)
200176e8:	c462                	sw	s8,8(sp)
200176ea:	d606                	sw	ra,44(sp)
200176ec:	d422                	sw	s0,40(sp)
200176ee:	d226                	sw	s1,36(sp)
200176f0:	d04a                	sw	s2,32(sp)
200176f2:	ce4e                	sw	s3,28(sp)
200176f4:	cc52                	sw	s4,24(sp)
200176f6:	c266                	sw	s9,4(sp)
200176f8:	8b2a                	mv	s6,a0
200176fa:	8aae                	mv	s5,a1
200176fc:	5ffe9b97          	auipc	s7,0x5ffe9
20017700:	3f0b8b93          	addi	s7,s7,1008 # 80000aec <_global_atexit>
20017704:	4c05                	li	s8,1
20017706:	000ba483          	lw	s1,0(s7)
2001770a:	cc81                	beqz	s1,20017722 <__call_exitprocs+0x42>
2001770c:	40c0                	lw	s0,4(s1)
2001770e:	0884a983          	lw	s3,136(s1)
20017712:	fff40913          	addi	s2,s0,-1
20017716:	040a                	slli	s0,s0,0x2
20017718:	00898a33          	add	s4,s3,s0
2001771c:	9426                	add	s0,s0,s1
2001771e:	00095f63          	bgez	s2,2001773c <__call_exitprocs+0x5c>
20017722:	50b2                	lw	ra,44(sp)
20017724:	5422                	lw	s0,40(sp)
20017726:	5492                	lw	s1,36(sp)
20017728:	5902                	lw	s2,32(sp)
2001772a:	49f2                	lw	s3,28(sp)
2001772c:	4a62                	lw	s4,24(sp)
2001772e:	4ad2                	lw	s5,20(sp)
20017730:	4b42                	lw	s6,16(sp)
20017732:	4bb2                	lw	s7,12(sp)
20017734:	4c22                	lw	s8,8(sp)
20017736:	4c92                	lw	s9,4(sp)
20017738:	6145                	addi	sp,sp,48
2001773a:	8082                	ret
2001773c:	000a8c63          	beqz	s5,20017754 <__call_exitprocs+0x74>
20017740:	00099663          	bnez	s3,2001774c <__call_exitprocs+0x6c>
20017744:	197d                	addi	s2,s2,-1
20017746:	1a71                	addi	s4,s4,-4
20017748:	1471                	addi	s0,s0,-4
2001774a:	bfd1                	j	2001771e <__call_exitprocs+0x3e>
2001774c:	07ca2783          	lw	a5,124(s4)
20017750:	ff579ae3          	bne	a5,s5,20017744 <__call_exitprocs+0x64>
20017754:	40d8                	lw	a4,4(s1)
20017756:	405c                	lw	a5,4(s0)
20017758:	177d                	addi	a4,a4,-1
2001775a:	03271863          	bne	a4,s2,2001778a <__call_exitprocs+0xaa>
2001775e:	0124a223          	sw	s2,4(s1)
20017762:	d3ed                	beqz	a5,20017744 <__call_exitprocs+0x64>
20017764:	0044ac83          	lw	s9,4(s1)
20017768:	00098863          	beqz	s3,20017778 <__call_exitprocs+0x98>
2001776c:	1009a683          	lw	a3,256(s3)
20017770:	012c1733          	sll	a4,s8,s2
20017774:	8ef9                	and	a3,a3,a4
20017776:	ee89                	bnez	a3,20017790 <__call_exitprocs+0xb0>
20017778:	9782                	jalr	a5
2001777a:	40d8                	lw	a4,4(s1)
2001777c:	000ba783          	lw	a5,0(s7)
20017780:	f99713e3          	bne	a4,s9,20017706 <__call_exitprocs+0x26>
20017784:	fcf480e3          	beq	s1,a5,20017744 <__call_exitprocs+0x64>
20017788:	bfbd                	j	20017706 <__call_exitprocs+0x26>
2001778a:	00042223          	sw	zero,4(s0)
2001778e:	bfd1                	j	20017762 <__call_exitprocs+0x82>
20017790:	1049a683          	lw	a3,260(s3)
20017794:	ffca2583          	lw	a1,-4(s4)
20017798:	8f75                	and	a4,a4,a3
2001779a:	e701                	bnez	a4,200177a2 <__call_exitprocs+0xc2>
2001779c:	855a                	mv	a0,s6
2001779e:	9782                	jalr	a5
200177a0:	bfe9                	j	2001777a <__call_exitprocs+0x9a>
200177a2:	852e                	mv	a0,a1
200177a4:	9782                	jalr	a5
200177a6:	bfd1                	j	2001777a <__call_exitprocs+0x9a>

200177a8 <metal_init>:
metal_init():
C:/Users/nandg/Desktop/Athena_Welcome_Demo/sifive_hifive1_revb_sifive_welcome/freedom-metal/src/init.c:17
extern metal_constructor_t metal_constructors_start;
extern metal_constructor_t metal_constructors_end;
extern metal_destructor_t metal_destructors_start;
extern metal_destructor_t metal_destructors_end;

void metal_init(void) {
200177a8:	1101                	addi	sp,sp,-32
200177aa:	ce06                	sw	ra,28(sp)
200177ac:	cc22                	sw	s0,24(sp)
200177ae:	1000                	addi	s0,sp,32
C:/Users/nandg/Desktop/Athena_Welcome_Demo/sifive_hifive1_revb_sifive_welcome/freedom-metal/src/init.c:20
    /* Make sure the constructors only run once */
    static int init_done = 0;
    if (init_done) {
200177b0:	800017b7          	lui	a5,0x80001
200177b4:	af07a783          	lw	a5,-1296(a5) # 80000af0 <metal_segment_heap_target_end+0xfffff350>
200177b8:	efa9                	bnez	a5,20017812 <metal_init+0x6a>
C:/Users/nandg/Desktop/Athena_Welcome_Demo/sifive_hifive1_revb_sifive_welcome/freedom-metal/src/init.c:23
        return;
    }
    init_done = 1;
200177ba:	800017b7          	lui	a5,0x80001
200177be:	4705                	li	a4,1
200177c0:	aee7a823          	sw	a4,-1296(a5) # 80000af0 <metal_segment_heap_target_end+0xfffff350>
C:/Users/nandg/Desktop/Athena_Welcome_Demo/sifive_hifive1_revb_sifive_welcome/freedom-metal/src/init.c:25

    if (&metal_constructors_end <= &metal_constructors_start) {
200177c4:	200107b7          	lui	a5,0x20010
200177c8:	2ec78713          	addi	a4,a5,748 # 200102ec <metal_sifive_fe310_g000_pll_init>
200177cc:	200107b7          	lui	a5,0x20010
200177d0:	2e078793          	addi	a5,a5,736 # 200102e0 <_metal_sifive_fe310_g000_pll_init_ptr>
200177d4:	04e7f163          	bgeu	a5,a4,20017816 <metal_init+0x6e>
C:/Users/nandg/Desktop/Athena_Welcome_Demo/sifive_hifive1_revb_sifive_welcome/freedom-metal/src/init.c:29
        return;
    }

    metal_constructor_t *funcptr = &metal_constructors_start;
200177d8:	200107b7          	lui	a5,0x20010
200177dc:	2e078793          	addi	a5,a5,736 # 200102e0 <_metal_sifive_fe310_g000_pll_init_ptr>
200177e0:	fef42623          	sw	a5,-20(s0)
C:/Users/nandg/Desktop/Athena_Welcome_Demo/sifive_hifive1_revb_sifive_welcome/freedom-metal/src/init.c:30
    while (funcptr != &metal_constructors_end) {
200177e4:	a831                	j	20017800 <metal_init+0x58>
C:/Users/nandg/Desktop/Athena_Welcome_Demo/sifive_hifive1_revb_sifive_welcome/freedom-metal/src/init.c:31
        metal_constructor_t func = *funcptr;
200177e6:	fec42783          	lw	a5,-20(s0)
200177ea:	439c                	lw	a5,0(a5)
200177ec:	fef42423          	sw	a5,-24(s0)
C:/Users/nandg/Desktop/Athena_Welcome_Demo/sifive_hifive1_revb_sifive_welcome/freedom-metal/src/init.c:33

        func();
200177f0:	fe842783          	lw	a5,-24(s0)
200177f4:	9782                	jalr	a5
C:/Users/nandg/Desktop/Athena_Welcome_Demo/sifive_hifive1_revb_sifive_welcome/freedom-metal/src/init.c:35

        funcptr += 1;
200177f6:	fec42783          	lw	a5,-20(s0)
200177fa:	0791                	addi	a5,a5,4
200177fc:	fef42623          	sw	a5,-20(s0)
C:/Users/nandg/Desktop/Athena_Welcome_Demo/sifive_hifive1_revb_sifive_welcome/freedom-metal/src/init.c:30
    while (funcptr != &metal_constructors_end) {
20017800:	fec42703          	lw	a4,-20(s0)
20017804:	200107b7          	lui	a5,0x20010
20017808:	2ec78793          	addi	a5,a5,748 # 200102ec <metal_sifive_fe310_g000_pll_init>
2001780c:	fcf71de3          	bne	a4,a5,200177e6 <metal_init+0x3e>
20017810:	a021                	j	20017818 <metal_init+0x70>
C:/Users/nandg/Desktop/Athena_Welcome_Demo/sifive_hifive1_revb_sifive_welcome/freedom-metal/src/init.c:21
        return;
20017812:	0001                	nop
20017814:	a011                	j	20017818 <metal_init+0x70>
C:/Users/nandg/Desktop/Athena_Welcome_Demo/sifive_hifive1_revb_sifive_welcome/freedom-metal/src/init.c:26
        return;
20017816:	0001                	nop
C:/Users/nandg/Desktop/Athena_Welcome_Demo/sifive_hifive1_revb_sifive_welcome/freedom-metal/src/init.c:37
    }
}
20017818:	40f2                	lw	ra,28(sp)
2001781a:	4462                	lw	s0,24(sp)
2001781c:	6105                	addi	sp,sp,32
2001781e:	8082                	ret

20017820 <metal_fini>:
metal_fini():
C:/Users/nandg/Desktop/Athena_Welcome_Demo/sifive_hifive1_revb_sifive_welcome/freedom-metal/src/init.c:39

void metal_fini(void) {
20017820:	1101                	addi	sp,sp,-32
20017822:	ce06                	sw	ra,28(sp)
20017824:	cc22                	sw	s0,24(sp)
20017826:	1000                	addi	s0,sp,32
C:/Users/nandg/Desktop/Athena_Welcome_Demo/sifive_hifive1_revb_sifive_welcome/freedom-metal/src/init.c:42
    /* Make sure the destructors only run once */
    static int fini_done = 0;
    if (fini_done) {
20017828:	800017b7          	lui	a5,0x80001
2001782c:	af47a783          	lw	a5,-1292(a5) # 80000af4 <metal_segment_heap_target_end+0xfffff354>
20017830:	efa9                	bnez	a5,2001788a <metal_fini+0x6a>
C:/Users/nandg/Desktop/Athena_Welcome_Demo/sifive_hifive1_revb_sifive_welcome/freedom-metal/src/init.c:45
        return;
    }
    fini_done = 1;
20017832:	800017b7          	lui	a5,0x80001
20017836:	4705                	li	a4,1
20017838:	aee7aa23          	sw	a4,-1292(a5) # 80000af4 <metal_segment_heap_target_end+0xfffff354>
C:/Users/nandg/Desktop/Athena_Welcome_Demo/sifive_hifive1_revb_sifive_welcome/freedom-metal/src/init.c:47

    if (&metal_destructors_end <= &metal_destructors_start) {
2001783c:	200107b7          	lui	a5,0x20010
20017840:	2f078713          	addi	a4,a5,752 # 200102f0 <__fini_array_end>
20017844:	200107b7          	lui	a5,0x20010
20017848:	2f078793          	addi	a5,a5,752 # 200102f0 <__fini_array_end>
2001784c:	04e7f163          	bgeu	a5,a4,2001788e <metal_fini+0x6e>
C:/Users/nandg/Desktop/Athena_Welcome_Demo/sifive_hifive1_revb_sifive_welcome/freedom-metal/src/init.c:51
        return;
    }

    metal_destructor_t *funcptr = &metal_destructors_start;
20017850:	200107b7          	lui	a5,0x20010
20017854:	2f078793          	addi	a5,a5,752 # 200102f0 <__fini_array_end>
20017858:	fef42623          	sw	a5,-20(s0)
C:/Users/nandg/Desktop/Athena_Welcome_Demo/sifive_hifive1_revb_sifive_welcome/freedom-metal/src/init.c:52
    while (funcptr != &metal_destructors_end) {
2001785c:	a831                	j	20017878 <metal_fini+0x58>
C:/Users/nandg/Desktop/Athena_Welcome_Demo/sifive_hifive1_revb_sifive_welcome/freedom-metal/src/init.c:53
        metal_destructor_t func = *funcptr;
2001785e:	fec42783          	lw	a5,-20(s0)
20017862:	439c                	lw	a5,0(a5)
20017864:	fef42423          	sw	a5,-24(s0)
C:/Users/nandg/Desktop/Athena_Welcome_Demo/sifive_hifive1_revb_sifive_welcome/freedom-metal/src/init.c:55

        func();
20017868:	fe842783          	lw	a5,-24(s0)
2001786c:	9782                	jalr	a5
C:/Users/nandg/Desktop/Athena_Welcome_Demo/sifive_hifive1_revb_sifive_welcome/freedom-metal/src/init.c:57

        funcptr += 1;
2001786e:	fec42783          	lw	a5,-20(s0)
20017872:	0791                	addi	a5,a5,4
20017874:	fef42623          	sw	a5,-20(s0)
C:/Users/nandg/Desktop/Athena_Welcome_Demo/sifive_hifive1_revb_sifive_welcome/freedom-metal/src/init.c:52
    while (funcptr != &metal_destructors_end) {
20017878:	fec42703          	lw	a4,-20(s0)
2001787c:	200107b7          	lui	a5,0x20010
20017880:	2f078793          	addi	a5,a5,752 # 200102f0 <__fini_array_end>
20017884:	fcf71de3          	bne	a4,a5,2001785e <metal_fini+0x3e>
20017888:	a021                	j	20017890 <metal_fini+0x70>
C:/Users/nandg/Desktop/Athena_Welcome_Demo/sifive_hifive1_revb_sifive_welcome/freedom-metal/src/init.c:43
        return;
2001788a:	0001                	nop
2001788c:	a011                	j	20017890 <metal_fini+0x70>
C:/Users/nandg/Desktop/Athena_Welcome_Demo/sifive_hifive1_revb_sifive_welcome/freedom-metal/src/init.c:48
        return;
2001788e:	0001                	nop
C:/Users/nandg/Desktop/Athena_Welcome_Demo/sifive_hifive1_revb_sifive_welcome/freedom-metal/src/init.c:59
    }
}
20017890:	40f2                	lw	ra,28(sp)
20017892:	4462                	lw	s0,24(sp)
20017894:	6105                	addi	sp,sp,32
20017896:	8082                	ret

20017898 <metal_init_run>:
metal_init_run():
C:/Users/nandg/Desktop/Athena_Welcome_Demo/sifive_hifive1_revb_sifive_welcome/freedom-metal/src/init.c:69
 * in the case that users don't want the metal constructors or
 * destructors to run.
 */

void metal_init_run(void) __attribute__((weak));
void metal_init_run(void) { metal_init(); }
20017898:	1141                	addi	sp,sp,-16
2001789a:	c606                	sw	ra,12(sp)
2001789c:	c422                	sw	s0,8(sp)
2001789e:	0800                	addi	s0,sp,16
200178a0:	f09ff0ef          	jal	ra,200177a8 <metal_init>
200178a4:	0001                	nop
200178a6:	40b2                	lw	ra,12(sp)
200178a8:	4422                	lw	s0,8(sp)
200178aa:	0141                	addi	sp,sp,16
200178ac:	8082                	ret

200178ae <metal_fini_run>:
metal_fini_run():
C:/Users/nandg/Desktop/Athena_Welcome_Demo/sifive_hifive1_revb_sifive_welcome/freedom-metal/src/init.c:72

void metal_fini_run(void) __attribute__((weak));
void metal_fini_run(void) { metal_fini(); }
200178ae:	1141                	addi	sp,sp,-16
200178b0:	c606                	sw	ra,12(sp)
200178b2:	c422                	sw	s0,8(sp)
200178b4:	0800                	addi	s0,sp,16
200178b6:	f6bff0ef          	jal	ra,20017820 <metal_fini>
200178ba:	0001                	nop
200178bc:	40b2                	lw	ra,12(sp)
200178be:	4422                	lw	s0,8(sp)
200178c0:	0141                	addi	sp,sp,16
200178c2:	8082                	ret

200178c4 <metal_tty_putc>:
metal_tty_putc():
C:/Users/nandg/Desktop/Athena_Welcome_Demo/sifive_hifive1_revb_sifive_welcome/freedom-metal/src/tty.c:12
int metal_tty_putc(int c) {
200178c4:	1101                	addi	sp,sp,-32
200178c6:	ce06                	sw	ra,28(sp)
200178c8:	cc22                	sw	s0,24(sp)
200178ca:	1000                	addi	s0,sp,32
200178cc:	fea42623          	sw	a0,-20(s0)
C:/Users/nandg/Desktop/Athena_Welcome_Demo/sifive_hifive1_revb_sifive_welcome/freedom-metal/src/tty.c:13
    return metal_uart_putc(__METAL_DT_STDOUT_UART_HANDLE, c);
200178d0:	fec42583          	lw	a1,-20(s0)
200178d4:	800017b7          	lui	a5,0x80001
200178d8:	a4878513          	addi	a0,a5,-1464 # 80000a48 <metal_segment_heap_target_end+0xfffff2a8>
200178dc:	fd6ff0ef          	jal	ra,200170b2 <metal_uart_putc>
200178e0:	87aa                	mv	a5,a0
C:/Users/nandg/Desktop/Athena_Welcome_Demo/sifive_hifive1_revb_sifive_welcome/freedom-metal/src/tty.c:14
}
200178e2:	853e                	mv	a0,a5
200178e4:	40f2                	lw	ra,28(sp)
200178e6:	4462                	lw	s0,24(sp)
200178e8:	6105                	addi	sp,sp,32
200178ea:	8082                	ret

200178ec <_exit>:
_exit():
C:/Users/nandg/Desktop/Athena_Welcome_Demo/sifive_hifive1_revb_sifive_welcome/freedom-metal/gloss/sys_exit.c:3
#include <metal/shutdown.h>

void _exit(int exit_status) {
200178ec:	1101                	addi	sp,sp,-32
200178ee:	ce06                	sw	ra,28(sp)
200178f0:	cc22                	sw	s0,24(sp)
200178f2:	1000                	addi	s0,sp,32
200178f4:	fea42623          	sw	a0,-20(s0)
C:/Users/nandg/Desktop/Athena_Welcome_Demo/sifive_hifive1_revb_sifive_welcome/freedom-metal/gloss/sys_exit.c:4
    metal_shutdown(exit_status);
200178f8:	fec42503          	lw	a0,-20(s0)
200178fc:	f7cff0ef          	jal	ra,20017078 <metal_shutdown>
